(dp0
S'tuned_train'
p1
(lp2
cnumpy.core.multiarray
scalar
p3
(cnumpy
dtype
p4
(S'f8'
p5
I0
I1
tp6
Rp7
(I3
S'<'
p8
NNNI-1
I-1
I0
tp9
bS'\xbe\xb3\xa9\x03\x11)\xd4?'
p10
tp11
Rp12
ag3
(g7
S'@\x16=\x02\x95\xee\xd4?'
p13
tp14
Rp15
asS'tuned_dec'
p16
(lp17
F0.2815402763920264
aF0.9847416050833766
as.