(dp0
S'K_all3.csv'
p1
(dp2
S'machine'
p3
(dp4
S'count'
p5
I846
sS'truepos'
p6
I34
sS'falseneg'
p7
I7
sS'correction'
p8
I8
sS'unknownyes'
p9
I4
sS'falsepos'
p10
I4
sS'unique'
p11
I470
ssS'knee'
p12
(dp13
g5
I1259
sg6
I37
sg7
I7
sg8
I7
sg9
I1
sg10
I13
sg11
I890
ssS'none'
p14
(dp15
g5
I650
sg6
I29
sg7
I11
sg8
I0
sg9
I5
sg10
I3
sg11
I650
ssS'three'
p16
(dp17
g5
I1183
sg6
I31
sg7
I10
sg8
I19
sg9
I4
sg10
I1
sg11
I580
sssS'Wahono.csv'
p18
(dp19
g3
(dp20
g5
I1935
sg6
I46
sg7
I14
sg8
I12
sg9
I2
sg10
I3
sg11
I1330
ssg12
(dp21
g5
I1051
sg6
I47
sg7
I8
sg8
I9
sg9
I7
sg10
I4
sg11
I790
ssg14
(dp22
g5
I1220
sg6
I39
sg7
I21
sg8
I0
sg9
I2
sg10
I0
sg11
I1220
ssg16
(dp23
g5
I2546
sg6
I45
sg7
I14
sg8
I25
sg9
I3
sg10
I0
sg11
I1260
sssS'Hall.csv'
p24
(dp25
g3
(dp26
g5
I961
sg6
I94
sg7
I8
sg8
I25
sg9
I2
sg10
I1
sg11
I590
ssg12
(dp27
g5
I709
sg6
I87
sg7
I15
sg8
I15
sg9
I2
sg10
I0
sg11
I560
ssg14
(dp28
g5
I790
sg6
I74
sg7
I29
sg8
I0
sg9
I1
sg10
I3
sg11
I790
ssg16
(dp29
g5
I1342
sg6
I80
sg7
I22
sg8
I37
sg9
I2
sg10
I0
sg11
I650
sssS'Danijel.csv'
p30
(dp31
g3
(dp32
g5
I1096
sg6
I36
sg7
I8
sg8
I9
sg9
I4
sg10
I3
sg11
I700
ssg12
(dp33
g5
I36
sg6
I4
sg7
I1
sg8
I0
sg9
I43
sg10
I0
sg11
I30
ssg14
(dp34
g5
I1080
sg6
I39
sg7
I7
sg8
I0
sg9
I2
sg10
I4
sg11
I1080
ssg16
(dp35
g5
I2101
sg6
I36
sg7
I10
sg8
I16
sg9
I2
sg10
I0
sg11
I1040
sss.(dp0
S'K_all3.csv'
p1
(dp2
S'machine'
p3
(dp4
S'count'
p5
I772
sS'truepos'
p6
I31
sS'falseneg'
p7
I5
sS'correction'
p8
I7
sS'unknownyes'
p9
I9
sS'falsepos'
p10
I8
sS'unique'
p11
I420
ssS'knee'
p12
(dp13
g5
I1021
sg6
I39
sg7
I3
sg8
I10
sg9
I3
sg10
I6
sg11
I660
ssS'none'
p14
(dp15
g5
I590
sg6
I34
sg7
I7
sg8
I0
sg9
I4
sg10
I2
sg11
I590
ssS'three'
p16
(dp17
g5
I1335
sg6
I33
sg7
I8
sg8
I32
sg9
I4
sg10
I0
sg11
I650
sssS'Wahono.csv'
p18
(dp19
g3
(dp20
g5
I1882
sg6
I53
sg7
I6
sg8
I15
sg9
I3
sg10
I0
sg11
I1280
ssg12
(dp21
g5
I248
sg6
I22
sg7
I2
sg8
I6
sg9
I38
sg10
I2
sg11
I190
ssg14
(dp22
g5
I1350
sg6
I42
sg7
I18
sg8
I0
sg9
I2
sg10
I3
sg11
I1350
ssg16
(dp23
g5
I2955
sg6
I51
sg7
I9
sg8
I32
sg9
I2
sg10
I0
sg11
I1460
sssS'Hall.csv'
p24
(dp25
g3
(dp26
g5
I864
sg6
I94
sg7
I8
sg8
I28
sg9
I2
sg10
I0
sg11
I520
ssg12
(dp27
g5
I583
sg6
I85
sg7
I16
sg8
I19
sg9
I3
sg10
I0
sg11
I400
ssg14
(dp28
g5
I1160
sg6
I72
sg7
I31
sg8
I0
sg9
I1
sg10
I6
sg11
I1160
ssg16
(dp29
g5
I1113
sg6
I77
sg7
I25
sg8
I45
sg9
I2
sg10
I0
sg11
I530
sssS'Danijel.csv'
p30
(dp31
g3
(dp32
g5
I1278
sg6
I39
sg7
I7
sg8
I14
sg9
I2
sg10
I2
sg11
I830
ssg12
(dp33
g5
I447
sg6
I33
sg7
I5
sg8
I7
sg9
I10
sg10
I1
sg11
I300
ssg14
(dp34
g5
I1170
sg6
I31
sg7
I15
sg8
I0
sg9
I2
sg10
I1
sg11
I1170
ssg16
(dp35
g5
I2407
sg6
I32
sg7
I14
sg8
I21
sg9
I2
sg10
I0
sg11
I1190
sss.(dp0
S'K_all3.csv'
p1
(dp2
S'machine'
p3
(dp4
S'count'
p5
I768
sS'truepos'
p6
I33
sS'falseneg'
p7
I3
sS'correction'
p8
I6
sS'unknownyes'
p9
I9
sS'falsepos'
p10
I8
sS'unique'
p11
I430
ssS'knee'
p12
(dp13
g5
I972
sg6
I39
sg7
I4
sg8
I8
sg9
I2
sg10
I9
sg11
I660
ssS'none'
p14
(dp15
g5
I610
sg6
I26
sg7
I14
sg8
I0
sg9
I5
sg10
I8
sg11
I610
ssS'three'
p16
(dp17
g5
I1228
sg6
I31
sg7
I8
sg8
I24
sg9
I6
sg10
I0
sg11
I600
sssS'Wahono.csv'
p18
(dp19
g3
(dp20
g5
I1884
sg6
I50
sg7
I9
sg8
I21
sg9
I3
sg10
I0
sg11
I1240
ssg12
(dp21
g5
I262
sg6
I22
sg7
I4
sg8
I4
sg9
I36
sg10
I0
sg11
I180
ssg14
(dp22
g5
I1420
sg6
I40
sg7
I18
sg8
I0
sg9
I4
sg10
I5
sg11
I1420
ssg16
(dp23
g5
I3235
sg6
I47
sg7
I13
sg8
I33
sg9
I2
sg10
I0
sg11
I1600
sssS'Hall.csv'
p24
(dp25
g3
(dp26
g5
I736
sg6
I94
sg7
I8
sg8
I23
sg9
I2
sg10
I1
sg11
I450
ssg12
(dp27
g5
I687
sg6
I87
sg7
I15
sg8
I21
sg9
I2
sg10
I0
sg11
I500
ssg14
(dp28
g5
I870
sg6
I74
sg7
I28
sg8
I0
sg9
I2
sg10
I5
sg11
I870
ssg16
(dp29
g5
I1347
sg6
I79
sg7
I23
sg8
I40
sg9
I2
sg10
I0
sg11
I650
sssS'Danijel.csv'
p30
(dp31
g3
(dp32
g5
I1144
sg6
I40
sg7
I6
sg8
I13
sg9
I2
sg10
I1
sg11
I690
ssg12
(dp33
g5
I48
sg6
I4
sg7
I0
sg8
I2
sg9
I44
sg10
I0
sg11
I40
ssg14
(dp34
g5
I1410
sg6
I28
sg7
I18
sg8
I0
sg9
I2
sg10
I6
sg11
I1410
ssg16
(dp35
g5
I2583
sg6
I35
sg7
I11
sg8
I21
sg9
I2
sg10
I0
sg11
I1280
sss.(dp0
S'K_all3.csv'
p1
(dp2
S'machine'
p3
(dp4
S'count'
p5
I801
sS'truepos'
p6
I31
sS'falseneg'
p7
I6
sS'correction'
p8
I6
sS'unknownyes'
p9
I8
sS'falsepos'
p10
I7
sS'unique'
p11
I450
ssS'knee'
p12
(dp13
g5
I185
sg6
I17
sg7
I3
sg8
I3
sg9
I25
sg10
I2
sg11
I120
ssS'none'
p14
(dp15
g5
I790
sg6
I29
sg7
I15
sg8
I0
sg9
I1
sg10
I9
sg11
I790
ssS'three'
p16
(dp17
g5
I1060
sg6
I33
sg7
I6
sg8
I19
sg9
I6
sg10
I0
sg11
I520
sssS'Wahono.csv'
p18
(dp19
g3
(dp20
g5
I1948
sg6
I49
sg7
I10
sg8
I21
sg9
I3
sg10
I1
sg11
I1310
ssg12
(dp21
g5
I376
sg6
I24
sg7
I5
sg8
I6
sg9
I33
sg10
I1
sg11
I270
ssg14
(dp22
g5
I1580
sg6
I44
sg7
I16
sg8
I0
sg9
I2
sg10
I5
sg11
I1580
ssg16
(dp23
g5
I2675
sg6
I45
sg7
I14
sg8
I33
sg9
I3
sg10
I0
sg11
I1320
sssS'Hall.csv'
p24
(dp25
g3
(dp26
g5
I990
sg6
I91
sg7
I11
sg8
I31
sg9
I2
sg10
I0
sg11
I610
ssg12
(dp27
g5
I748
sg6
I83
sg7
I19
sg8
I23
sg9
I2
sg10
I1
sg11
I530
ssg14
(dp28
g5
I1410
sg6
I65
sg7
I38
sg8
I0
sg9
I1
sg10
I3
sg11
I1410
ssg16
(dp29
g5
I1243
sg6
I84
sg7
I18
sg8
I38
sg9
I2
sg10
I0
sg11
I600
sssS'Danijel.csv'
p30
(dp31
g3
(dp32
g5
I1312
sg6
I39
sg7
I7
sg8
I10
sg9
I2
sg10
I1
sg11
I850
ssg12
(dp33
g5
I544
sg6
I29
sg7
I9
sg8
I6
sg9
I10
sg10
I1
sg11
I400
ssg14
(dp34
g5
I1120
sg6
I34
sg7
I12
sg8
I0
sg9
I2
sg10
I3
sg11
I1120
ssg16
(dp35
g5
I2142
sg6
I36
sg7
I10
sg8
I19
sg9
I2
sg10
I0
sg11
I1060
sss.(dp0
S'K_all3.csv'
p1
(dp2
S'machine'
p3
(dp4
S'count'
p5
I757
sS'truepos'
p6
I33
sS'falseneg'
p7
I4
sS'correction'
p8
I8
sS'unknownyes'
p9
I8
sS'falsepos'
p10
I6
sS'unique'
p11
I410
ssS'knee'
p12
(dp13
g5
I624
sg6
I33
sg7
I6
sg8
I10
sg9
I6
sg10
I3
sg11
I490
ssS'none'
p14
(dp15
g5
I720
sg6
I29
sg7
I12
sg8
I0
sg9
I4
sg10
I3
sg11
I720
ssS'three'
p16
(dp17
g5
I1064
sg6
I31
sg7
I9
sg8
I21
sg9
I5
sg10
I0
sg11
I520
sssS'Wahono.csv'
p18
(dp19
g3
(dp20
g5
I1847
sg6
I51
sg7
I9
sg8
I18
sg9
I2
sg10
I2
sg11
I1210
ssg12
(dp21
g5
I739
sg6
I43
sg7
I7
sg8
I7
sg9
I12
sg10
I2
sg11
I500
ssg14
(dp22
g5
I1730
sg6
I40
sg7
I22
sg8
I0
sg9
I0
sg10
I3
sg11
I1730
ssg16
(dp23
g5
I2529
sg6
I51
sg7
I8
sg8
I27
sg9
I3
sg10
I0
sg11
I1250
sssS'Hall.csv'
p24
(dp25
g3
(dp26
g5
I847
sg6
I97
sg7
I5
sg8
I27
sg9
I2
sg10
I2
sg11
I510
ssg12
(dp27
g5
I716
sg6
I77
sg7
I24
sg8
I16
sg9
I3
sg10
I0
sg11
I570
ssg14
(dp28
g5
I650
sg6
I82
sg7
I20
sg8
I0
sg9
I2
sg10
I1
sg11
I650
ssg16
(dp29
g5
I1639
sg6
I83
sg7
I19
sg8
I31
sg9
I2
sg10
I0
sg11
I800
sssS'Danijel.csv'
p30
(dp31
g3
(dp32
g5
I1193
sg6
I40
sg7
I5
sg8
I7
sg9
I3
sg10
I2
sg11
I800
ssg12
(dp33
g5
I296
sg6
I30
sg7
I2
sg8
I6
sg9
I16
sg10
I1
sg11
I180
ssg14
(dp34
g5
I1040
sg6
I31
sg7
I14
sg8
I0
sg9
I3
sg10
I5
sg11
I1040
ssg16
(dp35
g5
I2701
sg6
I37
sg7
I9
sg8
I20
sg9
I2
sg10
I0
sg11
I1340
sss.(dp0
S'K_all3.csv'
p1
(dp2
S'machine'
p3
(dp4
S'count'
p5
I941
sS'truepos'
p6
I30
sS'falseneg'
p7
I8
sS'correction'
p8
I4
sS'unknownyes'
p9
I7
sS'falsepos'
p10
I6
sS'unique'
p11
I530
ssS'knee'
p12
(dp13
g5
I1511
sg6
I35
sg7
I9
sg8
I8
sg9
I1
sg10
I8
sg11
I980
ssS'none'
p14
(dp15
g5
I500
sg6
I28
sg7
I10
sg8
I0
sg9
I7
sg10
I10
sg11
I500
ssS'three'
p16
(dp17
g5
I1252
sg6
I33
sg7
I9
sg8
I27
sg9
I3
sg10
I0
sg11
I610
sssS'Wahono.csv'
p18
(dp19
g3
(dp20
g5
I2011
sg6
I51
sg7
I11
sg8
I21
sg9
I0
sg10
I1
sg11
I1430
ssg12
(dp21
g5
I1102
sg6
I52
sg7
I6
sg8
I9
sg9
I4
sg10
I1
sg11
I820
ssg14
(dp22
g5
I1390
sg6
I40
sg7
I20
sg8
I0
sg9
I2
sg10
I3
sg11
I1390
ssg16
(dp23
g5
I3189
sg6
I41
sg7
I18
sg8
I24
sg9
I3
sg10
I0
sg11
I1580
sssS'Hall.csv'
p24
(dp25
g3
(dp26
g5
I889
sg6
I91
sg7
I11
sg8
I14
sg9
I2
sg10
I7
sg11
I530
ssg12
(dp27
g5
I605
sg6
I87
sg7
I14
sg8
I19
sg9
I3
sg10
I2
sg11
I430
ssg14
(dp28
g5
I830
sg6
I72
sg7
I30
sg8
I0
sg9
I2
sg10
I4
sg11
I830
ssg16
(dp29
g5
I1283
sg6
I82
sg7
I20
sg8
I54
sg9
I2
sg10
I0
sg11
I610
sssS'Danijel.csv'
p30
(dp31
g3
(dp32
g5
I1070
sg6
I39
sg7
I6
sg8
I15
sg9
I3
sg10
I0
sg11
I680
ssg12
(dp33
g5
I633
sg6
I32
sg7
I7
sg8
I6
sg9
I9
sg10
I1
sg11
I370
ssg14
(dp34
g5
I1730
sg6
I27
sg7
I19
sg8
I0
sg9
I2
sg10
I8
sg11
I1730
ssg16
(dp35
g5
I1605
sg6
I38
sg7
I8
sg8
I23
sg9
I2
sg10
I0
sg11
I790
sss.(dp0
S'K_all3.csv'
p1
(dp2
S'machine'
p3
(dp4
S'count'
p5
I765
sS'truepos'
p6
I34
sS'falseneg'
p7
I4
sS'correction'
p8
I13
sS'unknownyes'
p9
I7
sS'falsepos'
p10
I4
sS'unique'
p11
I410
ssS'knee'
p12
(dp13
g5
I966
sg6
I37
sg7
I7
sg8
I9
sg9
I1
sg10
I1
sg11
I780
ssS'none'
p14
(dp15
g5
I680
sg6
I27
sg7
I13
sg8
I0
sg9
I5
sg10
I5
sg11
I680
ssS'three'
p16
(dp17
g5
I1123
sg6
I31
sg7
I8
sg8
I21
sg9
I6
sg10
I0
sg11
I550
sssS'Wahono.csv'
p18
(dp19
g3
(dp20
g5
I1764
sg6
I44
sg7
I14
sg8
I20
sg9
I4
sg10
I1
sg11
I1230
ssg12
(dp21
g5
I273
sg6
I21
sg7
I3
sg8
I4
sg9
I38
sg10
I1
sg11
I170
ssg14
(dp22
g5
I1410
sg6
I42
sg7
I18
sg8
I0
sg9
I2
sg10
I3
sg11
I1410
ssg16
(dp23
g5
I3670
sg6
I50
sg7
I11
sg8
I27
sg9
I1
sg10
I0
sg11
I1820
sssS'Hall.csv'
p24
(dp25
g3
(dp26
g5
I1003
sg6
I88
sg7
I14
sg8
I26
sg9
I2
sg10
I1
sg11
I640
ssg12
(dp27
g5
I647
sg6
I88
sg7
I13
sg8
I24
sg9
I3
sg10
I0
sg11
I460
ssg14
(dp28
g5
I550
sg6
I78
sg7
I24
sg8
I0
sg9
I2
sg10
I0
sg11
I550
ssg16
(dp29
g5
I1804
sg6
I81
sg7
I21
sg8
I42
sg9
I2
sg10
I0
sg11
I880
sssS'Danijel.csv'
p30
(dp31
g3
(dp32
g5
I1246
sg6
I40
sg7
I5
sg8
I14
sg9
I3
sg10
I2
sg11
I780
ssg12
(dp33
g5
I193
sg6
I9
sg7
I3
sg8
I3
sg9
I36
sg10
I1
sg11
I130
ssg14
(dp34
g5
I1220
sg6
I32
sg7
I14
sg8
I0
sg9
I2
sg10
I5
sg11
I1220
ssg16
(dp35
g5
I2546
sg6
I35
sg7
I12
sg8
I22
sg9
I1
sg10
I0
sg11
I1260
sss.(dp0
S'K_all3.csv'
p1
(dp2
S'machine'
p3
(dp4
S'count'
p5
I860
sS'truepos'
p6
I31
sS'falseneg'
p7
I6
sS'correction'
p8
I15
sS'unknownyes'
p9
I8
sS'falsepos'
p10
I5
sS'unique'
p11
I480
ssS'knee'
p12
(dp13
g5
I1027
sg6
I34
sg7
I9
sg8
I14
sg9
I2
sg10
I2
sg11
I820
ssS'none'
p14
(dp15
g5
I520
sg6
I34
sg7
I7
sg8
I0
sg9
I4
sg10
I4
sg11
I520
ssS'three'
p16
(dp17
g5
I1364
sg6
I30
sg7
I12
sg8
I22
sg9
I3
sg10
I0
sg11
I670
sssS'Wahono.csv'
p18
(dp19
g3
(dp20
g5
I2095
sg6
I47
sg7
I13
sg8
I26
sg9
I2
sg10
I0
sg11
I1430
ssg12
(dp21
g5
I917
sg6
I42
sg7
I9
sg8
I10
sg9
I11
sg10
I4
sg11
I570
ssg14
(dp22
g5
I1630
sg6
I47
sg7
I14
sg8
I0
sg9
I1
sg10
I3
sg11
I1630
ssg16
(dp23
g5
I2610
sg6
I44
sg7
I15
sg8
I24
sg9
I3
sg10
I0
sg11
I1290
sssS'Hall.csv'
p24
(dp25
g3
(dp26
g5
I935
sg6
I91
sg7
I11
sg8
I18
sg9
I2
sg10
I4
sg11
I580
ssg12
(dp27
g5
I642
sg6
I79
sg7
I23
sg8
I14
sg9
I2
sg10
I1
sg11
I510
ssg14
(dp28
g5
I1060
sg6
I66
sg7
I36
sg8
I0
sg9
I2
sg10
I5
sg11
I1060
ssg16
(dp29
g5
I1364
sg6
I82
sg7
I20
sg8
I40
sg9
I2
sg10
I0
sg11
I660
sssS'Danijel.csv'
p30
(dp31
g3
(dp32
g5
I1251
sg6
I39
sg7
I6
sg8
I16
sg9
I3
sg10
I1
sg11
I770
ssg12
(dp33
g5
I332
sg6
I26
sg7
I4
sg8
I8
sg9
I18
sg10
I0
sg11
I200
ssg14
(dp34
g5
I730
sg6
I33
sg7
I12
sg8
I0
sg9
I3
sg10
I5
sg11
I730
ssg16
(dp35
g5
I2687
sg6
I35
sg7
I11
sg8
I25
sg9
I2
sg10
I0
sg11
I1330
sss.(dp0
S'K_all3.csv'
p1
(dp2
S'machine'
p3
(dp4
S'count'
p5
I838
sS'truepos'
p6
I32
sS'falseneg'
p7
I10
sS'correction'
p8
I8
sS'unknownyes'
p9
I3
sS'falsepos'
p10
I5
sS'unique'
p11
I500
ssS'knee'
p12
(dp13
g5
I686
sg6
I27
sg7
I8
sg8
I8
sg9
I10
sg10
I2
sg11
I510
ssS'none'
p14
(dp15
g5
I660
sg6
I28
sg7
I12
sg8
I0
sg9
I5
sg10
I2
sg11
I660
ssS'three'
p16
(dp17
g5
I1183
sg6
I32
sg7
I8
sg8
I21
sg9
I5
sg10
I0
sg11
I580
sssS'Wahono.csv'
p18
(dp19
g3
(dp20
g5
I1816
sg6
I49
sg7
I10
sg8
I17
sg9
I3
sg10
I4
sg11
I1230
ssg12
(dp21
g5
I741
sg6
I44
sg7
I4
sg8
I7
sg9
I14
sg10
I2
sg11
I520
ssg14
(dp22
g5
I1870
sg6
I48
sg7
I13
sg8
I0
sg9
I1
sg10
I7
sg11
I1870
ssg16
(dp23
g5
I3006
sg6
I51
sg7
I11
sg8
I22
sg9
I0
sg10
I0
sg11
I1490
sssS'Hall.csv'
p24
(dp25
g3
(dp26
g5
I1039
sg6
I89
sg7
I13
sg8
I24
sg9
I2
sg10
I3
sg11
I650
ssg12
(dp27
g5
I22
sg6
I8
sg7
I1
sg8
I0
sg9
I95
sg10
I0
sg11
I20
ssg14
(dp28
g5
I760
sg6
I82
sg7
I20
sg8
I0
sg9
I2
sg10
I0
sg11
I760
ssg16
(dp29
g5
I1397
sg6
I86
sg7
I16
sg8
I31
sg9
I2
sg10
I0
sg11
I680
sssS'Danijel.csv'
p30
(dp31
g3
(dp32
g5
I1156
sg6
I39
sg7
I5
sg8
I13
sg9
I4
sg10
I0
sg11
I730
ssg12
(dp33
g5
I668
sg6
I36
sg7
I7
sg8
I5
sg9
I5
sg10
I0
sg11
I490
ssg14
(dp34
g5
I1250
sg6
I31
sg7
I16
sg8
I0
sg9
I1
sg10
I2
sg11
I1250
ssg16
(dp35
g5
I2943
sg6
I36
sg7
I10
sg8
I20
sg9
I2
sg10
I0
sg11
I1460
sss.(dp0
S'K_all3.csv'
p1
(dp2
S'machine'
p3
(dp4
S'count'
p5
I777
sS'truepos'
p6
I31
sS'falseneg'
p7
I7
sS'correction'
p8
I8
sS'unknownyes'
p9
I7
sS'falsepos'
p10
I4
sS'unique'
p11
I450
ssS'knee'
p12
(dp13
g5
I83
sg6
I9
sg7
I2
sg8
I2
sg9
I34
sg10
I1
sg11
I60
ssS'none'
p14
(dp15
g5
I660
sg6
I29
sg7
I13
sg8
I0
sg9
I3
sg10
I4
sg11
I660
ssS'three'
p16
(dp17
g5
I1102
sg6
I33
sg7
I9
sg8
I19
sg9
I3
sg10
I0
sg11
I540
sssS'Wahono.csv'
p18
(dp19
g3
(dp20
g5
I1579
sg6
I50
sg7
I8
sg8
I12
sg9
I4
sg10
I2
sg11
I1050
ssg12
(dp21
g5
I257
sg6
I23
sg7
I5
sg8
I3
sg9
I34
sg10
I0
sg11
I200
ssg14
(dp22
g5
I1500
sg6
I41
sg7
I19
sg8
I0
sg9
I2
sg10
I2
sg11
I1500
ssg16
(dp23
g5
I3033
sg6
I49
sg7
I12
sg8
I29
sg9
I1
sg10
I0
sg11
I1500
sssS'Hall.csv'
p24
(dp25
g3
(dp26
g5
I983
sg6
I87
sg7
I15
sg8
I22
sg9
I2
sg10
I3
sg11
I610
ssg12
(dp27
g5
I35
sg6
I9
sg7
I4
sg8
I2
sg9
I91
sg10
I0
sg11
I30
ssg14
(dp28
g5
I840
sg6
I78
sg7
I24
sg8
I0
sg9
I2
sg10
I2
sg11
I840
ssg16
(dp29
g5
I1357
sg6
I72
sg7
I30
sg8
I49
sg9
I2
sg10
I0
sg11
I650
sssS'Danijel.csv'
p30
(dp31
g3
(dp32
g5
I1530
sg6
I35
sg7
I12
sg8
I9
sg9
I1
sg10
I0
sg11
I1060
ssg12
(dp33
g5
I36
sg6
I4
sg7
I0
sg8
I0
sg9
I44
sg10
I0
sg11
I30
ssg14
(dp34
g5
I1100
sg6
I33
sg7
I13
sg8
I0
sg9
I2
sg10
I5
sg11
I1100
ssg16
(dp35
g5
I2663
sg6
I36
sg7
I10
sg8
I20
sg9
I2
sg10
I0
sg11
I1320
sss.(dp0
S'K_all3.csv'
p1
(dp2
S'machine'
p3
(dp4
S'count'
p5
I880
sS'truepos'
p6
I30
sS'falseneg'
p7
I9
sS'correction'
p8
I8
sS'unknownyes'
p9
I6
sS'falsepos'
p10
I1
sS'unique'
p11
I510
ssS'knee'
p12
(dp13
g5
I620
sg6
I24
sg7
I8
sg8
I5
sg9
I13
sg10
I6
sg11
I440
ssS'none'
p14
(dp15
g5
I570
sg6
I27
sg7
I13
sg8
I0
sg9
I5
sg10
I8
sg11
I570
ssS'three'
p16
(dp17
g5
I1123
sg6
I36
sg7
I6
sg8
I22
sg9
I3
sg10
I0
sg11
I550
sssS'Wahono.csv'
p18
(dp19
g3
(dp20
g5
I1708
sg6
I46
sg7
I13
sg8
I10
sg9
I3
sg10
I0
sg11
I1160
ssg12
(dp21
g5
I24
sg6
I6
sg7
I0
sg8
I0
sg9
I56
sg10
I0
sg11
I20
ssg14
(dp22
g5
I1290
sg6
I42
sg7
I18
sg8
I0
sg9
I2
sg10
I3
sg11
I1290
ssg16
(dp23
g5
I2412
sg6
I48
sg7
I11
sg8
I29
sg9
I3
sg10
I0
sg11
I1190
sssS'Hall.csv'
p24
(dp25
g3
(dp26
g5
I799
sg6
I95
sg7
I7
sg8
I21
sg9
I2
sg10
I0
sg11
I490
ssg12
(dp27
g5
I670
sg6
I86
sg7
I15
sg8
I18
sg9
I3
sg10
I3
sg11
I500
ssg14
(dp28
g5
I990
sg6
I76
sg7
I27
sg8
I0
sg9
I1
sg10
I4
sg11
I990
ssg16
(dp29
g5
I1136
sg6
I85
sg7
I17
sg8
I30
sg9
I2
sg10
I0
sg11
I550
sssS'Danijel.csv'
p30
(dp31
g3
(dp32
g5
I1288
sg6
I41
sg7
I5
sg8
I11
sg9
I2
sg10
I1
sg11
I800
ssg12
(dp33
g5
I885
sg6
I34
sg7
I10
sg8
I8
sg9
I4
sg10
I1
sg11
I700
ssg14
(dp34
g5
I1520
sg6
I30
sg7
I16
sg8
I0
sg9
I2
sg10
I5
sg11
I1520
ssg16
(dp35
g5
I2124
sg6
I35
sg7
I11
sg8
I21
sg9
I2
sg10
I0
sg11
I1050
sss.(dp0
S'K_all3.csv'
p1
(dp2
S'machine'
p3
(dp4
S'count'
p5
I748
sS'truepos'
p6
I34
sS'falseneg'
p7
I3
sS'correction'
p8
I11
sS'unknownyes'
p9
I8
sS'falsepos'
p10
I4
sS'unique'
p11
I420
ssS'knee'
p12
(dp13
g5
I1215
sg6
I33
sg7
I10
sg8
I10
sg9
I2
sg10
I4
sg11
I980
ssS'none'
p14
(dp15
g5
I590
sg6
I30
sg7
I11
sg8
I0
sg9
I4
sg10
I8
sg11
I590
ssS'three'
p16
(dp17
g5
I1553
sg6
I30
sg7
I11
sg8
I31
sg9
I4
sg10
I0
sg11
I760
sssS'Wahono.csv'
p18
(dp19
g3
(dp20
g5
I1545
sg6
I55
sg7
I4
sg8
I15
sg9
I3
sg10
I2
sg11
I1010
ssg12
(dp21
g5
I1140
sg6
I45
sg7
I11
sg8
I7
sg9
I6
sg10
I2
sg11
I900
ssg14
(dp22
g5
I1460
sg6
I37
sg7
I23
sg8
I0
sg9
I2
sg10
I1
sg11
I1460
ssg16
(dp23
g5
I3458
sg6
I47
sg7
I12
sg8
I34
sg9
I3
sg10
I0
sg11
I1710
sssS'Hall.csv'
p24
(dp25
g3
(dp26
g5
I969
sg6
I88
sg7
I14
sg8
I20
sg9
I2
sg10
I0
sg11
I590
ssg12
(dp27
g5
I640
sg6
I84
sg7
I16
sg8
I12
sg9
I4
sg10
I1
sg11
I460
ssg14
(dp28
g5
I840
sg6
I71
sg7
I31
sg8
I0
sg9
I2
sg10
I0
sg11
I840
ssg16
(dp29
g5
I1145
sg6
I82
sg7
I20
sg8
I39
sg9
I2
sg10
I0
sg11
I550
sssS'Danijel.csv'
p30
(dp31
g3
(dp32
g5
I1228
sg6
I39
sg7
I6
sg8
I15
sg9
I3
sg10
I1
sg11
I780
ssg12
(dp33
g5
I47
sg6
I4
sg7
I2
sg8
I1
sg9
I42
sg10
I0
sg11
I40
ssg14
(dp34
g5
I1420
sg6
I31
sg7
I16
sg8
I0
sg9
I1
sg10
I2
sg11
I1420
ssg16
(dp35
g5
I2448
sg6
I35
sg7
I11
sg8
I27
sg9
I2
sg10
I0
sg11
I1210
sss.(dp0
S'K_all3.csv'
p1
(dp2
S'machine'
p3
(dp4
S'count'
p5
I877
sS'truepos'
p6
I34
sS'falseneg'
p7
I5
sS'correction'
p8
I13
sS'unknownyes'
p9
I6
sS'falsepos'
p10
I2
sS'unique'
p11
I490
ssS'knee'
p12
(dp13
g5
I552
sg6
I32
sg7
I3
sg8
I6
sg9
I10
sg10
I4
sg11
I320
ssS'none'
p14
(dp15
g5
I590
sg6
I28
sg7
I10
sg8
I0
sg9
I7
sg10
I7
sg11
I590
ssS'three'
p16
(dp17
g5
I1130
sg6
I33
sg7
I7
sg8
I27
sg9
I5
sg10
I0
sg11
I550
sssS'Wahono.csv'
p18
(dp19
g3
(dp20
g5
I1968
sg6
I50
sg7
I10
sg8
I21
sg9
I2
sg10
I0
sg11
I1280
ssg12
(dp21
g5
I1474
sg6
I51
sg7
I8
sg8
I11
sg9
I3
sg10
I1
sg11
I1100
ssg14
(dp22
g5
I1520
sg6
I43
sg7
I16
sg8
I0
sg9
I3
sg10
I3
sg11
I1520
ssg16
(dp23
g5
I2671
sg6
I48
sg7
I13
sg8
I28
sg9
I1
sg10
I0
sg11
I1320
sssS'Hall.csv'
p24
(dp25
g3
(dp26
g5
I1087
sg6
I89
sg7
I13
sg8
I27
sg9
I2
sg10
I4
sg11
I710
ssg12
(dp27
g5
I752
sg6
I76
sg7
I26
sg8
I19
sg9
I2
sg10
I3
sg11
I580
ssg14
(dp28
g5
I1280
sg6
I71
sg7
I32
sg8
I0
sg9
I1
sg10
I5
sg11
I1280
ssg16
(dp29
g5
I1432
sg6
I74
sg7
I28
sg8
I43
sg9
I2
sg10
I0
sg11
I690
sssS'Danijel.csv'
p30
(dp31
g3
(dp32
g5
I1149
sg6
I36
sg7
I8
sg8
I8
sg9
I4
sg10
I2
sg11
I760
ssg12
(dp33
g5
I828
sg6
I34
sg7
I11
sg8
I5
sg9
I3
sg10
I1
sg11
I680
ssg14
(dp34
g5
I1340
sg6
I30
sg7
I16
sg8
I0
sg9
I2
sg10
I3
sg11
I1340
ssg16
(dp35
g5
I2731
sg6
I35
sg7
I11
sg8
I29
sg9
I2
sg10
I0
sg11
I1350
sss.(dp0
S'K_all3.csv'
p1
(dp2
S'machine'
p3
(dp4
S'count'
p5
I827
sS'truepos'
p6
I30
sS'falseneg'
p7
I10
sS'correction'
p8
I8
sS'unknownyes'
p9
I5
sS'falsepos'
p10
I4
sS'unique'
p11
I510
ssS'knee'
p12
(dp13
g5
I1818
sg6
I39
sg7
I5
sg8
I17
sg9
I1
sg10
I8
sg11
I1400
ssS'none'
p14
(dp15
g5
I620
sg6
I32
sg7
I8
sg8
I0
sg9
I5
sg10
I1
sg11
I620
ssS'three'
p16
(dp17
g5
I1087
sg6
I30
sg7
I10
sg8
I22
sg9
I5
sg10
I0
sg11
I530
sssS'Wahono.csv'
p18
(dp19
g3
(dp20
g5
I2092
sg6
I52
sg7
I9
sg8
I17
sg9
I1
sg10
I1
sg11
I1460
ssg12
(dp21
g5
I394
sg6
I24
sg7
I8
sg8
I8
sg9
I30
sg10
I2
sg11
I240
ssg14
(dp22
g5
I1780
sg6
I36
sg7
I24
sg8
I0
sg9
I2
sg10
I4
sg11
I1780
ssg16
(dp23
g5
I2235
sg6
I48
sg7
I12
sg8
I30
sg9
I2
sg10
I0
sg11
I1100
sssS'Hall.csv'
p24
(dp25
g3
(dp26
g5
I939
sg6
I97
sg7
I5
sg8
I22
sg9
I2
sg10
I3
sg11
I590
ssg12
(dp27
g5
I724
sg6
I87
sg7
I15
sg8
I19
sg9
I2
sg10
I0
sg11
I550
ssg14
(dp28
g5
I650
sg6
I74
sg7
I28
sg8
I0
sg9
I2
sg10
I2
sg11
I650
ssg16
(dp29
g5
I1435
sg6
I82
sg7
I20
sg8
I48
sg9
I2
sg10
I0
sg11
I690
sssS'Danijel.csv'
p30
(dp31
g3
(dp32
g5
I1139
sg6
I38
sg7
I6
sg8
I10
sg9
I4
sg10
I2
sg11
I730
ssg12
(dp33
g5
I47
sg6
I5
sg7
I2
sg8
I0
sg9
I41
sg10
I0
sg11
I40
ssg14
(dp34
g5
I1540
sg6
I28
sg7
I18
sg8
I0
sg9
I2
sg10
I4
sg11
I1540
ssg16
(dp35
g5
I3000
sg6
I31
sg7
I16
sg8
I35
sg9
I1
sg10
I0
sg11
I1480
sss.(dp0
S'K_all3.csv'
p1
(dp2
S'machine'
p3
(dp4
S'count'
p5
I983
sS'truepos'
p6
I32
sS'falseneg'
p7
I6
sS'correction'
p8
I7
sS'unknownyes'
p9
I7
sS'falsepos'
p10
I7
sS'unique'
p11
I520
ssS'knee'
p12
(dp13
g5
I1049
sg6
I38
sg7
I5
sg8
I8
sg9
I2
sg10
I4
sg11
I820
ssS'none'
p14
(dp15
g5
I1310
sg6
I25
sg7
I20
sg8
I0
sg9
I0
sg10
I5
sg11
I1310
ssS'three'
p16
(dp17
g5
I1432
sg6
I31
sg7
I13
sg8
I26
sg9
I1
sg10
I0
sg11
I700
sssS'Wahono.csv'
p18
(dp19
g3
(dp20
g5
I1819
sg6
I51
sg7
I8
sg8
I14
sg9
I3
sg10
I1
sg11
I1270
ssg12
(dp21
g5
I1006
sg6
I49
sg7
I6
sg8
I10
sg9
I7
sg10
I2
sg11
I660
ssg14
(dp22
g5
I1680
sg6
I40
sg7
I21
sg8
I0
sg9
I1
sg10
I6
sg11
I1680
ssg16
(dp23
g5
I2880
sg6
I46
sg7
I15
sg8
I34
sg9
I1
sg10
I0
sg11
I1420
sssS'Hall.csv'
p24
(dp25
g3
(dp26
g5
I1171
sg6
I88
sg7
I14
sg8
I25
sg9
I2
sg10
I0
sg11
I770
ssg12
(dp27
g5
I710
sg6
I86
sg7
I15
sg8
I30
sg9
I3
sg10
I1
sg11
I520
ssg14
(dp28
g5
I660
sg6
I76
sg7
I26
sg8
I0
sg9
I2
sg10
I1
sg11
I660
ssg16
(dp29
g5
I1369
sg6
I81
sg7
I21
sg8
I42
sg9
I2
sg10
I0
sg11
I660
sssS'Danijel.csv'
p30
(dp31
g3
(dp32
g5
I1264
sg6
I39
sg7
I7
sg8
I16
sg9
I2
sg10
I0
sg11
I810
ssg12
(dp33
g5
I982
sg6
I36
sg7
I7
sg8
I9
sg9
I5
sg10
I1
sg11
I720
ssg14
(dp34
g5
I1410
sg6
I31
sg7
I15
sg8
I0
sg9
I2
sg10
I7
sg11
I1410
ssg16
(dp35
g5
I2845
sg6
I34
sg7
I12
sg8
I18
sg9
I2
sg10
I0
sg11
I1410
sss.(dp0
S'K_all3.csv'
p1
(dp2
S'machine'
p3
(dp4
S'count'
p5
I791
sS'truepos'
p6
I35
sS'falseneg'
p7
I4
sS'correction'
p8
I11
sS'unknownyes'
p9
I6
sS'falsepos'
p10
I4
sS'unique'
p11
I460
ssS'knee'
p12
(dp13
g5
I983
sg6
I28
sg7
I15
sg8
I7
sg9
I2
sg10
I8
sg11
I740
ssS'none'
p14
(dp15
g5
I740
sg6
I29
sg7
I14
sg8
I0
sg9
I2
sg10
I1
sg11
I740
ssS'three'
p16
(dp17
g5
I1332
sg6
I32
sg7
I10
sg8
I29
sg9
I3
sg10
I0
sg11
I650
sssS'Wahono.csv'
p18
(dp19
g3
(dp20
g5
I2006
sg6
I53
sg7
I7
sg8
I14
sg9
I2
sg10
I1
sg11
I1360
ssg12
(dp21
g5
I1420
sg6
I53
sg7
I5
sg8
I12
sg9
I4
sg10
I5
sg11
I920
ssg14
(dp22
g5
I1520
sg6
I46
sg7
I14
sg8
I0
sg9
I2
sg10
I5
sg11
I1520
ssg16
(dp23
g5
I2939
sg6
I49
sg7
I10
sg8
I35
sg9
I3
sg10
I0
sg11
I1450
sssS'Hall.csv'
p24
(dp25
g3
(dp26
g5
I995
sg6
I91
sg7
I11
sg8
I26
sg9
I2
sg10
I0
sg11
I620
ssg12
(dp27
g5
I531
sg6
I88
sg7
I11
sg8
I22
sg9
I5
sg10
I1
sg11
I380
ssg14
(dp28
g5
I840
sg6
I80
sg7
I22
sg8
I0
sg9
I2
sg10
I0
sg11
I840
ssg16
(dp29
g5
I1192
sg6
I81
sg7
I21
sg8
I43
sg9
I2
sg10
I0
sg11
I570
sssS'Danijel.csv'
p30
(dp31
g3
(dp32
g5
I1248
sg6
I41
sg7
I5
sg8
I11
sg9
I2
sg10
I2
sg11
I810
ssg12
(dp33
g5
I514
sg6
I31
sg7
I7
sg8
I9
sg9
I10
sg10
I1
sg11
I370
ssg14
(dp34
g5
I1450
sg6
I28
sg7
I18
sg8
I0
sg9
I2
sg10
I3
sg11
I1450
ssg16
(dp35
g5
I3125
sg6
I34
sg7
I13
sg8
I24
sg9
I1
sg10
I0
sg11
I1550
sss.(dp0
S'K_all3.csv'
p1
(dp2
S'machine'
p3
(dp4
S'count'
p5
I734
sS'truepos'
p6
I32
sS'falseneg'
p7
I5
sS'correction'
p8
I12
sS'unknownyes'
p9
I8
sS'falsepos'
p10
I6
sS'unique'
p11
I410
ssS'knee'
p12
(dp13
g5
I321
sg6
I22
sg7
I5
sg8
I4
sg9
I18
sg10
I3
sg11
I210
ssS'none'
p14
(dp15
g5
I650
sg6
I31
sg7
I11
sg8
I0
sg9
I3
sg10
I4
sg11
I650
ssS'three'
p16
(dp17
g5
I1844
sg6
I30
sg7
I10
sg8
I21
sg9
I5
sg10
I0
sg11
I910
sssS'Wahono.csv'
p18
(dp19
g3
(dp20
g5
I1948
sg6
I52
sg7
I7
sg8
I12
sg9
I3
sg10
I0
sg11
I1370
ssg12
(dp21
g5
I877
sg6
I45
sg7
I6
sg8
I9
sg9
I11
sg10
I1
sg11
I560
ssg14
(dp22
g5
I1760
sg6
I37
sg7
I22
sg8
I0
sg9
I3
sg10
I7
sg11
I1760
ssg16
(dp23
g5
I3211
sg6
I47
sg7
I13
sg8
I29
sg9
I2
sg10
I0
sg11
I1590
sssS'Hall.csv'
p24
(dp25
g3
(dp26
g5
I866
sg6
I93
sg7
I9
sg8
I21
sg9
I2
sg10
I0
sg11
I550
ssg12
(dp27
g5
I492
sg6
I85
sg7
I13
sg8
I14
sg9
I6
sg10
I2
sg11
I320
ssg14
(dp28
g5
I1000
sg6
I73
sg7
I29
sg8
I0
sg9
I2
sg10
I4
sg11
I1000
ssg16
(dp29
g5
I1350
sg6
I82
sg7
I20
sg8
I43
sg9
I2
sg10
I0
sg11
I650
sssS'Danijel.csv'
p30
(dp31
g3
(dp32
g5
I1404
sg6
I38
sg7
I8
sg8
I17
sg9
I2
sg10
I1
sg11
I870
ssg12
(dp33
g5
I48
sg6
I3
sg7
I1
sg8
I1
sg9
I44
sg10
I0
sg11
I40
ssg14
(dp34
g5
I1060
sg6
I35
sg7
I12
sg8
I0
sg9
I1
sg10
I3
sg11
I1060
ssg16
(dp35
g5
I2268
sg6
I38
sg7
I9
sg8
I25
sg9
I1
sg10
I0
sg11
I1120
sss.(dp0
S'K_all3.csv'
p1
(dp2
S'machine'
p3
(dp4
S'count'
p5
I1072
sS'truepos'
p6
I29
sS'falseneg'
p7
I12
sS'correction'
p8
I9
sS'unknownyes'
p9
I4
sS'falsepos'
p10
I5
sS'unique'
p11
I610
ssS'knee'
p12
(dp13
g5
I824
sg6
I33
sg7
I5
sg8
I8
sg9
I7
sg10
I2
sg11
I470
ssS'none'
p14
(dp15
g5
I560
sg6
I29
sg7
I10
sg8
I0
sg9
I6
sg10
I4
sg11
I560
ssS'three'
p16
(dp17
g5
I999
sg6
I38
sg7
I4
sg8
I16
sg9
I3
sg10
I0
sg11
I490
sssS'Wahono.csv'
p18
(dp19
g3
(dp20
g5
I2048
sg6
I53
sg7
I8
sg8
I17
sg9
I1
sg10
I0
sg11
I1460
ssg12
(dp21
g5
I1073
sg6
I44
sg7
I13
sg8
I7
sg9
I5
sg10
I3
sg11
I880
ssg14
(dp22
g5
I1380
sg6
I41
sg7
I19
sg8
I0
sg9
I2
sg10
I3
sg11
I1380
ssg16
(dp23
g5
I3271
sg6
I47
sg7
I13
sg8
I26
sg9
I2
sg10
I0
sg11
I1620
sssS'Hall.csv'
p24
(dp25
g3
(dp26
g5
I1099
sg6
I86
sg7
I16
sg8
I29
sg9
I2
sg10
I2
sg11
I720
ssg12
(dp27
g5
I683
sg6
I72
sg7
I30
sg8
I12
sg9
I2
sg10
I1
sg11
I540
ssg14
(dp28
g5
I900
sg6
I70
sg7
I32
sg8
I0
sg9
I2
sg10
I4
sg11
I900
ssg16
(dp29
g5
I1213
sg6
I84
sg7
I18
sg8
I48
sg9
I2
sg10
I0
sg11
I580
sssS'Danijel.csv'
p30
(dp31
g3
(dp32
g5
I1163
sg6
I40
sg7
I4
sg8
I11
sg9
I4
sg10
I4
sg11
I720
ssg12
(dp33
g5
I1292
sg6
I37
sg7
I8
sg8
I7
sg9
I3
sg10
I2
sg11
I900
ssg14
(dp34
g5
I1120
sg6
I33
sg7
I12
sg8
I0
sg9
I3
sg10
I3
sg11
I1120
ssg16
(dp35
g5
I1824
sg6
I38
sg7
I8
sg8
I21
sg9
I2
sg10
I0
sg11
I900
sss.(dp0
S'K_all3.csv'
p1
(dp2
S'machine'
p3
(dp4
S'count'
p5
I698
sS'truepos'
p6
I35
sS'falseneg'
p7
I3
sS'correction'
p8
I6
sS'unknownyes'
p9
I7
sS'falsepos'
p10
I3
sS'unique'
p11
I410
ssS'knee'
p12
(dp13
g5
I120
sg6
I13
sg7
I4
sg8
I2
sg9
I28
sg10
I0
sg11
I90
ssS'none'
p14
(dp15
g5
I770
sg6
I29
sg7
I10
sg8
I0
sg9
I6
sg10
I2
sg11
I770
ssS'three'
p16
(dp17
g5
I1101
sg6
I33
sg7
I9
sg8
I19
sg9
I3
sg10
I1
sg11
I540
sssS'Wahono.csv'
p18
(dp19
g3
(dp20
g5
I1689
sg6
I49
sg7
I11
sg8
I15
sg9
I2
sg10
I0
sg11
I1170
ssg12
(dp21
g5
I1414
sg6
I49
sg7
I7
sg8
I13
sg9
I6
sg10
I2
sg11
I870
ssg14
(dp22
g5
I2060
sg6
I32
sg7
I27
sg8
I0
sg9
I3
sg10
I4
sg11
I2060
ssg16
(dp23
g5
I3056
sg6
I48
sg7
I13
sg8
I33
sg9
I1
sg10
I0
sg11
I1510
sssS'Hall.csv'
p24
(dp25
g3
(dp26
g5
I1250
sg6
I92
sg7
I11
sg8
I28
sg9
I1
sg10
I4
sg11
I830
ssg12
(dp27
g5
I606
sg6
I88
sg7
I9
sg8
I19
sg9
I7
sg10
I1
sg11
I410
ssg14
(dp28
g5
I850
sg6
I63
sg7
I40
sg8
I0
sg9
I1
sg10
I0
sg11
I850
ssg16
(dp29
g5
I1401
sg6
I76
sg7
I26
sg8
I34
sg9
I2
sg10
I0
sg11
I680
sssS'Danijel.csv'
p30
(dp31
g3
(dp32
g5
I1399
sg6
I40
sg7
I6
sg8
I12
sg9
I2
sg10
I3
sg11
I890
ssg12
(dp33
g5
I36
sg6
I4
sg7
I1
sg8
I0
sg9
I43
sg10
I0
sg11
I30
ssg14
(dp34
g5
I1170
sg6
I31
sg7
I15
sg8
I0
sg9
I2
sg10
I4
sg11
I1170
ssg16
(dp35
g5
I1646
sg6
I38
sg7
I8
sg8
I26
sg9
I2
sg10
I0
sg11
I810
sss.(dp0
S'K_all3.csv'
p1
(dp2
S'machine'
p3
(dp4
S'count'
p5
I811
sS'truepos'
p6
I35
sS'falseneg'
p7
I5
sS'correction'
p8
I13
sS'unknownyes'
p9
I5
sS'falsepos'
p10
I2
sS'unique'
p11
I470
ssS'knee'
p12
(dp13
g5
I444
sg6
I28
sg7
I7
sg8
I6
sg9
I10
sg10
I3
sg11
I330
ssS'none'
p14
(dp15
g5
I490
sg6
I33
sg7
I6
sg8
I0
sg9
I6
sg10
I2
sg11
I490
ssS'three'
p16
(dp17
g5
I1550
sg6
I30
sg7
I11
sg8
I27
sg9
I4
sg10
I0
sg11
I760
sssS'Wahono.csv'
p18
(dp19
g3
(dp20
g5
I1721
sg6
I47
sg7
I12
sg8
I19
sg9
I3
sg10
I0
sg11
I1170
ssg12
(dp21
g5
I1372
sg6
I50
sg7
I9
sg8
I9
sg9
I3
sg10
I0
sg11
I1000
ssg14
(dp22
g5
I1420
sg6
I40
sg7
I19
sg8
I0
sg9
I3
sg10
I3
sg11
I1420
ssg16
(dp23
g5
I3094
sg6
I49
sg7
I12
sg8
I27
sg9
I1
sg10
I0
sg11
I1530
sssS'Hall.csv'
p24
(dp25
g3
(dp26
g5
I997
sg6
I92
sg7
I10
sg8
I19
sg9
I2
sg10
I1
sg11
I620
ssg12
(dp27
g5
I516
sg6
I84
sg7
I16
sg8
I13
sg9
I4
sg10
I0
sg11
I380
ssg14
(dp28
g5
I1470
sg6
I78
sg7
I25
sg8
I0
sg9
I1
sg10
I9
sg11
I1470
ssg16
(dp29
g5
I1838
sg6
I79
sg7
I24
sg8
I50
sg9
I1
sg10
I0
sg11
I890
sssS'Danijel.csv'
p30
(dp31
g3
(dp32
g5
I1218
sg6
I37
sg7
I8
sg8
I6
sg9
I3
sg10
I2
sg11
I740
ssg12
(dp33
g5
I808
sg6
I34
sg7
I10
sg8
I8
sg9
I4
sg10
I0
sg11
I530
ssg14
(dp34
g5
I1070
sg6
I32
sg7
I14
sg8
I0
sg9
I2
sg10
I6
sg11
I1070
ssg16
(dp35
g5
I2618
sg6
I37
sg7
I9
sg8
I16
sg9
I2
sg10
I0
sg11
I1300
sss.(dp0
S'K_all3.csv'
p1
(dp2
S'machine'
p3
(dp4
S'count'
p5
I885
sS'truepos'
p6
I32
sS'falseneg'
p7
I9
sS'correction'
p8
I8
sS'unknownyes'
p9
I4
sS'falsepos'
p10
I6
sS'unique'
p11
I500
ssS'knee'
p12
(dp13
g5
I1147
sg6
I37
sg7
I7
sg8
I8
sg9
I1
sg10
I3
sg11
I870
ssS'none'
p14
(dp15
g5
I970
sg6
I25
sg7
I20
sg8
I0
sg9
I0
sg10
I10
sg11
I970
ssS'three'
p16
(dp17
g5
I1224
sg6
I31
sg7
I9
sg8
I20
sg9
I5
sg10
I0
sg11
I600
sssS'Wahono.csv'
p18
(dp19
g3
(dp20
g5
I1562
sg6
I48
sg7
I10
sg8
I16
sg9
I4
sg10
I0
sg11
I1010
ssg12
(dp21
g5
I24
sg6
I6
sg7
I0
sg8
I0
sg9
I56
sg10
I0
sg11
I20
ssg14
(dp22
g5
I1970
sg6
I44
sg7
I17
sg8
I0
sg9
I1
sg10
I6
sg11
I1970
ssg16
(dp23
g5
I2549
sg6
I48
sg7
I12
sg8
I24
sg9
I2
sg10
I0
sg11
I1260
sssS'Hall.csv'
p24
(dp25
g3
(dp26
g5
I774
sg6
I94
sg7
I8
sg8
I18
sg9
I2
sg10
I4
sg11
I480
ssg12
(dp27
g5
I743
sg6
I87
sg7
I15
sg8
I16
sg9
I2
sg10
I1
sg11
I530
ssg14
(dp28
g5
I1870
sg6
I69
sg7
I34
sg8
I0
sg9
I1
sg10
I3
sg11
I1870
ssg16
(dp29
g5
I2346
sg6
I74
sg7
I29
sg8
I39
sg9
I1
sg10
I0
sg11
I1150
sssS'Danijel.csv'
p30
(dp31
g3
(dp32
g5
I1133
sg6
I42
sg7
I3
sg8
I10
sg9
I3
sg10
I2
sg11
I680
ssg12
(dp33
g5
I541
sg6
I33
sg7
I7
sg8
I7
sg9
I8
sg10
I0
sg11
I400
ssg14
(dp34
g5
I1270
sg6
I31
sg7
I14
sg8
I0
sg9
I3
sg10
I0
sg11
I1270
ssg16
(dp35
g5
I1661
sg6
I40
sg7
I6
sg8
I20
sg9
I2
sg10
I0
sg11
I820
sss.(dp0
S'K_all3.csv'
p1
(dp2
S'machine'
p3
(dp4
S'count'
p5
I814
sS'truepos'
p6
I35
sS'falseneg'
p7
I4
sS'correction'
p8
I10
sS'unknownyes'
p9
I6
sS'falsepos'
p10
I5
sS'unique'
p11
I450
ssS'knee'
p12
(dp13
g5
I402
sg6
I23
sg7
I6
sg8
I6
sg9
I16
sg10
I2
sg11
I240
ssS'none'
p14
(dp15
g5
I600
sg6
I26
sg7
I14
sg8
I0
sg9
I5
sg10
I7
sg11
I600
ssS'three'
p16
(dp17
g5
I1264
sg6
I30
sg7
I10
sg8
I21
sg9
I5
sg10
I0
sg11
I620
sssS'Wahono.csv'
p18
(dp19
g3
(dp20
g5
I1747
sg6
I57
sg7
I2
sg8
I20
sg9
I3
sg10
I1
sg11
I1150
ssg12
(dp21
g5
I1451
sg6
I45
sg7
I14
sg8
I9
sg9
I3
sg10
I1
sg11
I1160
ssg14
(dp22
g5
I1670
sg6
I41
sg7
I20
sg8
I0
sg9
I1
sg10
I1
sg11
I1670
ssg16
(dp23
g5
I3018
sg6
I50
sg7
I10
sg8
I34
sg9
I2
sg10
I0
sg11
I1490
sssS'Hall.csv'
p24
(dp25
g3
(dp26
g5
I1025
sg6
I93
sg7
I9
sg8
I15
sg9
I2
sg10
I0
sg11
I660
ssg12
(dp27
g5
I582
sg6
I77
sg7
I24
sg8
I16
sg9
I3
sg10
I0
sg11
I430
ssg14
(dp28
g5
I1220
sg6
I70
sg7
I32
sg8
I0
sg9
I2
sg10
I6
sg11
I1220
ssg16
(dp29
g5
I1569
sg6
I78
sg7
I24
sg8
I40
sg9
I2
sg10
I0
sg11
I760
sssS'Danijel.csv'
p30
(dp31
g3
(dp32
g5
I1362
sg6
I41
sg7
I5
sg8
I13
sg9
I2
sg10
I2
sg11
I840
ssg12
(dp33
g5
I36
sg6
I4
sg7
I2
sg8
I0
sg9
I42
sg10
I0
sg11
I30
ssg14
(dp34
g5
I1370
sg6
I33
sg7
I14
sg8
I0
sg9
I1
sg10
I5
sg11
I1370
ssg16
(dp35
g5
I1892
sg6
I38
sg7
I8
sg8
I28
sg9
I2
sg10
I0
sg11
I930
sss.(dp0
S'K_all3.csv'
p1
(dp2
S'machine'
p3
(dp4
S'count'
p5
I721
sS'truepos'
p6
I35
sS'falseneg'
p7
I5
sS'correction'
p8
I7
sS'unknownyes'
p9
I5
sS'falsepos'
p10
I3
sS'unique'
p11
I410
ssS'knee'
p12
(dp13
g5
I398
sg6
I31
sg7
I5
sg8
I6
sg9
I9
sg10
I2
sg11
I270
ssS'none'
p14
(dp15
g5
I1060
sg6
I25
sg7
I15
sg8
I0
sg9
I5
sg10
I5
sg11
I1060
ssS'three'
p16
(dp17
g5
I1225
sg6
I33
sg7
I7
sg8
I22
sg9
I5
sg10
I0
sg11
I600
sssS'Wahono.csv'
p18
(dp19
g3
(dp20
g5
I1765
sg6
I53
sg7
I7
sg8
I14
sg9
I2
sg10
I4
sg11
I1170
ssg12
(dp21
g5
I136
sg6
I17
sg7
I1
sg8
I3
sg9
I44
sg10
I1
sg11
I90
ssg14
(dp22
g5
I1670
sg6
I46
sg7
I15
sg8
I0
sg9
I1
sg10
I4
sg11
I1670
ssg16
(dp23
g5
I3038
sg6
I50
sg7
I11
sg8
I35
sg9
I1
sg10
I0
sg11
I1500
sssS'Hall.csv'
p24
(dp25
g3
(dp26
g5
I1086
sg6
I89
sg7
I13
sg8
I25
sg9
I2
sg10
I1
sg11
I680
ssg12
(dp27
g5
I587
sg6
I79
sg7
I22
sg8
I12
sg9
I3
sg10
I0
sg11
I420
ssg14
(dp28
g5
I1470
sg6
I61
sg7
I41
sg8
I0
sg9
I2
sg10
I6
sg11
I1470
ssg16
(dp29
g5
I1543
sg6
I77
sg7
I25
sg8
I37
sg9
I2
sg10
I0
sg11
I750
sssS'Danijel.csv'
p30
(dp31
g3
(dp32
g5
I1399
sg6
I39
sg7
I7
sg8
I13
sg9
I2
sg10
I1
sg11
I920
ssg12
(dp33
g5
I670
sg6
I34
sg7
I1
sg8
I13
sg9
I13
sg10
I1
sg11
I440
ssg14
(dp34
g5
I1710
sg6
I29
sg7
I18
sg8
I0
sg9
I1
sg10
I6
sg11
I1710
ssg16
(dp35
g5
I2525
sg6
I33
sg7
I12
sg8
I20
sg9
I3
sg10
I0
sg11
I1250
sss.(dp0
S'K_all3.csv'
p1
(dp2
S'machine'
p3
(dp4
S'count'
p5
I600
sS'truepos'
p6
I29
sS'falseneg'
p7
I6
sS'correction'
p8
I5
sS'unknownyes'
p9
I10
sS'falsepos'
p10
I5
sS'unique'
p11
I450
ssS'knee'
p12
(dp13
g5
I1194
sg6
I41
sg7
I1
sg8
I6
sg9
I3
sg10
I7
sg11
I780
ssS'none'
p14
(dp15
g5
I470
sg6
I31
sg7
I10
sg8
I0
sg9
I4
sg10
I3
sg11
I470
ssS'three'
p16
(dp17
g5
I1102
sg6
I32
sg7
I10
sg8
I20
sg9
I3
sg10
I0
sg11
I540
sssS'Wahono.csv'
p18
(dp19
g3
(dp20
g5
I1300
sg6
I52
sg7
I3
sg8
I10
sg9
I7
sg10
I4
sg11
I830
ssg12
(dp21
g5
I168
sg6
I16
sg7
I6
sg8
I2
sg9
I40
sg10
I0
sg11
I120
ssg14
(dp22
g5
I1500
sg6
I39
sg7
I22
sg8
I0
sg9
I1
sg10
I4
sg11
I1500
ssg16
(dp23
g5
I2776
sg6
I46
sg7
I13
sg8
I31
sg9
I3
sg10
I0
sg11
I1370
sssS'Hall.csv'
p24
(dp25
g3
(dp26
g5
I636
sg6
I92
sg7
I10
sg8
I16
sg9
I2
sg10
I1
sg11
I480
ssg12
(dp27
g5
I526
sg6
I82
sg7
I18
sg8
I16
sg9
I4
sg10
I0
sg11
I330
ssg14
(dp28
g5
I780
sg6
I72
sg7
I30
sg8
I0
sg9
I2
sg10
I1
sg11
I780
ssg16
(dp29
g5
I1487
sg6
I80
sg7
I22
sg8
I40
sg9
I2
sg10
I0
sg11
I720
sssS'Danijel.csv'
p30
(dp31
g3
(dp32
g5
I1197
sg6
I42
sg7
I4
sg8
I5
sg9
I2
sg10
I2
sg11
I820
ssg12
(dp33
g5
I84
sg6
I7
sg7
I3
sg8
I1
sg9
I38
sg10
I0
sg11
I60
ssg14
(dp34
g5
I1190
sg6
I35
sg7
I11
sg8
I0
sg9
I2
sg10
I1
sg11
I1190
ssg16
(dp35
g5
I2328
sg6
I34
sg7
I12
sg8
I25
sg9
I2
sg10
I0
sg11
I1150
sss.(dp0
S'K_all3.csv'
p1
(dp2
S'machine'
p3
(dp4
S'count'
p5
I570
sS'truepos'
p6
I29
sS'falseneg'
p7
I5
sS'correction'
p8
I7
sS'unknownyes'
p9
I11
sS'falsepos'
p10
I4
sS'unique'
p11
I440
ssS'knee'
p12
(dp13
g5
I330
sg6
I24
sg7
I4
sg8
I5
sg9
I17
sg10
I2
sg11
I200
ssS'none'
p14
(dp15
g5
I440
sg6
I31
sg7
I8
sg8
I0
sg9
I6
sg10
I3
sg11
I440
ssS'three'
p16
(dp17
g5
I1176
sg6
I32
sg7
I10
sg8
I34
sg9
I3
sg10
I0
sg11
I570
sssS'Wahono.csv'
p18
(dp19
g3
(dp20
g5
I1790
sg6
I52
sg7
I6
sg8
I10
sg9
I4
sg10
I3
sg11
I1340
ssg12
(dp21
g5
I203
sg6
I23
sg7
I1
sg8
I6
sg9
I38
sg10
I0
sg11
I130
ssg14
(dp22
g5
I1410
sg6
I48
sg7
I13
sg8
I0
sg9
I1
sg10
I3
sg11
I1410
ssg16
(dp23
g5
I2965
sg6
I45
sg7
I16
sg8
I19
sg9
I1
sg10
I0
sg11
I1470
sssS'Hall.csv'
p24
(dp25
g3
(dp26
g5
I613
sg6
I87
sg7
I15
sg8
I22
sg9
I2
sg10
I1
sg11
I470
ssg12
(dp27
g5
I727
sg6
I90
sg7
I12
sg8
I23
sg9
I2
sg10
I1
sg11
I510
ssg14
(dp28
g5
I640
sg6
I75
sg7
I27
sg8
I0
sg9
I2
sg10
I3
sg11
I640
ssg16
(dp29
g5
I1183
sg6
I84
sg7
I18
sg8
I39
sg9
I2
sg10
I0
sg11
I570
sssS'Danijel.csv'
p30
(dp31
g3
(dp32
g5
I1119
sg6
I38
sg7
I6
sg8
I13
sg9
I4
sg10
I2
sg11
I780
ssg12
(dp33
g5
I655
sg6
I35
sg7
I8
sg8
I5
sg9
I5
sg10
I0
sg11
I510
ssg14
(dp34
g5
I1230
sg6
I34
sg7
I12
sg8
I0
sg9
I2
sg10
I4
sg11
I1230
ssg16
(dp35
g5
I2149
sg6
I30
sg7
I16
sg8
I21
sg9
I2
sg10
I0
sg11
I1060
sss.(dp0
S'K_all3.csv'
p1
(dp2
S'machine'
p3
(dp4
S'count'
p5
I590
sS'truepos'
p6
I31
sS'falseneg'
p7
I8
sS'correction'
p8
I3
sS'unknownyes'
p9
I6
sS'falsepos'
p10
I7
sS'unique'
p11
I450
ssS'knee'
p12
(dp13
g5
I1231
sg6
I37
sg7
I5
sg8
I9
sg9
I3
sg10
I9
sg11
I820
ssS'none'
p14
(dp15
g5
I490
sg6
I29
sg7
I11
sg8
I0
sg9
I5
sg10
I2
sg11
I490
ssS'three'
p16
(dp17
g5
I986
sg6
I28
sg7
I11
sg8
I22
sg9
I6
sg10
I1
sg11
I480
sssS'Wahono.csv'
p18
(dp19
g3
(dp20
g5
I1589
sg6
I58
sg7
I1
sg8
I12
sg9
I3
sg10
I2
sg11
I1160
ssg12
(dp21
g5
I1048
sg6
I45
sg7
I9
sg8
I10
sg9
I8
sg10
I3
sg11
I680
ssg14
(dp22
g5
I1600
sg6
I39
sg7
I20
sg8
I0
sg9
I3
sg10
I1
sg11
I1600
ssg16
(dp23
g5
I3052
sg6
I47
sg7
I14
sg8
I25
sg9
I1
sg10
I0
sg11
I1510
sssS'Hall.csv'
p24
(dp25
g3
(dp26
g5
I375
sg6
I84
sg7
I11
sg8
I14
sg9
I9
sg10
I1
sg11
I260
ssg12
(dp27
g5
I615
sg6
I87
sg7
I11
sg8
I20
sg9
I6
sg10
I2
sg11
I460
ssg14
(dp28
g5
I760
sg6
I59
sg7
I43
sg8
I0
sg9
I2
sg10
I2
sg11
I760
ssg16
(dp29
g5
I1726
sg6
I81
sg7
I21
sg8
I40
sg9
I2
sg10
I0
sg11
I840
sssS'Danijel.csv'
p30
(dp31
g3
(dp32
g5
I1164
sg6
I37
sg7
I8
sg8
I4
sg9
I3
sg10
I3
sg11
I820
ssg12
(dp33
g5
I605
sg6
I36
sg7
I6
sg8
I3
sg9
I6
sg10
I0
sg11
I420
ssg14
(dp34
g5
I1360
sg6
I36
sg7
I11
sg8
I0
sg9
I1
sg10
I3
sg11
I1360
ssg16
(dp35
g5
I1774
sg6
I39
sg7
I6
sg8
I13
sg9
I3
sg10
I0
sg11
I880
sss.(dp0
S'K_all3.csv'
p1
(dp2
S'machine'
p3
(dp4
S'count'
p5
I688
sS'truepos'
p6
I32
sS'falseneg'
p7
I6
sS'correction'
p8
I7
sS'unknownyes'
p9
I7
sS'falsepos'
p10
I7
sS'unique'
p11
I470
ssS'knee'
p12
(dp13
g5
I1378
sg6
I38
sg7
I6
sg8
I8
sg9
I1
sg10
I5
sg11
I970
ssS'none'
p14
(dp15
g5
I570
sg6
I31
sg7
I9
sg8
I0
sg9
I5
sg10
I5
sg11
I570
ssS'three'
p16
(dp17
g5
I938
sg6
I34
sg7
I6
sg8
I18
sg9
I5
sg10
I0
sg11
I460
sssS'Wahono.csv'
p18
(dp19
g3
(dp20
g5
I1686
sg6
I55
sg7
I5
sg8
I15
sg9
I2
sg10
I7
sg11
I1250
ssg12
(dp21
g5
I24
sg6
I6
sg7
I0
sg8
I0
sg9
I56
sg10
I0
sg11
I20
ssg14
(dp22
g5
I1490
sg6
I44
sg7
I15
sg8
I0
sg9
I3
sg10
I5
sg11
I1490
ssg16
(dp23
g5
I2690
sg6
I44
sg7
I15
sg8
I27
sg9
I3
sg10
I0
sg11
I1330
sssS'Hall.csv'
p24
(dp25
g3
(dp26
g5
I782
sg6
I91
sg7
I11
sg8
I11
sg9
I2
sg10
I3
sg11
I600
ssg12
(dp27
g5
I741
sg6
I91
sg7
I10
sg8
I20
sg9
I3
sg10
I0
sg11
I530
ssg14
(dp28
g5
I770
sg6
I76
sg7
I26
sg8
I0
sg9
I2
sg10
I4
sg11
I770
ssg16
(dp29
g5
I1341
sg6
I81
sg7
I21
sg8
I35
sg9
I2
sg10
I0
sg11
I650
sssS'Danijel.csv'
p30
(dp31
g3
(dp32
g5
I1088
sg6
I40
sg7
I4
sg8
I9
sg9
I4
sg10
I3
sg11
I720
ssg12
(dp33
g5
I278
sg6
I26
sg7
I2
sg8
I4
sg9
I20
sg10
I0
sg11
I170
ssg14
(dp34
g5
I1270
sg6
I29
sg7
I17
sg8
I0
sg9
I2
sg10
I2
sg11
I1270
ssg16
(dp35
g5
I2024
sg6
I34
sg7
I12
sg8
I20
sg9
I2
sg10
I0
sg11
I1000
sss.(dp0
S'K_all3.csv'
p1
(dp2
S'machine'
p3
(dp4
S'count'
p5
I736
sS'truepos'
p6
I36
sS'falseneg'
p7
I4
sS'correction'
p8
I7
sS'unknownyes'
p9
I5
sS'falsepos'
p10
I4
sS'unique'
p11
I510
ssS'knee'
p12
(dp13
g5
I1571
sg6
I39
sg7
I6
sg8
I12
sg9
I0
sg10
I9
sg11
I1150
ssS'none'
p14
(dp15
g5
I520
sg6
I29
sg7
I8
sg8
I0
sg9
I8
sg10
I2
sg11
I520
ssS'three'
p16
(dp17
g5
I1181
sg6
I32
sg7
I10
sg8
I15
sg9
I3
sg10
I0
sg11
I580
sssS'Wahono.csv'
p18
(dp19
g3
(dp20
g5
I1795
sg6
I48
sg7
I11
sg8
I14
sg9
I3
sg10
I5
sg11
I1280
ssg12
(dp21
g5
I463
sg6
I34
sg7
I6
sg8
I8
sg9
I22
sg10
I3
sg11
I270
ssg14
(dp22
g5
I1590
sg6
I46
sg7
I14
sg8
I0
sg9
I2
sg10
I3
sg11
I1590
ssg16
(dp23
g5
I2664
sg6
I42
sg7
I17
sg8
I19
sg9
I3
sg10
I0
sg11
I1320
sssS'Hall.csv'
p24
(dp25
g3
(dp26
g5
I595
sg6
I87
sg7
I12
sg8
I24
sg9
I5
sg10
I2
sg11
I420
ssg12
(dp27
g5
I34
sg6
I8
sg7
I2
sg8
I0
sg9
I94
sg10
I0
sg11
I30
ssg14
(dp28
g5
I530
sg6
I78
sg7
I23
sg8
I0
sg9
I3
sg10
I2
sg11
I530
ssg16
(dp29
g5
I1452
sg6
I84
sg7
I19
sg8
I45
sg9
I1
sg10
I0
sg11
I700
sssS'Danijel.csv'
p30
(dp31
g3
(dp32
g5
I1127
sg6
I41
sg7
I3
sg8
I8
sg9
I4
sg10
I1
sg11
I810
ssg12
(dp33
g5
I1242
sg6
I38
sg7
I8
sg8
I7
sg9
I2
sg10
I3
sg11
I840
ssg14
(dp34
g5
I1240
sg6
I34
sg7
I12
sg8
I0
sg9
I2
sg10
I4
sg11
I1240
ssg16
(dp35
g5
I1883
sg6
I34
sg7
I12
sg8
I20
sg9
I2
sg10
I0
sg11
I930
sss.(dp0
S'K_all3.csv'
p1
(dp2
S'machine'
p3
(dp4
S'count'
p5
I569
sS'truepos'
p6
I31
sS'falseneg'
p7
I6
sS'correction'
p8
I6
sS'unknownyes'
p9
I8
sS'falsepos'
p10
I8
sS'unique'
p11
I370
ssS'knee'
p12
(dp13
g5
I1732
sg6
I40
sg7
I4
sg8
I12
sg9
I1
sg10
I7
sg11
I1400
ssS'none'
p14
(dp15
g5
I600
sg6
I30
sg7
I12
sg8
I0
sg9
I3
sg10
I1
sg11
I600
ssS'three'
p16
(dp17
g5
I1066
sg6
I28
sg7
I11
sg8
I25
sg9
I6
sg10
I0
sg11
I520
sssS'Wahono.csv'
p18
(dp19
g3
(dp20
g5
I1778
sg6
I52
sg7
I8
sg8
I13
sg9
I2
sg10
I5
sg11
I1230
ssg12
(dp21
g5
I282
sg6
I23
sg7
I2
sg8
I5
sg9
I37
sg10
I0
sg11
I180
ssg14
(dp22
g5
I1120
sg6
I39
sg7
I21
sg8
I0
sg9
I2
sg10
I0
sg11
I1120
ssg16
(dp23
g5
I2550
sg6
I48
sg7
I11
sg8
I28
sg9
I3
sg10
I0
sg11
I1260
sssS'Hall.csv'
p24
(dp25
g3
(dp26
g5
I784
sg6
I84
sg7
I18
sg8
I13
sg9
I2
sg10
I2
sg11
I610
ssg12
(dp27
g5
I780
sg6
I81
sg7
I21
sg8
I23
sg9
I2
sg10
I0
sg11
I600
ssg14
(dp28
g5
I710
sg6
I70
sg7
I32
sg8
I0
sg9
I2
sg10
I3
sg11
I710
ssg16
(dp29
g5
I1424
sg6
I77
sg7
I25
sg8
I40
sg9
I2
sg10
I0
sg11
I690
sssS'Danijel.csv'
p30
(dp31
g3
(dp32
g5
I1163
sg6
I40
sg7
I5
sg8
I12
sg9
I3
sg10
I3
sg11
I860
ssg12
(dp33
g5
I1116
sg6
I41
sg7
I5
sg8
I15
sg9
I2
sg10
I2
sg11
I750
ssg14
(dp34
g5
I1020
sg6
I31
sg7
I16
sg8
I0
sg9
I1
sg10
I3
sg11
I1020
ssg16
(dp35
g5
I2100
sg6
I34
sg7
I12
sg8
I18
sg9
I2
sg10
I0
sg11
I1040
sss.(dp0
S'K_all3.csv'
p1
(dp2
S'machine'
p3
(dp4
S'count'
p5
I682
sS'truepos'
p6
I32
sS'falseneg'
p7
I8
sS'correction'
p8
I5
sS'unknownyes'
p9
I5
sS'falsepos'
p10
I6
sS'unique'
p11
I480
ssS'knee'
p12
(dp13
g5
I1249
sg6
I37
sg7
I7
sg8
I10
sg9
I1
sg10
I2
sg11
I1060
ssS'none'
p14
(dp15
g5
I490
sg6
I29
sg7
I11
sg8
I0
sg9
I5
sg10
I1
sg11
I490
ssS'three'
p16
(dp17
g5
I1091
sg6
I32
sg7
I9
sg8
I29
sg9
I4
sg10
I0
sg11
I530
sssS'Wahono.csv'
p18
(dp19
g3
(dp20
g5
I2110
sg6
I52
sg7
I7
sg8
I7
sg9
I3
sg10
I7
sg11
I1530
ssg12
(dp21
g5
I695
sg6
I35
sg7
I11
sg8
I7
sg9
I16
sg10
I1
sg11
I450
ssg14
(dp22
g5
I1380
sg6
I45
sg7
I14
sg8
I0
sg9
I3
sg10
I3
sg11
I1380
ssg16
(dp23
g5
I2716
sg6
I47
sg7
I13
sg8
I32
sg9
I2
sg10
I0
sg11
I1340
sssS'Hall.csv'
p24
(dp25
g3
(dp26
g5
I573
sg6
I93
sg7
I9
sg8
I15
sg9
I2
sg10
I2
sg11
I420
ssg12
(dp27
g5
I580
sg6
I82
sg7
I17
sg8
I14
sg9
I5
sg10
I0
sg11
I420
ssg14
(dp28
g5
I730
sg6
I75
sg7
I27
sg8
I0
sg9
I2
sg10
I1
sg11
I730
ssg16
(dp29
g5
I1561
sg6
I82
sg7
I20
sg8
I36
sg9
I2
sg10
I0
sg11
I760
sssS'Danijel.csv'
p30
(dp31
g3
(dp32
g5
I1077
sg6
I37
sg7
I7
sg8
I8
sg9
I4
sg10
I2
sg11
I740
ssg12
(dp33
g5
I288
sg6
I17
sg7
I7
sg8
I1
sg9
I24
sg10
I0
sg11
I210
ssg14
(dp34
g5
I840
sg6
I36
sg7
I10
sg8
I0
sg9
I2
sg10
I2
sg11
I840
ssg16
(dp35
g5
I2469
sg6
I37
sg7
I9
sg8
I25
sg9
I2
sg10
I0
sg11
I1220
sss.(dp0
S'K_all3.csv'
p1
(dp2
S'machine'
p3
(dp4
S'count'
p5
I702
sS'truepos'
p6
I31
sS'falseneg'
p7
I8
sS'correction'
p8
I5
sS'unknownyes'
p9
I6
sS'falsepos'
p10
I7
sS'unique'
p11
I460
ssS'knee'
p12
(dp13
g5
I369
sg6
I26
sg7
I3
sg8
I6
sg9
I16
sg10
I3
sg11
I240
ssS'none'
p14
(dp15
g5
I770
sg6
I30
sg7
I13
sg8
I0
sg9
I2
sg10
I3
sg11
I770
ssS'three'
p16
(dp17
g5
I1188
sg6
I34
sg7
I8
sg8
I24
sg9
I3
sg10
I0
sg11
I580
sssS'Wahono.csv'
p18
(dp19
g3
(dp20
g5
I1765
sg6
I54
sg7
I5
sg8
I10
sg9
I3
sg10
I5
sg11
I1270
ssg12
(dp21
g5
I1028
sg6
I48
sg7
I5
sg8
I10
sg9
I9
sg10
I0
sg11
I680
ssg14
(dp22
g5
I1450
sg6
I40
sg7
I20
sg8
I0
sg9
I2
sg10
I4
sg11
I1450
ssg16
(dp23
g5
I2669
sg6
I43
sg7
I17
sg8
I25
sg9
I2
sg10
I0
sg11
I1320
sssS'Hall.csv'
p24
(dp25
g3
(dp26
g5
I798
sg6
I89
sg7
I13
sg8
I24
sg9
I2
sg10
I2
sg11
I570
ssg12
(dp27
g5
I23
sg6
I7
sg7
I1
sg8
I0
sg9
I96
sg10
I0
sg11
I20
ssg14
(dp28
g5
I660
sg6
I68
sg7
I33
sg8
I0
sg9
I3
sg10
I2
sg11
I660
ssg16
(dp29
g5
I1186
sg6
I77
sg7
I25
sg8
I39
sg9
I2
sg10
I0
sg11
I570
sssS'Danijel.csv'
p30
(dp31
g3
(dp32
g5
I1356
sg6
I38
sg7
I8
sg8
I5
sg9
I2
sg10
I3
sg11
I920
ssg12
(dp33
g5
I875
sg6
I39
sg7
I5
sg8
I9
sg9
I4
sg10
I2
sg11
I610
ssg14
(dp34
g5
I1380
sg6
I36
sg7
I10
sg8
I0
sg9
I2
sg10
I8
sg11
I1380
ssg16
(dp35
g5
I3143
sg6
I29
sg7
I18
sg8
I19
sg9
I1
sg10
I0
sg11
I1560
sss.(dp0
S'K_all3.csv'
p1
(dp2
S'machine'
p3
(dp4
S'count'
p5
I599
sS'truepos'
p6
I32
sS'falseneg'
p7
I5
sS'correction'
p8
I8
sS'unknownyes'
p9
I8
sS'falsepos'
p10
I7
sS'unique'
p11
I400
ssS'knee'
p12
(dp13
g5
I1376
sg6
I43
sg7
I1
sg8
I8
sg9
I1
sg10
I11
sg11
I940
ssS'none'
p14
(dp15
g5
I510
sg6
I31
sg7
I10
sg8
I0
sg9
I4
sg10
I7
sg11
I510
ssS'three'
p16
(dp17
g5
I1046
sg6
I27
sg7
I12
sg8
I24
sg9
I6
sg10
I0
sg11
I510
sssS'Wahono.csv'
p18
(dp19
g3
(dp20
g5
I1705
sg6
I57
sg7
I1
sg8
I13
sg9
I4
sg10
I7
sg11
I1270
ssg12
(dp21
g5
I735
sg6
I44
sg7
I5
sg8
I11
sg9
I13
sg10
I1
sg11
I510
ssg14
(dp22
g5
I1350
sg6
I49
sg7
I13
sg8
I0
sg9
I0
sg10
I3
sg11
I1350
ssg16
(dp23
g5
I2906
sg6
I48
sg7
I13
sg8
I24
sg9
I1
sg10
I0
sg11
I1440
sssS'Hall.csv'
p24
(dp25
g3
(dp26
g5
I590
sg6
I93
sg7
I9
sg8
I15
sg9
I2
sg10
I3
sg11
I450
ssg12
(dp27
g5
I785
sg6
I92
sg7
I10
sg8
I29
sg9
I2
sg10
I3
sg11
I570
ssg14
(dp28
g5
I990
sg6
I76
sg7
I27
sg8
I0
sg9
I1
sg10
I0
sg11
I990
ssg16
(dp29
g5
I1163
sg6
I85
sg7
I17
sg8
I40
sg9
I2
sg10
I0
sg11
I560
sssS'Danijel.csv'
p30
(dp31
g3
(dp32
g5
I1128
sg6
I41
sg7
I5
sg8
I4
sg9
I2
sg10
I4
sg11
I780
ssg12
(dp33
g5
I1084
sg6
I38
sg7
I7
sg8
I10
sg9
I3
sg10
I4
sg11
I710
ssg14
(dp34
g5
I960
sg6
I36
sg7
I10
sg8
I0
sg9
I2
sg10
I2
sg11
I960
ssg16
(dp35
g5
I2146
sg6
I37
sg7
I9
sg8
I24
sg9
I2
sg10
I0
sg11
I1060
sss.(dp0
S'K_all3.csv'
p1
(dp2
S'machine'
p3
(dp4
S'count'
p5
I758
sS'truepos'
p6
I35
sS'falseneg'
p7
I6
sS'correction'
p8
I6
sS'unknownyes'
p9
I4
sS'falsepos'
p10
I4
sS'unique'
p11
I490
ssS'knee'
p12
(dp13
g5
I924
sg6
I35
sg7
I8
sg8
I12
sg9
I2
sg10
I2
sg11
I750
ssS'none'
p14
(dp15
g5
I460
sg6
I34
sg7
I6
sg8
I0
sg9
I5
sg10
I1
sg11
I460
ssS'three'
p16
(dp17
g5
I1150
sg6
I33
sg7
I9
sg8
I28
sg9
I3
sg10
I1
sg11
I560
sssS'Wahono.csv'
p18
(dp19
g3
(dp20
g5
I1599
sg6
I56
sg7
I3
sg8
I16
sg9
I3
sg10
I2
sg11
I1150
ssg12
(dp21
g5
I769
sg6
I42
sg7
I9
sg8
I8
sg9
I11
sg10
I0
sg11
I570
ssg14
(dp22
g5
I1340
sg6
I44
sg7
I17
sg8
I0
sg9
I1
sg10
I6
sg11
I1340
ssg16
(dp23
g5
I2769
sg6
I48
sg7
I12
sg8
I24
sg9
I2
sg10
I0
sg11
I1370
sssS'Hall.csv'
p24
(dp25
g3
(dp26
g5
I811
sg6
I92
sg7
I10
sg8
I21
sg9
I2
sg10
I6
sg11
I610
ssg12
(dp27
g5
I726
sg6
I85
sg7
I17
sg8
I16
sg9
I2
sg10
I2
sg11
I550
ssg14
(dp28
g5
I660
sg6
I76
sg7
I26
sg8
I0
sg9
I2
sg10
I2
sg11
I660
ssg16
(dp29
g5
I1223
sg6
I84
sg7
I18
sg8
I34
sg9
I2
sg10
I0
sg11
I590
sssS'Danijel.csv'
p30
(dp31
g3
(dp32
g5
I1312
sg6
I36
sg7
I8
sg8
I12
sg9
I4
sg10
I1
sg11
I950
ssg12
(dp33
g5
I1156
sg6
I37
sg7
I8
sg8
I10
sg9
I3
sg10
I1
sg11
I760
ssg14
(dp34
g5
I800
sg6
I37
sg7
I9
sg8
I0
sg9
I2
sg10
I1
sg11
I800
ssg16
(dp35
g5
I2341
sg6
I36
sg7
I10
sg8
I20
sg9
I2
sg10
I0
sg11
I1160
sss.(dp0
S'K_all3.csv'
p1
(dp2
S'machine'
p3
(dp4
S'count'
p5
I619
sS'truepos'
p6
I36
sS'falseneg'
p7
I3
sS'correction'
p8
I6
sS'unknownyes'
p9
I6
sS'falsepos'
p10
I2
sS'unique'
p11
I430
ssS'knee'
p12
(dp13
g5
I1104
sg6
I35
sg7
I7
sg8
I14
sg9
I3
sg10
I6
sg11
I900
ssS'none'
p14
(dp15
g5
I500
sg6
I26
sg7
I13
sg8
I0
sg9
I6
sg10
I4
sg11
I500
ssS'three'
p16
(dp17
g5
I1011
sg6
I28
sg7
I11
sg8
I26
sg9
I6
sg10
I0
sg11
I490
sssS'Wahono.csv'
p18
(dp19
g3
(dp20
g5
I1765
sg6
I50
sg7
I9
sg8
I11
sg9
I3
sg10
I3
sg11
I1280
ssg12
(dp21
g5
I501
sg6
I38
sg7
I6
sg8
I7
sg9
I18
sg10
I0
sg11
I310
ssg14
(dp22
g5
I1460
sg6
I42
sg7
I18
sg8
I0
sg9
I2
sg10
I2
sg11
I1460
ssg16
(dp23
g5
I3048
sg6
I49
sg7
I11
sg8
I26
sg9
I2
sg10
I0
sg11
I1510
sssS'Hall.csv'
p24
(dp25
g3
(dp26
g5
I686
sg6
I93
sg7
I9
sg8
I19
sg9
I2
sg10
I3
sg11
I520
ssg12
(dp27
g5
I513
sg6
I84
sg7
I14
sg8
I17
sg9
I6
sg10
I1
sg11
I350
ssg14
(dp28
g5
I1430
sg6
I70
sg7
I33
sg8
I0
sg9
I1
sg10
I5
sg11
I1430
ssg16
(dp29
g5
I1454
sg6
I84
sg7
I18
sg8
I45
sg9
I2
sg10
I0
sg11
I700
sssS'Danijel.csv'
p30
(dp31
g3
(dp32
g5
I1149
sg6
I45
sg7
I0
sg8
I7
sg9
I3
sg10
I3
sg11
I830
ssg12
(dp33
g5
I483
sg6
I35
sg7
I6
sg8
I6
sg9
I7
sg10
I0
sg11
I300
ssg14
(dp34
g5
I1490
sg6
I31
sg7
I15
sg8
I0
sg9
I2
sg10
I2
sg11
I1490
ssg16
(dp35
g5
I2964
sg6
I33
sg7
I13
sg8
I19
sg9
I2
sg10
I0
sg11
I1470
sss.(dp0
S'K_all3.csv'
p1
(dp2
S'machine'
p3
(dp4
S'count'
p5
I671
sS'truepos'
p6
I33
sS'falseneg'
p7
I7
sS'correction'
p8
I6
sS'unknownyes'
p9
I5
sS'falsepos'
p10
I5
sS'unique'
p11
I450
ssS'knee'
p12
(dp13
g5
I1661
sg6
I40
sg7
I5
sg8
I13
sg9
I0
sg10
I7
sg11
I1330
ssS'none'
p14
(dp15
g5
I450
sg6
I25
sg7
I9
sg8
I0
sg9
I11
sg10
I9
sg11
I450
ssS'three'
p16
(dp17
g5
I969
sg6
I32
sg7
I8
sg8
I25
sg9
I5
sg10
I0
sg11
I470
sssS'Wahono.csv'
p18
(dp19
g3
(dp20
g5
I1918
sg6
I50
sg7
I9
sg8
I16
sg9
I3
sg10
I7
sg11
I1390
ssg12
(dp21
g5
I236
sg6
I25
sg7
I1
sg8
I7
sg9
I36
sg10
I0
sg11
I170
ssg14
(dp22
g5
I1510
sg6
I42
sg7
I19
sg8
I0
sg9
I1
sg10
I5
sg11
I1510
ssg16
(dp23
g5
I3091
sg6
I45
sg7
I15
sg8
I24
sg9
I2
sg10
I0
sg11
I1530
sssS'Hall.csv'
p24
(dp25
g3
(dp26
g5
I682
sg6
I95
sg7
I7
sg8
I18
sg9
I2
sg10
I2
sg11
I530
ssg12
(dp27
g5
I827
sg6
I81
sg7
I21
sg8
I24
sg9
I2
sg10
I1
sg11
I660
ssg14
(dp28
g5
I520
sg6
I79
sg7
I23
sg8
I0
sg9
I2
sg10
I2
sg11
I520
ssg16
(dp29
g5
I1316
sg6
I72
sg7
I30
sg8
I48
sg9
I2
sg10
I0
sg11
I630
sssS'Danijel.csv'
p30
(dp31
g3
(dp32
g5
I1102
sg6
I41
sg7
I5
sg8
I9
sg9
I2
sg10
I3
sg11
I770
ssg12
(dp33
g5
I954
sg6
I39
sg7
I3
sg8
I13
sg9
I6
sg10
I5
sg11
I620
ssg14
(dp34
g5
I1100
sg6
I30
sg7
I16
sg8
I0
sg9
I2
sg10
I2
sg11
I1100
ssg16
(dp35
g5
I2512
sg6
I36
sg7
I10
sg8
I28
sg9
I2
sg10
I0
sg11
I1240
sss.(dp0
S'K_all3.csv'
p1
(dp2
S'machine'
p3
(dp4
S'count'
p5
I639
sS'truepos'
p6
I27
sS'falseneg'
p7
I8
sS'correction'
p8
I1
sS'unknownyes'
p9
I10
sS'falsepos'
p10
I5
sS'unique'
p11
I460
ssS'knee'
p12
(dp13
g5
I1383
sg6
I32
sg7
I12
sg8
I13
sg9
I1
sg10
I3
sg11
I1160
ssS'none'
p14
(dp15
g5
I550
sg6
I24
sg7
I15
sg8
I0
sg9
I6
sg10
I4
sg11
I550
ssS'three'
p16
(dp17
g5
I1007
sg6
I36
sg7
I5
sg8
I27
sg9
I4
sg10
I0
sg11
I490
sssS'Wahono.csv'
p18
(dp19
g3
(dp20
g5
I1888
sg6
I57
sg7
I2
sg8
I6
sg9
I3
sg10
I4
sg11
I1380
ssg12
(dp21
g5
I835
sg6
I45
sg7
I6
sg8
I10
sg9
I11
sg10
I3
sg11
I500
ssg14
(dp22
g5
I1680
sg6
I41
sg7
I19
sg8
I0
sg9
I2
sg10
I6
sg11
I1680
ssg16
(dp23
g5
I2778
sg6
I40
sg7
I19
sg8
I35
sg9
I3
sg10
I0
sg11
I1370
sssS'Hall.csv'
p24
(dp25
g3
(dp26
g5
I588
sg6
I94
sg7
I7
sg8
I27
sg9
I3
sg10
I2
sg11
I400
ssg12
(dp27
g5
I723
sg6
I89
sg7
I13
sg8
I22
sg9
I2
sg10
I1
sg11
I520
ssg14
(dp28
g5
I1520
sg6
I62
sg7
I41
sg8
I0
sg9
I1
sg10
I4
sg11
I1520
ssg16
(dp29
g5
I1327
sg6
I80
sg7
I22
sg8
I40
sg9
I2
sg10
I0
sg11
I640
sssS'Danijel.csv'
p30
(dp31
g3
(dp32
g5
I1117
sg6
I43
sg7
I2
sg8
I7
sg9
I3
sg10
I3
sg11
I730
ssg12
(dp33
g5
I1166
sg6
I39
sg7
I6
sg8
I10
sg9
I3
sg10
I0
sg11
I800
ssg14
(dp34
g5
I1050
sg6
I32
sg7
I13
sg8
I0
sg9
I3
sg10
I2
sg11
I1050
ssg16
(dp35
g5
I2727
sg6
I36
sg7
I10
sg8
I24
sg9
I2
sg10
I0
sg11
I1350
sss.(dp0
S'K_all3.csv'
p1
(dp2
S'machine'
p3
(dp4
S'count'
p5
I580
sS'truepos'
p6
I32
sS'falseneg'
p7
I5
sS'correction'
p8
I6
sS'unknownyes'
p9
I8
sS'falsepos'
p10
I3
sS'unique'
p11
I440
ssS'knee'
p12
(dp13
g5
I1185
sg6
I37
sg7
I6
sg8
I7
sg9
I2
sg10
I6
sg11
I800
ssS'none'
p14
(dp15
g5
I490
sg6
I32
sg7
I9
sg8
I0
sg9
I4
sg10
I5
sg11
I490
ssS'three'
p16
(dp17
g5
I1208
sg6
I32
sg7
I9
sg8
I22
sg9
I4
sg10
I0
sg11
I590
sssS'Wahono.csv'
p18
(dp19
g3
(dp20
g5
I1973
sg6
I54
sg7
I7
sg8
I9
sg9
I1
sg10
I3
sg11
I1450
ssg12
(dp21
g5
I24
sg6
I6
sg7
I0
sg8
I0
sg9
I56
sg10
I0
sg11
I20
ssg14
(dp22
g5
I1570
sg6
I39
sg7
I20
sg8
I0
sg9
I3
sg10
I4
sg11
I1570
ssg16
(dp23
g5
I2967
sg6
I53
sg7
I7
sg8
I26
sg9
I2
sg10
I0
sg11
I1470
sssS'Hall.csv'
p24
(dp25
g3
(dp26
g5
I702
sg6
I94
sg7
I8
sg8
I21
sg9
I2
sg10
I1
sg11
I520
ssg12
(dp27
g5
I755
sg6
I90
sg7
I12
sg8
I16
sg9
I2
sg10
I4
sg11
I540
ssg14
(dp28
g5
I820
sg6
I72
sg7
I30
sg8
I0
sg9
I2
sg10
I3
sg11
I820
ssg16
(dp29
g5
I1337
sg6
I84
sg7
I18
sg8
I28
sg9
I2
sg10
I0
sg11
I650
sssS'Danijel.csv'
p30
(dp31
g3
(dp32
g5
I1245
sg6
I39
sg7
I5
sg8
I11
sg9
I4
sg10
I5
sg11
I840
ssg12
(dp33
g5
I47
sg6
I5
sg7
I3
sg8
I0
sg9
I40
sg10
I0
sg11
I40
ssg14
(dp34
g5
I1060
sg6
I36
sg7
I10
sg8
I0
sg9
I2
sg10
I1
sg11
I1060
ssg16
(dp35
g5
I2873
sg6
I34
sg7
I12
sg8
I30
sg9
I2
sg10
I0
sg11
I1420
sss.(dp0
S'K_all3.csv'
p1
(dp2
S'machine'
p3
(dp4
S'count'
p5
I788
sS'truepos'
p6
I34
sS'falseneg'
p7
I5
sS'correction'
p8
I7
sS'unknownyes'
p9
I6
sS'falsepos'
p10
I4
sS'unique'
p11
I550
ssS'knee'
p12
(dp13
g5
I807
sg6
I29
sg7
I12
sg8
I11
sg9
I4
sg10
I1
sg11
I700
ssS'none'
p14
(dp15
g5
I610
sg6
I20
sg7
I20
sg8
I0
sg9
I5
sg10
I4
sg11
I610
ssS'three'
p16
(dp17
g5
I1081
sg6
I33
sg7
I7
sg8
I21
sg9
I5
sg10
I0
sg11
I530
sssS'Wahono.csv'
p18
(dp19
g3
(dp20
g5
I1941
sg6
I50
sg7
I8
sg8
I10
sg9
I4
sg10
I9
sg11
I1370
ssg12
(dp21
g5
I1369
sg6
I52
sg7
I6
sg8
I14
sg9
I4
sg10
I2
sg11
I1020
ssg14
(dp22
g5
I1940
sg6
I42
sg7
I19
sg8
I0
sg9
I1
sg10
I8
sg11
I1940
ssg16
(dp23
g5
I2995
sg6
I48
sg7
I12
sg8
I31
sg9
I2
sg10
I0
sg11
I1480
sssS'Hall.csv'
p24
(dp25
g3
(dp26
g5
I932
sg6
I91
sg7
I11
sg8
I16
sg9
I2
sg10
I4
sg11
I730
ssg12
(dp27
g5
I665
sg6
I93
sg7
I8
sg8
I26
sg9
I3
sg10
I0
sg11
I450
ssg14
(dp28
g5
I1030
sg6
I72
sg7
I31
sg8
I0
sg9
I1
sg10
I2
sg11
I1030
ssg16
(dp29
g5
I1249
sg6
I83
sg7
I19
sg8
I44
sg9
I2
sg10
I0
sg11
I600
sssS'Danijel.csv'
p30
(dp31
g3
(dp32
g5
I1399
sg6
I41
sg7
I5
sg8
I9
sg9
I2
sg10
I4
sg11
I960
ssg12
(dp33
g5
I433
sg6
I31
sg7
I3
sg8
I4
sg9
I14
sg10
I0
sg11
I270
ssg14
(dp34
g5
I1180
sg6
I30
sg7
I16
sg8
I0
sg9
I2
sg10
I4
sg11
I1180
ssg16
(dp35
g5
I2462
sg6
I35
sg7
I12
sg8
I20
sg9
I1
sg10
I0
sg11
I1220
sss.(dp0
S'K_all3.csv'
p1
(dp2
S'machine'
p3
(dp4
S'count'
p5
I783
sS'truepos'
p6
I37
sS'falseneg'
p7
I4
sS'correction'
p8
I7
sS'unknownyes'
p9
I4
sS'falsepos'
p10
I7
sS'unique'
p11
I560
ssS'knee'
p12
(dp13
g5
I447
sg6
I29
sg7
I2
sg8
I7
sg9
I14
sg10
I2
sg11
I270
ssS'none'
p14
(dp15
g5
I590
sg6
I27
sg7
I12
sg8
I0
sg9
I6
sg10
I7
sg11
I590
ssS'three'
p16
(dp17
g5
I1198
sg6
I28
sg7
I13
sg8
I33
sg9
I4
sg10
I0
sg11
I580
sssS'Wahono.csv'
p18
(dp19
g3
(dp20
g5
I1641
sg6
I58
sg7
I1
sg8
I11
sg9
I3
sg10
I3
sg11
I1190
ssg12
(dp21
g5
I1124
sg6
I44
sg7
I9
sg8
I12
sg9
I9
sg10
I3
sg11
I760
ssg14
(dp22
g5
I1610
sg6
I45
sg7
I14
sg8
I0
sg9
I3
sg10
I2
sg11
I1610
ssg16
(dp23
g5
I2594
sg6
I43
sg7
I16
sg8
I30
sg9
I3
sg10
I0
sg11
I1280
sssS'Hall.csv'
p24
(dp25
g3
(dp26
g5
I669
sg6
I96
sg7
I6
sg8
I21
sg9
I2
sg10
I3
sg11
I500
ssg12
(dp27
g5
I753
sg6
I89
sg7
I13
sg8
I31
sg9
I2
sg10
I2
sg11
I560
ssg14
(dp28
g5
I1040
sg6
I67
sg7
I36
sg8
I0
sg9
I1
sg10
I2
sg11
I1040
ssg16
(dp29
g5
I2054
sg6
I80
sg7
I23
sg8
I44
sg9
I1
sg10
I0
sg11
I1000
sssS'Danijel.csv'
p30
(dp31
g3
(dp32
g5
I1032
sg6
I41
sg7
I4
sg8
I12
sg9
I3
sg10
I0
sg11
I740
ssg12
(dp33
g5
I1045
sg6
I41
sg7
I3
sg8
I9
sg9
I4
sg10
I1
sg11
I710
ssg14
(dp34
g5
I1620
sg6
I30
sg7
I16
sg8
I0
sg9
I2
sg10
I2
sg11
I1620
ssg16
(dp35
g5
I2420
sg6
I36
sg7
I10
sg8
I18
sg9
I2
sg10
I0
sg11
I1200
sss.(dp0
S'K_all3.csv'
p1
(dp2
S'machine'
p3
(dp4
S'count'
p5
I664
sS'truepos'
p6
I28
sS'falseneg'
p7
I9
sS'correction'
p8
I5
sS'unknownyes'
p9
I8
sS'falsepos'
p10
I6
sS'unique'
p11
I480
ssS'knee'
p12
(dp13
g5
I575
sg6
I30
sg7
I3
sg8
I8
sg9
I12
sg10
I5
sg11
I340
ssS'none'
p14
(dp15
g5
I540
sg6
I30
sg7
I11
sg8
I0
sg9
I4
sg10
I4
sg11
I540
ssS'three'
p16
(dp17
g5
I1022
sg6
I34
sg7
I5
sg8
I20
sg9
I6
sg10
I0
sg11
I500
sssS'Wahono.csv'
p18
(dp19
g3
(dp20
g5
I2088
sg6
I54
sg7
I6
sg8
I11
sg9
I2
sg10
I2
sg11
I1610
ssg12
(dp21
g5
I35
sg6
I6
sg7
I3
sg8
I1
sg9
I53
sg10
I0
sg11
I30
ssg14
(dp22
g5
I1530
sg6
I40
sg7
I19
sg8
I0
sg9
I3
sg10
I2
sg11
I1530
ssg16
(dp23
g5
I3349
sg6
I44
sg7
I16
sg8
I23
sg9
I2
sg10
I0
sg11
I1660
sssS'Hall.csv'
p24
(dp25
g3
(dp26
g5
I821
sg6
I90
sg7
I12
sg8
I22
sg9
I2
sg10
I1
sg11
I640
ssg12
(dp27
g5
I669
sg6
I92
sg7
I9
sg8
I16
sg9
I3
sg10
I1
sg11
I440
ssg14
(dp28
g5
I620
sg6
I80
sg7
I22
sg8
I0
sg9
I2
sg10
I1
sg11
I620
ssg16
(dp29
g5
I2155
sg6
I76
sg7
I27
sg8
I44
sg9
I1
sg10
I0
sg11
I1050
sssS'Danijel.csv'
p30
(dp31
g3
(dp32
g5
I1065
sg6
I40
sg7
I6
sg8
I9
sg9
I2
sg10
I5
sg11
I770
ssg12
(dp33
g5
I509
sg6
I33
sg7
I6
sg8
I8
sg9
I9
sg10
I2
sg11
I350
ssg14
(dp34
g5
I1160
sg6
I35
sg7
I10
sg8
I0
sg9
I3
sg10
I5
sg11
I1160
ssg16
(dp35
g5
I2564
sg6
I36
sg7
I10
sg8
I21
sg9
I2
sg10
I0
sg11
I1270
sss.(dp0
S'K_all3.csv'
p1
(dp2
S'machine'
p3
(dp4
S'count'
p5
I610
sS'truepos'
p6
I30
sS'falseneg'
p7
I5
sS'correction'
p8
I5
sS'unknownyes'
p9
I10
sS'falsepos'
p10
I6
sS'unique'
p11
I430
ssS'knee'
p12
(dp13
g5
I960
sg6
I31
sg7
I12
sg8
I8
sg9
I2
sg10
I4
sg11
I760
ssS'none'
p14
(dp15
g5
I610
sg6
I28
sg7
I13
sg8
I0
sg9
I4
sg10
I7
sg11
I610
ssS'three'
p16
(dp17
g5
I1080
sg6
I36
sg7
I6
sg8
I17
sg9
I3
sg10
I0
sg11
I530
sssS'Wahono.csv'
p18
(dp19
g3
(dp20
g5
I1916
sg6
I50
sg7
I9
sg8
I11
sg9
I3
sg10
I7
sg11
I1310
ssg12
(dp21
g5
I199
sg6
I18
sg7
I3
sg8
I5
sg9
I41
sg10
I0
sg11
I140
ssg14
(dp22
g5
I1710
sg6
I46
sg7
I15
sg8
I0
sg9
I1
sg10
I4
sg11
I1710
ssg16
(dp23
g5
I3351
sg6
I48
sg7
I13
sg8
I28
sg9
I1
sg10
I0
sg11
I1660
sssS'Hall.csv'
p24
(dp25
g3
(dp26
g5
I654
sg6
I96
sg7
I6
sg8
I23
sg9
I2
sg10
I1
sg11
I490
ssg12
(dp27
g5
I596
sg6
I87
sg7
I13
sg8
I23
sg9
I4
sg10
I0
sg11
I400
ssg14
(dp28
g5
I1340
sg6
I71
sg7
I32
sg8
I0
sg9
I1
sg10
I9
sg11
I1340
ssg16
(dp29
g5
I1492
sg6
I83
sg7
I19
sg8
I49
sg9
I2
sg10
I0
sg11
I720
sssS'Danijel.csv'
p30
(dp31
g3
(dp32
g5
I1340
sg6
I40
sg7
I6
sg8
I6
sg9
I2
sg10
I5
sg11
I870
ssg12
(dp33
g5
I48
sg6
I3
sg7
I1
sg8
I1
sg9
I44
sg10
I0
sg11
I40
ssg14
(dp34
g5
I1400
sg6
I29
sg7
I18
sg8
I0
sg9
I1
sg10
I0
sg11
I1400
ssg16
(dp35
g5
I1558
sg6
I40
sg7
I6
sg8
I16
sg9
I2
sg10
I0
sg11
I770
sss.(dp0
S'K_all3.csv'
p1
(dp2
S'machine'
p3
(dp4
S'count'
p5
I600
sS'truepos'
p6
I34
sS'falseneg'
p7
I5
sS'correction'
p8
I8
sS'unknownyes'
p9
I6
sS'falsepos'
p10
I5
sS'unique'
p11
I450
ssS'knee'
p12
(dp13
g5
I2083
sg6
I40
sg7
I5
sg8
I24
sg9
I0
sg10
I7
sg11
I1620
ssS'none'
p14
(dp15
g5
I500
sg6
I33
sg7
I9
sg8
I0
sg9
I3
sg10
I1
sg11
I500
ssS'three'
p16
(dp17
g5
I1027
sg6
I28
sg7
I11
sg8
I22
sg9
I6
sg10
I0
sg11
I500
sssS'Wahono.csv'
p18
(dp19
g3
(dp20
g5
I2246
sg6
I53
sg7
I8
sg8
I13
sg9
I1
sg10
I5
sg11
I1660
ssg12
(dp21
g5
I838
sg6
I47
sg7
I5
sg8
I15
sg9
I10
sg10
I1
sg11
I600
ssg14
(dp22
g5
I1400
sg6
I50
sg7
I10
sg8
I0
sg9
I2
sg10
I2
sg11
I1400
ssg16
(dp23
g5
I2927
sg6
I46
sg7
I14
sg8
I25
sg9
I2
sg10
I0
sg11
I1450
sssS'Hall.csv'
p24
(dp25
g3
(dp26
g5
I660
sg6
I85
sg7
I15
sg8
I20
sg9
I4
sg10
I5
sg11
I470
ssg12
(dp27
g5
I726
sg6
I86
sg7
I16
sg8
I14
sg9
I2
sg10
I0
sg11
I550
ssg14
(dp28
g5
I1900
sg6
I68
sg7
I36
sg8
I0
sg9
I0
sg10
I7
sg11
I1900
ssg16
(dp29
g5
I1406
sg6
I79
sg7
I23
sg8
I40
sg9
I2
sg10
I0
sg11
I680
sssS'Danijel.csv'
p30
(dp31
g3
(dp32
g5
I1134
sg6
I40
sg7
I5
sg8
I6
sg9
I3
sg10
I1
sg11
I810
ssg12
(dp33
g5
I2100
sg6
I40
sg7
I6
sg8
I11
sg9
I2
sg10
I2
sg11
I1370
ssg14
(dp34
g5
I830
sg6
I35
sg7
I10
sg8
I0
sg9
I3
sg10
I4
sg11
I830
ssg16
(dp35
g5
I2573
sg6
I36
sg7
I10
sg8
I29
sg9
I2
sg10
I0
sg11
I1270
sss.(dp0
S'K_all3.csv'
p1
(dp2
S'machine'
p3
(dp4
S'count'
p5
I589
sS'truepos'
p6
I30
sS'falseneg'
p7
I5
sS'correction'
p8
I4
sS'unknownyes'
p9
I10
sS'falsepos'
p10
I1
sS'unique'
p11
I450
ssS'knee'
p12
(dp13
g5
I864
sg6
I36
sg7
I4
sg8
I7
sg9
I5
sg10
I1
sg11
I660
ssS'none'
p14
(dp15
g5
I430
sg6
I30
sg7
I8
sg8
I0
sg9
I7
sg10
I2
sg11
I430
ssS'three'
p16
(dp17
g5
I1066
sg6
I31
sg7
I10
sg8
I24
sg9
I4
sg10
I0
sg11
I520
sssS'Wahono.csv'
p18
(dp19
g3
(dp20
g5
I1866
sg6
I55
sg7
I5
sg8
I10
sg9
I2
sg10
I4
sg11
I1380
ssg12
(dp21
g5
I812
sg6
I44
sg7
I7
sg8
I9
sg9
I11
sg10
I1
sg11
I550
ssg14
(dp22
g5
I1860
sg6
I48
sg7
I13
sg8
I0
sg9
I1
sg10
I2
sg11
I1860
ssg16
(dp23
g5
I3274
sg6
I47
sg7
I13
sg8
I32
sg9
I2
sg10
I0
sg11
I1620
sssS'Hall.csv'
p24
(dp25
g3
(dp26
g5
I632
sg6
I94
sg7
I8
sg8
I20
sg9
I2
sg10
I1
sg11
I470
ssg12
(dp27
g5
I434
sg6
I80
sg7
I11
sg8
I13
sg9
I13
sg10
I1
sg11
I280
ssg14
(dp28
g5
I930
sg6
I70
sg7
I32
sg8
I0
sg9
I2
sg10
I2
sg11
I930
ssg16
(dp29
g5
I1316
sg6
I86
sg7
I16
sg8
I48
sg9
I2
sg10
I0
sg11
I630
sssS'Danijel.csv'
p30
(dp31
g3
(dp32
g5
I1610
sg6
I35
sg7
I11
sg8
I11
sg9
I2
sg10
I3
sg11
I1150
ssg12
(dp33
g5
I321
sg6
I30
sg7
I2
sg8
I10
sg9
I16
sg10
I1
sg11
I210
ssg14
(dp34
g5
I1160
sg6
I29
sg7
I17
sg8
I0
sg9
I2
sg10
I3
sg11
I1160
ssg16
(dp35
g5
I3005
sg6
I36
sg7
I11
sg8
I20
sg9
I1
sg10
I0
sg11
I1490
sss.(dp0
S'K_all3.csv'
p1
(dp2
S'machine'
p3
(dp4
S'count'
p5
I600
sS'truepos'
p6
I28
sS'falseneg'
p7
I9
sS'correction'
p8
I5
sS'unknownyes'
p9
I8
sS'falsepos'
p10
I3
sS'unique'
p11
I450
ssS'knee'
p12
(dp13
g5
I1481
sg6
I41
sg7
I4
sg8
I12
sg9
I0
sg10
I1
sg11
I1080
ssS'none'
p14
(dp15
g5
I600
sg6
I32
sg7
I10
sg8
I0
sg9
I3
sg10
I2
sg11
I600
ssS'three'
p16
(dp17
g5
I1083
sg6
I29
sg7
I9
sg8
I19
sg9
I7
sg10
I0
sg11
I530
sssS'Wahono.csv'
p18
(dp19
g3
(dp20
g5
I1757
sg6
I56
sg7
I4
sg8
I8
sg9
I2
sg10
I3
sg11
I1320
ssg12
(dp21
g5
I1790
sg6
I50
sg7
I8
sg8
I16
sg9
I4
sg10
I2
sg11
I1350
ssg14
(dp22
g5
I1340
sg6
I50
sg7
I9
sg8
I0
sg9
I3
sg10
I4
sg11
I1340
ssg16
(dp23
g5
I3267
sg6
I49
sg7
I12
sg8
I21
sg9
I1
sg10
I0
sg11
I1620
sssS'Hall.csv'
p24
(dp25
g3
(dp26
g5
I636
sg6
I89
sg7
I13
sg8
I25
sg9
I2
sg10
I2
sg11
I470
ssg12
(dp27
g5
I609
sg6
I81
sg7
I17
sg8
I23
sg9
I6
sg10
I1
sg11
I410
ssg14
(dp28
g5
I1090
sg6
I72
sg7
I30
sg8
I0
sg9
I2
sg10
I5
sg11
I1090
ssg16
(dp29
g5
I1773
sg6
I78
sg7
I24
sg8
I47
sg9
I2
sg10
I0
sg11
I860
sssS'Danijel.csv'
p30
(dp31
g3
(dp32
g5
I1167
sg6
I40
sg7
I6
sg8
I9
sg9
I2
sg10
I4
sg11
I810
ssg12
(dp33
g5
I895
sg6
I37
sg7
I5
sg8
I10
sg9
I6
sg10
I2
sg11
I570
ssg14
(dp34
g5
I1110
sg6
I35
sg7
I11
sg8
I0
sg9
I2
sg10
I1
sg11
I1110
ssg16
(dp35
g5
I2452
sg6
I36
sg7
I10
sg8
I28
sg9
I2
sg10
I0
sg11
I1210
sss.(dp0
S'K_all3.csv'
p1
(dp2
S'machine'
p3
(dp4
S'count'
p5
I725
sS'truepos'
p6
I32
sS'falseneg'
p7
I6
sS'correction'
p8
I2
sS'unknownyes'
p9
I7
sS'falsepos'
p10
I4
sS'unique'
p11
I490
ssS'knee'
p12
(dp13
g5
I1374
sg6
I41
sg7
I3
sg8
I11
sg9
I1
sg10
I6
sg11
I940
ssS'none'
p14
(dp15
g5
I590
sg6
I33
sg7
I8
sg8
I0
sg9
I4
sg10
I5
sg11
I590
ssS'three'
p16
(dp17
g5
I1083
sg6
I32
sg7
I10
sg8
I20
sg9
I3
sg10
I0
sg11
I530
sssS'Wahono.csv'
p18
(dp19
g3
(dp20
g5
I1606
sg6
I58
sg7
I1
sg8
I14
sg9
I3
sg10
I1
sg11
I1160
ssg12
(dp21
g5
I1095
sg6
I50
sg7
I8
sg8
I8
sg9
I4
sg10
I2
sg11
I880
ssg14
(dp22
g5
I2040
sg6
I41
sg7
I21
sg8
I0
sg9
I0
sg10
I10
sg11
I2040
ssg16
(dp23
g5
I2893
sg6
I47
sg7
I12
sg8
I31
sg9
I3
sg10
I0
sg11
I1430
sssS'Hall.csv'
p24
(dp25
g3
(dp26
g5
I747
sg6
I92
sg7
I10
sg8
I20
sg9
I2
sg10
I3
sg11
I580
ssg12
(dp27
g5
I666
sg6
I89
sg7
I12
sg8
I21
sg9
I3
sg10
I4
sg11
I460
ssg14
(dp28
g5
I1100
sg6
I68
sg7
I35
sg8
I0
sg9
I1
sg10
I1
sg11
I1100
ssg16
(dp29
g5
I1068
sg6
I78
sg7
I23
sg8
I39
sg9
I3
sg10
I0
sg11
I510
sssS'Danijel.csv'
p30
(dp31
g3
(dp32
g5
I1424
sg6
I40
sg7
I5
sg8
I11
sg9
I3
sg10
I2
sg11
I990
ssg12
(dp33
g5
I1552
sg6
I38
sg7
I8
sg8
I13
sg9
I2
sg10
I0
sg11
I1080
ssg14
(dp34
g5
I1510
sg6
I28
sg7
I18
sg8
I0
sg9
I2
sg10
I3
sg11
I1510
ssg16
(dp35
g5
I2278
sg6
I32
sg7
I13
sg8
I33
sg9
I3
sg10
I0
sg11
I1120
sss.(dp0
S'K_all3.csv'
p1
(dp2
S'machine'
p3
(dp4
S'count'
p5
I595
sS'truepos'
p6
I31
sS'falseneg'
p7
I9
sS'correction'
p8
I5
sS'unknownyes'
p9
I5
sS'falsepos'
p10
I4
sS'unique'
p11
I430
ssS'knee'
p12
(dp13
g5
I217
sg6
I15
sg7
I5
sg8
I2
sg9
I25
sg10
I0
sg11
I140
ssS'none'
p14
(dp15
g5
I650
sg6
I26
sg7
I16
sg8
I0
sg9
I3
sg10
I4
sg11
I650
ssS'three'
p16
(dp17
g5
I1132
sg6
I30
sg7
I11
sg8
I27
sg9
I4
sg10
I0
sg11
I550
sssS'Wahono.csv'
p18
(dp19
g3
(dp20
g5
I1927
sg6
I51
sg7
I8
sg8
I10
sg9
I3
sg10
I7
sg11
I1310
ssg12
(dp21
g5
I533
sg6
I34
sg7
I6
sg8
I9
sg9
I22
sg10
I2
sg11
I310
ssg14
(dp22
g5
I1530
sg6
I44
sg7
I15
sg8
I0
sg9
I3
sg10
I2
sg11
I1530
ssg16
(dp23
g5
I3071
sg6
I50
sg7
I9
sg8
I31
sg9
I3
sg10
I0
sg11
I1520
sssS'Hall.csv'
p24
(dp25
g3
(dp26
g5
I784
sg6
I92
sg7
I10
sg8
I20
sg9
I2
sg10
I2
sg11
I590
ssg12
(dp27
g5
I648
sg6
I88
sg7
I12
sg8
I22
sg9
I4
sg10
I1
sg11
I460
ssg14
(dp28
g5
I780
sg6
I69
sg7
I33
sg8
I0
sg9
I2
sg10
I1
sg11
I780
ssg16
(dp29
g5
I1260
sg6
I78
sg7
I24
sg8
I33
sg9
I2
sg10
I0
sg11
I610
sssS'Danijel.csv'
p30
(dp31
g3
(dp32
g5
I1243
sg6
I36
sg7
I10
sg8
I5
sg9
I2
sg10
I0
sg11
I970
ssg12
(dp33
g5
I819
sg6
I40
sg7
I5
sg8
I9
sg9
I3
sg10
I1
sg11
I510
ssg14
(dp34
g5
I1320
sg6
I32
sg7
I14
sg8
I0
sg9
I2
sg10
I4
sg11
I1320
ssg16
(dp35
g5
I2664
sg6
I33
sg7
I13
sg8
I23
sg9
I2
sg10
I0
sg11
I1320
sss.(dp0
S'K_all3.csv'
p1
(dp2
S'machine'
p3
(dp4
S'count'
p5
I694
sS'truepos'
p6
I32
sS'falseneg'
p7
I6
sS'correction'
p8
I5
sS'unknownyes'
p9
I7
sS'falsepos'
p10
I5
sS'unique'
p11
I480
ssS'knee'
p12
(dp13
g5
I1260
sg6
I42
sg7
I0
sg8
I13
sg9
I3
sg10
I2
sg11
I910
ssS'none'
p14
(dp15
g5
I520
sg6
I27
sg7
I14
sg8
I0
sg9
I4
sg10
I6
sg11
I520
ssS'three'
p16
(dp17
g5
I918
sg6
I27
sg7
I8
sg8
I16
sg9
I10
sg10
I0
sg11
I450
sssS'Wahono.csv'
p18
(dp19
g3
(dp20
g5
I1615
sg6
I51
sg7
I8
sg8
I5
sg9
I3
sg10
I6
sg11
I1160
ssg12
(dp21
g5
I803
sg6
I46
sg7
I2
sg8
I6
sg9
I14
sg10
I2
sg11
I530
ssg14
(dp22
g5
I1570
sg6
I53
sg7
I8
sg8
I0
sg9
I1
sg10
I4
sg11
I1570
ssg16
(dp23
g5
I3089
sg6
I47
sg7
I13
sg8
I25
sg9
I2
sg10
I0
sg11
I1530
sssS'Hall.csv'
p24
(dp25
g3
(dp26
g5
I739
sg6
I92
sg7
I10
sg8
I21
sg9
I2
sg10
I1
sg11
I580
ssg12
(dp27
g5
I671
sg6
I85
sg7
I17
sg8
I27
sg9
I2
sg10
I1
sg11
I450
ssg14
(dp28
g5
I1020
sg6
I73
sg7
I29
sg8
I0
sg9
I2
sg10
I5
sg11
I1020
ssg16
(dp29
g5
I1452
sg6
I77
sg7
I25
sg8
I43
sg9
I2
sg10
I0
sg11
I700
sssS'Danijel.csv'
p30
(dp31
g3
(dp32
g5
I988
sg6
I42
sg7
I4
sg8
I10
sg9
I2
sg10
I2
sg11
I690
ssg12
(dp33
g5
I401
sg6
I33
sg7
I7
sg8
I8
sg9
I8
sg10
I0
sg11
I280
ssg14
(dp34
g5
I1630
sg6
I29
sg7
I17
sg8
I0
sg9
I2
sg10
I1
sg11
I1630
ssg16
(dp35
g5
I3311
sg6
I31
sg7
I16
sg8
I26
sg9
I1
sg10
I0
sg11
I1640
sss.(dp0
S'K_all3.csv'
p1
(dp2
S'machine'
p3
(dp4
S'count'
p5
I549
sS'truepos'
p6
I33
sS'falseneg'
p7
I5
sS'correction'
p8
I5
sS'unknownyes'
p9
I7
sS'falsepos'
p10
I5
sS'unique'
p11
I410
ssS'knee'
p12
(dp13
g5
I101
sg6
I11
sg7
I4
sg8
I2
sg9
I30
sg10
I0
sg11
I70
ssS'none'
p14
(dp15
g5
I530
sg6
I30
sg7
I11
sg8
I0
sg9
I4
sg10
I5
sg11
I530
ssS'three'
p16
(dp17
g5
I978
sg6
I32
sg7
I7
sg8
I17
sg9
I6
sg10
I0
sg11
I480
sssS'Wahono.csv'
p18
(dp19
g3
(dp20
g5
I1610
sg6
I55
sg7
I5
sg8
I15
sg9
I2
sg10
I1
sg11
I1190
ssg12
(dp21
g5
I805
sg6
I39
sg7
I6
sg8
I14
sg9
I17
sg10
I0
sg11
I470
ssg14
(dp22
g5
I1980
sg6
I42
sg7
I18
sg8
I0
sg9
I2
sg10
I5
sg11
I1980
ssg16
(dp23
g5
I2973
sg6
I45
sg7
I14
sg8
I29
sg9
I3
sg10
I1
sg11
I1470
sssS'Hall.csv'
p24
(dp25
g3
(dp26
g5
I956
sg6
I87
sg7
I15
sg8
I19
sg9
I2
sg10
I1
sg11
I770
ssg12
(dp27
g5
I634
sg6
I92
sg7
I8
sg8
I24
sg9
I4
sg10
I2
sg11
I420
ssg14
(dp28
g5
I1300
sg6
I72
sg7
I31
sg8
I0
sg9
I1
sg10
I3
sg11
I1300
ssg16
(dp29
g5
I1377
sg6
I86
sg7
I16
sg8
I32
sg9
I2
sg10
I0
sg11
I670
sssS'Danijel.csv'
p30
(dp31
g3
(dp32
g5
I964
sg6
I40
sg7
I5
sg8
I12
sg9
I3
sg10
I0
sg11
I680
ssg12
(dp33
g5
I48
sg6
I3
sg7
I1
sg8
I1
sg9
I44
sg10
I0
sg11
I40
ssg14
(dp34
g5
I1130
sg6
I34
sg7
I12
sg8
I0
sg9
I2
sg10
I4
sg11
I1130
ssg16
(dp35
g5
I2253
sg6
I34
sg7
I12
sg8
I32
sg9
I2
sg10
I0
sg11
I1110
sss.(dp0
S'K_all3.csv'
p1
(dp2
S'machine'
p3
(dp4
S'count'
p5
I442
sS'truepos'
p6
I33
sS'falseneg'
p7
I5
sS'correction'
p8
I6
sS'unknownyes'
p9
I7
sS'falsepos'
p10
I7
sS'unique'
p11
I330
ssS'knee'
p12
(dp13
g5
I1518
sg6
I39
sg7
I5
sg8
I17
sg9
I1
sg10
I1
sg11
I1250
ssS'none'
p14
(dp15
g5
I650
sg6
I28
sg7
I12
sg8
I0
sg9
I5
sg10
I5
sg11
I650
ssS'three'
p16
(dp17
g5
I1025
sg6
I35
sg7
I6
sg8
I23
sg9
I4
sg10
I0
sg11
I500
sssS'Wahono.csv'
p18
(dp19
g3
(dp20
g5
I1716
sg6
I53
sg7
I6
sg8
I9
sg9
I3
sg10
I4
sg11
I1240
ssg12
(dp21
g5
I1353
sg6
I50
sg7
I8
sg8
I12
sg9
I4
sg10
I3
sg11
I940
ssg14
(dp22
g5
I2140
sg6
I45
sg7
I15
sg8
I0
sg9
I2
sg10
I7
sg11
I2140
ssg16
(dp23
g5
I2816
sg6
I53
sg7
I7
sg8
I33
sg9
I2
sg10
I0
sg11
I1390
sssS'Hall.csv'
p24
(dp25
g3
(dp26
g5
I722
sg6
I93
sg7
I9
sg8
I19
sg9
I2
sg10
I2
sg11
I540
ssg12
(dp27
g5
I820
sg6
I90
sg7
I12
sg8
I26
sg9
I2
sg10
I1
sg11
I640
ssg14
(dp28
g5
I1100
sg6
I76
sg7
I27
sg8
I0
sg9
I1
sg10
I1
sg11
I1100
ssg16
(dp29
g5
I2010
sg6
I74
sg7
I28
sg8
I43
sg9
I2
sg10
I0
sg11
I980
sssS'Danijel.csv'
p30
(dp31
g3
(dp32
g5
I1259
sg6
I40
sg7
I6
sg8
I6
sg9
I2
sg10
I3
sg11
I890
ssg12
(dp33
g5
I162
sg6
I12
sg7
I0
sg8
I6
sg9
I36
sg10
I2
sg11
I110
ssg14
(dp34
g5
I1600
sg6
I32
sg7
I15
sg8
I0
sg9
I1
sg10
I4
sg11
I1600
ssg16
(dp35
g5
I3230
sg6
I34
sg7
I13
sg8
I28
sg9
I1
sg10
I0
sg11
I1600
sss.(dp0
S'K_all3.csv'
p1
(dp2
S'machine'
p3
(dp4
S'count'
p5
I669
sS'truepos'
p6
I33
sS'falseneg'
p7
I8
sS'correction'
p8
I9
sS'unknownyes'
p9
I4
sS'falsepos'
p10
I4
sS'unique'
p11
I490
ssS'knee'
p12
(dp13
g5
I906
sg6
I33
sg7
I9
sg8
I4
sg9
I3
sg10
I6
sg11
I640
ssS'none'
p14
(dp15
g5
I530
sg6
I25
sg7
I12
sg8
I0
sg9
I8
sg10
I2
sg11
I530
ssS'three'
p16
(dp17
g5
I1105
sg6
I24
sg7
I16
sg8
I22
sg9
I5
sg10
I0
sg11
I540
sssS'Wahono.csv'
p18
(dp19
g3
(dp20
g5
I1780
sg6
I54
sg7
I5
sg8
I10
sg9
I3
sg10
I4
sg11
I1310
ssg12
(dp21
g5
I921
sg6
I42
sg7
I8
sg8
I12
sg9
I12
sg10
I2
sg11
I600
ssg14
(dp22
g5
I1320
sg6
I41
sg7
I18
sg8
I0
sg9
I3
sg10
I4
sg11
I1320
ssg16
(dp23
g5
I2367
sg6
I45
sg7
I14
sg8
I24
sg9
I3
sg10
I0
sg11
I1170
sssS'Hall.csv'
p24
(dp25
g3
(dp26
g5
I812
sg6
I85
sg7
I16
sg8
I23
sg9
I3
sg10
I1
sg11
I630
ssg12
(dp27
g5
I787
sg6
I88
sg7
I14
sg8
I26
sg9
I2
sg10
I0
sg11
I570
ssg14
(dp28
g5
I720
sg6
I79
sg7
I24
sg8
I0
sg9
I1
sg10
I0
sg11
I720
ssg16
(dp29
g5
I1303
sg6
I81
sg7
I21
sg8
I35
sg9
I2
sg10
I0
sg11
I630
sssS'Danijel.csv'
p30
(dp31
g3
(dp32
g5
I1158
sg6
I43
sg7
I3
sg8
I12
sg9
I2
sg10
I2
sg11
I820
ssg12
(dp33
g5
I1041
sg6
I40
sg7
I4
sg8
I7
sg9
I4
sg10
I4
sg11
I700
ssg14
(dp34
g5
I1180
sg6
I27
sg7
I18
sg8
I0
sg9
I3
sg10
I3
sg11
I1180
ssg16
(dp35
g5
I2639
sg6
I30
sg7
I16
sg8
I16
sg9
I2
sg10
I0
sg11
I1310
sss.(dp0
S'K_all3.csv'
p1
(dp2
S'machine'
p3
(dp4
S'count'
p5
I630
sS'truepos'
p6
I29
sS'falseneg'
p7
I10
sS'correction'
p8
I6
sS'unknownyes'
p9
I6
sS'falsepos'
p10
I5
sS'unique'
p11
I430
ssS'knee'
p12
(dp13
g5
I826
sg6
I32
sg7
I11
sg8
I7
sg9
I2
sg10
I1
sg11
I690
ssS'none'
p14
(dp15
g5
I530
sg6
I31
sg7
I8
sg8
I0
sg9
I6
sg10
I6
sg11
I530
ssS'three'
p16
(dp17
g5
I949
sg6
I35
sg7
I5
sg8
I26
sg9
I5
sg10
I0
sg11
I460
sssS'Wahono.csv'
p18
(dp19
g3
(dp20
g5
I1900
sg6
I49
sg7
I10
sg8
I8
sg9
I3
sg10
I6
sg11
I1390
ssg12
(dp21
g5
I1120
sg6
I46
sg7
I12
sg8
I12
sg9
I4
sg10
I2
sg11
I940
ssg14
(dp22
g5
I1840
sg6
I43
sg7
I17
sg8
I0
sg9
I2
sg10
I7
sg11
I1840
ssg16
(dp23
g5
I3579
sg6
I46
sg7
I15
sg8
I36
sg9
I1
sg10
I0
sg11
I1770
sssS'Hall.csv'
p24
(dp25
g3
(dp26
g5
I660
sg6
I93
sg7
I9
sg8
I22
sg9
I2
sg10
I6
sg11
I490
ssg12
(dp27
g5
I641
sg6
I87
sg7
I14
sg8
I21
sg9
I3
sg10
I0
sg11
I460
ssg14
(dp28
g5
I1210
sg6
I63
sg7
I39
sg8
I0
sg9
I2
sg10
I2
sg11
I1210
ssg16
(dp29
g5
I1328
sg6
I80
sg7
I22
sg8
I35
sg9
I2
sg10
I0
sg11
I640
sssS'Danijel.csv'
p30
(dp31
g3
(dp32
g5
I1409
sg6
I37
sg7
I9
sg8
I7
sg9
I2
sg10
I3
sg11
I990
ssg12
(dp33
g5
I663
sg6
I35
sg7
I5
sg8
I9
sg9
I8
sg10
I1
sg11
I480
ssg14
(dp34
g5
I1270
sg6
I31
sg7
I15
sg8
I0
sg9
I2
sg10
I3
sg11
I1270
ssg16
(dp35
g5
I2345
sg6
I35
sg7
I11
sg8
I21
sg9
I2
sg10
I0
sg11
I1160
sss.