(dp0
S'K_all3.csv'
p1
(dp2
S'none'
p3
(dp4
S'count'
p5
I460
sS'truepos'
p6
I32
sS'falseneg'
p7
I0
sS'correction'
p8
I0
sS'unknownyes'
p9
I13
sS'falsepos'
p10
I6
sS'unique'
p11
I460
ssS'three'
p12
(dp13
g5
I944
sg6
I37
sg7
I0
sg8
I23
sg9
I8
sg10
I1
sg11
I460
ssS'machine'
p14
(dp15
g5
I589
sg6
I38
sg7
I0
sg8
I10
sg9
I7
sg10
I0
sg11
I500
ssS'machine4'
p16
(dp17
g5
I430
sg6
I34
sg7
I2
sg8
I0
sg9
I9
sg10
I7
sg11
I430
ssS'machine3'
p18
(dp19
g5
I594
sg6
I35
sg7
I0
sg8
I12
sg9
I10
sg10
I0
sg11
I490
ssS'machine2'
p20
(dp21
g5
I620
sg6
I38
sg7
I0
sg8
I5
sg9
I7
sg10
I0
sg11
I510
sssS'Wahono.csv'
p22
(dp23
g3
(dp24
g5
I1360
sg6
I59
sg7
I0
sg8
I0
sg9
I3
sg10
I17
sg11
I1360
ssg12
(dp25
g5
I2343
sg6
I59
sg7
I1
sg8
I42
sg9
I2
sg10
I2
sg11
I1150
ssg14
(dp26
g5
I1418
sg6
I58
sg7
I1
sg8
I30
sg9
I3
sg10
I1
sg11
I1120
ssg16
(dp27
g5
I1250
sg6
I59
sg7
I0
sg8
I0
sg9
I3
sg10
I18
sg11
I1250
ssg18
(dp28
g5
I1529
sg6
I59
sg7
I0
sg8
I21
sg9
I3
sg10
I2
sg11
I1210
ssg20
(dp29
g5
I1431
sg6
I59
sg7
I0
sg8
I23
sg9
I3
sg10
I1
sg11
I1130
sssS'Hall.csv'
p30
(dp31
g3
(dp32
g5
I580
sg6
I101
sg7
I1
sg8
I0
sg9
I4
sg10
I11
sg11
I580
ssg12
(dp33
g5
I890
sg6
I101
sg7
I0
sg8
I10
sg9
I5
sg10
I0
sg11
I440
ssg14
(dp34
g5
I691
sg6
I100
sg7
I2
sg8
I10
sg9
I4
sg10
I0
sg11
I500
ssg16
(dp35
g5
I620
sg6
I99
sg7
I3
sg8
I0
sg9
I4
sg10
I9
sg11
I620
ssg18
(dp36
g5
I682
sg6
I101
sg7
I1
sg8
I14
sg9
I4
sg10
I1
sg11
I470
ssg20
(dp37
g5
I610
sg6
I100
sg7
I1
sg8
I5
sg9
I5
sg10
I0
sg11
I430
sssS'Danijel.csv'
p38
(dp39
g3
(dp40
g5
I910
sg6
I44
sg7
I0
sg8
I0
sg9
I4
sg10
I17
sg11
I910
ssg12
(dp41
g5
I1655
sg6
I45
sg7
I0
sg8
I35
sg9
I3
sg10
I1
sg11
I810
ssg14
(dp42
g5
I940
sg6
I45
sg7
I0
sg8
I15
sg9
I3
sg10
I0
sg11
I750
ssg16
(dp43
g5
I900
sg6
I44
sg7
I1
sg8
I0
sg9
I3
sg10
I11
sg11
I900
ssg18
(dp44
g5
I924
sg6
I45
sg7
I0
sg8
I13
sg9
I3
sg10
I0
sg11
I730
ssg20
(dp45
g5
I971
sg6
I45
sg7
I0
sg8
I8
sg9
I3
sg10
I1
sg11
I770
sss.(dp0
S'K_all3.csv'
p1
(dp2
S'none'
p3
(dp4
S'count'
p5
I470
sS'truepos'
p6
I35
sS'falseneg'
p7
I1
sS'correction'
p8
I0
sS'unknownyes'
p9
I9
sS'falsepos'
p10
I8
sS'unique'
p11
I470
ssS'three'
p12
(dp13
g5
I1025
sg6
I38
sg7
I0
sg8
I25
sg9
I7
sg10
I0
sg11
I500
ssS'machine'
p14
(dp15
g5
I606
sg6
I36
sg7
I1
sg8
I5
sg9
I8
sg10
I0
sg11
I520
ssS'machine4'
p16
(dp17
g5
I410
sg6
I30
sg7
I1
sg8
I0
sg9
I14
sg10
I10
sg11
I410
ssS'machine3'
p18
(dp19
g5
I614
sg6
I36
sg7
I0
sg8
I11
sg9
I9
sg10
I1
sg11
I510
ssS'machine2'
p20
(dp21
g5
I554
sg6
I36
sg7
I0
sg8
I9
sg9
I9
sg10
I0
sg11
I460
sssS'Wahono.csv'
p22
(dp23
g3
(dp24
g5
I1350
sg6
I58
sg7
I1
sg8
I0
sg9
I3
sg10
I32
sg11
I1350
ssg12
(dp25
g5
I2551
sg6
I59
sg7
I0
sg8
I50
sg9
I3
sg10
I3
sg11
I1250
ssg14
(dp26
g5
I774
sg6
I53
sg7
I1
sg8
I17
sg9
I8
sg10
I1
sg11
I610
ssg16
(dp27
g5
I1300
sg6
I58
sg7
I2
sg8
I0
sg9
I2
sg10
I24
sg11
I1300
ssg18
(dp28
g5
I1339
sg6
I58
sg7
I1
sg8
I28
sg9
I3
sg10
I1
sg11
I1040
ssg20
(dp29
g5
I1473
sg6
I59
sg7
I0
sg8
I37
sg9
I3
sg10
I2
sg11
I1150
sssS'Hall.csv'
p30
(dp31
g3
(dp32
g5
I680
sg6
I103
sg7
I0
sg8
I0
sg9
I3
sg10
I13
sg11
I680
ssg12
(dp33
g5
I1062
sg6
I102
sg7
I0
sg8
I21
sg9
I4
sg10
I1
sg11
I520
ssg14
(dp34
g5
I682
sg6
I100
sg7
I2
sg8
I10
sg9
I4
sg10
I3
sg11
I490
ssg16
(dp35
g5
I570
sg6
I102
sg7
I0
sg8
I0
sg9
I4
sg10
I12
sg11
I570
ssg18
(dp36
g5
I728
sg6
I101
sg7
I1
sg8
I7
sg9
I4
sg10
I0
sg11
I510
ssg20
(dp37
g5
I674
sg6
I100
sg7
I1
sg8
I15
sg9
I5
sg10
I0
sg11
I470
sssS'Danijel.csv'
p38
(dp39
g3
(dp40
g5
I920
sg6
I45
sg7
I1
sg8
I0
sg9
I2
sg10
I13
sg11
I920
ssg12
(dp41
g5
I1586
sg6
I45
sg7
I0
sg8
I26
sg9
I3
sg10
I0
sg11
I780
ssg14
(dp42
g5
I963
sg6
I44
sg7
I1
sg8
I19
sg9
I3
sg10
I0
sg11
I760
ssg16
(dp43
g5
I1100
sg6
I45
sg7
I0
sg8
I0
sg9
I3
sg10
I22
sg11
I1100
ssg18
(dp44
g5
I939
sg6
I45
sg7
I0
sg8
I24
sg9
I3
sg10
I1
sg11
I730
ssg20
(dp45
g5
I1035
sg6
I45
sg7
I0
sg8
I17
sg9
I3
sg10
I0
sg11
I820
sss.(dp0
S'K_all3.csv'
p1
(dp2
S'none'
p3
(dp4
S'count'
p5
I450
sS'truepos'
p6
I32
sS'falseneg'
p7
I0
sS'correction'
p8
I0
sS'unknownyes'
p9
I13
sS'falsepos'
p10
I6
sS'unique'
p11
I450
ssS'three'
p12
(dp13
g5
I1060
sg6
I37
sg7
I0
sg8
I20
sg9
I8
sg10
I0
sg11
I520
ssS'machine'
p14
(dp15
g5
I704
sg6
I37
sg7
I0
sg8
I14
sg9
I8
sg10
I1
sg11
I610
ssS'machine4'
p16
(dp17
g5
I430
sg6
I33
sg7
I0
sg8
I0
sg9
I12
sg10
I6
sg11
I430
ssS'machine3'
p18
(dp19
g5
I524
sg6
I35
sg7
I0
sg8
I8
sg9
I10
sg10
I0
sg11
I450
ssS'machine2'
p20
(dp21
g5
I594
sg6
I37
sg7
I0
sg8
I12
sg9
I8
sg10
I1
sg11
I490
sssS'Wahono.csv'
p22
(dp23
g3
(dp24
g5
I1390
sg6
I57
sg7
I3
sg8
I0
sg9
I2
sg10
I21
sg11
I1390
ssg12
(dp25
g5
I2200
sg6
I59
sg7
I0
sg8
I40
sg9
I3
sg10
I1
sg11
I1080
ssg14
(dp26
g5
I1517
sg6
I60
sg7
I0
sg8
I28
sg9
I2
sg10
I0
sg11
I1210
ssg16
(dp27
g5
I1320
sg6
I55
sg7
I4
sg8
I0
sg9
I3
sg10
I21
sg11
I1320
ssg18
(dp28
g5
I1412
sg6
I58
sg7
I1
sg8
I30
sg9
I3
sg10
I1
sg11
I1100
ssg20
(dp29
g5
I1403
sg6
I58
sg7
I1
sg8
I38
sg9
I3
sg10
I0
sg11
I1080
sssS'Hall.csv'
p30
(dp31
g3
(dp32
g5
I830
sg6
I99
sg7
I3
sg8
I0
sg9
I4
sg10
I12
sg11
I830
ssg12
(dp33
g5
I1000
sg6
I102
sg7
I0
sg8
I20
sg9
I4
sg10
I0
sg11
I490
ssg14
(dp34
g5
I602
sg6
I101
sg7
I0
sg8
I10
sg9
I5
sg10
I0
sg11
I430
ssg16
(dp35
g5
I570
sg6
I101
sg7
I1
sg8
I0
sg9
I4
sg10
I11
sg11
I570
ssg18
(dp36
g5
I739
sg6
I102
sg7
I0
sg8
I9
sg9
I4
sg10
I0
sg11
I520
ssg20
(dp37
g5
I661
sg6
I100
sg7
I1
sg8
I13
sg9
I5
sg10
I3
sg11
I460
sssS'Danijel.csv'
p38
(dp39
g3
(dp40
g5
I940
sg6
I41
sg7
I4
sg8
I0
sg9
I3
sg10
I21
sg11
I940
ssg12
(dp41
g5
I1563
sg6
I45
sg7
I0
sg8
I23
sg9
I3
sg10
I0
sg11
I770
ssg14
(dp42
g5
I887
sg6
I45
sg7
I0
sg8
I14
sg9
I3
sg10
I0
sg11
I710
ssg16
(dp43
g5
I1080
sg6
I43
sg7
I2
sg8
I0
sg9
I3
sg10
I16
sg11
I1080
ssg18
(dp44
g5
I945
sg6
I44
sg7
I1
sg8
I22
sg9
I3
sg10
I0
sg11
I730
ssg20
(dp45
g5
I873
sg6
I45
sg7
I0
sg8
I11
sg9
I3
sg10
I0
sg11
I690
sss.(dp0
S'K_all3.csv'
p1
(dp2
S'none'
p3
(dp4
S'count'
p5
I470
sS'truepos'
p6
I35
sS'falseneg'
p7
I1
sS'correction'
p8
I0
sS'unknownyes'
p9
I9
sS'falsepos'
p10
I8
sS'unique'
p11
I470
ssS'three'
p12
(dp13
g5
I963
sg6
I35
sg7
I0
sg8
I23
sg9
I10
sg10
I1
sg11
I470
ssS'machine'
p14
(dp15
g5
I610
sg6
I37
sg7
I1
sg8
I11
sg9
I7
sg10
I1
sg11
I510
ssS'machine4'
p16
(dp17
g5
I470
sg6
I33
sg7
I0
sg8
I0
sg9
I12
sg10
I16
sg11
I470
ssS'machine3'
p18
(dp19
g5
I596
sg6
I36
sg7
I1
sg8
I8
sg9
I8
sg10
I1
sg11
I490
ssS'machine2'
p20
(dp21
g5
I528
sg6
I35
sg7
I0
sg8
I7
sg9
I10
sg10
I1
sg11
I440
sssS'Wahono.csv'
p22
(dp23
g3
(dp24
g5
I1230
sg6
I60
sg7
I0
sg8
I0
sg9
I2
sg10
I28
sg11
I1230
ssg12
(dp25
g5
I2487
sg6
I60
sg7
I0
sg8
I47
sg9
I2
sg10
I2
sg11
I1220
ssg14
(dp26
g5
I1415
sg6
I58
sg7
I1
sg8
I28
sg9
I3
sg10
I1
sg11
I1120
ssg16
(dp27
g5
I1560
sg6
I60
sg7
I1
sg8
I0
sg9
I1
sg10
I39
sg11
I1560
ssg18
(dp28
g5
I1589
sg6
I59
sg7
I0
sg8
I21
sg9
I3
sg10
I3
sg11
I1260
ssg20
(dp29
g5
I1516
sg6
I59
sg7
I0
sg8
I32
sg9
I3
sg10
I1
sg11
I1180
sssS'Hall.csv'
p30
(dp31
g3
(dp32
g5
I450
sg6
I95
sg7
I6
sg8
I0
sg9
I5
sg10
I3
sg11
I450
ssg12
(dp33
g5
I1080
sg6
I102
sg7
I0
sg8
I20
sg9
I4
sg10
I0
sg11
I530
ssg14
(dp34
g5
I622
sg6
I101
sg7
I1
sg8
I8
sg9
I4
sg10
I1
sg11
I450
ssg16
(dp35
g5
I530
sg6
I101
sg7
I1
sg8
I0
sg9
I4
sg10
I7
sg11
I530
ssg18
(dp36
g5
I677
sg6
I102
sg7
I0
sg8
I10
sg9
I4
sg10
I0
sg11
I470
ssg20
(dp37
g5
I686
sg6
I101
sg7
I1
sg8
I14
sg9
I4
sg10
I0
sg11
I480
sssS'Danijel.csv'
p38
(dp39
g3
(dp40
g5
I800
sg6
I44
sg7
I0
sg8
I0
sg9
I4
sg10
I14
sg11
I800
ssg12
(dp41
g5
I1465
sg6
I44
sg7
I0
sg8
I25
sg9
I4
sg10
I2
sg11
I720
ssg14
(dp42
g5
I837
sg6
I43
sg7
I2
sg8
I13
sg9
I3
sg10
I0
sg11
I660
ssg16
(dp43
g5
I890
sg6
I45
sg7
I0
sg8
I0
sg9
I3
sg10
I10
sg11
I890
ssg18
(dp44
g5
I946
sg6
I45
sg7
I0
sg8
I15
sg9
I3
sg10
I0
sg11
I740
ssg20
(dp45
g5
I972
sg6
I45
sg7
I0
sg8
I20
sg9
I3
sg10
I1
sg11
I760
sss.(dp0
S'K_all3.csv'
p1
(dp2
S'none'
p3
(dp4
S'count'
p5
I450
sS'truepos'
p6
I36
sS'falseneg'
p7
I1
sS'correction'
p8
I0
sS'unknownyes'
p9
I8
sS'falsepos'
p10
I8
sS'unique'
p11
I450
ssS'three'
p12
(dp13
g5
I1038
sg6
I38
sg7
I0
sg8
I16
sg9
I7
sg10
I2
sg11
I510
ssS'machine'
p14
(dp15
g5
I601
sg6
I32
sg7
I2
sg8
I10
sg9
I11
sg10
I0
sg11
I530
ssS'machine4'
p16
(dp17
g5
I390
sg6
I31
sg7
I2
sg8
I0
sg9
I12
sg10
I8
sg11
I390
ssS'machine3'
p18
(dp19
g5
I600
sg6
I37
sg7
I1
sg8
I10
sg9
I7
sg10
I0
sg11
I500
ssS'machine2'
p20
(dp21
g5
I603
sg6
I38
sg7
I0
sg8
I12
sg9
I7
sg10
I0
sg11
I490
sssS'Wahono.csv'
p22
(dp23
g3
(dp24
g5
I1530
sg6
I60
sg7
I1
sg8
I0
sg9
I1
sg10
I21
sg11
I1530
ssg12
(dp25
g5
I2403
sg6
I59
sg7
I0
sg8
I43
sg9
I3
sg10
I0
sg11
I1180
ssg14
(dp26
g5
I1513
sg6
I57
sg7
I2
sg8
I24
sg9
I3
sg10
I1
sg11
I1210
ssg16
(dp27
g5
I1440
sg6
I55
sg7
I5
sg8
I0
sg9
I2
sg10
I25
sg11
I1440
ssg18
(dp28
g5
I1441
sg6
I59
sg7
I0
sg8
I33
sg9
I3
sg10
I0
sg11
I1120
ssg20
(dp29
g5
I1483
sg6
I59
sg7
I0
sg8
I23
sg9
I3
sg10
I0
sg11
I1160
sssS'Hall.csv'
p30
(dp31
g3
(dp32
g5
I530
sg6
I102
sg7
I0
sg8
I0
sg9
I4
sg10
I8
sg11
I530
ssg12
(dp33
g5
I954
sg6
I102
sg7
I0
sg8
I14
sg9
I4
sg10
I0
sg11
I470
ssg14
(dp34
g5
I722
sg6
I100
sg7
I2
sg8
I13
sg9
I4
sg10
I2
sg11
I510
ssg16
(dp35
g5
I540
sg6
I101
sg7
I0
sg8
I0
sg9
I5
sg10
I9
sg11
I540
ssg18
(dp36
g5
I755
sg6
I100
sg7
I2
sg8
I7
sg9
I4
sg10
I2
sg11
I540
ssg20
(dp37
g5
I625
sg6
I100
sg7
I1
sg8
I5
sg9
I5
sg10
I1
sg11
I450
sssS'Danijel.csv'
p38
(dp39
g3
(dp40
g5
I820
sg6
I45
sg7
I1
sg8
I0
sg9
I2
sg10
I12
sg11
I820
ssg12
(dp41
g5
I1578
sg6
I45
sg7
I0
sg8
I38
sg9
I3
sg10
I0
sg11
I770
ssg14
(dp42
g5
I824
sg6
I42
sg7
I2
sg8
I15
sg9
I4
sg10
I0
sg11
I660
ssg16
(dp43
g5
I940
sg6
I43
sg7
I2
sg8
I0
sg9
I3
sg10
I16
sg11
I940
ssg18
(dp44
g5
I973
sg6
I45
sg7
I0
sg8
I15
sg9
I3
sg10
I0
sg11
I770
ssg20
(dp45
g5
I1159
sg6
I45
sg7
I0
sg8
I24
sg9
I3
sg10
I4
sg11
I910
sss.(dp0
S'K_all3.csv'
p1
(dp2
S'none'
p3
(dp4
S'count'
p5
I500
sS'truepos'
p6
I35
sS'falseneg'
p7
I0
sS'correction'
p8
I0
sS'unknownyes'
p9
I10
sS'falsepos'
p10
I6
sS'unique'
p11
I500
ssS'three'
p12
(dp13
g5
I997
sg6
I38
sg7
I0
sg8
I17
sg9
I7
sg10
I0
sg11
I490
ssS'machine'
p14
(dp15
g5
I576
sg6
I37
sg7
I0
sg8
I14
sg9
I8
sg10
I2
sg11
I470
ssS'machine4'
p16
(dp17
g5
I460
sg6
I35
sg7
I0
sg8
I0
sg9
I10
sg10
I4
sg11
I460
ssS'machine3'
p18
(dp19
g5
I650
sg6
I37
sg7
I0
sg8
I28
sg9
I8
sg10
I0
sg11
I510
ssS'machine2'
p20
(dp21
g5
I584
sg6
I36
sg7
I0
sg8
I7
sg9
I9
sg10
I1
sg11
I500
sssS'Wahono.csv'
p22
(dp23
g3
(dp24
g5
I1470
sg6
I59
sg7
I1
sg8
I0
sg9
I2
sg10
I21
sg11
I1470
ssg12
(dp25
g5
I2275
sg6
I60
sg7
I0
sg8
I55
sg9
I2
sg10
I1
sg11
I1110
ssg14
(dp26
g5
I1456
sg6
I59
sg7
I0
sg8
I27
sg9
I3
sg10
I2
sg11
I1160
ssg16
(dp27
g5
I1750
sg6
I57
sg7
I1
sg8
I0
sg9
I4
sg10
I41
sg11
I1750
ssg18
(dp28
g5
I1533
sg6
I60
sg7
I0
sg8
I30
sg9
I2
sg10
I1
sg11
I1200
ssg20
(dp29
g5
I796
sg6
I54
sg7
I2
sg8
I17
sg9
I6
sg10
I1
sg11
I610
sssS'Hall.csv'
p30
(dp31
g3
(dp32
g5
I410
sg6
I100
sg7
I1
sg8
I0
sg9
I5
sg10
I4
sg11
I410
ssg12
(dp33
g5
I993
sg6
I102
sg7
I0
sg8
I13
sg9
I4
sg10
I0
sg11
I490
ssg14
(dp34
g5
I562
sg6
I100
sg7
I1
sg8
I10
sg9
I5
sg10
I1
sg11
I410
ssg16
(dp35
g5
I480
sg6
I99
sg7
I3
sg8
I0
sg9
I4
sg10
I6
sg11
I480
ssg18
(dp36
g5
I710
sg6
I102
sg7
I0
sg8
I10
sg9
I4
sg10
I0
sg11
I500
ssg20
(dp37
g5
I629
sg6
I101
sg7
I0
sg8
I7
sg9
I5
sg10
I0
sg11
I450
sssS'Danijel.csv'
p38
(dp39
g3
(dp40
g5
I870
sg6
I46
sg7
I0
sg8
I0
sg9
I2
sg10
I13
sg11
I870
ssg12
(dp41
g5
I1596
sg6
I46
sg7
I0
sg8
I36
sg9
I2
sg10
I2
sg11
I780
ssg14
(dp42
g5
I1002
sg6
I46
sg7
I0
sg8
I16
sg9
I2
sg10
I2
sg11
I800
ssg16
(dp43
g5
I800
sg6
I44
sg7
I0
sg8
I0
sg9
I4
sg10
I13
sg11
I800
ssg18
(dp44
g5
I959
sg6
I44
sg7
I1
sg8
I19
sg9
I3
sg10
I1
sg11
I750
ssg20
(dp45
g5
I1019
sg6
I43
sg7
I1
sg8
I19
sg9
I4
sg10
I2
sg11
I810
sss.(dp0
S'K_all3.csv'
p1
(dp2
S'none'
p3
(dp4
S'count'
p5
I470
sS'truepos'
p6
I32
sS'falseneg'
p7
I1
sS'correction'
p8
I0
sS'unknownyes'
p9
I12
sS'falsepos'
p10
I6
sS'unique'
p11
I470
ssS'three'
p12
(dp13
g5
I938
sg6
I36
sg7
I0
sg8
I18
sg9
I9
sg10
I2
sg11
I460
ssS'machine'
p14
(dp15
g5
I600
sg6
I37
sg7
I0
sg8
I13
sg9
I8
sg10
I0
sg11
I510
ssS'machine4'
p16
(dp17
g5
I500
sg6
I35
sg7
I0
sg8
I0
sg9
I10
sg10
I13
sg11
I500
ssS'machine3'
p18
(dp19
g5
I608
sg6
I36
sg7
I0
sg8
I13
sg9
I9
sg10
I0
sg11
I500
ssS'machine2'
p20
(dp21
g5
I538
sg6
I34
sg7
I1
sg8
I5
sg9
I10
sg10
I0
sg11
I460
sssS'Wahono.csv'
p22
(dp23
g3
(dp24
g5
I1610
sg6
I59
sg7
I1
sg8
I0
sg9
I2
sg10
I28
sg11
I1610
ssg12
(dp25
g5
I2201
sg6
I59
sg7
I0
sg8
I41
sg9
I3
sg10
I0
sg11
I1080
ssg14
(dp26
g5
I1475
sg6
I58
sg7
I1
sg8
I27
sg9
I3
sg10
I1
sg11
I1170
ssg16
(dp27
g5
I1290
sg6
I57
sg7
I2
sg8
I0
sg9
I3
sg10
I20
sg11
I1290
ssg18
(dp28
g5
I1382
sg6
I58
sg7
I1
sg8
I22
sg9
I3
sg10
I0
sg11
I1080
ssg20
(dp29
g5
I1530
sg6
I59
sg7
I0
sg8
I32
sg9
I3
sg10
I1
sg11
I1200
sssS'Hall.csv'
p30
(dp31
g3
(dp32
g5
I530
sg6
I100
sg7
I2
sg8
I0
sg9
I4
sg10
I9
sg11
I530
ssg12
(dp33
g5
I1020
sg6
I102
sg7
I0
sg8
I20
sg9
I4
sg10
I0
sg11
I500
ssg14
(dp34
g5
I621
sg6
I101
sg7
I0
sg8
I10
sg9
I5
sg10
I2
sg11
I450
ssg16
(dp35
g5
I830
sg6
I101
sg7
I1
sg8
I0
sg9
I4
sg10
I13
sg11
I830
ssg18
(dp36
g5
I678
sg6
I101
sg7
I0
sg8
I12
sg9
I5
sg10
I0
sg11
I460
ssg20
(dp37
g5
I534
sg6
I99
sg7
I0
sg8
I4
sg9
I7
sg10
I0
sg11
I380
sssS'Danijel.csv'
p38
(dp39
g3
(dp40
g5
I810
sg6
I45
sg7
I0
sg8
I0
sg9
I3
sg10
I14
sg11
I810
ssg12
(dp41
g5
I1543
sg6
I45
sg7
I0
sg8
I23
sg9
I3
sg10
I0
sg11
I760
ssg14
(dp42
g5
I928
sg6
I44
sg7
I1
sg8
I14
sg9
I3
sg10
I1
sg11
I740
ssg16
(dp43
g5
I840
sg6
I43
sg7
I2
sg8
I0
sg9
I3
sg10
I19
sg11
I840
ssg18
(dp44
g5
I979
sg6
I45
sg7
I0
sg8
I20
sg9
I3
sg10
I1
sg11
I770
ssg20
(dp45
g5
I971
sg6
I46
sg7
I0
sg8
I18
sg9
I2
sg10
I2
sg11
I760
sss.(dp0
S'K_all3.csv'
p1
(dp2
S'none'
p3
(dp4
S'count'
p5
I550
sS'truepos'
p6
I32
sS'falseneg'
p7
I2
sS'correction'
p8
I0
sS'unknownyes'
p9
I11
sS'falsepos'
p10
I8
sS'unique'
p11
I550
ssS'three'
p12
(dp13
g5
I1080
sg6
I37
sg7
I0
sg8
I20
sg9
I8
sg10
I1
sg11
I530
ssS'machine'
p14
(dp15
g5
I551
sg6
I32
sg7
I0
sg8
I14
sg9
I13
sg10
I0
sg11
I470
ssS'machine4'
p16
(dp17
g5
I420
sg6
I33
sg7
I0
sg8
I0
sg9
I12
sg10
I5
sg11
I420
ssS'machine3'
p18
(dp19
g5
I569
sg6
I38
sg7
I0
sg8
I8
sg9
I7
sg10
I0
sg11
I480
ssS'machine2'
p20
(dp21
g5
I567
sg6
I35
sg7
I0
sg8
I9
sg9
I10
sg10
I1
sg11
I470
sssS'Wahono.csv'
p22
(dp23
g3
(dp24
g5
I1370
sg6
I60
sg7
I1
sg8
I0
sg9
I1
sg10
I35
sg11
I1370
ssg12
(dp25
g5
I2233
sg6
I59
sg7
I0
sg8
I32
sg9
I3
sg10
I2
sg11
I1100
ssg14
(dp26
g5
I1336
sg6
I59
sg7
I1
sg8
I27
sg9
I2
sg10
I1
sg11
I1060
ssg16
(dp27
g5
I1360
sg6
I58
sg7
I0
sg8
I0
sg9
I4
sg10
I21
sg11
I1360
ssg18
(dp28
g5
I1535
sg6
I59
sg7
I0
sg8
I33
sg9
I3
sg10
I2
sg11
I1190
ssg20
(dp29
g5
I1481
sg6
I59
sg7
I0
sg8
I36
sg9
I3
sg10
I1
sg11
I1150
sssS'Hall.csv'
p30
(dp31
g3
(dp32
g5
I810
sg6
I99
sg7
I3
sg8
I0
sg9
I4
sg10
I15
sg11
I810
ssg12
(dp33
g5
I942
sg6
I101
sg7
I1
sg8
I22
sg9
I4
sg10
I0
sg11
I460
ssg14
(dp34
g5
I662
sg6
I99
sg7
I3
sg8
I9
sg9
I4
sg10
I0
sg11
I470
ssg16
(dp35
g5
I650
sg6
I99
sg7
I3
sg8
I0
sg9
I4
sg10
I13
sg11
I650
ssg18
(dp36
g5
I649
sg6
I101
sg7
I0
sg8
I9
sg9
I5
sg10
I0
sg11
I450
ssg20
(dp37
g5
I664
sg6
I100
sg7
I1
sg8
I13
sg9
I5
sg10
I2
sg11
I460
sssS'Danijel.csv'
p38
(dp39
g3
(dp40
g5
I870
sg6
I43
sg7
I1
sg8
I0
sg9
I4
sg10
I14
sg11
I870
ssg12
(dp41
g5
I1678
sg6
I45
sg7
I0
sg8
I38
sg9
I3
sg10
I0
sg11
I820
ssg14
(dp42
g5
I961
sg6
I43
sg7
I1
sg8
I15
sg9
I4
sg10
I2
sg11
I760
ssg16
(dp43
g5
I970
sg6
I45
sg7
I0
sg8
I0
sg9
I3
sg10
I22
sg11
I970
ssg18
(dp44
g5
I977
sg6
I45
sg7
I0
sg8
I22
sg9
I3
sg10
I1
sg11
I760
ssg20
(dp45
g5
I986
sg6
I45
sg7
I0
sg8
I22
sg9
I3
sg10
I0
sg11
I760
sss.(dp0
S'K_all3.csv'
p1
(dp2
S'none'
p3
(dp4
S'count'
p5
I550
sS'truepos'
p6
I32
sS'falseneg'
p7
I0
sS'correction'
p8
I0
sS'unknownyes'
p9
I13
sS'falsepos'
p10
I10
sS'unique'
p11
I550
ssS'three'
p12
(dp13
g5
I1063
sg6
I37
sg7
I0
sg8
I23
sg9
I8
sg10
I1
sg11
I520
ssS'machine'
p14
(dp15
g5
I602
sg6
I38
sg7
I0
sg8
I10
sg9
I7
sg10
I0
sg11
I510
ssS'machine4'
p16
(dp17
g5
I460
sg6
I30
sg7
I0
sg8
I0
sg9
I15
sg10
I12
sg11
I460
ssS'machine3'
p18
(dp19
g5
I592
sg6
I37
sg7
I0
sg8
I11
sg9
I8
sg10
I0
sg11
I490
ssS'machine2'
p20
(dp21
g5
I592
sg6
I37
sg7
I0
sg8
I9
sg9
I8
sg10
I0
sg11
I490
sssS'Wahono.csv'
p22
(dp23
g3
(dp24
g5
I1410
sg6
I60
sg7
I0
sg8
I0
sg9
I2
sg10
I17
sg11
I1410
ssg12
(dp25
g5
I2574
sg6
I59
sg7
I0
sg8
I54
sg9
I3
sg10
I1
sg11
I1260
ssg14
(dp26
g5
I1448
sg6
I59
sg7
I0
sg8
I29
sg9
I3
sg10
I0
sg11
I1160
ssg16
(dp27
g5
I1260
sg6
I59
sg7
I1
sg8
I0
sg9
I2
sg10
I20
sg11
I1260
ssg18
(dp28
g5
I1612
sg6
I60
sg7
I0
sg8
I26
sg9
I2
sg10
I2
sg11
I1270
ssg20
(dp29
g5
I1411
sg6
I59
sg7
I0
sg8
I23
sg9
I3
sg10
I2
sg11
I1110
sssS'Hall.csv'
p30
(dp31
g3
(dp32
g5
I500
sg6
I100
sg7
I2
sg8
I0
sg9
I4
sg10
I9
sg11
I500
ssg12
(dp33
g5
I976
sg6
I101
sg7
I0
sg8
I16
sg9
I5
sg10
I0
sg11
I480
ssg14
(dp34
g5
I611
sg6
I99
sg7
I2
sg8
I16
sg9
I5
sg10
I2
sg11
I440
ssg16
(dp35
g5
I860
sg6
I99
sg7
I3
sg8
I0
sg9
I4
sg10
I14
sg11
I860
ssg18
(dp36
g5
I697
sg6
I102
sg7
I0
sg8
I11
sg9
I4
sg10
I1
sg11
I480
ssg20
(dp37
g5
I735
sg6
I100
sg7
I2
sg8
I14
sg9
I4
sg10
I2
sg11
I510
sssS'Danijel.csv'
p38
(dp39
g3
(dp40
g5
I950
sg6
I46
sg7
I0
sg8
I0
sg9
I2
sg10
I26
sg11
I950
ssg12
(dp41
g5
I1567
sg6
I46
sg7
I0
sg8
I27
sg9
I2
sg10
I0
sg11
I770
ssg14
(dp42
g5
I814
sg6
I44
sg7
I1
sg8
I10
sg9
I3
sg10
I0
sg11
I660
ssg16
(dp43
g5
I870
sg6
I44
sg7
I2
sg8
I0
sg9
I2
sg10
I12
sg11
I870
ssg18
(dp44
g5
I948
sg6
I45
sg7
I0
sg8
I18
sg9
I3
sg10
I0
sg11
I740
ssg20
(dp45
g5
I1063
sg6
I45
sg7
I0
sg8
I21
sg9
I3
sg10
I2
sg11
I830
sss.(dp0
S'K_all3.csv'
p1
(dp2
S'none'
p3
(dp4
S'count'
p5
I420
sS'truepos'
p6
I31
sS'falseneg'
p7
I1
sS'correction'
p8
I0
sS'unknownyes'
p9
I13
sS'falsepos'
p10
I7
sS'unique'
p11
I420
ssS'three'
p12
(dp13
g5
I1020
sg6
I38
sg7
I0
sg8
I20
sg9
I7
sg10
I0
sg11
I500
ssS'machine'
p14
(dp15
g5
I597
sg6
I36
sg7
I0
sg8
I16
sg9
I9
sg10
I0
sg11
I500
ssS'machine4'
p16
(dp17
g5
I430
sg6
I32
sg7
I0
sg8
I0
sg9
I13
sg10
I15
sg11
I430
ssS'machine3'
p18
(dp19
g5
I517
sg6
I34
sg7
I1
sg8
I4
sg9
I10
sg10
I0
sg11
I450
ssS'machine2'
p20
(dp21
g5
I585
sg6
I37
sg7
I0
sg8
I7
sg9
I8
sg10
I1
sg11
I490
sssS'Wahono.csv'
p22
(dp23
g3
(dp24
g5
I1280
sg6
I59
sg7
I0
sg8
I0
sg9
I3
sg10
I21
sg11
I1280
ssg12
(dp25
g5
I2599
sg6
I59
sg7
I0
sg8
I56
sg9
I3
sg10
I3
sg11
I1270
ssg14
(dp26
g5
I1393
sg6
I59
sg7
I0
sg8
I37
sg9
I3
sg10
I1
sg11
I1110
ssg16
(dp27
g5
I1710
sg6
I58
sg7
I2
sg8
I0
sg9
I2
sg10
I28
sg11
I1710
ssg18
(dp28
g5
I1669
sg6
I60
sg7
I0
sg8
I30
sg9
I2
sg10
I1
sg11
I1300
ssg20
(dp29
g5
I1420
sg6
I58
sg7
I1
sg8
I29
sg9
I3
sg10
I0
sg11
I1110
sssS'Hall.csv'
p30
(dp31
g3
(dp32
g5
I460
sg6
I100
sg7
I1
sg8
I0
sg9
I5
sg10
I3
sg11
I460
ssg12
(dp33
g5
I963
sg6
I102
sg7
I0
sg8
I23
sg9
I4
sg10
I0
sg11
I470
ssg14
(dp34
g5
I682
sg6
I101
sg7
I1
sg8
I10
sg9
I4
sg10
I1
sg11
I490
ssg16
(dp35
g5
I680
sg6
I99
sg7
I3
sg8
I0
sg9
I4
sg10
I14
sg11
I680
ssg18
(dp36
g5
I742
sg6
I101
sg7
I1
sg8
I9
sg9
I4
sg10
I2
sg11
I520
ssg20
(dp37
g5
I741
sg6
I102
sg7
I0
sg8
I14
sg9
I4
sg10
I0
sg11
I520
sssS'Danijel.csv'
p38
(dp39
g3
(dp40
g5
I740
sg6
I43
sg7
I0
sg8
I0
sg9
I5
sg10
I19
sg11
I740
ssg12
(dp41
g5
I1725
sg6
I45
sg7
I0
sg8
I25
sg9
I3
sg10
I1
sg11
I850
ssg14
(dp42
g5
I905
sg6
I44
sg7
I1
sg8
I11
sg9
I3
sg10
I0
sg11
I720
ssg16
(dp43
g5
I880
sg6
I45
sg7
I0
sg8
I0
sg9
I3
sg10
I12
sg11
I880
ssg18
(dp44
g5
I1011
sg6
I44
sg7
I2
sg8
I19
sg9
I2
sg10
I0
sg11
I790
ssg20
(dp45
g5
I900
sg6
I45
sg7
I1
sg8
I14
sg9
I2
sg10
I1
sg11
I710
sss.(dp0
S'K_all3.csv'
p1
(dp2
S'none'
p3
(dp4
S'count'
p5
I410
sS'truepos'
p6
I31
sS'falseneg'
p7
I0
sS'correction'
p8
I0
sS'unknownyes'
p9
I14
sS'falsepos'
p10
I7
sS'unique'
p11
I410
ssS'three'
p12
(dp13
g5
I978
sg6
I38
sg7
I0
sg8
I18
sg9
I7
sg10
I0
sg11
I480
ssS'machine'
p14
(dp15
g5
I521
sg6
I31
sg7
I1
sg8
I13
sg9
I13
sg10
I3
sg11
I430
ssS'machine4'
p16
(dp17
g5
I520
sg6
I37
sg7
I0
sg8
I0
sg9
I8
sg10
I12
sg11
I520
ssS'machine3'
p18
(dp19
g5
I507
sg6
I35
sg7
I0
sg8
I4
sg9
I10
sg10
I0
sg11
I440
ssS'machine2'
p20
(dp21
g5
I545
sg6
I34
sg7
I1
sg8
I9
sg9
I10
sg10
I2
sg11
I460
sssS'Wahono.csv'
p22
(dp23
g3
(dp24
g5
I1680
sg6
I58
sg7
I2
sg8
I0
sg9
I2
sg10
I37
sg11
I1680
ssg12
(dp25
g5
I2555
sg6
I59
sg7
I0
sg8
I55
sg9
I3
sg10
I1
sg11
I1250
ssg14
(dp26
g5
I1329
sg6
I56
sg7
I2
sg8
I21
sg9
I4
sg10
I2
sg11
I1060
ssg16
(dp27
g5
I1110
sg6
I54
sg7
I1
sg8
I0
sg9
I7
sg10
I26
sg11
I1110
ssg18
(dp28
g5
I1466
sg6
I58
sg7
I2
sg8
I20
sg9
I2
sg10
I2
sg11
I1160
ssg20
(dp29
g5
I1584
sg6
I59
sg7
I0
sg8
I24
sg9
I3
sg10
I3
sg11
I1250
sssS'Hall.csv'
p30
(dp31
g3
(dp32
g5
I750
sg6
I100
sg7
I2
sg8
I0
sg9
I4
sg10
I14
sg11
I750
ssg12
(dp33
g5
I1035
sg6
I102
sg7
I0
sg8
I15
sg9
I4
sg10
I0
sg11
I510
ssg14
(dp34
g5
I612
sg6
I99
sg7
I3
sg8
I14
sg9
I4
sg10
I1
sg11
I440
ssg16
(dp35
g5
I590
sg6
I100
sg7
I2
sg8
I0
sg9
I4
sg10
I10
sg11
I590
ssg18
(dp36
g5
I709
sg6
I102
sg7
I0
sg8
I8
sg9
I4
sg10
I0
sg11
I500
ssg20
(dp37
g5
I697
sg6
I102
sg7
I0
sg8
I3
sg9
I4
sg10
I0
sg11
I500
sssS'Danijel.csv'
p38
(dp39
g3
(dp40
g5
I890
sg6
I45
sg7
I0
sg8
I0
sg9
I3
sg10
I12
sg11
I890
ssg12
(dp41
g5
I1512
sg6
I45
sg7
I0
sg8
I31
sg9
I3
sg10
I1
sg11
I740
ssg14
(dp42
g5
I881
sg6
I44
sg7
I1
sg8
I19
sg9
I3
sg10
I1
sg11
I710
ssg16
(dp43
g5
I870
sg6
I44
sg7
I0
sg8
I0
sg9
I4
sg10
I11
sg11
I870
ssg18
(dp44
g5
I953
sg6
I45
sg7
I0
sg8
I24
sg9
I3
sg10
I0
sg11
I730
ssg20
(dp45
g5
I1041
sg6
I44
sg7
I1
sg8
I15
sg9
I3
sg10
I1
sg11
I820
sss.(dp0
S'K_all3.csv'
p1
(dp2
S'none'
p3
(dp4
S'count'
p5
I430
sS'truepos'
p6
I39
sS'falseneg'
p7
I0
sS'correction'
p8
I0
sS'unknownyes'
p9
I6
sS'falsepos'
p10
I7
sS'unique'
p11
I430
ssS'three'
p12
(dp13
g5
I1000
sg6
I37
sg7
I0
sg8
I20
sg9
I8
sg10
I1
sg11
I490
ssS'machine'
p14
(dp15
g5
I589
sg6
I38
sg7
I0
sg8
I8
sg9
I7
sg10
I0
sg11
I480
ssS'machine4'
p16
(dp17
g5
I470
sg6
I34
sg7
I0
sg8
I0
sg9
I11
sg10
I14
sg11
I470
ssS'machine3'
p18
(dp19
g5
I535
sg6
I37
sg7
I0
sg8
I8
sg9
I8
sg10
I1
sg11
I440
ssS'machine2'
p20
(dp21
g5
I615
sg6
I36
sg7
I0
sg8
I11
sg9
I9
sg10
I0
sg11
I510
sssS'Wahono.csv'
p22
(dp23
g3
(dp24
g5
I1500
sg6
I57
sg7
I2
sg8
I0
sg9
I3
sg10
I41
sg11
I1500
ssg12
(dp25
g5
I2551
sg6
I59
sg7
I0
sg8
I50
sg9
I3
sg10
I1
sg11
I1250
ssg14
(dp26
g5
I1534
sg6
I59
sg7
I0
sg8
I27
sg9
I3
sg10
I1
sg11
I1220
ssg16
(dp27
g5
I1640
sg6
I58
sg7
I1
sg8
I0
sg9
I3
sg10
I26
sg11
I1640
ssg18
(dp28
g5
I1448
sg6
I59
sg7
I0
sg8
I27
sg9
I3
sg10
I0
sg11
I1130
ssg20
(dp29
g5
I849
sg6
I58
sg7
I0
sg8
I16
sg9
I4
sg10
I1
sg11
I660
sssS'Hall.csv'
p30
(dp31
g3
(dp32
g5
I830
sg6
I102
sg7
I1
sg8
I0
sg9
I3
sg10
I16
sg11
I830
ssg12
(dp33
g5
I932
sg6
I102
sg7
I0
sg8
I12
sg9
I4
sg10
I0
sg11
I460
ssg14
(dp34
g5
I662
sg6
I102
sg7
I0
sg8
I10
sg9
I4
sg10
I0
sg11
I470
ssg16
(dp35
g5
I460
sg6
I98
sg7
I3
sg8
I0
sg9
I5
sg10
I5
sg11
I460
ssg18
(dp36
g5
I705
sg6
I102
sg7
I0
sg8
I12
sg9
I4
sg10
I0
sg11
I490
ssg20
(dp37
g5
I689
sg6
I102
sg7
I0
sg8
I6
sg9
I4
sg10
I1
sg11
I490
sssS'Danijel.csv'
p38
(dp39
g3
(dp40
g5
I820
sg6
I44
sg7
I1
sg8
I0
sg9
I3
sg10
I14
sg11
I820
ssg12
(dp41
g5
I1645
sg6
I45
sg7
I0
sg8
I25
sg9
I3
sg10
I0
sg11
I810
ssg14
(dp42
g5
I994
sg6
I44
sg7
I0
sg8
I10
sg9
I4
sg10
I1
sg11
I800
ssg16
(dp43
g5
I780
sg6
I46
sg7
I0
sg8
I0
sg9
I2
sg10
I13
sg11
I780
ssg18
(dp44
g5
I1002
sg6
I45
sg7
I0
sg8
I15
sg9
I3
sg10
I0
sg11
I790
ssg20
(dp45
g5
I1032
sg6
I45
sg7
I0
sg8
I19
sg9
I3
sg10
I1
sg11
I810
sss.(dp0
S'K_all3.csv'
p1
(dp2
S'none'
p3
(dp4
S'count'
p5
I410
sS'truepos'
p6
I32
sS'falseneg'
p7
I0
sS'correction'
p8
I0
sS'unknownyes'
p9
I13
sS'falsepos'
p10
I9
sS'unique'
p11
I410
ssS'three'
p12
(dp13
g5
I1007
sg6
I38
sg7
I0
sg8
I27
sg9
I7
sg10
I0
sg11
I490
ssS'machine'
p14
(dp15
g5
I582
sg6
I37
sg7
I0
sg8
I9
sg9
I8
sg10
I0
sg11
I480
ssS'machine4'
p16
(dp17
g5
I470
sg6
I36
sg7
I1
sg8
I0
sg9
I8
sg10
I2
sg11
I470
ssS'machine3'
p18
(dp19
g5
I594
sg6
I33
sg7
I1
sg8
I8
sg9
I11
sg10
I0
sg11
I500
ssS'machine2'
p20
(dp21
g5
I606
sg6
I34
sg7
I2
sg8
I9
sg9
I9
sg10
I1
sg11
I510
sssS'Wahono.csv'
p22
(dp23
g3
(dp24
g5
I1410
sg6
I58
sg7
I1
sg8
I0
sg9
I3
sg10
I30
sg11
I1410
ssg12
(dp25
g5
I2555
sg6
I59
sg7
I0
sg8
I54
sg9
I3
sg10
I1
sg11
I1250
ssg14
(dp26
g5
I1459
sg6
I60
sg7
I0
sg8
I30
sg9
I2
sg10
I1
sg11
I1160
ssg16
(dp27
g5
I1460
sg6
I59
sg7
I0
sg8
I0
sg9
I3
sg10
I23
sg11
I1460
ssg18
(dp28
g5
I1387
sg6
I59
sg7
I0
sg8
I21
sg9
I3
sg10
I0
sg11
I1090
ssg20
(dp29
g5
I1357
sg6
I59
sg7
I0
sg8
I25
sg9
I3
sg10
I2
sg11
I1070
sssS'Hall.csv'
p30
(dp31
g3
(dp32
g5
I560
sg6
I101
sg7
I1
sg8
I0
sg9
I4
sg10
I9
sg11
I560
ssg12
(dp33
g5
I925
sg6
I101
sg7
I0
sg8
I25
sg9
I5
sg10
I0
sg11
I450
ssg14
(dp34
g5
I523
sg6
I94
sg7
I5
sg8
I10
sg9
I7
sg10
I2
sg11
I380
ssg16
(dp35
g5
I470
sg6
I101
sg7
I0
sg8
I0
sg9
I5
sg10
I6
sg11
I470
ssg18
(dp36
g5
I687
sg6
I102
sg7
I0
sg8
I8
sg9
I4
sg10
I0
sg11
I480
ssg20
(dp37
g5
I599
sg6
I97
sg7
I4
sg8
I8
sg9
I5
sg10
I1
sg11
I420
sssS'Danijel.csv'
p38
(dp39
g3
(dp40
g5
I1420
sg6
I47
sg7
I0
sg8
I0
sg9
I1
sg10
I32
sg11
I1420
ssg12
(dp41
g5
I1745
sg6
I45
sg7
I0
sg8
I25
sg9
I3
sg10
I1
sg11
I860
ssg14
(dp42
g5
I925
sg6
I45
sg7
I0
sg8
I23
sg9
I3
sg10
I0
sg11
I740
ssg16
(dp43
g5
I990
sg6
I45
sg7
I0
sg8
I0
sg9
I3
sg10
I16
sg11
I990
ssg18
(dp44
g5
I1038
sg6
I46
sg7
I0
sg8
I25
sg9
I2
sg10
I0
sg11
I810
ssg20
(dp45
g5
I950
sg6
I46
sg7
I0
sg8
I20
sg9
I2
sg10
I1
sg11
I740
sss.(dp0
S'K_all3.csv'
p1
(dp2
S'none'
p3
(dp4
S'count'
p5
I400
sS'truepos'
p6
I33
sS'falseneg'
p7
I2
sS'correction'
p8
I0
sS'unknownyes'
p9
I10
sS'falsepos'
p10
I9
sS'unique'
p11
I400
ssS'three'
p12
(dp13
g5
I958
sg6
I37
sg7
I0
sg8
I18
sg9
I8
sg10
I0
sg11
I470
ssS'machine'
p14
(dp15
g5
I435
sg6
I32
sg7
I0
sg8
I9
sg9
I13
sg10
I0
sg11
I370
ssS'machine4'
p16
(dp17
g5
I460
sg6
I32
sg7
I3
sg8
I0
sg9
I10
sg10
I6
sg11
I460
ssS'machine3'
p18
(dp19
g5
I528
sg6
I35
sg7
I0
sg8
I9
sg9
I10
sg10
I0
sg11
I450
ssS'machine2'
p20
(dp21
g5
I586
sg6
I37
sg7
I0
sg8
I6
sg9
I8
sg10
I1
sg11
I490
sssS'Wahono.csv'
p22
(dp23
g3
(dp24
g5
I1520
sg6
I58
sg7
I0
sg8
I0
sg9
I4
sg10
I31
sg11
I1520
ssg12
(dp25
g5
I2247
sg6
I59
sg7
I0
sg8
I47
sg9
I3
sg10
I0
sg11
I1100
ssg14
(dp26
g5
I1392
sg6
I57
sg7
I2
sg8
I23
sg9
I3
sg10
I3
sg11
I1110
ssg16
(dp27
g5
I1600
sg6
I58
sg7
I1
sg8
I0
sg9
I3
sg10
I24
sg11
I1600
ssg18
(dp28
g5
I1422
sg6
I59
sg7
I0
sg8
I36
sg9
I3
sg10
I0
sg11
I1100
ssg20
(dp29
g5
I1489
sg6
I59
sg7
I0
sg8
I28
sg9
I3
sg10
I2
sg11
I1160
sssS'Hall.csv'
p30
(dp31
g3
(dp32
g5
I580
sg6
I100
sg7
I2
sg8
I0
sg9
I4
sg10
I8
sg11
I580
ssg12
(dp33
g5
I1123
sg6
I102
sg7
I0
sg8
I23
sg9
I4
sg10
I1
sg11
I550
ssg14
(dp34
g5
I682
sg6
I101
sg7
I1
sg8
I7
sg9
I4
sg10
I0
sg11
I490
ssg16
(dp35
g5
I600
sg6
I101
sg7
I1
sg8
I0
sg9
I4
sg10
I13
sg11
I600
ssg18
(dp36
g5
I691
sg6
I102
sg7
I0
sg8
I4
sg9
I4
sg10
I1
sg11
I490
ssg20
(dp37
g5
I758
sg6
I102
sg7
I0
sg8
I12
sg9
I4
sg10
I0
sg11
I530
sssS'Danijel.csv'
p38
(dp39
g3
(dp40
g5
I900
sg6
I43
sg7
I2
sg8
I0
sg9
I3
sg10
I15
sg11
I900
ssg12
(dp41
g5
I1547
sg6
I45
sg7
I0
sg8
I27
sg9
I3
sg10
I0
sg11
I760
ssg14
(dp42
g5
I1008
sg6
I45
sg7
I0
sg8
I26
sg9
I3
sg10
I0
sg11
I810
ssg16
(dp43
g5
I1020
sg6
I45
sg7
I1
sg8
I0
sg9
I2
sg10
I24
sg11
I1020
ssg18
(dp44
g5
I916
sg6
I45
sg7
I0
sg8
I11
sg9
I3
sg10
I0
sg11
I720
ssg20
(dp45
g5
I926
sg6
I46
sg7
I0
sg8
I21
sg9
I2
sg10
I1
sg11
I720
sss.(dp0
S'K_all3.csv'
p1
(dp2
S'none'
p3
(dp4
S'count'
p5
I440
sS'truepos'
p6
I35
sS'falseneg'
p7
I0
sS'correction'
p8
I0
sS'unknownyes'
p9
I10
sS'falsepos'
p10
I9
sS'unique'
p11
I440
ssS'three'
p12
(dp13
g5
I1005
sg6
I37
sg7
I0
sg8
I25
sg9
I8
sg10
I1
sg11
I490
ssS'machine'
p14
(dp15
g5
I607
sg6
I38
sg7
I1
sg8
I12
sg9
I6
sg10
I0
sg11
I510
ssS'machine4'
p16
(dp17
g5
I440
sg6
I35
sg7
I1
sg8
I0
sg9
I9
sg10
I13
sg11
I440
ssS'machine3'
p18
(dp19
g5
I603
sg6
I37
sg7
I0
sg8
I11
sg9
I8
sg10
I0
sg11
I500
ssS'machine2'
p20
(dp21
g5
I584
sg6
I38
sg7
I0
sg8
I7
sg9
I7
sg10
I0
sg11
I490
sssS'Wahono.csv'
p22
(dp23
g3
(dp24
g5
I1460
sg6
I58
sg7
I0
sg8
I0
sg9
I4
sg10
I28
sg11
I1460
ssg12
(dp25
g5
I2234
sg6
I59
sg7
I0
sg8
I34
sg9
I3
sg10
I2
sg11
I1100
ssg14
(dp26
g5
I1273
sg6
I58
sg7
I1
sg8
I25
sg9
I3
sg10
I2
sg11
I1010
ssg16
(dp27
g5
I1530
sg6
I57
sg7
I2
sg8
I0
sg9
I3
sg10
I35
sg11
I1530
ssg18
(dp28
g5
I1513
sg6
I59
sg7
I0
sg8
I27
sg9
I3
sg10
I0
sg11
I1180
ssg20
(dp29
g5
I1472
sg6
I59
sg7
I0
sg8
I19
sg9
I3
sg10
I3
sg11
I1160
sssS'Hall.csv'
p30
(dp31
g3
(dp32
g5
I690
sg6
I98
sg7
I4
sg8
I0
sg9
I4
sg10
I13
sg11
I690
ssg12
(dp33
g5
I1012
sg6
I102
sg7
I0
sg8
I12
sg9
I4
sg10
I0
sg11
I500
ssg14
(dp34
g5
I720
sg6
I100
sg7
I2
sg8
I13
sg9
I4
sg10
I0
sg11
I510
ssg16
(dp35
g5
I560
sg6
I100
sg7
I2
sg8
I0
sg9
I4
sg10
I5
sg11
I560
ssg18
(dp36
g5
I624
sg6
I100
sg7
I1
sg8
I6
sg9
I5
sg10
I0
sg11
I430
ssg20
(dp37
g5
I753
sg6
I102
sg7
I0
sg8
I11
sg9
I4
sg10
I0
sg11
I530
sssS'Danijel.csv'
p38
(dp39
g3
(dp40
g5
I770
sg6
I44
sg7
I1
sg8
I0
sg9
I3
sg10
I13
sg11
I770
ssg12
(dp41
g5
I1781
sg6
I45
sg7
I0
sg8
I40
sg9
I3
sg10
I3
sg11
I870
ssg14
(dp42
g5
I1056
sg6
I46
sg7
I0
sg8
I19
sg9
I2
sg10
I3
sg11
I840
ssg16
(dp43
g5
I1210
sg6
I43
sg7
I2
sg8
I0
sg9
I3
sg10
I32
sg11
I1210
ssg18
(dp44
g5
I1030
sg6
I45
sg7
I0
sg8
I18
sg9
I3
sg10
I0
sg11
I810
ssg20
(dp45
g5
I911
sg6
I45
sg7
I0
sg8
I14
sg9
I3
sg10
I1
sg11
I710
sss.(dp0
S'K_all3.csv'
p1
(dp2
S'none'
p3
(dp4
S'count'
p5
I430
sS'truepos'
p6
I30
sS'falseneg'
p7
I1
sS'correction'
p8
I0
sS'unknownyes'
p9
I14
sS'falsepos'
p10
I9
sS'unique'
p11
I430
ssS'three'
p12
(dp13
g5
I957
sg6
I38
sg7
I0
sg8
I17
sg9
I7
sg10
I0
sg11
I470
ssS'machine'
p14
(dp15
g5
I545
sg6
I34
sg7
I0
sg8
I7
sg9
I11
sg10
I1
sg11
I460
ssS'machine4'
p16
(dp17
g5
I520
sg6
I35
sg7
I2
sg8
I0
sg9
I8
sg10
I3
sg11
I520
ssS'machine3'
p18
(dp19
g5
I504
sg6
I33
sg7
I0
sg8
I10
sg9
I12
sg10
I0
sg11
I420
ssS'machine2'
p20
(dp21
g5
I578
sg6
I36
sg7
I0
sg8
I9
sg9
I9
sg10
I1
sg11
I480
sssS'Wahono.csv'
p22
(dp23
g3
(dp24
g5
I1300
sg6
I58
sg7
I1
sg8
I0
sg9
I3
sg10
I20
sg11
I1300
ssg12
(dp25
g5
I2381
sg6
I59
sg7
I0
sg8
I41
sg9
I3
sg10
I1
sg11
I1170
ssg14
(dp26
g5
I1402
sg6
I58
sg7
I1
sg8
I24
sg9
I3
sg10
I2
sg11
I1110
ssg16
(dp27
g5
I1540
sg6
I60
sg7
I0
sg8
I0
sg9
I2
sg10
I35
sg11
I1540
ssg18
(dp28
g5
I1487
sg6
I60
sg7
I1
sg8
I30
sg9
I1
sg10
I1
sg11
I1160
ssg20
(dp29
g5
I1222
sg6
I59
sg7
I0
sg8
I18
sg9
I3
sg10
I1
sg11
I960
sssS'Hall.csv'
p30
(dp31
g3
(dp32
g5
I1300
sg6
I101
sg7
I2
sg8
I0
sg9
I3
sg10
I31
sg11
I1300
ssg12
(dp33
g5
I976
sg6
I101
sg7
I0
sg8
I16
sg9
I5
sg10
I0
sg11
I480
ssg14
(dp34
g5
I742
sg6
I102
sg7
I0
sg8
I15
sg9
I4
sg10
I2
sg11
I530
ssg16
(dp35
g5
I700
sg6
I102
sg7
I0
sg8
I0
sg9
I4
sg10
I7
sg11
I700
ssg18
(dp36
g5
I774
sg6
I102
sg7
I0
sg8
I14
sg9
I4
sg10
I2
sg11
I540
ssg20
(dp37
g5
I668
sg6
I101
sg7
I0
sg8
I9
sg9
I5
sg10
I0
sg11
I470
sssS'Danijel.csv'
p38
(dp39
g3
(dp40
g5
I790
sg6
I45
sg7
I0
sg8
I0
sg9
I3
sg10
I8
sg11
I790
ssg12
(dp41
g5
I1529
sg6
I45
sg7
I0
sg8
I29
sg9
I3
sg10
I0
sg11
I750
ssg14
(dp42
g5
I953
sg6
I45
sg7
I0
sg8
I8
sg9
I3
sg10
I0
sg11
I760
ssg16
(dp43
g5
I750
sg6
I44
sg7
I1
sg8
I0
sg9
I3
sg10
I14
sg11
I750
ssg18
(dp44
g5
I1026
sg6
I44
sg7
I1
sg8
I17
sg9
I3
sg10
I0
sg11
I810
ssg20
(dp45
g5
I1000
sg6
I44
sg7
I1
sg8
I21
sg9
I3
sg10
I0
sg11
I780
sss.(dp0
S'K_all3.csv'
p1
(dp2
S'none'
p3
(dp4
S'count'
p5
I480
sS'truepos'
p6
I40
sS'falseneg'
p7
I0
sS'correction'
p8
I0
sS'unknownyes'
p9
I5
sS'falsepos'
p10
I17
sS'unique'
p11
I480
ssS'three'
p12
(dp13
g5
I1038
sg6
I37
sg7
I0
sg8
I17
sg9
I8
sg10
I1
sg11
I510
ssS'machine'
p14
(dp15
g5
I587
sg6
I35
sg7
I2
sg8
I8
sg9
I8
sg10
I0
sg11
I500
ssS'machine4'
p16
(dp17
g5
I490
sg6
I33
sg7
I2
sg8
I0
sg9
I10
sg10
I12
sg11
I490
ssS'machine3'
p18
(dp19
g5
I621
sg6
I39
sg7
I0
sg8
I15
sg9
I6
sg10
I0
sg11
I510
ssS'machine2'
p20
(dp21
g5
I593
sg6
I34
sg7
I1
sg8
I8
sg9
I10
sg10
I2
sg11
I500
sssS'Wahono.csv'
p22
(dp23
g3
(dp24
g5
I1640
sg6
I57
sg7
I4
sg8
I0
sg9
I1
sg10
I31
sg11
I1640
ssg12
(dp25
g5
I2342
sg6
I59
sg7
I0
sg8
I41
sg9
I3
sg10
I1
sg11
I1150
ssg14
(dp26
g5
I1417
sg6
I59
sg7
I0
sg8
I24
sg9
I3
sg10
I0
sg11
I1140
ssg16
(dp27
g5
I1590
sg6
I56
sg7
I2
sg8
I0
sg9
I4
sg10
I42
sg11
I1590
ssg18
(dp28
g5
I1556
sg6
I59
sg7
I0
sg8
I21
sg9
I3
sg10
I1
sg11
I1230
ssg20
(dp29
g5
I1572
sg6
I59
sg7
I0
sg8
I25
sg9
I3
sg10
I2
sg11
I1240
sssS'Hall.csv'
p30
(dp31
g3
(dp32
g5
I530
sg6
I102
sg7
I0
sg8
I0
sg9
I4
sg10
I6
sg11
I530
ssg12
(dp33
g5
I937
sg6
I101
sg7
I0
sg8
I17
sg9
I5
sg10
I0
sg11
I460
ssg14
(dp34
g5
I663
sg6
I100
sg7
I2
sg8
I18
sg9
I4
sg10
I1
sg11
I470
ssg16
(dp35
g5
I580
sg6
I101
sg7
I1
sg8
I0
sg9
I4
sg10
I7
sg11
I580
ssg18
(dp36
g5
I702
sg6
I102
sg7
I0
sg8
I10
sg9
I4
sg10
I0
sg11
I490
ssg20
(dp37
g5
I657
sg6
I101
sg7
I0
sg8
I8
sg9
I5
sg10
I0
sg11
I460
sssS'Danijel.csv'
p38
(dp39
g3
(dp40
g5
I920
sg6
I44
sg7
I0
sg8
I0
sg9
I4
sg10
I16
sg11
I920
ssg12
(dp41
g5
I1742
sg6
I45
sg7
I0
sg8
I42
sg9
I3
sg10
I1
sg11
I850
ssg14
(dp42
g5
I1023
sg6
I45
sg7
I0
sg8
I18
sg9
I3
sg10
I2
sg11
I810
ssg16
(dp43
g5
I850
sg6
I42
sg7
I2
sg8
I0
sg9
I4
sg10
I19
sg11
I850
ssg18
(dp44
g5
I942
sg6
I44
sg7
I1
sg8
I16
sg9
I3
sg10
I0
sg11
I740
ssg20
(dp45
g5
I1079
sg6
I45
sg7
I0
sg8
I22
sg9
I3
sg10
I0
sg11
I840
sss.(dp0
S'K_all3.csv'
p1
(dp2
S'none'
p3
(dp4
S'count'
p5
I450
sS'truepos'
p6
I32
sS'falseneg'
p7
I1
sS'correction'
p8
I0
sS'unknownyes'
p9
I12
sS'falsepos'
p10
I6
sS'unique'
p11
I450
ssS'three'
p12
(dp13
g5
I956
sg6
I36
sg7
I0
sg8
I16
sg9
I9
sg10
I0
sg11
I470
ssS'machine'
p14
(dp15
g5
I612
sg6
I36
sg7
I1
sg8
I12
sg9
I8
sg10
I0
sg11
I510
ssS'machine4'
p16
(dp17
g5
I460
sg6
I36
sg7
I0
sg8
I0
sg9
I9
sg10
I5
sg11
I460
ssS'machine3'
p18
(dp19
g5
I570
sg6
I36
sg7
I0
sg8
I9
sg9
I9
sg10
I0
sg11
I480
ssS'machine2'
p20
(dp21
g5
I568
sg6
I36
sg7
I0
sg8
I9
sg9
I9
sg10
I1
sg11
I460
sssS'Wahono.csv'
p22
(dp23
g3
(dp24
g5
I1820
sg6
I56
sg7
I3
sg8
I0
sg9
I3
sg10
I39
sg11
I1820
ssg12
(dp25
g5
I2549
sg6
I59
sg7
I0
sg8
I49
sg9
I3
sg10
I1
sg11
I1250
ssg14
(dp26
g5
I1459
sg6
I57
sg7
I2
sg8
I23
sg9
I3
sg10
I0
sg11
I1160
ssg16
(dp27
g5
I1210
sg6
I56
sg7
I1
sg8
I0
sg9
I5
sg10
I22
sg11
I1210
ssg18
(dp28
g5
I1494
sg6
I59
sg7
I0
sg8
I28
sg9
I3
sg10
I0
sg11
I1170
ssg20
(dp29
g5
I1536
sg6
I59
sg7
I0
sg8
I19
sg9
I3
sg10
I3
sg11
I1210
sssS'Hall.csv'
p30
(dp31
g3
(dp32
g5
I550
sg6
I99
sg7
I3
sg8
I0
sg9
I4
sg10
I8
sg11
I550
ssg12
(dp33
g5
I960
sg6
I102
sg7
I0
sg8
I20
sg9
I4
sg10
I0
sg11
I470
ssg14
(dp34
g5
I653
sg6
I101
sg7
I1
sg8
I8
sg9
I4
sg10
I1
sg11
I460
ssg16
(dp35
g5
I530
sg6
I100
sg7
I2
sg8
I0
sg9
I4
sg10
I7
sg11
I530
ssg18
(dp36
g5
I681
sg6
I102
sg7
I0
sg8
I9
sg9
I4
sg10
I0
sg11
I470
ssg20
(dp37
g5
I684
sg6
I102
sg7
I0
sg8
I13
sg9
I4
sg10
I0
sg11
I480
sssS'Danijel.csv'
p38
(dp39
g3
(dp40
g5
I1070
sg6
I45
sg7
I1
sg8
I0
sg9
I2
sg10
I24
sg11
I1070
ssg12
(dp41
g5
I1595
sg6
I45
sg7
I0
sg8
I35
sg9
I3
sg10
I0
sg11
I780
ssg14
(dp42
g5
I975
sg6
I46
sg7
I0
sg8
I21
sg9
I2
sg10
I0
sg11
I770
ssg16
(dp43
g5
I1190
sg6
I44
sg7
I2
sg8
I0
sg9
I2
sg10
I24
sg11
I1190
ssg18
(dp44
g5
I970
sg6
I45
sg7
I0
sg8
I19
sg9
I3
sg10
I3
sg11
I760
ssg20
(dp45
g5
I963
sg6
I45
sg7
I0
sg8
I15
sg9
I3
sg10
I1
sg11
I760
sss.(dp0
S'K_all3.csv'
p1
(dp2
S'none'
p3
(dp4
S'count'
p5
I360
sS'truepos'
p6
I31
sS'falseneg'
p7
I0
sS'correction'
p8
I0
sS'unknownyes'
p9
I14
sS'falsepos'
p10
I7
sS'unique'
p11
I360
ssS'three'
p12
(dp13
g5
I953
sg6
I36
sg7
I0
sg8
I13
sg9
I9
sg10
I0
sg11
I470
ssS'machine'
p14
(dp15
g5
I425
sg6
I32
sg7
I2
sg8
I8
sg9
I11
sg10
I1
sg11
I360
ssS'machine4'
p16
(dp17
g5
I390
sg6
I32
sg7
I1
sg8
I0
sg9
I12
sg10
I7
sg11
I390
ssS'machine3'
p18
(dp19
g5
I679
sg6
I39
sg7
I1
sg8
I12
sg9
I5
sg10
I0
sg11
I560
ssS'machine2'
p20
(dp21
g5
I576
sg6
I34
sg7
I1
sg8
I12
sg9
I10
sg10
I2
sg11
I460
sssS'Wahono.csv'
p22
(dp23
g3
(dp24
g5
I1280
sg6
I58
sg7
I1
sg8
I0
sg9
I3
sg10
I22
sg11
I1280
ssg12
(dp25
g5
I2541
sg6
I60
sg7
I0
sg8
I61
sg9
I2
sg10
I1
sg11
I1240
ssg14
(dp26
g5
I1400
sg6
I58
sg7
I1
sg8
I23
sg9
I3
sg10
I1
sg11
I1110
ssg16
(dp27
g5
I1910
sg6
I60
sg7
I0
sg8
I0
sg9
I2
sg10
I49
sg11
I1910
ssg18
(dp28
g5
I1520
sg6
I59
sg7
I0
sg8
I32
sg9
I3
sg10
I0
sg11
I1180
ssg20
(dp29
g5
I1409
sg6
I59
sg7
I0
sg8
I28
sg9
I3
sg10
I0
sg11
I1100
sssS'Hall.csv'
p30
(dp31
g3
(dp32
g5
I610
sg6
I99
sg7
I3
sg8
I0
sg9
I4
sg10
I4
sg11
I610
ssg12
(dp33
g5
I1004
sg6
I102
sg7
I0
sg8
I24
sg9
I4
sg10
I0
sg11
I490
ssg14
(dp34
g5
I742
sg6
I99
sg7
I3
sg8
I13
sg9
I4
sg10
I2
sg11
I530
ssg16
(dp35
g5
I690
sg6
I100
sg7
I2
sg8
I0
sg9
I4
sg10
I10
sg11
I690
ssg18
(dp36
g5
I533
sg6
I100
sg7
I0
sg8
I7
sg9
I6
sg10
I0
sg11
I360
ssg20
(dp37
g5
I590
sg6
I100
sg7
I1
sg8
I7
sg9
I5
sg10
I1
sg11
I410
sssS'Danijel.csv'
p38
(dp39
g3
(dp40
g5
I850
sg6
I45
sg7
I0
sg8
I0
sg9
I3
sg10
I13
sg11
I850
ssg12
(dp41
g5
I1591
sg6
I45
sg7
I1
sg8
I30
sg9
I2
sg10
I0
sg11
I780
ssg14
(dp42
g5
I1072
sg6
I45
sg7
I0
sg8
I17
sg9
I3
sg10
I1
sg11
I860
ssg16
(dp43
g5
I990
sg6
I45
sg7
I0
sg8
I0
sg9
I3
sg10
I30
sg11
I990
ssg18
(dp44
g5
I1055
sg6
I43
sg7
I2
sg8
I18
sg9
I3
sg10
I0
sg11
I830
ssg20
(dp45
g5
I982
sg6
I44
sg7
I1
sg8
I16
sg9
I3
sg10
I1
sg11
I770
sss.(dp0
S'K_all3.csv'
p1
(dp2
S'none'
p3
(dp4
S'count'
p5
I490
sS'truepos'
p6
I37
sS'falseneg'
p7
I0
sS'correction'
p8
I0
sS'unknownyes'
p9
I8
sS'falsepos'
p10
I12
sS'unique'
p11
I490
ssS'three'
p12
(dp13
g5
I932
sg6
I37
sg7
I0
sg8
I12
sg9
I8
sg10
I1
sg11
I460
ssS'machine'
p14
(dp15
g5
I555
sg6
I32
sg7
I0
sg8
I9
sg9
I13
sg10
I0
sg11
I470
ssS'machine4'
p16
(dp17
g5
I410
sg6
I31
sg7
I0
sg8
I0
sg9
I14
sg10
I10
sg11
I410
ssS'machine3'
p18
(dp19
g5
I583
sg6
I38
sg7
I0
sg8
I10
sg9
I7
sg10
I0
sg11
I490
ssS'machine2'
p20
(dp21
g5
I566
sg6
I36
sg7
I0
sg8
I12
sg9
I9
sg10
I1
sg11
I450
sssS'Wahono.csv'
p22
(dp23
g3
(dp24
g5
I1820
sg6
I59
sg7
I1
sg8
I0
sg9
I2
sg10
I40
sg11
I1820
ssg12
(dp25
g5
I2277
sg6
I59
sg7
I0
sg8
I37
sg9
I3
sg10
I2
sg11
I1120
ssg14
(dp26
g5
I1414
sg6
I60
sg7
I0
sg8
I36
sg9
I2
sg10
I0
sg11
I1120
ssg16
(dp27
g5
I1550
sg6
I60
sg7
I1
sg8
I0
sg9
I1
sg10
I31
sg11
I1550
ssg18
(dp28
g5
I1666
sg6
I61
sg7
I0
sg8
I36
sg9
I1
sg10
I2
sg11
I1300
ssg20
(dp29
g5
I1516
sg6
I60
sg7
I0
sg8
I18
sg9
I2
sg10
I1
sg11
I1200
sssS'Hall.csv'
p30
(dp31
g3
(dp32
g5
I580
sg6
I99
sg7
I3
sg8
I0
sg9
I4
sg10
I4
sg11
I580
ssg12
(dp33
g5
I977
sg6
I102
sg7
I0
sg8
I17
sg9
I4
sg10
I0
sg11
I480
ssg14
(dp34
g5
I631
sg6
I101
sg7
I1
sg8
I17
sg9
I4
sg10
I0
sg11
I460
ssg16
(dp35
g5
I650
sg6
I99
sg7
I3
sg8
I0
sg9
I4
sg10
I8
sg11
I650
ssg18
(dp36
g5
I696
sg6
I102
sg7
I0
sg8
I6
sg9
I4
sg10
I0
sg11
I490
ssg20
(dp37
g5
I628
sg6
I102
sg7
I0
sg8
I11
sg9
I4
sg10
I1
sg11
I450
sssS'Danijel.csv'
p38
(dp39
g3
(dp40
g5
I810
sg6
I45
sg7
I0
sg8
I0
sg9
I3
sg10
I13
sg11
I810
ssg12
(dp41
g5
I1402
sg6
I45
sg7
I0
sg8
I22
sg9
I3
sg10
I0
sg11
I690
ssg14
(dp42
g5
I824
sg6
I46
sg7
I0
sg8
I8
sg9
I2
sg10
I0
sg11
I660
ssg16
(dp43
g5
I800
sg6
I44
sg7
I1
sg8
I0
sg9
I3
sg10
I13
sg11
I800
ssg18
(dp44
g5
I1006
sg6
I46
sg7
I0
sg8
I26
sg9
I2
sg10
I0
sg11
I780
ssg20
(dp45
g5
I990
sg6
I45
sg7
I0
sg8
I15
sg9
I3
sg10
I0
sg11
I780
sss.(dp0
S'K_all3.csv'
p1
(dp2
S'none'
p3
(dp4
S'count'
p5
I530
sS'truepos'
p6
I31
sS'falseneg'
p7
I1
sS'correction'
p8
I0
sS'unknownyes'
p9
I13
sS'falsepos'
p10
I8
sS'unique'
p11
I530
ssS'three'
p12
(dp13
g5
I1103
sg6
I37
sg7
I0
sg8
I23
sg9
I8
sg10
I2
sg11
I540
ssS'machine'
p14
(dp15
g5
I644
sg6
I33
sg7
I3
sg8
I15
sg9
I9
sg10
I1
sg11
I550
ssS'machine4'
p16
(dp17
g5
I440
sg6
I33
sg7
I1
sg8
I0
sg9
I11
sg10
I5
sg11
I440
ssS'machine3'
p18
(dp19
g5
I589
sg6
I36
sg7
I1
sg8
I6
sg9
I8
sg10
I0
sg11
I500
ssS'machine2'
p20
(dp21
g5
I554
sg6
I36
sg7
I0
sg8
I6
sg9
I9
sg10
I1
sg11
I460
sssS'Wahono.csv'
p22
(dp23
g3
(dp24
g5
I1570
sg6
I60
sg7
I1
sg8
I0
sg9
I1
sg10
I26
sg11
I1570
ssg12
(dp25
g5
I2432
sg6
I59
sg7
I0
sg8
I52
sg9
I3
sg10
I0
sg11
I1190
ssg14
(dp26
g5
I1500
sg6
I59
sg7
I0
sg8
I20
sg9
I3
sg10
I1
sg11
I1200
ssg16
(dp27
g5
I1860
sg6
I59
sg7
I0
sg8
I0
sg9
I3
sg10
I34
sg11
I1860
ssg18
(dp28
g5
I1409
sg6
I59
sg7
I0
sg8
I24
sg9
I3
sg10
I0
sg11
I1110
ssg20
(dp29
g5
I1473
sg6
I59
sg7
I0
sg8
I33
sg9
I3
sg10
I1
sg11
I1150
sssS'Hall.csv'
p30
(dp31
g3
(dp32
g5
I540
sg6
I99
sg7
I3
sg8
I0
sg9
I4
sg10
I8
sg11
I540
ssg12
(dp33
g5
I1020
sg6
I102
sg7
I0
sg8
I20
sg9
I4
sg10
I0
sg11
I500
ssg14
(dp34
g5
I661
sg6
I97
sg7
I4
sg8
I14
sg9
I5
sg10
I0
sg11
I470
ssg16
(dp35
g5
I470
sg6
I98
sg7
I3
sg8
I0
sg9
I5
sg10
I1
sg11
I470
ssg18
(dp36
g5
I732
sg6
I101
sg7
I1
sg8
I10
sg9
I4
sg10
I1
sg11
I510
ssg20
(dp37
g5
I662
sg6
I102
sg7
I0
sg8
I12
sg9
I4
sg10
I0
sg11
I460
sssS'Danijel.csv'
p38
(dp39
g3
(dp40
g5
I1120
sg6
I45
sg7
I1
sg8
I0
sg9
I2
sg10
I21
sg11
I1120
ssg12
(dp41
g5
I1546
sg6
I45
sg7
I0
sg8
I26
sg9
I3
sg10
I0
sg11
I760
ssg14
(dp42
g5
I898
sg6
I45
sg7
I0
sg8
I23
sg9
I3
sg10
I0
sg11
I710
ssg16
(dp43
g5
I800
sg6
I42
sg7
I1
sg8
I0
sg9
I5
sg10
I19
sg11
I800
ssg18
(dp44
g5
I971
sg6
I45
sg7
I0
sg8
I13
sg9
I3
sg10
I0
sg11
I770
ssg20
(dp45
g5
I989
sg6
I45
sg7
I0
sg8
I17
sg9
I3
sg10
I0
sg11
I770
sss.(dp0
S'K_all3.csv'
p1
(dp2
S'none'
p3
(dp4
S'count'
p5
I510
sS'truepos'
p6
I35
sS'falseneg'
p7
I2
sS'correction'
p8
I0
sS'unknownyes'
p9
I8
sS'falsepos'
p10
I13
sS'unique'
p11
I510
ssS'three'
p12
(dp13
g5
I1024
sg6
I35
sg7
I0
sg8
I24
sg9
I10
sg10
I1
sg11
I500
ssS'machine'
p14
(dp15
g5
I481
sg6
I37
sg7
I1
sg8
I10
sg9
I7
sg10
I0
sg11
I400
ssS'machine4'
p16
(dp17
g5
I400
sg6
I35
sg7
I0
sg8
I0
sg9
I10
sg10
I5
sg11
I400
ssS'machine3'
p18
(dp19
g5
I588
sg6
I36
sg7
I0
sg8
I9
sg9
I9
sg10
I0
sg11
I490
ssS'machine2'
p20
(dp21
g5
I552
sg6
I31
sg7
I0
sg8
I8
sg9
I14
sg10
I0
sg11
I460
sssS'Wahono.csv'
p22
(dp23
g3
(dp24
g5
I1690
sg6
I60
sg7
I0
sg8
I0
sg9
I2
sg10
I33
sg11
I1690
ssg12
(dp25
g5
I2685
sg6
I59
sg7
I0
sg8
I45
sg9
I3
sg10
I2
sg11
I1320
ssg14
(dp26
g5
I1568
sg6
I58
sg7
I1
sg8
I30
sg9
I3
sg10
I2
sg11
I1250
ssg16
(dp27
g5
I1560
sg6
I56
sg7
I3
sg8
I0
sg9
I3
sg10
I26
sg11
I1560
ssg18
(dp28
g5
I1557
sg6
I59
sg7
I1
sg8
I31
sg9
I2
sg10
I3
sg11
I1220
ssg20
(dp29
g5
I1403
sg6
I58
sg7
I1
sg8
I24
sg9
I3
sg10
I2
sg11
I1100
sssS'Hall.csv'
p30
(dp31
g3
(dp32
g5
I480
sg6
I99
sg7
I3
sg8
I0
sg9
I4
sg10
I6
sg11
I480
ssg12
(dp33
g5
I939
sg6
I101
sg7
I0
sg8
I19
sg9
I5
sg10
I0
sg11
I460
ssg14
(dp34
g5
I604
sg6
I100
sg7
I1
sg8
I13
sg9
I5
sg10
I2
sg11
I430
ssg16
(dp35
g5
I880
sg6
I99
sg7
I3
sg8
I0
sg9
I4
sg10
I18
sg11
I880
ssg18
(dp36
g5
I643
sg6
I101
sg7
I0
sg8
I8
sg9
I5
sg10
I0
sg11
I440
ssg20
(dp37
g5
I671
sg6
I101
sg7
I1
sg8
I10
sg9
I4
sg10
I1
sg11
I470
sssS'Danijel.csv'
p38
(dp39
g3
(dp40
g5
I980
sg6
I43
sg7
I1
sg8
I0
sg9
I4
sg10
I18
sg11
I980
ssg12
(dp41
g5
I1510
sg6
I45
sg7
I0
sg8
I30
sg9
I3
sg10
I0
sg11
I740
ssg14
(dp42
g5
I867
sg6
I46
sg7
I0
sg8
I16
sg9
I2
sg10
I0
sg11
I710
ssg16
(dp43
g5
I880
sg6
I45
sg7
I1
sg8
I0
sg9
I2
sg10
I22
sg11
I880
ssg18
(dp44
g5
I988
sg6
I45
sg7
I0
sg8
I23
sg9
I3
sg10
I2
sg11
I770
ssg20
(dp45
g5
I1094
sg6
I46
sg7
I0
sg8
I19
sg9
I2
sg10
I2
sg11
I860
sss.(dp0
S'K_all3.csv'
p1
(dp2
S'none'
p3
(dp4
S'count'
p5
I400
sS'truepos'
p6
I33
sS'falseneg'
p7
I1
sS'correction'
p8
I0
sS'unknownyes'
p9
I11
sS'falsepos'
p10
I12
sS'unique'
p11
I400
ssS'three'
p12
(dp13
g5
I919
sg6
I33
sg7
I0
sg8
I18
sg9
I12
sg10
I1
sg11
I450
ssS'machine'
p14
(dp15
g5
I636
sg6
I37
sg7
I1
sg8
I16
sg9
I7
sg10
I1
sg11
I520
ssS'machine4'
p16
(dp17
g5
I490
sg6
I34
sg7
I0
sg8
I0
sg9
I11
sg10
I3
sg11
I490
ssS'machine3'
p18
(dp19
g5
I514
sg6
I34
sg7
I1
sg8
I8
sg9
I10
sg10
I1
sg11
I430
ssS'machine2'
p20
(dp21
g5
I572
sg6
I34
sg7
I0
sg8
I17
sg9
I11
sg10
I0
sg11
I460
sssS'Wahono.csv'
p22
(dp23
g3
(dp24
g5
I1820
sg6
I55
sg7
I3
sg8
I0
sg9
I4
sg10
I47
sg11
I1820
ssg12
(dp25
g5
I2725
sg6
I59
sg7
I0
sg8
I63
sg9
I3
sg10
I2
sg11
I1330
ssg14
(dp26
g5
I1310
sg6
I58
sg7
I1
sg8
I20
sg9
I3
sg10
I1
sg11
I1040
ssg16
(dp27
g5
I1520
sg6
I61
sg7
I0
sg8
I0
sg9
I1
sg10
I26
sg11
I1520
ssg18
(dp28
g5
I1553
sg6
I59
sg7
I0
sg8
I29
sg9
I3
sg10
I0
sg11
I1220
ssg20
(dp29
g5
I1562
sg6
I59
sg7
I0
sg8
I29
sg9
I3
sg10
I2
sg11
I1220
sssS'Hall.csv'
p30
(dp31
g3
(dp32
g5
I710
sg6
I100
sg7
I2
sg8
I0
sg9
I4
sg10
I14
sg11
I710
ssg12
(dp33
g5
I1098
sg6
I101
sg7
I0
sg8
I18
sg9
I5
sg10
I1
sg11
I540
ssg14
(dp34
g5
I731
sg6
I102
sg7
I0
sg8
I7
sg9
I4
sg10
I0
sg11
I520
ssg16
(dp35
g5
I520
sg6
I99
sg7
I2
sg8
I0
sg9
I5
sg10
I11
sg11
I520
ssg18
(dp36
g5
I597
sg6
I100
sg7
I0
sg8
I8
sg9
I6
sg10
I0
sg11
I410
ssg20
(dp37
g5
I730
sg6
I101
sg7
I1
sg8
I7
sg9
I4
sg10
I2
sg11
I510
sssS'Danijel.csv'
p38
(dp39
g3
(dp40
g5
I930
sg6
I40
sg7
I2
sg8
I0
sg9
I6
sg10
I18
sg11
I930
ssg12
(dp41
g5
I1592
sg6
I45
sg7
I0
sg8
I32
sg9
I3
sg10
I0
sg11
I780
ssg14
(dp42
g5
I1014
sg6
I46
sg7
I0
sg8
I19
sg9
I2
sg10
I1
sg11
I810
ssg16
(dp43
g5
I1010
sg6
I44
sg7
I2
sg8
I0
sg9
I2
sg10
I15
sg11
I1010
ssg18
(dp44
g5
I1055
sg6
I46
sg7
I0
sg8
I21
sg9
I2
sg10
I1
sg11
I830
ssg20
(dp45
g5
I653
sg6
I43
sg7
I0
sg8
I12
sg9
I5
sg10
I0
sg11
I510
sss.(dp0
S'K_all3.csv'
p1
(dp2
S'none'
p3
(dp4
S'count'
p5
I420
sS'truepos'
p6
I33
sS'falseneg'
p7
I0
sS'correction'
p8
I0
sS'unknownyes'
p9
I12
sS'falsepos'
p10
I5
sS'unique'
p11
I420
ssS'three'
p12
(dp13
g5
I1000
sg6
I38
sg7
I0
sg8
I20
sg9
I7
sg10
I0
sg11
I490
ssS'machine'
p14
(dp15
g5
I631
sg6
I38
sg7
I1
sg8
I8
sg9
I6
sg10
I0
sg11
I540
ssS'machine4'
p16
(dp17
g5
I380
sg6
I31
sg7
I1
sg8
I0
sg9
I13
sg10
I9
sg11
I380
ssS'machine3'
p18
(dp19
g5
I464
sg6
I33
sg7
I1
sg8
I9
sg9
I11
sg10
I0
sg11
I390
ssS'machine2'
p20
(dp21
g5
I502
sg6
I33
sg7
I0
sg8
I11
sg9
I12
sg10
I1
sg11
I410
sssS'Wahono.csv'
p22
(dp23
g3
(dp24
g5
I1780
sg6
I60
sg7
I0
sg8
I0
sg9
I2
sg10
I33
sg11
I1780
ssg12
(dp25
g5
I2496
sg6
I59
sg7
I0
sg8
I55
sg9
I3
sg10
I1
sg11
I1220
ssg14
(dp26
g5
I1512
sg6
I59
sg7
I0
sg8
I23
sg9
I3
sg10
I0
sg11
I1210
ssg16
(dp27
g5
I1790
sg6
I57
sg7
I3
sg8
I0
sg9
I2
sg10
I38
sg11
I1790
ssg18
(dp28
g5
I1415
sg6
I59
sg7
I0
sg8
I20
sg9
I3
sg10
I0
sg11
I1120
ssg20
(dp29
g5
I1467
sg6
I59
sg7
I0
sg8
I29
sg9
I3
sg10
I0
sg11
I1140
sssS'Hall.csv'
p30
(dp31
g3
(dp32
g5
I790
sg6
I99
sg7
I2
sg8
I0
sg9
I5
sg10
I16
sg11
I790
ssg12
(dp33
g5
I958
sg6
I102
sg7
I0
sg8
I17
sg9
I4
sg10
I2
sg11
I470
ssg14
(dp34
g5
I492
sg6
I100
sg7
I0
sg8
I10
sg9
I6
sg10
I1
sg11
I360
ssg16
(dp35
g5
I540
sg6
I99
sg7
I3
sg8
I0
sg9
I4
sg10
I9
sg11
I540
ssg18
(dp36
g5
I742
sg6
I102
sg7
I0
sg8
I10
sg9
I4
sg10
I1
sg11
I520
ssg20
(dp37
g5
I566
sg6
I99
sg7
I1
sg8
I6
sg9
I6
sg10
I2
sg11
I410
sssS'Danijel.csv'
p38
(dp39
g3
(dp40
g5
I800
sg6
I44
sg7
I1
sg8
I0
sg9
I3
sg10
I20
sg11
I800
ssg12
(dp41
g5
I1549
sg6
I45
sg7
I0
sg8
I29
sg9
I3
sg10
I0
sg11
I760
ssg14
(dp42
g5
I1316
sg6
I44
sg7
I1
sg8
I34
sg9
I3
sg10
I1
sg11
I1050
ssg16
(dp43
g5
I910
sg6
I46
sg7
I0
sg8
I0
sg9
I2
sg10
I15
sg11
I910
ssg18
(dp44
g5
I962
sg6
I45
sg7
I0
sg8
I15
sg9
I3
sg10
I0
sg11
I760
ssg20
(dp45
g5
I886
sg6
I46
sg7
I0
sg8
I12
sg9
I2
sg10
I0
sg11
I700
sss.(dp0
S'K_all3.csv'
p1
(dp2
S'none'
p3
(dp4
S'count'
p5
I430
sS'truepos'
p6
I37
sS'falseneg'
p7
I1
sS'correction'
p8
I0
sS'unknownyes'
p9
I7
sS'falsepos'
p10
I3
sS'unique'
p11
I430
ssS'three'
p12
(dp13
g5
I1001
sg6
I38
sg7
I0
sg8
I21
sg9
I7
sg10
I0
sg11
I490
ssS'machine'
p14
(dp15
g5
I620
sg6
I37
sg7
I0
sg8
I12
sg9
I8
sg10
I0
sg11
I500
ssS'machine4'
p16
(dp17
g5
I420
sg6
I36
sg7
I0
sg8
I0
sg9
I9
sg10
I9
sg11
I420
ssS'machine3'
p18
(dp19
g5
I646
sg6
I37
sg7
I1
sg8
I7
sg9
I7
sg10
I1
sg11
I550
ssS'machine2'
p20
(dp21
g5
I570
sg6
I39
sg7
I0
sg8
I8
sg9
I6
sg10
I0
sg11
I470
sssS'Wahono.csv'
p22
(dp23
g3
(dp24
g5
I1840
sg6
I57
sg7
I2
sg8
I0
sg9
I3
sg10
I31
sg11
I1840
ssg12
(dp25
g5
I2572
sg6
I61
sg7
I0
sg8
I51
sg9
I1
sg10
I2
sg11
I1260
ssg14
(dp26
g5
I1208
sg6
I59
sg7
I0
sg8
I22
sg9
I3
sg10
I0
sg11
I960
ssg16
(dp27
g5
I1730
sg6
I59
sg7
I1
sg8
I0
sg9
I2
sg10
I42
sg11
I1730
ssg18
(dp28
g5
I1618
sg6
I59
sg7
I0
sg8
I34
sg9
I3
sg10
I2
sg11
I1260
ssg20
(dp29
g5
I1355
sg6
I59
sg7
I0
sg8
I24
sg9
I3
sg10
I0
sg11
I1060
sssS'Hall.csv'
p30
(dp31
g3
(dp32
g5
I650
sg6
I98
sg7
I4
sg8
I0
sg9
I4
sg10
I11
sg11
I650
ssg12
(dp33
g5
I1001
sg6
I102
sg7
I0
sg8
I21
sg9
I4
sg10
I0
sg11
I490
ssg14
(dp34
g5
I612
sg6
I98
sg7
I3
sg8
I7
sg9
I5
sg10
I2
sg11
I440
ssg16
(dp35
g5
I740
sg6
I100
sg7
I2
sg8
I0
sg9
I4
sg10
I14
sg11
I740
ssg18
(dp36
g5
I675
sg6
I102
sg7
I0
sg8
I12
sg9
I4
sg10
I0
sg11
I460
ssg20
(dp37
g5
I592
sg6
I99
sg7
I0
sg8
I8
sg9
I7
sg10
I0
sg11
I410
sssS'Danijel.csv'
p38
(dp39
g3
(dp40
g5
I730
sg6
I44
sg7
I0
sg8
I0
sg9
I4
sg10
I13
sg11
I730
ssg12
(dp41
g5
I1567
sg6
I44
sg7
I1
sg8
I27
sg9
I3
sg10
I0
sg11
I770
ssg14
(dp42
g5
I1007
sg6
I45
sg7
I0
sg8
I23
sg9
I3
sg10
I0
sg11
I800
ssg16
(dp43
g5
I1300
sg6
I45
sg7
I1
sg8
I0
sg9
I2
sg10
I31
sg11
I1300
ssg18
(dp44
g5
I1028
sg6
I45
sg7
I0
sg8
I21
sg9
I3
sg10
I1
sg11
I810
ssg20
(dp45
g5
I1033
sg6
I45
sg7
I0
sg8
I16
sg9
I3
sg10
I1
sg11
I820
sss.(dp0
S'K_all3.csv'
p1
(dp2
S'none'
p3
(dp4
S'count'
p5
I360
sS'truepos'
p6
I31
sS'falseneg'
p7
I1
sS'correction'
p8
I0
sS'unknownyes'
p9
I13
sS'falsepos'
p10
I11
sS'unique'
p11
I360
ssS'three'
p12
(dp13
g5
I1025
sg6
I36
sg7
I0
sg8
I25
sg9
I9
sg10
I1
sg11
I500
ssS'machine'
p14
(dp15
g5
I606
sg6
I32
sg7
I0
sg8
I11
sg9
I13
sg10
I0
sg11
I530
ssS'machine4'
p16
(dp17
g5
I470
sg6
I34
sg7
I0
sg8
I0
sg9
I11
sg10
I9
sg11
I470
ssS'machine3'
p18
(dp19
g5
I557
sg6
I36
sg7
I0
sg8
I8
sg9
I9
sg10
I0
sg11
I470
ssS'machine2'
p20
(dp21
g5
I548
sg6
I35
sg7
I0
sg8
I4
sg9
I10
sg10
I0
sg11
I470
sssS'Wahono.csv'
p22
(dp23
g3
(dp24
g5
I1660
sg6
I59
sg7
I0
sg8
I0
sg9
I3
sg10
I36
sg11
I1660
ssg12
(dp25
g5
I2309
sg6
I58
sg7
I1
sg8
I48
sg9
I3
sg10
I1
sg11
I1130
ssg14
(dp26
g5
I1747
sg6
I59
sg7
I1
sg8
I35
sg9
I2
sg10
I3
sg11
I1400
ssg16
(dp27
g5
I1260
sg6
I60
sg7
I0
sg8
I0
sg9
I2
sg10
I16
sg11
I1260
ssg18
(dp28
g5
I1471
sg6
I59
sg7
I0
sg8
I24
sg9
I3
sg10
I1
sg11
I1160
ssg20
(dp29
g5
I1461
sg6
I59
sg7
I0
sg8
I19
sg9
I3
sg10
I0
sg11
I1160
sssS'Hall.csv'
p30
(dp31
g3
(dp32
g5
I1220
sg6
I99
sg7
I4
sg8
I0
sg9
I3
sg10
I22
sg11
I1220
ssg12
(dp33
g5
I1103
sg6
I102
sg7
I0
sg8
I23
sg9
I4
sg10
I2
sg11
I540
ssg14
(dp34
g5
I682
sg6
I101
sg7
I1
sg8
I15
sg9
I4
sg10
I1
sg11
I490
ssg16
(dp35
g5
I550
sg6
I98
sg7
I4
sg8
I0
sg9
I4
sg10
I13
sg11
I550
ssg18
(dp36
g5
I704
sg6
I101
sg7
I1
sg8
I13
sg9
I4
sg10
I0
sg11
I490
ssg20
(dp37
g5
I668
sg6
I102
sg7
I0
sg8
I9
sg9
I4
sg10
I0
sg11
I470
sssS'Danijel.csv'
p38
(dp39
g3
(dp40
g5
I1590
sg6
I43
sg7
I3
sg8
I0
sg9
I2
sg10
I30
sg11
I1590
ssg12
(dp41
g5
I1587
sg6
I46
sg7
I0
sg8
I27
sg9
I2
sg10
I0
sg11
I780
ssg14
(dp42
g5
I1052
sg6
I45
sg7
I0
sg8
I17
sg9
I3
sg10
I1
sg11
I840
ssg16
(dp43
g5
I730
sg6
I43
sg7
I2
sg8
I0
sg9
I3
sg10
I14
sg11
I730
ssg18
(dp44
g5
I969
sg6
I45
sg7
I0
sg8
I19
sg9
I3
sg10
I0
sg11
I770
ssg20
(dp45
g5
I957
sg6
I45
sg7
I1
sg8
I19
sg9
I2
sg10
I0
sg11
I760
sss.(dp0
S'K_all3.csv'
p1
(dp2
S'none'
p3
(dp4
S'count'
p5
I430
sS'truepos'
p6
I37
sS'falseneg'
p7
I1
sS'correction'
p8
I0
sS'unknownyes'
p9
I7
sS'falsepos'
p10
I7
sS'unique'
p11
I430
ssS'three'
p12
(dp13
g5
I1063
sg6
I37
sg7
I0
sg8
I23
sg9
I8
sg10
I1
sg11
I520
ssS'machine'
p14
(dp15
g5
I641
sg6
I37
sg7
I2
sg8
I5
sg9
I6
sg10
I0
sg11
I530
ssS'machine4'
p16
(dp17
g5
I430
sg6
I38
sg7
I1
sg8
I0
sg9
I6
sg10
I12
sg11
I430
ssS'machine3'
p18
(dp19
g5
I615
sg6
I36
sg7
I2
sg8
I8
sg9
I7
sg10
I0
sg11
I510
ssS'machine2'
p20
(dp21
g5
I599
sg6
I36
sg7
I1
sg8
I10
sg9
I8
sg10
I0
sg11
I500
sssS'Wahono.csv'
p22
(dp23
g3
(dp24
g5
I1790
sg6
I56
sg7
I2
sg8
I0
sg9
I4
sg10
I38
sg11
I1790
ssg12
(dp25
g5
I2442
sg6
I58
sg7
I1
sg8
I41
sg9
I3
sg10
I3
sg11
I1200
ssg14
(dp26
g5
I1483
sg6
I59
sg7
I0
sg8
I28
sg9
I3
sg10
I1
sg11
I1190
ssg16
(dp27
g5
I1620
sg6
I60
sg7
I1
sg8
I0
sg9
I1
sg10
I29
sg11
I1620
ssg18
(dp28
g5
I1430
sg6
I59
sg7
I1
sg8
I38
sg9
I2
sg10
I1
sg11
I1100
ssg20
(dp29
g5
I1434
sg6
I57
sg7
I2
sg8
I26
sg9
I3
sg10
I4
sg11
I1110
sssS'Hall.csv'
p30
(dp31
g3
(dp32
g5
I700
sg6
I100
sg7
I2
sg8
I0
sg9
I4
sg10
I12
sg11
I700
ssg12
(dp33
g5
I898
sg6
I101
sg7
I0
sg8
I18
sg9
I5
sg10
I0
sg11
I440
ssg14
(dp34
g5
I563
sg6
I101
sg7
I1
sg8
I8
sg9
I4
sg10
I1
sg11
I410
ssg16
(dp35
g5
I820
sg6
I99
sg7
I3
sg8
I0
sg9
I4
sg10
I17
sg11
I820
ssg18
(dp36
g5
I685
sg6
I101
sg7
I0
sg8
I13
sg9
I5
sg10
I0
sg11
I470
ssg20
(dp37
g5
I662
sg6
I100
sg7
I1
sg8
I10
sg9
I5
sg10
I0
sg11
I460
sssS'Danijel.csv'
p38
(dp39
g3
(dp40
g5
I1560
sg6
I44
sg7
I3
sg8
I0
sg9
I1
sg10
I48
sg11
I1560
ssg12
(dp41
g5
I1696
sg6
I44
sg7
I1
sg8
I36
sg9
I3
sg10
I1
sg11
I830
ssg14
(dp42
g5
I907
sg6
I44
sg7
I1
sg8
I12
sg9
I3
sg10
I1
sg11
I720
ssg16
(dp43
g5
I880
sg6
I45
sg7
I0
sg8
I0
sg9
I3
sg10
I19
sg11
I880
ssg18
(dp44
g5
I806
sg6
I43
sg7
I1
sg8
I15
sg9
I4
sg10
I0
sg11
I630
ssg20
(dp45
g5
I988
sg6
I45
sg7
I0
sg8
I22
sg9
I3
sg10
I0
sg11
I760
sss.(dp0
S'K_all3.csv'
p1
(dp2
S'none'
p3
(dp4
S'count'
p5
I480
sS'truepos'
p6
I39
sS'falseneg'
p7
I0
sS'correction'
p8
I0
sS'unknownyes'
p9
I6
sS'falsepos'
p10
I10
sS'unique'
p11
I480
ssS'three'
p12
(dp13
g5
I941
sg6
I34
sg7
I0
sg8
I21
sg9
I11
sg10
I1
sg11
I460
ssS'machine'
p14
(dp15
g5
I615
sg6
I34
sg7
I1
sg8
I13
sg9
I10
sg10
I1
sg11
I510
ssS'machine4'
p16
(dp17
g5
I510
sg6
I36
sg7
I0
sg8
I0
sg9
I9
sg10
I8
sg11
I510
ssS'machine3'
p18
(dp19
g5
I637
sg6
I37
sg7
I0
sg8
I13
sg9
I8
sg10
I1
sg11
I520
ssS'machine2'
p20
(dp21
g5
I534
sg6
I34
sg7
I0
sg8
I8
sg9
I11
sg10
I2
sg11
I460
sssS'Wahono.csv'
p22
(dp23
g3
(dp24
g5
I1380
sg6
I60
sg7
I0
sg8
I0
sg9
I2
sg10
I35
sg11
I1380
ssg12
(dp25
g5
I2259
sg6
I59
sg7
I0
sg8
I39
sg9
I3
sg10
I0
sg11
I1110
ssg14
(dp26
g5
I1489
sg6
I59
sg7
I0
sg8
I21
sg9
I3
sg10
I1
sg11
I1190
ssg16
(dp27
g5
I1600
sg6
I62
sg7
I0
sg8
I0
sg9
I0
sg10
I33
sg11
I1600
ssg18
(dp28
g5
I1470
sg6
I59
sg7
I0
sg8
I17
sg9
I3
sg10
I0
sg11
I1170
ssg20
(dp29
g5
I1309
sg6
I59
sg7
I0
sg8
I22
sg9
I3
sg10
I0
sg11
I1030
sssS'Hall.csv'
p30
(dp31
g3
(dp32
g5
I570
sg6
I100
sg7
I2
sg8
I0
sg9
I4
sg10
I9
sg11
I570
ssg12
(dp33
g5
I881
sg6
I101
sg7
I0
sg8
I21
sg9
I5
sg10
I1
sg11
I430
ssg14
(dp34
g5
I631
sg6
I101
sg7
I1
sg8
I6
sg9
I4
sg10
I1
sg11
I460
ssg16
(dp35
g5
I1500
sg6
I100
sg7
I3
sg8
I0
sg9
I3
sg10
I32
sg11
I1500
ssg18
(dp36
g5
I696
sg6
I101
sg7
I1
sg8
I6
sg9
I4
sg10
I0
sg11
I490
ssg20
(dp37
g5
I672
sg6
I101
sg7
I0
sg8
I13
sg9
I5
sg10
I0
sg11
I470
sssS'Danijel.csv'
p38
(dp39
g3
(dp40
g5
I1390
sg6
I45
sg7
I1
sg8
I0
sg9
I2
sg10
I31
sg11
I1390
ssg12
(dp41
g5
I1609
sg6
I45
sg7
I0
sg8
I29
sg9
I3
sg10
I2
sg11
I790
ssg14
(dp42
g5
I940
sg6
I45
sg7
I0
sg8
I16
sg9
I3
sg10
I0
sg11
I750
ssg16
(dp43
g5
I850
sg6
I44
sg7
I0
sg8
I0
sg9
I4
sg10
I16
sg11
I850
ssg18
(dp44
g5
I982
sg6
I45
sg7
I0
sg8
I21
sg9
I3
sg10
I0
sg11
I770
ssg20
(dp45
g5
I1017
sg6
I45
sg7
I0
sg8
I14
sg9
I3
sg10
I0
sg11
I810
sss.(dp0
S'K_all3.csv'
p1
(dp2
S'none'
p3
(dp4
S'count'
p5
I460
sS'truepos'
p6
I31
sS'falseneg'
p7
I1
sS'correction'
p8
I0
sS'unknownyes'
p9
I13
sS'falsepos'
p10
I9
sS'unique'
p11
I460
ssS'three'
p12
(dp13
g5
I956
sg6
I37
sg7
I0
sg8
I15
sg9
I8
sg10
I1
sg11
I470
ssS'machine'
p14
(dp15
g5
I604
sg6
I38
sg7
I0
sg8
I13
sg9
I7
sg10
I0
sg11
I510
ssS'machine4'
p16
(dp17
g5
I480
sg6
I37
sg7
I1
sg8
I0
sg9
I7
sg10
I10
sg11
I480
ssS'machine3'
p18
(dp19
g5
I610
sg6
I38
sg7
I0
sg8
I9
sg9
I7
sg10
I0
sg11
I510
ssS'machine2'
p20
(dp21
g5
I586
sg6
I38
sg7
I0
sg8
I7
sg9
I7
sg10
I0
sg11
I490
sssS'Wahono.csv'
p22
(dp23
g3
(dp24
g5
I1510
sg6
I59
sg7
I1
sg8
I0
sg9
I2
sg10
I22
sg11
I1510
ssg12
(dp25
g5
I2308
sg6
I60
sg7
I0
sg8
I27
sg9
I2
sg10
I2
sg11
I1140
ssg14
(dp26
g5
I1529
sg6
I59
sg7
I0
sg8
I30
sg9
I3
sg10
I2
sg11
I1210
ssg16
(dp27
g5
I2140
sg6
I59
sg7
I1
sg8
I0
sg9
I2
sg10
I36
sg11
I2140
ssg18
(dp28
g5
I1613
sg6
I59
sg7
I1
sg8
I33
sg9
I2
sg10
I1
sg11
I1270
ssg20
(dp29
g5
I1495
sg6
I59
sg7
I0
sg8
I25
sg9
I3
sg10
I1
sg11
I1170
sssS'Hall.csv'
p30
(dp31
g3
(dp32
g5
I770
sg6
I100
sg7
I2
sg8
I0
sg9
I4
sg10
I19
sg11
I770
ssg12
(dp33
g5
I819
sg6
I98
sg7
I1
sg8
I18
sg9
I7
sg10
I1
sg11
I400
ssg14
(dp34
g5
I662
sg6
I100
sg7
I2
sg8
I18
sg9
I4
sg10
I1
sg11
I470
ssg16
(dp35
g5
I560
sg6
I102
sg7
I0
sg8
I0
sg9
I4
sg10
I9
sg11
I560
ssg18
(dp36
g5
I690
sg6
I100
sg7
I2
sg8
I10
sg9
I4
sg10
I0
sg11
I480
ssg20
(dp37
g5
I608
sg6
I101
sg7
I0
sg8
I9
sg9
I5
sg10
I1
sg11
I430
sssS'Danijel.csv'
p38
(dp39
g3
(dp40
g5
I1220
sg6
I46
sg7
I0
sg8
I0
sg9
I2
sg10
I32
sg11
I1220
ssg12
(dp41
g5
I1629
sg6
I46
sg7
I0
sg8
I29
sg9
I2
sg10
I0
sg11
I800
ssg14
(dp42
g5
I1029
sg6
I45
sg7
I1
sg8
I24
sg9
I2
sg10
I1
sg11
I810
ssg16
(dp43
g5
I770
sg6
I44
sg7
I1
sg8
I0
sg9
I3
sg10
I16
sg11
I770
ssg18
(dp44
g5
I927
sg6
I44
sg7
I1
sg8
I13
sg9
I3
sg10
I0
sg11
I730
ssg20
(dp45
g5
I844
sg6
I45
sg7
I0
sg8
I15
sg9
I3
sg10
I1
sg11
I660
sss.(dp0
S'K_all3.csv'
p1
(dp2
S'none'
p3
(dp4
S'count'
p5
I460
sS'truepos'
p6
I34
sS'falseneg'
p7
I0
sS'correction'
p8
I0
sS'unknownyes'
p9
I11
sS'falsepos'
p10
I5
sS'unique'
p11
I460
ssS'three'
p12
(dp13
g5
I1024
sg6
I37
sg7
I0
sg8
I24
sg9
I8
sg10
I0
sg11
I500
ssS'machine'
p14
(dp15
g5
I614
sg6
I38
sg7
I2
sg8
I11
sg9
I5
sg10
I0
sg11
I510
ssS'machine4'
p16
(dp17
g5
I360
sg6
I30
sg7
I0
sg8
I0
sg9
I15
sg10
I11
sg11
I360
ssS'machine3'
p18
(dp19
g5
I522
sg6
I36
sg7
I1
sg8
I11
sg9
I8
sg10
I0
sg11
I430
ssS'machine2'
p20
(dp21
g5
I585
sg6
I36
sg7
I0
sg8
I9
sg9
I9
sg10
I0
sg11
I490
sssS'Wahono.csv'
p22
(dp23
g3
(dp24
g5
I1740
sg6
I59
sg7
I1
sg8
I0
sg9
I2
sg10
I38
sg11
I1740
ssg12
(dp25
g5
I2449
sg6
I60
sg7
I0
sg8
I49
sg9
I2
sg10
I1
sg11
I1200
ssg14
(dp26
g5
I1482
sg6
I59
sg7
I0
sg8
I35
sg9
I3
sg10
I1
sg11
I1170
ssg16
(dp27
g5
I1340
sg6
I60
sg7
I0
sg8
I0
sg9
I2
sg10
I23
sg11
I1340
ssg18
(dp28
g5
I1448
sg6
I58
sg7
I1
sg8
I26
sg9
I3
sg10
I1
sg11
I1130
ssg20
(dp29
g5
I1467
sg6
I58
sg7
I1
sg8
I26
sg9
I3
sg10
I1
sg11
I1160
sssS'Hall.csv'
p30
(dp31
g3
(dp32
g5
I790
sg6
I100
sg7
I2
sg8
I0
sg9
I4
sg10
I14
sg11
I790
ssg12
(dp33
g5
I1059
sg6
I102
sg7
I0
sg8
I19
sg9
I4
sg10
I0
sg11
I520
ssg14
(dp34
g5
I552
sg6
I99
sg7
I2
sg8
I11
sg9
I5
sg10
I1
sg11
I400
ssg16
(dp35
g5
I600
sg6
I100
sg7
I2
sg8
I0
sg9
I4
sg10
I6
sg11
I600
ssg18
(dp36
g5
I742
sg6
I102
sg7
I0
sg8
I9
sg9
I4
sg10
I1
sg11
I520
ssg20
(dp37
g5
I717
sg6
I102
sg7
I0
sg8
I15
sg9
I4
sg10
I1
sg11
I510
sssS'Danijel.csv'
p38
(dp39
g3
(dp40
g5
I1040
sg6
I46
sg7
I0
sg8
I0
sg9
I2
sg10
I10
sg11
I1040
ssg12
(dp41
g5
I1673
sg6
I46
sg7
I0
sg8
I33
sg9
I2
sg10
I1
sg11
I820
ssg14
(dp42
g5
I975
sg6
I44
sg7
I1
sg8
I11
sg9
I3
sg10
I2
sg11
I780
ssg16
(dp43
g5
I810
sg6
I45
sg7
I0
sg8
I0
sg9
I3
sg10
I11
sg11
I810
ssg18
(dp44
g5
I995
sg6
I45
sg7
I0
sg8
I17
sg9
I3
sg10
I1
sg11
I780
ssg20
(dp45
g5
I1071
sg6
I46
sg7
I0
sg8
I18
sg9
I2
sg10
I3
sg11
I840
sss.(dp0
S'K_all3.csv'
p1
(dp2
S'none'
p3
(dp4
S'count'
p5
I480
sS'truepos'
p6
I34
sS'falseneg'
p7
I1
sS'correction'
p8
I0
sS'unknownyes'
p9
I10
sS'falsepos'
p10
I4
sS'unique'
p11
I480
ssS'three'
p12
(dp13
g5
I1023
sg6
I36
sg7
I0
sg8
I23
sg9
I9
sg10
I0
sg11
I500
ssS'machine'
p14
(dp15
g5
I572
sg6
I33
sg7
I2
sg8
I3
sg9
I10
sg10
I0
sg11
I490
ssS'machine4'
p16
(dp17
g5
I410
sg6
I35
sg7
I1
sg8
I0
sg9
I9
sg10
I13
sg11
I410
ssS'machine3'
p18
(dp19
g5
I604
sg6
I36
sg7
I0
sg8
I9
sg9
I9
sg10
I0
sg11
I500
ssS'machine2'
p20
(dp21
g5
I602
sg6
I38
sg7
I0
sg8
I5
sg9
I7
sg10
I0
sg11
I510
sssS'Wahono.csv'
p22
(dp23
g3
(dp24
g5
I1680
sg6
I57
sg7
I2
sg8
I0
sg9
I3
sg10
I39
sg11
I1680
ssg12
(dp25
g5
I2443
sg6
I59
sg7
I0
sg8
I43
sg9
I3
sg10
I0
sg11
I1200
ssg14
(dp26
g5
I1337
sg6
I57
sg7
I2
sg8
I31
sg9
I3
sg10
I1
sg11
I1060
ssg16
(dp27
g5
I2170
sg6
I60
sg7
I2
sg8
I0
sg9
I0
sg10
I48
sg11
I2170
ssg18
(dp28
g5
I1463
sg6
I58
sg7
I1
sg8
I25
sg9
I3
sg10
I0
sg11
I1150
ssg20
(dp29
g5
I1345
sg6
I59
sg7
I0
sg8
I19
sg9
I3
sg10
I1
sg11
I1060
sssS'Hall.csv'
p30
(dp31
g3
(dp32
g5
I650
sg6
I100
sg7
I2
sg8
I0
sg9
I4
sg10
I14
sg11
I650
ssg12
(dp33
g5
I981
sg6
I102
sg7
I0
sg8
I21
sg9
I4
sg10
I0
sg11
I480
ssg14
(dp34
g5
I722
sg6
I100
sg7
I2
sg8
I17
sg9
I4
sg10
I1
sg11
I510
ssg16
(dp35
g5
I820
sg6
I101
sg7
I1
sg8
I0
sg9
I4
sg10
I12
sg11
I820
ssg18
(dp36
g5
I728
sg6
I102
sg7
I0
sg8
I9
sg9
I4
sg10
I0
sg11
I510
ssg20
(dp37
g5
I690
sg6
I101
sg7
I1
sg8
I10
sg9
I4
sg10
I1
sg11
I490
sssS'Danijel.csv'
p38
(dp39
g3
(dp40
g5
I1390
sg6
I45
sg7
I0
sg8
I0
sg9
I3
sg10
I31
sg11
I1390
ssg12
(dp41
g5
I1585
sg6
I45
sg7
I0
sg8
I25
sg9
I3
sg10
I0
sg11
I780
ssg14
(dp42
g5
I1023
sg6
I45
sg7
I0
sg8
I19
sg9
I3
sg10
I0
sg11
I810
ssg16
(dp43
g5
I1020
sg6
I46
sg7
I0
sg8
I0
sg9
I2
sg10
I17
sg11
I1020
ssg18
(dp44
g5
I952
sg6
I45
sg7
I0
sg8
I14
sg9
I3
sg10
I1
sg11
I750
ssg20
(dp45
g5
I1032
sg6
I45
sg7
I0
sg8
I22
sg9
I3
sg10
I0
sg11
I810
sss.