(dp0
S'K_all3.csv'
p1
(dp2
S'machine'
p3
(dp4
S'count'
p5
I743
sS'truepos'
p6
I30
sS'falseneg'
p7
I14
sS'correction'
p8
I9
sS'unknownyes'
p9
I1
sS'falsepos'
p10
I2
sS'unique'
p11
I540
ssS'knee'
p12
(dp13
g5
I1224
sg6
I36
sg7
I9
sg8
I7
sg9
I0
sg10
I3
sg11
I940
ssS'none'
p14
(dp15
g5
I570
sg6
I28
sg7
I14
sg8
I0
sg9
I3
sg10
I4
sg11
I570
ssS'three'
p16
(dp17
g5
I1162
sg6
I33
sg7
I9
sg8
I20
sg9
I3
sg10
I0
sg11
I570
sssS'Wahono.csv'
p18
(dp19
g3
(dp20
g5
I1917
sg6
I54
sg7
I6
sg8
I22
sg9
I2
sg10
I3
sg11
I1370
ssg12
(dp21
g5
I495
sg6
I31
sg7
I7
sg8
I12
sg9
I24
sg10
I1
sg11
I400
ssg14
(dp22
g5
I1510
sg6
I41
sg7
I17
sg8
I0
sg9
I4
sg10
I3
sg11
I1510
ssg16
(dp23
g5
I2471
sg6
I42
sg7
I17
sg8
I26
sg9
I3
sg10
I0
sg11
I1220
sssS'Hall.csv'
p24
(dp25
g3
(dp26
g5
I1004
sg6
I91
sg7
I11
sg8
I25
sg9
I2
sg10
I1
sg11
I720
ssg12
(dp27
g5
I855
sg6
I92
sg7
I10
sg8
I24
sg9
I2
sg10
I2
sg11
I590
ssg14
(dp28
g5
I690
sg6
I85
sg7
I17
sg8
I0
sg9
I2
sg10
I4
sg11
I690
ssg16
(dp29
g5
I1447
sg6
I80
sg7
I22
sg8
I41
sg9
I2
sg10
I0
sg11
I700
sssS'Danijel.csv'
p30
(dp31
g3
(dp32
g5
I1065
sg6
I38
sg7
I7
sg8
I16
sg9
I3
sg10
I0
sg11
I760
ssg12
(dp33
g5
I887
sg6
I36
sg7
I9
sg8
I9
sg9
I3
sg10
I0
sg11
I690
ssg14
(dp34
g5
I800
sg6
I36
sg7
I10
sg8
I0
sg9
I2
sg10
I2
sg11
I800
ssg16
(dp35
g5
I1703
sg6
I39
sg7
I6
sg8
I21
sg9
I3
sg10
I0
sg11
I840
sss.(dp0
S'K_all3.csv'
p1
(dp2
S'machine'
p3
(dp4
S'count'
p5
I874
sS'truepos'
p6
I35
sS'falseneg'
p7
I7
sS'correction'
p8
I7
sS'unknownyes'
p9
I3
sS'falsepos'
p10
I4
sS'unique'
p11
I630
ssS'knee'
p12
(dp13
g5
I1151
sg6
I39
sg7
I4
sg8
I9
sg9
I2
sg10
I7
sg11
I750
ssS'none'
p14
(dp15
g5
I570
sg6
I31
sg7
I13
sg8
I0
sg9
I1
sg10
I7
sg11
I570
ssS'three'
p16
(dp17
g5
I1171
sg6
I30
sg7
I13
sg8
I28
sg9
I2
sg10
I0
sg11
I570
sssS'Wahono.csv'
p18
(dp19
g3
(dp20
g5
I1769
sg6
I55
sg7
I5
sg8
I24
sg9
I2
sg10
I2
sg11
I1260
ssg12
(dp21
g5
I652
sg6
I39
sg7
I3
sg8
I9
sg9
I20
sg10
I0
sg11
I410
ssg14
(dp22
g5
I1500
sg6
I43
sg7
I17
sg8
I0
sg9
I2
sg10
I3
sg11
I1500
ssg16
(dp23
g5
I3056
sg6
I51
sg7
I9
sg8
I33
sg9
I2
sg10
I0
sg11
I1510
sssS'Hall.csv'
p24
(dp25
g3
(dp26
g5
I742
sg6
I88
sg7
I14
sg8
I23
sg9
I2
sg10
I2
sg11
I540
ssg12
(dp27
g5
I617
sg6
I88
sg7
I13
sg8
I15
sg9
I3
sg10
I2
sg11
I420
ssg14
(dp28
g5
I1180
sg6
I66
sg7
I37
sg8
I0
sg9
I1
sg10
I8
sg11
I1180
ssg16
(dp29
g5
I1197
sg6
I81
sg7
I21
sg8
I49
sg9
I2
sg10
I0
sg11
I570
sssS'Danijel.csv'
p30
(dp31
g3
(dp32
g5
I1034
sg6
I39
sg7
I6
sg8
I11
sg9
I3
sg10
I3
sg11
I750
ssg12
(dp33
g5
I889
sg6
I33
sg7
I10
sg8
I10
sg9
I5
sg10
I0
sg11
I690
ssg14
(dp34
g5
I1130
sg6
I33
sg7
I14
sg8
I0
sg9
I1
sg10
I5
sg11
I1130
ssg16
(dp35
g5
I2558
sg6
I37
sg7
I10
sg8
I14
sg9
I1
sg10
I0
sg11
I1270
sss.(dp0
S'K_all3.csv'
p1
(dp2
S'machine'
p3
(dp4
S'count'
p5
I925
sS'truepos'
p6
I32
sS'falseneg'
p7
I11
sS'correction'
p8
I8
sS'unknownyes'
p9
I2
sS'falsepos'
p10
I2
sS'unique'
p11
I660
ssS'knee'
p12
(dp13
g5
I2008
sg6
I36
sg7
I9
sg8
I13
sg9
I0
sg10
I4
sg11
I1590
ssS'none'
p14
(dp15
g5
I580
sg6
I29
sg7
I13
sg8
I0
sg9
I3
sg10
I3
sg11
I580
ssS'three'
p16
(dp17
g5
I1224
sg6
I37
sg7
I6
sg8
I21
sg9
I2
sg10
I0
sg11
I600
sssS'Wahono.csv'
p18
(dp19
g3
(dp20
g5
I1669
sg6
I50
sg7
I9
sg8
I18
sg9
I3
sg10
I2
sg11
I1200
ssg12
(dp21
g5
I1103
sg6
I51
sg7
I7
sg8
I14
sg9
I4
sg10
I3
sg11
I860
ssg14
(dp22
g5
I1310
sg6
I39
sg7
I20
sg8
I0
sg9
I3
sg10
I0
sg11
I1310
ssg16
(dp23
g5
I3349
sg6
I51
sg7
I10
sg8
I29
sg9
I1
sg10
I0
sg11
I1660
sssS'Hall.csv'
p24
(dp25
g3
(dp26
g5
I823
sg6
I90
sg7
I12
sg8
I24
sg9
I2
sg10
I2
sg11
I600
ssg12
(dp27
g5
I664
sg6
I82
sg7
I19
sg8
I21
sg9
I3
sg10
I1
sg11
I470
ssg14
(dp28
g5
I660
sg6
I71
sg7
I31
sg8
I0
sg9
I2
sg10
I1
sg11
I660
ssg16
(dp29
g5
I1328
sg6
I77
sg7
I25
sg8
I41
sg9
I2
sg10
I0
sg11
I640
sssS'Danijel.csv'
p30
(dp31
g3
(dp32
g5
I1347
sg6
I37
sg7
I9
sg8
I14
sg9
I2
sg10
I1
sg11
I960
ssg12
(dp33
g5
I1461
sg6
I41
sg7
I5
sg8
I7
sg9
I2
sg10
I0
sg11
I990
ssg14
(dp34
g5
I1200
sg6
I31
sg7
I15
sg8
I0
sg9
I2
sg10
I1
sg11
I1200
ssg16
(dp35
g5
I2225
sg6
I35
sg7
I11
sg8
I25
sg9
I2
sg10
I0
sg11
I1100
sss.(dp0
S'K_all3.csv'
p1
(dp2
S'machine'
p3
(dp4
S'count'
p5
I804
sS'truepos'
p6
I36
sS'falseneg'
p7
I6
sS'correction'
p8
I7
sS'unknownyes'
p9
I3
sS'falsepos'
p10
I0
sS'unique'
p11
I580
ssS'knee'
p12
(dp13
g5
I1494
sg6
I38
sg7
I4
sg8
I15
sg9
I3
sg10
I7
sg11
I960
ssS'none'
p14
(dp15
g5
I660
sg6
I26
sg7
I15
sg8
I0
sg9
I4
sg10
I6
sg11
I660
ssS'three'
p16
(dp17
g5
I1047
sg6
I31
sg7
I11
sg8
I24
sg9
I3
sg10
I0
sg11
I510
sssS'Wahono.csv'
p18
(dp19
g3
(dp20
g5
I1496
sg6
I55
sg7
I4
sg8
I17
sg9
I3
sg10
I2
sg11
I1070
ssg12
(dp21
g5
I1556
sg6
I51
sg7
I7
sg8
I11
sg9
I4
sg10
I0
sg11
I1150
ssg14
(dp22
g5
I1830
sg6
I42
sg7
I18
sg8
I0
sg9
I2
sg10
I7
sg11
I1830
ssg16
(dp23
g5
I2965
sg6
I48
sg7
I12
sg8
I22
sg9
I2
sg10
I0
sg11
I1470
sssS'Hall.csv'
p24
(dp25
g3
(dp26
g5
I654
sg6
I89
sg7
I12
sg8
I24
sg9
I3
sg10
I0
sg11
I470
ssg12
(dp27
g5
I265
sg6
I57
sg7
I6
sg8
I12
sg9
I41
sg10
I0
sg11
I170
ssg14
(dp28
g5
I520
sg6
I81
sg7
I20
sg8
I0
sg9
I3
sg10
I2
sg11
I520
ssg16
(dp29
g5
I1324
sg6
I81
sg7
I21
sg8
I41
sg9
I2
sg10
I0
sg11
I640
sssS'Danijel.csv'
p30
(dp31
g3
(dp32
g5
I1235
sg6
I38
sg7
I9
sg8
I11
sg9
I1
sg10
I0
sg11
I890
ssg12
(dp33
g5
I614
sg6
I37
sg7
I5
sg8
I10
sg9
I6
sg10
I0
sg11
I460
ssg14
(dp34
g5
I1910
sg6
I31
sg7
I16
sg8
I0
sg9
I1
sg10
I4
sg11
I1910
ssg16
(dp35
g5
I1796
sg6
I38
sg7
I8
sg8
I16
sg9
I2
sg10
I0
sg11
I890
sss.(dp0
S'K_all3.csv'
p1
(dp2
S'machine'
p3
(dp4
S'count'
p5
I865
sS'truepos'
p6
I34
sS'falseneg'
p7
I8
sS'correction'
p8
I14
sS'unknownyes'
p9
I3
sS'falsepos'
p10
I4
sS'unique'
p11
I620
ssS'knee'
p12
(dp13
g5
I1580
sg6
I38
sg7
I7
sg8
I8
sg9
I0
sg10
I7
sg11
I1040
ssS'none'
p14
(dp15
g5
I560
sg6
I29
sg7
I12
sg8
I0
sg9
I4
sg10
I7
sg11
I560
ssS'three'
p16
(dp17
g5
I1405
sg6
I33
sg7
I10
sg8
I23
sg9
I2
sg10
I0
sg11
I690
sssS'Wahono.csv'
p18
(dp19
g3
(dp20
g5
I2076
sg6
I52
sg7
I8
sg8
I28
sg9
I2
sg10
I1
sg11
I1480
ssg12
(dp21
g5
I1168
sg6
I52
sg7
I5
sg8
I16
sg9
I5
sg10
I1
sg11
I850
ssg14
(dp22
g5
I1330
sg6
I44
sg7
I16
sg8
I0
sg9
I2
sg10
I3
sg11
I1330
ssg16
(dp23
g5
I2429
sg6
I49
sg7
I10
sg8
I28
sg9
I3
sg10
I0
sg11
I1200
sssS'Hall.csv'
p24
(dp25
g3
(dp26
g5
I715
sg6
I87
sg7
I14
sg8
I25
sg9
I3
sg10
I1
sg11
I510
ssg12
(dp27
g5
I605
sg6
I91
sg7
I11
sg8
I22
sg9
I2
sg10
I2
sg11
I420
ssg14
(dp28
g5
I1510
sg6
I66
sg7
I37
sg8
I0
sg9
I1
sg10
I4
sg11
I1510
ssg16
(dp29
g5
I1045
sg6
I84
sg7
I18
sg8
I36
sg9
I2
sg10
I0
sg11
I500
sssS'Danijel.csv'
p30
(dp31
g3
(dp32
g5
I1496
sg6
I39
sg7
I7
sg8
I13
sg9
I2
sg10
I1
sg11
I1070
ssg12
(dp33
g5
I856
sg6
I41
sg7
I4
sg8
I11
sg9
I3
sg10
I1
sg11
I670
ssg14
(dp34
g5
I1680
sg6
I32
sg7
I14
sg8
I0
sg9
I2
sg10
I2
sg11
I1680
ssg16
(dp35
g5
I2553
sg6
I34
sg7
I12
sg8
I30
sg9
I2
sg10
I0
sg11
I1260
sss.(dp0
S'K_all3.csv'
p1
(dp2
S'machine'
p3
(dp4
S'count'
p5
I532
sS'truepos'
p6
I34
sS'falseneg'
p7
I8
sS'correction'
p8
I5
sS'unknownyes'
p9
I3
sS'falsepos'
p10
I4
sS'unique'
p11
I390
ssS'knee'
p12
(dp13
g5
I1498
sg6
I37
sg7
I8
sg8
I9
sg9
I0
sg10
I13
sg11
I950
ssS'none'
p14
(dp15
g5
I620
sg6
I26
sg7
I14
sg8
I0
sg9
I5
sg10
I4
sg11
I620
ssS'three'
p16
(dp17
g5
I1061
sg6
I32
sg7
I10
sg8
I19
sg9
I3
sg10
I0
sg11
I520
sssS'Wahono.csv'
p18
(dp19
g3
(dp20
g5
I2516
sg6
I53
sg7
I7
sg8
I26
sg9
I2
sg10
I1
sg11
I1800
ssg12
(dp21
g5
I649
sg6
I37
sg7
I7
sg8
I11
sg9
I18
sg10
I1
sg11
I450
ssg14
(dp22
g5
I1600
sg6
I38
sg7
I22
sg8
I0
sg9
I2
sg10
I4
sg11
I1600
ssg16
(dp23
g5
I3095
sg6
I47
sg7
I13
sg8
I34
sg9
I2
sg10
I0
sg11
I1530
sssS'Hall.csv'
p24
(dp25
g3
(dp26
g5
I592
sg6
I91
sg7
I11
sg8
I19
sg9
I2
sg10
I1
sg11
I430
ssg12
(dp27
g5
I676
sg6
I87
sg7
I15
sg8
I18
sg9
I2
sg10
I1
sg11
I510
ssg14
(dp28
g5
I1280
sg6
I80
sg7
I23
sg8
I0
sg9
I1
sg10
I1
sg11
I1280
ssg16
(dp29
g5
I1348
sg6
I79
sg7
I23
sg8
I44
sg9
I2
sg10
I0
sg11
I650
sssS'Danijel.csv'
p30
(dp31
g3
(dp32
g5
I1556
sg6
I36
sg7
I10
sg8
I13
sg9
I2
sg10
I0
sg11
I1110
ssg12
(dp33
g5
I924
sg6
I41
sg7
I5
sg8
I8
sg9
I2
sg10
I1
sg11
I630
ssg14
(dp34
g5
I1570
sg6
I30
sg7
I17
sg8
I0
sg9
I1
sg10
I3
sg11
I1570
ssg16
(dp35
g5
I2346
sg6
I38
sg7
I8
sg8
I24
sg9
I2
sg10
I0
sg11
I1160
sss.(dp0
S'K_all3.csv'
p1
(dp2
S'machine'
p3
(dp4
S'count'
p5
I875
sS'truepos'
p6
I35
sS'falseneg'
p7
I7
sS'correction'
p8
I11
sS'unknownyes'
p9
I3
sS'falsepos'
p10
I3
sS'unique'
p11
I630
ssS'knee'
p12
(dp13
g5
I1641
sg6
I38
sg7
I7
sg8
I12
sg9
I0
sg10
I3
sg11
I1230
ssS'none'
p14
(dp15
g5
I550
sg6
I34
sg7
I9
sg8
I0
sg9
I2
sg10
I3
sg11
I550
ssS'three'
p16
(dp17
g5
I1415
sg6
I28
sg7
I15
sg8
I32
sg9
I2
sg10
I0
sg11
I690
sssS'Wahono.csv'
p18
(dp19
g3
(dp20
g5
I1636
sg6
I50
sg7
I10
sg8
I21
sg9
I2
sg10
I0
sg11
I1170
ssg12
(dp21
g5
I895
sg6
I40
sg7
I8
sg8
I10
sg9
I14
sg10
I3
sg11
I620
ssg14
(dp22
g5
I1960
sg6
I41
sg7
I20
sg8
I0
sg9
I1
sg10
I2
sg11
I1960
ssg16
(dp23
g5
I3439
sg6
I48
sg7
I12
sg8
I34
sg9
I2
sg10
I0
sg11
I1700
sssS'Hall.csv'
p24
(dp25
g3
(dp26
g5
I653
sg6
I90
sg7
I12
sg8
I24
sg9
I2
sg10
I2
sg11
I470
ssg12
(dp27
g5
I1011
sg6
I86
sg7
I16
sg8
I23
sg9
I2
sg10
I1
sg11
I800
ssg14
(dp28
g5
I960
sg6
I74
sg7
I29
sg8
I0
sg9
I1
sg10
I2
sg11
I960
ssg16
(dp29
g5
I1582
sg6
I85
sg7
I17
sg8
I39
sg9
I2
sg10
I0
sg11
I770
sssS'Danijel.csv'
p30
(dp31
g3
(dp32
g5
I1740
sg6
I35
sg7
I11
sg8
I19
sg9
I2
sg10
I2
sg11
I1250
ssg12
(dp33
g5
I517
sg6
I34
sg7
I7
sg8
I4
sg9
I7
sg10
I1
sg11
I370
ssg14
(dp34
g5
I1600
sg6
I29
sg7
I17
sg8
I0
sg9
I2
sg10
I4
sg11
I1600
ssg16
(dp35
g5
I1436
sg6
I40
sg7
I5
sg8
I15
sg9
I3
sg10
I0
sg11
I710
sss.(dp0
S'K_all3.csv'
p1
(dp2
S'machine'
p3
(dp4
S'count'
p5
I743
sS'truepos'
p6
I34
sS'falseneg'
p7
I9
sS'correction'
p8
I12
sS'unknownyes'
p9
I2
sS'falsepos'
p10
I2
sS'unique'
p11
I540
ssS'knee'
p12
(dp13
g5
I1362
sg6
I38
sg7
I5
sg8
I8
sg9
I2
sg10
I11
sg11
I780
ssS'none'
p14
(dp15
g5
I770
sg6
I23
sg7
I18
sg8
I0
sg9
I4
sg10
I7
sg11
I770
ssS'three'
p16
(dp17
g5
I1371
sg6
I36
sg7
I7
sg8
I26
sg9
I2
sg10
I0
sg11
I670
sssS'Wahono.csv'
p18
(dp19
g3
(dp20
g5
I3194
sg6
I53
sg7
I8
sg8
I22
sg9
I1
sg10
I0
sg11
I2280
ssg12
(dp21
g5
I762
sg6
I39
sg7
I11
sg8
I7
sg9
I12
sg10
I2
sg11
I580
ssg14
(dp22
g5
I1910
sg6
I40
sg7
I20
sg8
I0
sg9
I2
sg10
I3
sg11
I1910
ssg16
(dp23
g5
I2205
sg6
I42
sg7
I15
sg8
I21
sg9
I5
sg10
I0
sg11
I1090
sssS'Hall.csv'
p24
(dp25
g3
(dp26
g5
I671
sg6
I95
sg7
I6
sg8
I18
sg9
I3
sg10
I2
sg11
I490
ssg12
(dp27
g5
I614
sg6
I86
sg7
I12
sg8
I22
sg9
I6
sg10
I1
sg11
I410
ssg14
(dp28
g5
I740
sg6
I72
sg7
I30
sg8
I0
sg9
I2
sg10
I3
sg11
I740
ssg16
(dp29
g5
I2429
sg6
I86
sg7
I16
sg8
I45
sg9
I2
sg10
I0
sg11
I1190
sssS'Danijel.csv'
p30
(dp31
g3
(dp32
g5
I963
sg6
I37
sg7
I7
sg8
I11
sg9
I4
sg10
I1
sg11
I700
ssg12
(dp33
g5
I1085
sg6
I34
sg7
I11
sg8
I10
sg9
I3
sg10
I1
sg11
I800
ssg14
(dp34
g5
I1220
sg6
I36
sg7
I10
sg8
I0
sg9
I2
sg10
I1
sg11
I1220
ssg16
(dp35
g5
I1902
sg6
I39
sg7
I7
sg8
I19
sg9
I2
sg10
I0
sg11
I940
sss.(dp0
S'K_all3.csv'
p1
(dp2
S'machine'
p3
(dp4
S'count'
p5
I893
sS'truepos'
p6
I36
sS'falseneg'
p7
I7
sS'correction'
p8
I14
sS'unknownyes'
p9
I2
sS'falsepos'
p10
I2
sS'unique'
p11
I650
ssS'knee'
p12
(dp13
g5
I681
sg6
I32
sg7
I4
sg8
I5
sg9
I9
sg10
I5
sg11
I390
ssS'none'
p14
(dp15
g5
I760
sg6
I32
sg7
I13
sg8
I0
sg9
I0
sg10
I5
sg11
I760
ssS'three'
p16
(dp17
g5
I1411
sg6
I33
sg7
I10
sg8
I27
sg9
I2
sg10
I0
sg11
I690
sssS'Wahono.csv'
p18
(dp19
g3
(dp20
g5
I1796
sg6
I55
sg7
I5
sg8
I15
sg9
I2
sg10
I2
sg11
I1290
ssg12
(dp21
g5
I844
sg6
I39
sg7
I9
sg8
I8
sg9
I14
sg10
I0
sg11
I650
ssg14
(dp22
g5
I1570
sg6
I41
sg7
I18
sg8
I0
sg9
I3
sg10
I3
sg11
I1570
ssg16
(dp23
g5
I2479
sg6
I51
sg7
I8
sg8
I18
sg9
I3
sg10
I0
sg11
I1230
sssS'Hall.csv'
p24
(dp25
g3
(dp26
g5
I854
sg6
I83
sg7
I19
sg8
I22
sg9
I2
sg10
I1
sg11
I610
ssg12
(dp27
g5
I635
sg6
I84
sg7
I15
sg8
I28
sg9
I5
sg10
I0
sg11
I450
ssg14
(dp28
g5
I1170
sg6
I70
sg7
I33
sg8
I0
sg9
I1
sg10
I3
sg11
I1170
ssg16
(dp29
g5
I3897
sg6
I76
sg7
I27
sg8
I50
sg9
I1
sg10
I0
sg11
I1920
sssS'Danijel.csv'
p30
(dp31
g3
(dp32
g5
I1507
sg6
I36
sg7
I10
sg8
I17
sg9
I2
sg10
I1
sg11
I1080
ssg12
(dp33
g5
I1003
sg6
I39
sg7
I7
sg8
I11
sg9
I2
sg10
I1
sg11
I750
ssg14
(dp34
g5
I1430
sg6
I30
sg7
I16
sg8
I0
sg9
I2
sg10
I3
sg11
I1430
ssg16
(dp35
g5
I2260
sg6
I32
sg7
I14
sg8
I16
sg9
I2
sg10
I0
sg11
I1120
sss.(dp0
S'K_all3.csv'
p1
(dp2
S'machine'
p3
(dp4
S'count'
p5
I684
sS'truepos'
p6
I33
sS'falseneg'
p7
I6
sS'correction'
p8
I11
sS'unknownyes'
p9
I6
sS'falsepos'
p10
I6
sS'unique'
p11
I500
ssS'knee'
p12
(dp13
g5
I965
sg6
I35
sg7
I9
sg8
I9
sg9
I1
sg10
I3
sg11
I640
ssS'none'
p14
(dp15
g5
I740
sg6
I29
sg7
I14
sg8
I0
sg9
I2
sg10
I7
sg11
I740
ssS'three'
p16
(dp17
g5
I1223
sg6
I33
sg7
I10
sg8
I20
sg9
I2
sg10
I0
sg11
I600
sssS'Wahono.csv'
p18
(dp19
g3
(dp20
g5
I3036
sg6
I42
sg7
I19
sg8
I23
sg9
I1
sg10
I1
sg11
I2160
ssg12
(dp21
g5
I472
sg6
I36
sg7
I4
sg8
I8
sg9
I22
sg10
I1
sg11
I280
ssg14
(dp22
g5
I1640
sg6
I39
sg7
I21
sg8
I0
sg9
I2
sg10
I4
sg11
I1640
ssg16
(dp23
g5
I4145
sg6
I43
sg7
I19
sg8
I38
sg9
I0
sg10
I0
sg11
I2050
sssS'Hall.csv'
p24
(dp25
g3
(dp26
g5
I662
sg6
I89
sg7
I13
sg8
I21
sg9
I2
sg10
I1
sg11
I480
ssg12
(dp27
g5
I659
sg6
I90
sg7
I11
sg8
I22
sg9
I3
sg10
I2
sg11
I470
ssg14
(dp28
g5
I610
sg6
I76
sg7
I26
sg8
I0
sg9
I2
sg10
I2
sg11
I610
ssg16
(dp29
g5
I1953
sg6
I81
sg7
I21
sg8
I48
sg9
I2
sg10
I0
sg11
I950
sssS'Danijel.csv'
p30
(dp31
g3
(dp32
g5
I1385
sg6
I36
sg7
I10
sg8
I13
sg9
I2
sg10
I1
sg11
I1000
ssg12
(dp33
g5
I508
sg6
I36
sg7
I5
sg8
I4
sg9
I7
sg10
I1
sg11
I370
ssg14
(dp34
g5
I1410
sg6
I32
sg7
I14
sg8
I0
sg9
I2
sg10
I3
sg11
I1410
ssg16
(dp35
g5
I3266
sg6
I36
sg7
I10
sg8
I23
sg9
I2
sg10
I0
sg11
I1620
sss.(dp0
S'K_all3.csv'
p1
(dp2
S'machine'
p3
(dp4
S'count'
p5
I1106
sS'truepos'
p6
I39
sS'falseneg'
p7
I4
sS'correction'
p8
I11
sS'unknownyes'
p9
I2
sS'falsepos'
p10
I2
sS'unique'
p11
I800
ssS'knee'
p12
(dp13
g5
I2078
sg6
I39
sg7
I6
sg8
I9
sg9
I0
sg10
I12
sg11
I1540
ssS'none'
p14
(dp15
g5
I800
sg6
I28
sg7
I14
sg8
I0
sg9
I3
sg10
I7
sg11
I800
ssS'three'
p16
(dp17
g5
I1401
sg6
I33
sg7
I10
sg8
I18
sg9
I2
sg10
I0
sg11
I690
sssS'Wahono.csv'
p18
(dp19
g3
(dp20
g5
I1581
sg6
I50
sg7
I10
sg8
I14
sg9
I2
sg10
I0
sg11
I1130
ssg12
(dp21
g5
I1218
sg6
I49
sg7
I9
sg8
I12
sg9
I4
sg10
I1
sg11
I980
ssg14
(dp22
g5
I1690
sg6
I47
sg7
I13
sg8
I0
sg9
I2
sg10
I3
sg11
I1690
ssg16
(dp23
g5
I4081
sg6
I52
sg7
I9
sg8
I38
sg9
I1
sg10
I0
sg11
I2020
sssS'Hall.csv'
p24
(dp25
g3
(dp26
g5
I740
sg6
I92
sg7
I10
sg8
I17
sg9
I2
sg10
I2
sg11
I540
ssg12
(dp27
g5
I521
sg6
I83
sg7
I13
sg8
I21
sg9
I8
sg10
I1
sg11
I330
ssg14
(dp28
g5
I910
sg6
I78
sg7
I24
sg8
I0
sg9
I2
sg10
I2
sg11
I910
ssg16
(dp29
g5
I2945
sg6
I79
sg7
I24
sg8
I59
sg9
I1
sg10
I1
sg11
I1440
sssS'Danijel.csv'
p30
(dp31
g3
(dp32
g5
I1147
sg6
I39
sg7
I7
sg8
I15
sg9
I2
sg10
I1
sg11
I820
ssg12
(dp33
g5
I881
sg6
I40
sg7
I5
sg8
I8
sg9
I3
sg10
I1
sg11
I560
ssg14
(dp34
g5
I1320
sg6
I29
sg7
I18
sg8
I0
sg9
I1
sg10
I1
sg11
I1320
ssg16
(dp35
g5
I1984
sg6
I37
sg7
I9
sg8
I21
sg9
I2
sg10
I0
sg11
I980
sss.(dp0
S'K_all3.csv'
p1
(dp2
S'machine'
p3
(dp4
S'count'
p5
I746
sS'truepos'
p6
I31
sS'falseneg'
p7
I7
sS'correction'
p8
I9
sS'unknownyes'
p9
I7
sS'falsepos'
p10
I7
sS'unique'
p11
I540
ssS'knee'
p12
(dp13
g5
I1102
sg6
I39
sg7
I5
sg8
I10
sg9
I1
sg10
I7
sg11
I770
ssS'none'
p14
(dp15
g5
I670
sg6
I30
sg7
I12
sg8
I0
sg9
I3
sg10
I8
sg11
I670
ssS'three'
p16
(dp17
g5
I1385
sg6
I33
sg7
I10
sg8
I23
sg9
I2
sg10
I0
sg11
I680
sssS'Wahono.csv'
p18
(dp19
g3
(dp20
g5
I1736
sg6
I50
sg7
I9
sg8
I23
sg9
I3
sg10
I0
sg11
I1250
ssg12
(dp21
g5
I1183
sg6
I43
sg7
I13
sg8
I11
sg9
I6
sg10
I3
sg11
I900
ssg14
(dp22
g5
I1360
sg6
I38
sg7
I20
sg8
I0
sg9
I4
sg10
I7
sg11
I1360
ssg16
(dp23
g5
I3074
sg6
I47
sg7
I14
sg8
I33
sg9
I1
sg10
I0
sg11
I1520
sssS'Hall.csv'
p24
(dp25
g3
(dp26
g5
I896
sg6
I89
sg7
I13
sg8
I26
sg9
I2
sg10
I2
sg11
I650
ssg12
(dp27
g5
I537
sg6
I84
sg7
I14
sg8
I17
sg9
I6
sg10
I0
sg11
I380
ssg14
(dp28
g5
I1890
sg6
I72
sg7
I32
sg8
I0
sg9
I0
sg10
I4
sg11
I1890
ssg16
(dp29
g5
I2473
sg6
I90
sg7
I13
sg8
I51
sg9
I1
sg10
I0
sg11
I1210
sssS'Danijel.csv'
p30
(dp31
g3
(dp32
g5
I1377
sg6
I40
sg7
I6
sg8
I19
sg9
I2
sg10
I0
sg11
I990
ssg12
(dp33
g5
I1054
sg6
I42
sg7
I4
sg8
I15
sg9
I2
sg10
I3
sg11
I800
ssg14
(dp34
g5
I1600
sg6
I32
sg7
I14
sg8
I0
sg9
I2
sg10
I4
sg11
I1600
ssg16
(dp35
g5
I2183
sg6
I31
sg7
I14
sg8
I20
sg9
I3
sg10
I0
sg11
I1080
sss.(dp0
S'K_all3.csv'
p1
(dp2
S'machine'
p3
(dp4
S'count'
p5
I1066
sS'truepos'
p6
I34
sS'falseneg'
p7
I10
sS'correction'
p8
I12
sS'unknownyes'
p9
I1
sS'falsepos'
p10
I4
sS'unique'
p11
I760
ssS'knee'
p12
(dp13
g5
I1405
sg6
I35
sg7
I9
sg8
I13
sg9
I1
sg10
I8
sg11
I1180
ssS'none'
p14
(dp15
g5
I550
sg6
I34
sg7
I9
sg8
I0
sg9
I2
sg10
I0
sg11
I550
ssS'three'
p16
(dp17
g5
I1433
sg6
I33
sg7
I11
sg8
I31
sg9
I1
sg10
I0
sg11
I700
sssS'Wahono.csv'
p18
(dp19
g3
(dp20
g5
I2469
sg6
I48
sg7
I13
sg8
I24
sg9
I1
sg10
I1
sg11
I1760
ssg12
(dp21
g5
I1736
sg6
I48
sg7
I11
sg8
I17
sg9
I3
sg10
I1
sg11
I1340
ssg14
(dp22
g5
I1650
sg6
I37
sg7
I23
sg8
I0
sg9
I2
sg10
I8
sg11
I1650
ssg16
(dp23
g5
I2975
sg6
I44
sg7
I15
sg8
I29
sg9
I3
sg10
I0
sg11
I1470
sssS'Hall.csv'
p24
(dp25
g3
(dp26
g5
I662
sg6
I96
sg7
I6
sg8
I23
sg9
I2
sg10
I1
sg11
I480
ssg12
(dp27
g5
I539
sg6
I91
sg7
I9
sg8
I21
sg9
I4
sg10
I2
sg11
I370
ssg14
(dp28
g5
I1560
sg6
I82
sg7
I21
sg8
I0
sg9
I1
sg10
I8
sg11
I1560
ssg16
(dp29
g5
I3111
sg6
I69
sg7
I34
sg8
I42
sg9
I1
sg10
I1
sg11
I1530
sssS'Danijel.csv'
p30
(dp31
g3
(dp32
g5
I1035
sg6
I42
sg7
I4
sg8
I12
sg9
I2
sg10
I3
sg11
I750
ssg12
(dp33
g5
I706
sg6
I39
sg7
I4
sg8
I9
sg9
I5
sg10
I0
sg11
I480
ssg14
(dp34
g5
I1090
sg6
I35
sg7
I10
sg8
I0
sg9
I3
sg10
I4
sg11
I1090
ssg16
(dp35
g5
I1541
sg6
I39
sg7
I7
sg8
I19
sg9
I2
sg10
I0
sg11
I760
sss.(dp0
S'K_all3.csv'
p1
(dp2
S'machine'
p3
(dp4
S'count'
p5
I894
sS'truepos'
p6
I35
sS'falseneg'
p7
I6
sS'correction'
p8
I11
sS'unknownyes'
p9
I4
sS'falsepos'
p10
I2
sS'unique'
p11
I650
ssS'knee'
p12
(dp13
g5
I759
sg6
I31
sg7
I4
sg8
I6
sg9
I10
sg10
I2
sg11
I500
ssS'none'
p14
(dp15
g5
I510
sg6
I30
sg7
I11
sg8
I0
sg9
I4
sg10
I4
sg11
I510
ssS'three'
p16
(dp17
g5
I1390
sg6
I37
sg7
I6
sg8
I29
sg9
I2
sg10
I0
sg11
I680
sssS'Wahono.csv'
p18
(dp19
g3
(dp20
g5
I1877
sg6
I55
sg7
I6
sg8
I20
sg9
I1
sg10
I2
sg11
I1350
ssg12
(dp21
g5
I831
sg6
I46
sg7
I5
sg8
I10
sg9
I11
sg10
I2
sg11
I560
ssg14
(dp22
g5
I1680
sg6
I40
sg7
I19
sg8
I0
sg9
I3
sg10
I4
sg11
I1680
ssg16
(dp23
g5
I2713
sg6
I54
sg7
I6
sg8
I32
sg9
I2
sg10
I0
sg11
I1340
sssS'Hall.csv'
p24
(dp25
g3
(dp26
g5
I864
sg6
I96
sg7
I6
sg8
I25
sg9
I2
sg10
I1
sg11
I620
ssg12
(dp27
g5
I620
sg6
I94
sg7
I7
sg8
I23
sg9
I3
sg10
I0
sg11
I430
ssg14
(dp28
g5
I1720
sg6
I77
sg7
I26
sg8
I0
sg9
I1
sg10
I3
sg11
I1720
ssg16
(dp29
g5
I3244
sg6
I72
sg7
I31
sg8
I51
sg9
I1
sg10
I0
sg11
I1590
sssS'Danijel.csv'
p30
(dp31
g3
(dp32
g5
I944
sg6
I36
sg7
I8
sg8
I7
sg9
I4
sg10
I2
sg11
I680
ssg12
(dp33
g5
I757
sg6
I35
sg7
I6
sg8
I11
sg9
I7
sg10
I1
sg11
I540
ssg14
(dp34
g5
I1610
sg6
I33
sg7
I13
sg8
I0
sg9
I2
sg10
I5
sg11
I1610
ssg16
(dp35
g5
I2150
sg6
I37
sg7
I9
sg8
I28
sg9
I2
sg10
I0
sg11
I1060
sss.(dp0
S'K_all3.csv'
p1
(dp2
S'machine'
p3
(dp4
S'count'
p5
I734
sS'truepos'
p6
I34
sS'falseneg'
p7
I5
sS'correction'
p8
I8
sS'unknownyes'
p9
I6
sS'falsepos'
p10
I4
sS'unique'
p11
I530
ssS'knee'
p12
(dp13
g5
I1861
sg6
I39
sg7
I5
sg8
I10
sg9
I1
sg10
I8
sg11
I1220
ssS'none'
p14
(dp15
g5
I710
sg6
I29
sg7
I13
sg8
I0
sg9
I3
sg10
I6
sg11
I710
ssS'three'
p16
(dp17
g5
I1304
sg6
I35
sg7
I8
sg8
I23
sg9
I2
sg10
I0
sg11
I640
sssS'Wahono.csv'
p18
(dp19
g3
(dp20
g5
I2332
sg6
I51
sg7
I10
sg8
I23
sg9
I1
sg10
I1
sg11
I1660
ssg12
(dp21
g5
I1164
sg6
I49
sg7
I9
sg8
I18
sg9
I4
sg10
I1
sg11
I1000
ssg14
(dp22
g5
I2030
sg6
I50
sg7
I11
sg8
I0
sg9
I1
sg10
I5
sg11
I2030
ssg16
(dp23
g5
I4576
sg6
I47
sg7
I15
sg8
I33
sg9
I0
sg10
I0
sg11
I2270
sssS'Hall.csv'
p24
(dp25
g3
(dp26
g5
I715
sg6
I89
sg7
I13
sg8
I19
sg9
I2
sg10
I0
sg11
I510
ssg12
(dp27
g5
I509
sg6
I83
sg7
I16
sg8
I15
sg9
I5
sg10
I1
sg11
I370
ssg14
(dp28
g5
I1130
sg6
I72
sg7
I30
sg8
I0
sg9
I2
sg10
I4
sg11
I1130
ssg16
(dp29
g5
I1260
sg6
I85
sg7
I17
sg8
I32
sg9
I2
sg10
I0
sg11
I610
sssS'Danijel.csv'
p30
(dp31
g3
(dp32
g5
I1278
sg6
I36
sg7
I8
sg8
I11
sg9
I4
sg10
I2
sg11
I910
ssg12
(dp33
g5
I778
sg6
I37
sg7
I5
sg8
I14
sg9
I6
sg10
I1
sg11
I500
ssg14
(dp34
g5
I1400
sg6
I27
sg7
I20
sg8
I0
sg9
I1
sg10
I2
sg11
I1400
ssg16
(dp35
g5
I2005
sg6
I37
sg7
I9
sg8
I20
sg9
I2
sg10
I0
sg11
I990
sss.(dp0
S'K_all3.csv'
p1
(dp2
S'machine'
p3
(dp4
S'count'
p5
I757
sS'truepos'
p6
I34
sS'falseneg'
p7
I9
sS'correction'
p8
I9
sS'unknownyes'
p9
I2
sS'falsepos'
p10
I4
sS'unique'
p11
I550
ssS'knee'
p12
(dp13
g5
I1039
sg6
I39
sg7
I5
sg8
I7
sg9
I1
sg10
I9
sg11
I670
ssS'none'
p14
(dp15
g5
I610
sg6
I28
sg7
I15
sg8
I0
sg9
I2
sg10
I4
sg11
I610
ssS'three'
p16
(dp17
g5
I1044
sg6
I35
sg7
I6
sg8
I20
sg9
I4
sg10
I0
sg11
I510
sssS'Wahono.csv'
p18
(dp19
g3
(dp20
g5
I1719
sg6
I48
sg7
I11
sg8
I20
sg9
I3
sg10
I3
sg11
I1230
ssg12
(dp21
g5
I589
sg6
I25
sg7
I9
sg8
I4
sg9
I28
sg10
I1
sg11
I450
ssg14
(dp22
g5
I1450
sg6
I44
sg7
I15
sg8
I0
sg9
I3
sg10
I2
sg11
I1450
ssg16
(dp23
g5
I3421
sg6
I48
sg7
I13
sg8
I37
sg9
I1
sg10
I0
sg11
I1690
sssS'Hall.csv'
p24
(dp25
g3
(dp26
g5
I783
sg6
I92
sg7
I10
sg8
I28
sg9
I2
sg10
I1
sg11
I560
ssg12
(dp27
g5
I573
sg6
I84
sg7
I17
sg8
I19
sg9
I3
sg10
I0
sg11
I420
ssg14
(dp28
g5
I2340
sg6
I73
sg7
I30
sg8
I0
sg9
I1
sg10
I6
sg11
I2340
ssg16
(dp29
g5
I3205
sg6
I85
sg7
I18
sg8
I55
sg9
I1
sg10
I0
sg11
I1570
sssS'Danijel.csv'
p30
(dp31
g3
(dp32
g5
I2350
sg6
I35
sg7
I12
sg8
I21
sg9
I1
sg10
I1
sg11
I1680
ssg12
(dp33
g5
I685
sg6
I36
sg7
I6
sg8
I12
sg9
I6
sg10
I1
sg11
I430
ssg14
(dp34
g5
I1320
sg6
I33
sg7
I12
sg8
I0
sg9
I3
sg10
I3
sg11
I1320
ssg16
(dp35
g5
I2587
sg6
I39
sg7
I9
sg8
I24
sg9
I0
sg10
I0
sg11
I1280
sss.(dp0
S'K_all3.csv'
p1
(dp2
S'machine'
p3
(dp4
S'count'
p5
I784
sS'truepos'
p6
I33
sS'falseneg'
p7
I8
sS'correction'
p8
I8
sS'unknownyes'
p9
I4
sS'falsepos'
p10
I5
sS'unique'
p11
I560
ssS'knee'
p12
(dp13
g5
I1877
sg6
I41
sg7
I4
sg8
I17
sg9
I0
sg10
I5
sg11
I1490
ssS'none'
p14
(dp15
g5
I640
sg6
I30
sg7
I12
sg8
I0
sg9
I3
sg10
I3
sg11
I640
ssS'three'
p16
(dp17
g5
I1532
sg6
I34
sg7
I10
sg8
I30
sg9
I1
sg10
I1
sg11
I750
sssS'Wahono.csv'
p18
(dp19
g3
(dp20
g5
I1640
sg6
I48
sg7
I11
sg8
I16
sg9
I3
sg10
I1
sg11
I1170
ssg12
(dp21
g5
I1080
sg6
I45
sg7
I7
sg8
I10
sg9
I10
sg10
I0
sg11
I700
ssg14
(dp22
g5
I2320
sg6
I48
sg7
I12
sg8
I0
sg9
I2
sg10
I5
sg11
I2320
ssg16
(dp23
g5
I3633
sg6
I52
sg7
I8
sg8
I30
sg9
I2
sg10
I0
sg11
I1800
sssS'Hall.csv'
p24
(dp25
g3
(dp26
g5
I1349
sg6
I91
sg7
I12
sg8
I30
sg9
I1
sg10
I0
sg11
I960
ssg12
(dp27
g5
I671
sg6
I86
sg7
I15
sg8
I26
sg9
I3
sg10
I1
sg11
I460
ssg14
(dp28
g5
I2030
sg6
I70
sg7
I33
sg8
I0
sg9
I1
sg10
I9
sg11
I2030
ssg16
(dp29
g5
I2409
sg6
I69
sg7
I34
sg8
I41
sg9
I1
sg10
I0
sg11
I1180
sssS'Danijel.csv'
p30
(dp31
g3
(dp32
g5
I862
sg6
I39
sg7
I4
sg8
I6
sg9
I5
sg10
I0
sg11
I620
ssg12
(dp33
g5
I833
sg6
I38
sg7
I7
sg8
I10
sg9
I3
sg10
I1
sg11
I680
ssg14
(dp34
g5
I1660
sg6
I37
sg7
I10
sg8
I0
sg9
I1
sg10
I3
sg11
I1660
ssg16
(dp35
g5
I3074
sg6
I31
sg7
I16
sg8
I30
sg9
I1
sg10
I0
sg11
I1520
sss.