(dp0
S'K_all3.csv'
p1
(dp2
S'machine'
p3
(dp4
S'count'
p5
I650
sS'truepos'
p6
I32
sS'falseneg'
p7
I5
sS'correction'
p8
I7
sS'unknownyes'
p9
I8
sS'falsepos'
p10
I3
sS'unique'
p11
I530
ssS'knee'
p12
(dp13
g5
I819
sg6
I34
sg7
I5
sg8
I6
sg9
I6
sg10
I7
sg11
I520
ssS'none'
p14
(dp15
g5
I680
sg6
I30
sg7
I12
sg8
I0
sg9
I3
sg10
I6
sg11
I680
ssS'three'
p16
(dp17
g5
I1069
sg6
I34
sg7
I6
sg8
I26
sg9
I5
sg10
I0
sg11
I520
sssS'Wahono.csv'
p18
(dp19
g3
(dp20
g5
I1253
sg6
I48
sg7
I10
sg8
I12
sg9
I4
sg10
I0
sg11
I1060
ssg12
(dp21
g5
I156
sg6
I17
sg7
I4
sg8
I1
sg9
I41
sg10
I0
sg11
I110
ssg14
(dp22
g5
I1490
sg6
I40
sg7
I21
sg8
I0
sg9
I1
sg10
I2
sg11
I1490
ssg16
(dp23
g5
I2629
sg6
I46
sg7
I14
sg8
I27
sg9
I2
sg10
I0
sg11
I1300
sssS'Hall.csv'
p24
(dp25
g3
(dp26
g5
I786
sg6
I86
sg7
I17
sg8
I22
sg9
I1
sg10
I1
sg11
I600
ssg12
(dp27
g5
I602
sg6
I85
sg7
I14
sg8
I24
sg9
I5
sg10
I1
sg11
I380
ssg14
(dp28
g5
I760
sg6
I79
sg7
I23
sg8
I0
sg9
I2
sg10
I1
sg11
I760
ssg16
(dp29
g5
I1039
sg6
I84
sg7
I18
sg8
I31
sg9
I2
sg10
I0
sg11
I500
sssS'Danijel.csv'
p30
(dp31
g3
(dp32
g5
I895
sg6
I37
sg7
I8
sg8
I9
sg9
I3
sg10
I2
sg11
I740
ssg12
(dp33
g5
I550
sg6
I30
sg7
I9
sg8
I7
sg9
I9
sg10
I1
sg11
I380
ssg14
(dp34
g5
I820
sg6
I37
sg7
I9
sg8
I0
sg9
I2
sg10
I1
sg11
I820
ssg16
(dp35
g5
I2403
sg6
I36
sg7
I10
sg8
I21
sg9
I2
sg10
I0
sg11
I1190
sss.(dp0
S'K_all3.csv'
p1
(dp2
S'machine'
p3
(dp4
S'count'
p5
I641
sS'truepos'
p6
I28
sS'falseneg'
p7
I11
sS'correction'
p8
I5
sS'unknownyes'
p9
I6
sS'falsepos'
p10
I4
sS'unique'
p11
I560
ssS'knee'
p12
(dp13
g5
I907
sg6
I35
sg7
I6
sg8
I10
sg9
I4
sg10
I5
sg11
I660
ssS'none'
p14
(dp15
g5
I890
sg6
I23
sg7
I17
sg8
I0
sg9
I5
sg10
I7
sg11
I890
ssS'three'
p16
(dp17
g5
I1530
sg6
I32
sg7
I10
sg8
I24
sg9
I3
sg10
I0
sg11
I750
sssS'Wahono.csv'
p18
(dp19
g3
(dp20
g5
I1113
sg6
I42
sg7
I15
sg8
I6
sg9
I5
sg10
I1
sg11
I950
ssg12
(dp21
g5
I797
sg6
I47
sg7
I5
sg8
I16
sg9
I10
sg10
I2
sg11
I450
ssg14
(dp22
g5
I1350
sg6
I40
sg7
I19
sg8
I0
sg9
I3
sg10
I6
sg11
I1350
ssg16
(dp23
g5
I2929
sg6
I49
sg7
I12
sg8
I27
sg9
I1
sg10
I0
sg11
I1450
sssS'Hall.csv'
p24
(dp25
g3
(dp26
g5
I749
sg6
I90
sg7
I12
sg8
I24
sg9
I2
sg10
I1
sg11
I570
ssg12
(dp27
g5
I623
sg6
I93
sg7
I8
sg8
I17
sg9
I3
sg10
I1
sg11
I430
ssg14
(dp28
g5
I660
sg6
I75
sg7
I27
sg8
I0
sg9
I2
sg10
I2
sg11
I660
ssg16
(dp29
g5
I1274
sg6
I75
sg7
I27
sg8
I43
sg9
I2
sg10
I0
sg11
I610
sssS'Danijel.csv'
p30
(dp31
g3
(dp32
g5
I949
sg6
I41
sg7
I3
sg8
I10
sg9
I4
sg10
I2
sg11
I760
ssg12
(dp33
g5
I1240
sg6
I35
sg7
I10
sg8
I10
sg9
I3
sg10
I1
sg11
I1030
ssg14
(dp34
g5
I940
sg6
I37
sg7
I9
sg8
I0
sg9
I2
sg10
I1
sg11
I940
ssg16
(dp35
g5
I1884
sg6
I36
sg7
I10
sg8
I20
sg9
I2
sg10
I0
sg11
I930
sss.(dp0
S'K_all3.csv'
p1
(dp2
S'machine'
p3
(dp4
S'count'
p5
I674
sS'truepos'
p6
I31
sS'falseneg'
p7
I11
sS'correction'
p8
I2
sS'unknownyes'
p9
I3
sS'falsepos'
p10
I4
sS'unique'
p11
I540
ssS'knee'
p12
(dp13
g5
I954
sg6
I28
sg7
I14
sg8
I5
sg9
I3
sg10
I3
sg11
I750
ssS'none'
p14
(dp15
g5
I460
sg6
I32
sg7
I7
sg8
I0
sg9
I6
sg10
I6
sg11
I460
ssS'three'
p16
(dp17
g5
I1002
sg6
I38
sg7
I3
sg8
I22
sg9
I4
sg10
I0
sg11
I490
sssS'Wahono.csv'
p18
(dp19
g3
(dp20
g5
I1534
sg6
I51
sg7
I8
sg8
I11
sg9
I3
sg10
I0
sg11
I1340
ssg12
(dp21
g5
I291
sg6
I21
sg7
I3
sg8
I3
sg9
I38
sg10
I1
sg11
I180
ssg14
(dp22
g5
I1510
sg6
I46
sg7
I14
sg8
I0
sg9
I2
sg10
I6
sg11
I1510
ssg16
(dp23
g5
I3227
sg6
I48
sg7
I13
sg8
I22
sg9
I1
sg10
I0
sg11
I1600
sssS'Hall.csv'
p24
(dp25
g3
(dp26
g5
I676
sg6
I90
sg7
I11
sg8
I20
sg9
I3
sg10
I3
sg11
I490
ssg12
(dp27
g5
I598
sg6
I84
sg7
I17
sg8
I15
sg9
I3
sg10
I1
sg11
I440
ssg14
(dp28
g5
I1060
sg6
I74
sg7
I29
sg8
I0
sg9
I1
sg10
I2
sg11
I1060
ssg16
(dp29
g5
I1305
sg6
I76
sg7
I26
sg8
I38
sg9
I2
sg10
I0
sg11
I630
sssS'Danijel.csv'
p30
(dp31
g3
(dp32
g5
I961
sg6
I38
sg7
I8
sg8
I6
sg9
I2
sg10
I0
sg11
I810
ssg12
(dp33
g5
I65
sg6
I5
sg7
I4
sg8
I0
sg9
I39
sg10
I0
sg11
I50
ssg14
(dp34
g5
I770
sg6
I39
sg7
I6
sg8
I0
sg9
I3
sg10
I1
sg11
I770
ssg16
(dp35
g5
I1622
sg6
I38
sg7
I8
sg8
I19
sg9
I2
sg10
I0
sg11
I800
sss.(dp0
S'K_all3.csv'
p1
(dp2
S'machine'
p3
(dp4
S'count'
p5
I583
sS'truepos'
p6
I30
sS'falseneg'
p7
I10
sS'correction'
p8
I5
sS'unknownyes'
p9
I5
sS'falsepos'
p10
I7
sS'unique'
p11
I470
ssS'knee'
p12
(dp13
g5
I1160
sg6
I36
sg7
I7
sg8
I11
sg9
I2
sg10
I5
sg11
I880
ssS'none'
p14
(dp15
g5
I670
sg6
I27
sg7
I13
sg8
I0
sg9
I5
sg10
I6
sg11
I670
ssS'three'
p16
(dp17
g5
I1598
sg6
I31
sg7
I14
sg8
I33
sg9
I0
sg10
I0
sg11
I780
sssS'Wahono.csv'
p18
(dp19
g3
(dp20
g5
I1449
sg6
I43
sg7
I16
sg8
I8
sg9
I3
sg10
I0
sg11
I1260
ssg12
(dp21
g5
I70
sg6
I10
sg7
I2
sg8
I0
sg9
I50
sg10
I0
sg11
I50
ssg14
(dp22
g5
I1430
sg6
I44
sg7
I16
sg8
I0
sg9
I2
sg10
I4
sg11
I1430
ssg16
(dp23
g5
I2673
sg6
I44
sg7
I16
sg8
I28
sg9
I2
sg10
I0
sg11
I1320
sssS'Hall.csv'
p24
(dp25
g3
(dp26
g5
I596
sg6
I85
sg7
I16
sg8
I16
sg9
I3
sg10
I0
sg11
I440
ssg12
(dp27
g5
I548
sg6
I76
sg7
I22
sg8
I16
sg9
I6
sg10
I1
sg11
I380
ssg14
(dp28
g5
I680
sg6
I78
sg7
I24
sg8
I0
sg9
I2
sg10
I3
sg11
I680
ssg16
(dp29
g5
I1605
sg6
I78
sg7
I24
sg8
I39
sg9
I2
sg10
I0
sg11
I780
sssS'Danijel.csv'
p30
(dp31
g3
(dp32
g5
I864
sg6
I38
sg7
I6
sg8
I3
sg9
I4
sg10
I1
sg11
I720
ssg12
(dp33
g5
I545
sg6
I32
sg7
I7
sg8
I6
sg9
I9
sg10
I0
sg11
I360
ssg14
(dp34
g5
I1400
sg6
I34
sg7
I13
sg8
I0
sg9
I1
sg10
I4
sg11
I1400
ssg16
(dp35
g5
I1569
sg6
I39
sg7
I7
sg8
I28
sg9
I2
sg10
I0
sg11
I770
sss.(dp0
S'K_all3.csv'
p1
(dp2
S'machine'
p3
(dp4
S'count'
p5
I777
sS'truepos'
p6
I30
sS'falseneg'
p7
I9
sS'correction'
p8
I7
sS'unknownyes'
p9
I6
sS'falsepos'
p10
I2
sS'unique'
p11
I670
ssS'knee'
p12
(dp13
g5
I835
sg6
I34
sg7
I4
sg8
I8
sg9
I7
sg10
I2
sg11
I560
ssS'none'
p14
(dp15
g5
I410
sg6
I37
sg7
I4
sg8
I0
sg9
I4
sg10
I4
sg11
I410
ssS'three'
p16
(dp17
g5
I2203
sg6
I30
sg7
I14
sg8
I40
sg9
I1
sg10
I0
sg11
I1080
sssS'Wahono.csv'
p18
(dp19
g3
(dp20
g5
I1263
sg6
I46
sg7
I13
sg8
I12
sg9
I3
sg10
I1
sg11
I1070
ssg12
(dp21
g5
I503
sg6
I39
sg7
I5
sg8
I2
sg9
I18
sg10
I1
sg11
I310
ssg14
(dp22
g5
I1500
sg6
I41
sg7
I19
sg8
I0
sg9
I2
sg10
I5
sg11
I1500
ssg16
(dp23
g5
I3308
sg6
I44
sg7
I16
sg8
I24
sg9
I2
sg10
I0
sg11
I1640
sssS'Hall.csv'
p24
(dp25
g3
(dp26
g5
I609
sg6
I95
sg7
I7
sg8
I18
sg9
I2
sg10
I0
sg11
I450
ssg12
(dp27
g5
I23
sg6
I8
sg7
I1
sg8
I1
sg9
I95
sg10
I0
sg11
I20
ssg14
(dp28
g5
I740
sg6
I78
sg7
I24
sg8
I0
sg9
I2
sg10
I3
sg11
I740
ssg16
(dp29
g5
I1638
sg6
I73
sg7
I29
sg8
I34
sg9
I2
sg10
I0
sg11
I800
sssS'Danijel.csv'
p30
(dp31
g3
(dp32
g5
I920
sg6
I41
sg7
I5
sg8
I8
sg9
I2
sg10
I0
sg11
I750
ssg12
(dp33
g5
I842
sg6
I31
sg7
I10
sg8
I7
sg9
I7
sg10
I2
sg11
I620
ssg14
(dp34
g5
I1040
sg6
I36
sg7
I11
sg8
I0
sg9
I1
sg10
I2
sg11
I1040
ssg16
(dp35
g5
I2303
sg6
I35
sg7
I11
sg8
I22
sg9
I2
sg10
I0
sg11
I1140
sss.(dp0
S'K_all3.csv'
p1
(dp2
S'machine'
p3
(dp4
S'count'
p5
I577
sS'truepos'
p6
I32
sS'falseneg'
p7
I8
sS'correction'
p8
I3
sS'unknownyes'
p9
I5
sS'falsepos'
p10
I6
sS'unique'
p11
I460
ssS'knee'
p12
(dp13
g5
I381
sg6
I23
sg7
I5
sg8
I5
sg9
I17
sg10
I1
sg11
I230
ssS'none'
p14
(dp15
g5
I590
sg6
I30
sg7
I10
sg8
I0
sg9
I5
sg10
I5
sg11
I590
ssS'three'
p16
(dp17
g5
I1362
sg6
I32
sg7
I11
sg8
I18
sg9
I2
sg10
I0
sg11
I670
sssS'Wahono.csv'
p18
(dp19
g3
(dp20
g5
I1651
sg6
I41
sg7
I18
sg8
I5
sg9
I3
sg10
I2
sg11
I1460
ssg12
(dp21
g5
I100
sg6
I10
sg7
I8
sg8
I1
sg9
I44
sg10
I0
sg11
I90
ssg14
(dp22
g5
I1410
sg6
I42
sg7
I17
sg8
I0
sg9
I3
sg10
I6
sg11
I1410
ssg16
(dp23
g5
I3231
sg6
I48
sg7
I13
sg8
I30
sg9
I1
sg10
I0
sg11
I1600
sssS'Hall.csv'
p24
(dp25
g3
(dp26
g5
I710
sg6
I89
sg7
I13
sg8
I22
sg9
I2
sg10
I1
sg11
I520
ssg12
(dp27
g5
I773
sg6
I91
sg7
I11
sg8
I28
sg9
I2
sg10
I2
sg11
I580
ssg14
(dp28
g5
I630
sg6
I80
sg7
I22
sg8
I0
sg9
I2
sg10
I0
sg11
I630
ssg16
(dp29
g5
I1067
sg6
I83
sg7
I19
sg8
I42
sg9
I2
sg10
I0
sg11
I510
sssS'Danijel.csv'
p30
(dp31
g3
(dp32
g5
I1683
sg6
I34
sg7
I13
sg8
I14
sg9
I1
sg10
I0
sg11
I1500
ssg12
(dp33
g5
I458
sg6
I33
sg7
I5
sg8
I10
sg9
I10
sg10
I1
sg11
I290
ssg14
(dp34
g5
I1020
sg6
I36
sg7
I10
sg8
I0
sg9
I2
sg10
I2
sg11
I1020
ssg16
(dp35
g5
I1660
sg6
I39
sg7
I7
sg8
I19
sg9
I2
sg10
I0
sg11
I820
sss.(dp0
S'K_all3.csv'
p1
(dp2
S'machine'
p3
(dp4
S'count'
p5
I658
sS'truepos'
p6
I31
sS'falseneg'
p7
I10
sS'correction'
p8
I4
sS'unknownyes'
p9
I4
sS'falsepos'
p10
I2
sS'unique'
p11
I560
ssS'knee'
p12
(dp13
g5
I748
sg6
I37
sg7
I3
sg8
I6
sg9
I5
sg10
I6
sg11
I490
ssS'none'
p14
(dp15
g5
I530
sg6
I29
sg7
I10
sg8
I0
sg9
I6
sg10
I4
sg11
I530
ssS'three'
p16
(dp17
g5
I1096
sg6
I33
sg7
I9
sg8
I34
sg9
I3
sg10
I1
sg11
I530
sssS'Wahono.csv'
p18
(dp19
g3
(dp20
g5
I1391
sg6
I43
sg7
I16
sg8
I9
sg9
I3
sg10
I1
sg11
I1220
ssg12
(dp21
g5
I35
sg6
I6
sg7
I1
sg8
I1
sg9
I55
sg10
I0
sg11
I30
ssg14
(dp22
g5
I1590
sg6
I47
sg7
I15
sg8
I0
sg9
I0
sg10
I6
sg11
I1590
ssg16
(dp23
g5
I3340
sg6
I50
sg7
I11
sg8
I34
sg9
I1
sg10
I0
sg11
I1650
sssS'Hall.csv'
p24
(dp25
g3
(dp26
g5
I710
sg6
I86
sg7
I16
sg8
I16
sg9
I2
sg10
I0
sg11
I530
ssg12
(dp27
g5
I626
sg6
I81
sg7
I21
sg8
I13
sg9
I2
sg10
I0
sg11
I490
ssg14
(dp28
g5
I850
sg6
I69
sg7
I33
sg8
I0
sg9
I2
sg10
I0
sg11
I850
ssg16
(dp29
g5
I1494
sg6
I80
sg7
I22
sg8
I46
sg9
I2
sg10
I0
sg11
I720
sssS'Danijel.csv'
p30
(dp31
g3
(dp32
g5
I1005
sg6
I37
sg7
I9
sg8
I8
sg9
I2
sg10
I4
sg11
I830
ssg12
(dp33
g5
I726
sg6
I36
sg7
I6
sg8
I13
sg9
I6
sg10
I2
sg11
I550
ssg14
(dp34
g5
I1220
sg6
I31
sg7
I15
sg8
I0
sg9
I2
sg10
I4
sg11
I1220
ssg16
(dp35
g5
I2383
sg6
I37
sg7
I9
sg8
I20
sg9
I2
sg10
I0
sg11
I1180
sss.(dp0
S'K_all3.csv'
p1
(dp2
S'machine'
p3
(dp4
S'count'
p5
I608
sS'truepos'
p6
I34
sS'falseneg'
p7
I6
sS'correction'
p8
I5
sS'unknownyes'
p9
I5
sS'falsepos'
p10
I1
sS'unique'
p11
I510
ssS'knee'
p12
(dp13
g5
I966
sg6
I30
sg7
I10
sg8
I10
sg9
I5
sg10
I1
sg11
I760
ssS'none'
p14
(dp15
g5
I670
sg6
I25
sg7
I17
sg8
I0
sg9
I3
sg10
I5
sg11
I670
ssS'three'
p16
(dp17
g5
I984
sg6
I33
sg7
I5
sg8
I22
sg9
I7
sg10
I0
sg11
I480
sssS'Wahono.csv'
p18
(dp19
g3
(dp20
g5
I1346
sg6
I43
sg7
I16
sg8
I11
sg9
I3
sg10
I0
sg11
I1170
ssg12
(dp21
g5
I53
sg6
I8
sg7
I1
sg8
I1
sg9
I53
sg10
I0
sg11
I40
ssg14
(dp22
g5
I1700
sg6
I50
sg7
I11
sg8
I0
sg9
I1
sg10
I4
sg11
I1700
ssg16
(dp23
g5
I3196
sg6
I46
sg7
I13
sg8
I32
sg9
I3
sg10
I0
sg11
I1580
sssS'Hall.csv'
p24
(dp25
g3
(dp26
g5
I674
sg6
I94
sg7
I8
sg8
I25
sg9
I2
sg10
I3
sg11
I500
ssg12
(dp27
g5
I684
sg6
I89
sg7
I12
sg8
I25
sg9
I3
sg10
I1
sg11
I480
ssg14
(dp28
g5
I700
sg6
I75
sg7
I27
sg8
I0
sg9
I2
sg10
I2
sg11
I700
ssg16
(dp29
g5
I1718
sg6
I81
sg7
I21
sg8
I32
sg9
I2
sg10
I0
sg11
I840
sssS'Danijel.csv'
p30
(dp31
g3
(dp32
g5
I978
sg6
I38
sg7
I8
sg8
I8
sg9
I2
sg10
I0
sg11
I850
ssg12
(dp33
g5
I917
sg6
I38
sg7
I5
sg8
I5
sg9
I5
sg10
I2
sg11
I690
ssg14
(dp34
g5
I1390
sg6
I34
sg7
I13
sg8
I0
sg9
I1
sg10
I3
sg11
I1390
ssg16
(dp35
g5
I2670
sg6
I37
sg7
I11
sg8
I28
sg9
I0
sg10
I0
sg11
I1320
sss.(dp0
S'K_all3.csv'
p1
(dp2
S'machine'
p3
(dp4
S'count'
p5
I677
sS'truepos'
p6
I30
sS'falseneg'
p7
I10
sS'correction'
p8
I4
sS'unknownyes'
p9
I5
sS'falsepos'
p10
I3
sS'unique'
p11
I570
ssS'knee'
p12
(dp13
g5
I173
sg6
I20
sg7
I2
sg8
I4
sg9
I23
sg10
I1
sg11
I110
ssS'none'
p14
(dp15
g5
I470
sg6
I29
sg7
I11
sg8
I0
sg9
I5
sg10
I4
sg11
I470
ssS'three'
p16
(dp17
g5
I951
sg6
I35
sg7
I5
sg8
I28
sg9
I5
sg10
I0
sg11
I460
sssS'Wahono.csv'
p18
(dp19
g3
(dp20
g5
I1388
sg6
I55
sg7
I6
sg8
I16
sg9
I1
sg10
I2
sg11
I1170
ssg12
(dp21
g5
I837
sg6
I44
sg7
I10
sg8
I7
sg9
I8
sg10
I2
sg11
I640
ssg14
(dp22
g5
I1640
sg6
I43
sg7
I17
sg8
I0
sg9
I2
sg10
I3
sg11
I1640
ssg16
(dp23
g5
I2635
sg6
I48
sg7
I12
sg8
I31
sg9
I2
sg10
I0
sg11
I1300
sssS'Hall.csv'
p24
(dp25
g3
(dp26
g5
I612
sg6
I89
sg7
I12
sg8
I24
sg9
I3
sg10
I0
sg11
I440
ssg12
(dp27
g5
I706
sg6
I88
sg7
I14
sg8
I22
sg9
I2
sg10
I0
sg11
I490
ssg14
(dp28
g5
I720
sg6
I70
sg7
I32
sg8
I0
sg9
I2
sg10
I2
sg11
I720
ssg16
(dp29
g5
I1979
sg6
I75
sg7
I27
sg8
I48
sg9
I2
sg10
I0
sg11
I960
sssS'Danijel.csv'
p30
(dp31
g3
(dp32
g5
I1068
sg6
I35
sg7
I11
sg8
I6
sg9
I2
sg10
I3
sg11
I940
ssg12
(dp33
g5
I913
sg6
I35
sg7
I8
sg8
I3
sg9
I5
sg10
I1
sg11
I640
ssg14
(dp34
g5
I1790
sg6
I30
sg7
I17
sg8
I0
sg9
I1
sg10
I5
sg11
I1790
ssg16
(dp35
g5
I1420
sg6
I40
sg7
I5
sg8
I19
sg9
I3
sg10
I0
sg11
I700
sss.(dp0
S'K_all3.csv'
p1
(dp2
S'machine'
p3
(dp4
S'count'
p5
I794
sS'truepos'
p6
I33
sS'falseneg'
p7
I8
sS'correction'
p8
I9
sS'unknownyes'
p9
I4
sS'falsepos'
p10
I2
sS'unique'
p11
I690
ssS'knee'
p12
(dp13
g5
I532
sg6
I26
sg7
I8
sg8
I6
sg9
I11
sg10
I3
sg11
I370
ssS'none'
p14
(dp15
g5
I590
sg6
I29
sg7
I13
sg8
I0
sg9
I3
sg10
I3
sg11
I590
ssS'three'
p16
(dp17
g5
I1431
sg6
I30
sg7
I12
sg8
I28
sg9
I3
sg10
I0
sg11
I700
sssS'Wahono.csv'
p18
(dp19
g3
(dp20
g5
I1518
sg6
I47
sg7
I11
sg8
I12
sg9
I4
sg10
I1
sg11
I1310
ssg12
(dp21
g5
I772
sg6
I38
sg7
I13
sg8
I6
sg9
I11
sg10
I0
sg11
I530
ssg14
(dp22
g5
I1580
sg6
I47
sg7
I13
sg8
I0
sg9
I2
sg10
I7
sg11
I1580
ssg16
(dp23
g5
I3068
sg6
I45
sg7
I15
sg8
I25
sg9
I2
sg10
I0
sg11
I1520
sssS'Hall.csv'
p24
(dp25
g3
(dp26
g5
I719
sg6
I91
sg7
I11
sg8
I23
sg9
I2
sg10
I1
sg11
I540
ssg12
(dp27
g5
I612
sg6
I95
sg7
I5
sg8
I23
sg9
I4
sg10
I2
sg11
I390
ssg14
(dp28
g5
I830
sg6
I77
sg7
I25
sg8
I0
sg9
I2
sg10
I1
sg11
I830
ssg16
(dp29
g5
I1248
sg6
I82
sg7
I20
sg8
I41
sg9
I2
sg10
I0
sg11
I600
sssS'Danijel.csv'
p30
(dp31
g3
(dp32
g5
I954
sg6
I41
sg7
I5
sg8
I8
sg9
I2
sg10
I1
sg11
I800
ssg12
(dp33
g5
I1264
sg6
I39
sg7
I7
sg8
I9
sg9
I2
sg10
I1
sg11
I1000
ssg14
(dp34
g5
I1340
sg6
I32
sg7
I14
sg8
I0
sg9
I2
sg10
I1
sg11
I1340
ssg16
(dp35
g5
I2141
sg6
I38
sg7
I9
sg8
I20
sg9
I1
sg10
I0
sg11
I1060
sss.(dp0
S'K_all3.csv'
p1
(dp2
S'machine'
p3
(dp4
S'count'
p5
I631
sS'truepos'
p6
I32
sS'falseneg'
p7
I7
sS'correction'
p8
I5
sS'unknownyes'
p9
I6
sS'falsepos'
p10
I7
sS'unique'
p11
I500
ssS'knee'
p12
(dp13
g5
I895
sg6
I33
sg7
I9
sg8
I7
sg9
I3
sg10
I0
sg11
I770
ssS'none'
p14
(dp15
g5
I460
sg6
I25
sg7
I13
sg8
I0
sg9
I7
sg10
I6
sg11
I460
ssS'three'
p16
(dp17
g5
I983
sg6
I31
sg7
I9
sg8
I21
sg9
I5
sg10
I0
sg11
I480
sssS'Wahono.csv'
p18
(dp19
g3
(dp20
g5
I1482
sg6
I44
sg7
I15
sg8
I11
sg9
I3
sg10
I0
sg11
I1270
ssg12
(dp21
g5
I509
sg6
I41
sg7
I4
sg8
I8
sg9
I17
sg10
I1
sg11
I330
ssg14
(dp22
g5
I1620
sg6
I43
sg7
I17
sg8
I0
sg9
I2
sg10
I6
sg11
I1620
ssg16
(dp23
g5
I3107
sg6
I52
sg7
I9
sg8
I26
sg9
I1
sg10
I0
sg11
I1540
sssS'Hall.csv'
p24
(dp25
g3
(dp26
g5
I720
sg6
I87
sg7
I15
sg8
I24
sg9
I2
sg10
I0
sg11
I540
ssg12
(dp27
g5
I698
sg6
I79
sg7
I22
sg8
I18
sg9
I3
sg10
I0
sg11
I560
ssg14
(dp28
g5
I930
sg6
I72
sg7
I30
sg8
I0
sg9
I2
sg10
I3
sg11
I930
ssg16
(dp29
g5
I1444
sg6
I77
sg7
I25
sg8
I35
sg9
I2
sg10
I0
sg11
I700
sssS'Danijel.csv'
p30
(dp31
g3
(dp32
g5
I1021
sg6
I37
sg7
I9
sg8
I11
sg9
I2
sg10
I1
sg11
I860
ssg12
(dp33
g5
I705
sg6
I33
sg7
I11
sg8
I6
sg9
I4
sg10
I1
sg11
I560
ssg14
(dp34
g5
I1240
sg6
I29
sg7
I17
sg8
I0
sg9
I2
sg10
I2
sg11
I1240
ssg16
(dp35
g5
I2347
sg6
I38
sg7
I9
sg8
I23
sg9
I1
sg10
I0
sg11
I1160
sss.(dp0
S'K_all3.csv'
p1
(dp2
S'machine'
p3
(dp4
S'count'
p5
I792
sS'truepos'
p6
I26
sS'falseneg'
p7
I15
sS'correction'
p8
I3
sS'unknownyes'
p9
I4
sS'falsepos'
p10
I4
sS'unique'
p11
I760
ssS'knee'
p12
(dp13
g5
I1897
sg6
I39
sg7
I5
sg8
I14
sg9
I1
sg10
I8
sg11
I1440
ssS'none'
p14
(dp15
g5
I850
sg6
I27
sg7
I15
sg8
I0
sg9
I3
sg10
I3
sg11
I850
ssS'three'
p16
(dp17
g5
I1187
sg6
I33
sg7
I8
sg8
I24
sg9
I4
sg10
I0
sg11
I580
sssS'Wahono.csv'
p18
(dp19
g3
(dp20
g5
I1588
sg6
I47
sg7
I13
sg8
I18
sg9
I2
sg10
I3
sg11
I1370
ssg12
(dp21
g5
I249
sg6
I21
sg7
I3
sg8
I4
sg9
I38
sg10
I0
sg11
I190
ssg14
(dp22
g5
I1410
sg6
I39
sg7
I20
sg8
I0
sg9
I3
sg10
I5
sg11
I1410
ssg16
(dp23
g5
I3178
sg6
I45
sg7
I14
sg8
I31
sg9
I3
sg10
I0
sg11
I1570
sssS'Hall.csv'
p24
(dp25
g3
(dp26
g5
I565
sg6
I90
sg7
I12
sg8
I13
sg9
I2
sg10
I1
sg11
I410
ssg12
(dp27
g5
I600
sg6
I87
sg7
I13
sg8
I16
sg9
I4
sg10
I2
sg11
I420
ssg14
(dp28
g5
I1250
sg6
I74
sg7
I29
sg8
I0
sg9
I1
sg10
I4
sg11
I1250
ssg16
(dp29
g5
I1387
sg6
I79
sg7
I23
sg8
I39
sg9
I2
sg10
I0
sg11
I670
sssS'Danijel.csv'
p30
(dp31
g3
(dp32
g5
I840
sg6
I35
sg7
I11
sg8
I8
sg9
I2
sg10
I3
sg11
I700
ssg12
(dp33
g5
I37
sg6
I4
sg7
I0
sg8
I1
sg9
I44
sg10
I0
sg11
I30
ssg14
(dp34
g5
I1340
sg6
I33
sg7
I13
sg8
I0
sg9
I2
sg10
I5
sg11
I1340
ssg16
(dp35
g5
I2319
sg6
I32
sg7
I14
sg8
I14
sg9
I2
sg10
I0
sg11
I1150
sss.(dp0
S'K_all3.csv'
p1
(dp2
S'machine'
p3
(dp4
S'count'
p5
I642
sS'truepos'
p6
I31
sS'falseneg'
p7
I10
sS'correction'
p8
I1
sS'unknownyes'
p9
I4
sS'falsepos'
p10
I1
sS'unique'
p11
I550
ssS'knee'
p12
(dp13
g5
I719
sg6
I33
sg7
I4
sg8
I12
sg9
I8
sg10
I3
sg11
I580
ssS'none'
p14
(dp15
g5
I680
sg6
I29
sg7
I13
sg8
I0
sg9
I3
sg10
I7
sg11
I680
ssS'three'
p16
(dp17
g5
I1104
sg6
I33
sg7
I6
sg8
I22
sg9
I6
sg10
I0
sg11
I540
sssS'Wahono.csv'
p18
(dp19
g3
(dp20
g5
I1719
sg6
I48
sg7
I13
sg8
I11
sg9
I1
sg10
I2
sg11
I1510
ssg12
(dp21
g5
I217
sg6
I20
sg7
I2
sg8
I7
sg9
I40
sg10
I0
sg11
I140
ssg14
(dp22
g5
I1460
sg6
I40
sg7
I20
sg8
I0
sg9
I2
sg10
I2
sg11
I1460
ssg16
(dp23
g5
I3015
sg6
I48
sg7
I13
sg8
I32
sg9
I1
sg10
I0
sg11
I1490
sssS'Hall.csv'
p24
(dp25
g3
(dp26
g5
I663
sg6
I87
sg7
I14
sg8
I21
sg9
I3
sg10
I2
sg11
I480
ssg12
(dp27
g5
I661
sg6
I90
sg7
I12
sg8
I19
sg9
I2
sg10
I1
sg11
I410
ssg14
(dp28
g5
I1660
sg6
I61
sg7
I42
sg8
I0
sg9
I1
sg10
I7
sg11
I1660
ssg16
(dp29
g5
I1461
sg6
I82
sg7
I20
sg8
I59
sg9
I2
sg10
I0
sg11
I700
sssS'Danijel.csv'
p30
(dp31
g3
(dp32
g5
I922
sg6
I37
sg7
I8
sg8
I8
sg9
I3
sg10
I1
sg11
I770
ssg12
(dp33
g5
I624
sg6
I33
sg7
I8
sg8
I6
sg9
I7
sg10
I0
sg11
I490
ssg14
(dp34
g5
I1220
sg6
I30
sg7
I16
sg8
I0
sg9
I2
sg10
I2
sg11
I1220
ssg16
(dp35
g5
I1828
sg6
I38
sg7
I8
sg8
I25
sg9
I2
sg10
I0
sg11
I900
sss.(dp0
S'K_all3.csv'
p1
(dp2
S'machine'
p3
(dp4
S'count'
p5
I535
sS'truepos'
p6
I36
sS'falseneg'
p7
I5
sS'correction'
p8
I6
sS'unknownyes'
p9
I4
sS'falsepos'
p10
I2
sS'unique'
p11
I450
ssS'knee'
p12
(dp13
g5
I883
sg6
I36
sg7
I6
sg8
I4
sg9
I3
sg10
I3
sg11
I620
ssS'none'
p14
(dp15
g5
I680
sg6
I28
sg7
I13
sg8
I0
sg9
I4
sg10
I3
sg11
I680
ssS'three'
p16
(dp17
g5
I3125
sg6
I28
sg7
I17
sg8
I39
sg9
I0
sg10
I1
sg11
I1540
sssS'Wahono.csv'
p18
(dp19
g3
(dp20
g5
I1471
sg6
I45
sg7
I15
sg8
I12
sg9
I2
sg10
I1
sg11
I1270
ssg12
(dp21
g5
I1088
sg6
I48
sg7
I7
sg8
I13
sg9
I7
sg10
I3
sg11
I830
ssg14
(dp22
g5
I1730
sg6
I38
sg7
I21
sg8
I0
sg9
I3
sg10
I4
sg11
I1730
ssg16
(dp23
g5
I2836
sg6
I43
sg7
I16
sg8
I35
sg9
I3
sg10
I0
sg11
I1400
sssS'Hall.csv'
p24
(dp25
g3
(dp26
g5
I623
sg6
I88
sg7
I11
sg8
I18
sg9
I5
sg10
I1
sg11
I460
ssg12
(dp27
g5
I655
sg6
I87
sg7
I15
sg8
I13
sg9
I2
sg10
I0
sg11
I510
ssg14
(dp28
g5
I630
sg6
I78
sg7
I24
sg8
I0
sg9
I2
sg10
I1
sg11
I630
ssg16
(dp29
g5
I1666
sg6
I83
sg7
I19
sg8
I41
sg9
I2
sg10
I0
sg11
I810
sssS'Danijel.csv'
p30
(dp31
g3
(dp32
g5
I1007
sg6
I35
sg7
I10
sg8
I8
sg9
I3
sg10
I0
sg11
I870
ssg12
(dp33
g5
I619
sg6
I35
sg7
I9
sg8
I2
sg9
I4
sg10
I0
sg11
I470
ssg14
(dp34
g5
I1420
sg6
I33
sg7
I13
sg8
I0
sg9
I2
sg10
I2
sg11
I1420
ssg16
(dp35
g5
I2685
sg6
I34
sg7
I12
sg8
I22
sg9
I2
sg10
I0
sg11
I1330
sss.(dp0
S'K_all3.csv'
p1
(dp2
S'machine'
p3
(dp4
S'count'
p5
I592
sS'truepos'
p6
I32
sS'falseneg'
p7
I6
sS'correction'
p8
I6
sS'unknownyes'
p9
I7
sS'falsepos'
p10
I4
sS'unique'
p11
I490
ssS'knee'
p12
(dp13
g5
I1758
sg6
I36
sg7
I8
sg8
I10
sg9
I1
sg10
I9
sg11
I1140
ssS'none'
p14
(dp15
g5
I930
sg6
I24
sg7
I16
sg8
I0
sg9
I5
sg10
I6
sg11
I930
ssS'three'
p16
(dp17
g5
I2111
sg6
I28
sg7
I15
sg8
I26
sg9
I2
sg10
I2
sg11
I1040
sssS'Wahono.csv'
p18
(dp19
g3
(dp20
g5
I1577
sg6
I47
sg7
I12
sg8
I14
sg9
I3
sg10
I0
sg11
I1370
ssg12
(dp21
g5
I1182
sg6
I49
sg7
I9
sg8
I9
sg9
I4
sg10
I2
sg11
I1010
ssg14
(dp22
g5
I1470
sg6
I40
sg7
I19
sg8
I0
sg9
I3
sg10
I3
sg11
I1470
ssg16
(dp23
g5
I2791
sg6
I48
sg7
I11
sg8
I27
sg9
I3
sg10
I0
sg11
I1380
sssS'Hall.csv'
p24
(dp25
g3
(dp26
g5
I764
sg6
I91
sg7
I11
sg8
I20
sg9
I2
sg10
I1
sg11
I580
ssg12
(dp27
g5
I673
sg6
I87
sg7
I15
sg8
I15
sg9
I2
sg10
I0
sg11
I480
ssg14
(dp28
g5
I1150
sg6
I68
sg7
I35
sg8
I0
sg9
I1
sg10
I2
sg11
I1150
ssg16
(dp29
g5
I1284
sg6
I79
sg7
I23
sg8
I36
sg9
I2
sg10
I0
sg11
I620
sssS'Danijel.csv'
p30
(dp31
g3
(dp32
g5
I1135
sg6
I33
sg7
I13
sg8
I10
sg9
I2
sg10
I0
sg11
I970
ssg12
(dp33
g5
I48
sg6
I2
sg7
I3
sg8
I0
sg9
I43
sg10
I0
sg11
I40
ssg14
(dp34
g5
I1110
sg6
I32
sg7
I13
sg8
I0
sg9
I3
sg10
I3
sg11
I1110
ssg16
(dp35
g5
I3147
sg6
I36
sg7
I10
sg8
I25
sg9
I2
sg10
I0
sg11
I1560
sss.(dp0
S'K_all3.csv'
p1
(dp2
S'machine'
p3
(dp4
S'count'
p5
I657
sS'truepos'
p6
I33
sS'falseneg'
p7
I8
sS'correction'
p8
I2
sS'unknownyes'
p9
I4
sS'falsepos'
p10
I2
sS'unique'
p11
I560
ssS'knee'
p12
(dp13
g5
I1019
sg6
I35
sg7
I8
sg8
I9
sg9
I2
sg10
I4
sg11
I750
ssS'none'
p14
(dp15
g5
I1070
sg6
I22
sg7
I17
sg8
I0
sg9
I6
sg10
I8
sg11
I1070
ssS'three'
p16
(dp17
g5
I1022
sg6
I35
sg7
I6
sg8
I20
sg9
I4
sg10
I1
sg11
I500
sssS'Wahono.csv'
p18
(dp19
g3
(dp20
g5
I1330
sg6
I42
sg7
I16
sg8
I14
sg9
I4
sg10
I2
sg11
I1160
ssg12
(dp21
g5
I1272
sg6
I50
sg7
I9
sg8
I10
sg9
I3
sg10
I4
sg11
I900
ssg14
(dp22
g5
I1510
sg6
I47
sg7
I13
sg8
I0
sg9
I2
sg10
I4
sg11
I1510
ssg16
(dp23
g5
I2834
sg6
I47
sg7
I14
sg8
I26
sg9
I1
sg10
I0
sg11
I1400
sssS'Hall.csv'
p24
(dp25
g3
(dp26
g5
I829
sg6
I91
sg7
I11
sg8
I24
sg9
I2
sg10
I1
sg11
I650
ssg12
(dp27
g5
I787
sg6
I87
sg7
I15
sg8
I19
sg9
I2
sg10
I5
sg11
I550
ssg14
(dp28
g5
I1040
sg6
I71
sg7
I31
sg8
I0
sg9
I2
sg10
I7
sg11
I1040
ssg16
(dp29
g5
I1618
sg6
I75
sg7
I28
sg8
I32
sg9
I1
sg10
I0
sg11
I790
sssS'Danijel.csv'
p30
(dp31
g3
(dp32
g5
I1402
sg6
I35
sg7
I11
sg8
I11
sg9
I2
sg10
I0
sg11
I1240
ssg12
(dp33
g5
I635
sg6
I35
sg7
I4
sg8
I10
sg9
I9
sg10
I0
sg11
I410
ssg14
(dp34
g5
I1550
sg6
I33
sg7
I14
sg8
I0
sg9
I1
sg10
I4
sg11
I1550
ssg16
(dp35
g5
I2310
sg6
I35
sg7
I11
sg8
I25
sg9
I2
sg10
I0
sg11
I1140
sss.(dp0
S'K_all3.csv'
p1
(dp2
S'machine'
p3
(dp4
S'count'
p5
I654
sS'truepos'
p6
I30
sS'falseneg'
p7
I12
sS'correction'
p8
I6
sS'unknownyes'
p9
I3
sS'falsepos'
p10
I7
sS'unique'
p11
I550
ssS'knee'
p12
(dp13
g5
I611
sg6
I31
sg7
I5
sg8
I5
sg9
I9
sg10
I3
sg11
I450
ssS'none'
p14
(dp15
g5
I760
sg6
I25
sg7
I19
sg8
I0
sg9
I1
sg10
I6
sg11
I760
ssS'three'
p16
(dp17
g5
I1049
sg6
I34
sg7
I7
sg8
I27
sg9
I4
sg10
I0
sg11
I510
sssS'Wahono.csv'
p18
(dp19
g3
(dp20
g5
I1355
sg6
I46
sg7
I13
sg8
I13
sg9
I3
sg10
I1
sg11
I1160
ssg12
(dp21
g5
I572
sg6
I38
sg7
I5
sg8
I11
sg9
I19
sg10
I1
sg11
I340
ssg14
(dp22
g5
I1660
sg6
I46
sg7
I15
sg8
I0
sg9
I1
sg10
I2
sg11
I1660
ssg16
(dp23
g5
I3138
sg6
I52
sg7
I9
sg8
I37
sg9
I1
sg10
I0
sg11
I1550
sssS'Hall.csv'
p24
(dp25
g3
(dp26
g5
I605
sg6
I81
sg7
I20
sg8
I15
sg9
I3
sg10
I2
sg11
I460
ssg12
(dp27
g5
I562
sg6
I90
sg7
I10
sg8
I17
sg9
I4
sg10
I1
sg11
I380
ssg14
(dp28
g5
I1220
sg6
I66
sg7
I36
sg8
I0
sg9
I2
sg10
I3
sg11
I1220
ssg16
(dp29
g5
I1924
sg6
I78
sg7
I25
sg8
I37
sg9
I1
sg10
I0
sg11
I940
sssS'Danijel.csv'
p30
(dp31
g3
(dp32
g5
I1310
sg6
I32
sg7
I13
sg8
I6
sg9
I3
sg10
I1
sg11
I1180
ssg12
(dp33
g5
I37
sg6
I4
sg7
I1
sg8
I1
sg9
I43
sg10
I0
sg11
I30
ssg14
(dp34
g5
I1260
sg6
I33
sg7
I13
sg8
I0
sg9
I2
sg10
I1
sg11
I1260
ssg16
(dp35
g5
I2690
sg6
I34
sg7
I12
sg8
I27
sg9
I2
sg10
I0
sg11
I1330
sss.(dp0
S'K_all3.csv'
p1
(dp2
S'machine'
p3
(dp4
S'count'
p5
I618
sS'truepos'
p6
I35
sS'falseneg'
p7
I7
sS'correction'
p8
I7
sS'unknownyes'
p9
I3
sS'falsepos'
p10
I0
sS'unique'
p11
I510
ssS'knee'
p12
(dp13
g5
I812
sg6
I31
sg7
I6
sg8
I7
sg9
I8
sg10
I8
sg11
I480
ssS'none'
p14
(dp15
g5
I650
sg6
I30
sg7
I11
sg8
I0
sg9
I4
sg10
I8
sg11
I650
ssS'three'
p16
(dp17
g5
I941
sg6
I32
sg7
I6
sg8
I20
sg9
I7
sg10
I0
sg11
I460
sssS'Wahono.csv'
p18
(dp19
g3
(dp20
g5
I1343
sg6
I48
sg7
I11
sg8
I13
sg9
I3
sg10
I0
sg11
I1160
ssg12
(dp21
g5
I35
sg6
I6
sg7
I1
sg8
I0
sg9
I55
sg10
I0
sg11
I30
ssg14
(dp22
g5
I1770
sg6
I38
sg7
I22
sg8
I0
sg9
I2
sg10
I3
sg11
I1770
ssg16
(dp23
g5
I2867
sg6
I44
sg7
I15
sg8
I23
sg9
I3
sg10
I0
sg11
I1420
sssS'Hall.csv'
p24
(dp25
g3
(dp26
g5
I788
sg6
I90
sg7
I12
sg8
I21
sg9
I2
sg10
I0
sg11
I610
ssg12
(dp27
g5
I592
sg6
I80
sg7
I20
sg8
I9
sg9
I4
sg10
I1
sg11
I430
ssg14
(dp28
g5
I840
sg6
I75
sg7
I27
sg8
I0
sg9
I2
sg10
I5
sg11
I840
ssg16
(dp29
g5
I1786
sg6
I86
sg7
I17
sg8
I41
sg9
I1
sg10
I0
sg11
I870
sssS'Danijel.csv'
p30
(dp31
g3
(dp32
g5
I1199
sg6
I36
sg7
I10
sg8
I7
sg9
I2
sg10
I2
sg11
I1060
ssg12
(dp33
g5
I781
sg6
I38
sg7
I7
sg8
I5
sg9
I3
sg10
I1
sg11
I600
ssg14
(dp34
g5
I990
sg6
I33
sg7
I13
sg8
I0
sg9
I2
sg10
I5
sg11
I990
ssg16
(dp35
g5
I3212
sg6
I30
sg7
I17
sg8
I28
sg9
I1
sg10
I0
sg11
I1590
sss.(dp0
S'K_all3.csv'
p1
(dp2
S'machine'
p3
(dp4
S'count'
p5
I786
sS'truepos'
p6
I25
sS'falseneg'
p7
I14
sS'correction'
p8
I6
sS'unknownyes'
p9
I6
sS'falsepos'
p10
I6
sS'unique'
p11
I700
ssS'knee'
p12
(dp13
g5
I1389
sg6
I36
sg7
I8
sg8
I13
sg9
I1
sg10
I5
sg11
I1070
ssS'none'
p14
(dp15
g5
I700
sg6
I33
sg7
I9
sg8
I0
sg9
I3
sg10
I2
sg11
I700
ssS'three'
p16
(dp17
g5
I1841
sg6
I30
sg7
I13
sg8
I39
sg9
I2
sg10
I0
sg11
I900
sssS'Wahono.csv'
p18
(dp19
g3
(dp20
g5
I1552
sg6
I48
sg7
I10
sg8
I9
sg9
I4
sg10
I2
sg11
I1330
ssg12
(dp21
g5
I118
sg6
I16
sg7
I1
sg8
I4
sg9
I45
sg10
I0
sg11
I80
ssg14
(dp22
g5
I1330
sg6
I40
sg7
I19
sg8
I0
sg9
I3
sg10
I4
sg11
I1330
ssg16
(dp23
g5
I3471
sg6
I47
sg7
I13
sg8
I25
sg9
I2
sg10
I1
sg11
I1720
sssS'Hall.csv'
p24
(dp25
g3
(dp26
g5
I833
sg6
I93
sg7
I9
sg8
I27
sg9
I2
sg10
I0
sg11
I640
ssg12
(dp27
g5
I35
sg6
I7
sg7
I7
sg8
I0
sg9
I90
sg10
I0
sg11
I30
ssg14
(dp28
g5
I1360
sg6
I72
sg7
I31
sg8
I0
sg9
I1
sg10
I3
sg11
I1360
ssg16
(dp29
g5
I1590
sg6
I75
sg7
I27
sg8
I44
sg9
I2
sg10
I0
sg11
I770
sssS'Danijel.csv'
p30
(dp31
g3
(dp32
g5
I1182
sg6
I35
sg7
I11
sg8
I9
sg9
I2
sg10
I0
sg11
I1030
ssg12
(dp33
g5
I541
sg6
I33
sg7
I7
sg8
I5
sg9
I8
sg10
I0
sg11
I400
ssg14
(dp34
g5
I1450
sg6
I31
sg7
I16
sg8
I0
sg9
I1
sg10
I4
sg11
I1450
ssg16
(dp35
g5
I1884
sg6
I39
sg7
I7
sg8
I20
sg9
I2
sg10
I0
sg11
I930
sss.(dp0
S'K_all3.csv'
p1
(dp2
S'machine'
p3
(dp4
S'count'
p5
I684
sS'truepos'
p6
I31
sS'falseneg'
p7
I9
sS'correction'
p8
I4
sS'unknownyes'
p9
I5
sS'falsepos'
p10
I1
sS'unique'
p11
I600
ssS'knee'
p12
(dp13
g5
I917
sg6
I34
sg7
I6
sg8
I8
sg9
I5
sg10
I4
sg11
I670
ssS'none'
p14
(dp15
g5
I710
sg6
I23
sg7
I19
sg8
I0
sg9
I3
sg10
I11
sg11
I710
ssS'three'
p16
(dp17
g5
I1142
sg6
I32
sg7
I9
sg8
I20
sg9
I4
sg10
I0
sg11
I560
sssS'Wahono.csv'
p18
(dp19
g3
(dp20
g5
I1585
sg6
I52
sg7
I7
sg8
I9
sg9
I3
sg10
I1
sg11
I1380
ssg12
(dp21
g5
I703
sg6
I45
sg7
I5
sg8
I8
sg9
I12
sg10
I0
sg11
I500
ssg14
(dp22
g5
I1800
sg6
I32
sg7
I27
sg8
I0
sg9
I3
sg10
I6
sg11
I1800
ssg16
(dp23
g5
I3714
sg6
I43
sg7
I18
sg8
I26
sg9
I1
sg10
I0
sg11
I1840
sssS'Hall.csv'
p24
(dp25
g3
(dp26
g5
I679
sg6
I93
sg7
I9
sg8
I18
sg9
I2
sg10
I1
sg11
I510
ssg12
(dp27
g5
I782
sg6
I82
sg7
I19
sg8
I17
sg9
I3
sg10
I1
sg11
I570
ssg14
(dp28
g5
I590
sg6
I75
sg7
I27
sg8
I0
sg9
I2
sg10
I0
sg11
I590
ssg16
(dp29
g5
I1933
sg6
I79
sg7
I24
sg8
I44
sg9
I1
sg10
I0
sg11
I940
sssS'Danijel.csv'
p30
(dp31
g3
(dp32
g5
I890
sg6
I38
sg7
I8
sg8
I10
sg9
I2
sg10
I1
sg11
I730
ssg12
(dp33
g5
I260
sg6
I23
sg7
I4
sg8
I3
sg9
I21
sg10
I0
sg11
I160
ssg14
(dp34
g5
I980
sg6
I35
sg7
I11
sg8
I0
sg9
I2
sg10
I3
sg11
I980
ssg16
(dp35
g5
I2107
sg6
I33
sg7
I13
sg8
I20
sg9
I2
sg10
I0
sg11
I1040
sss.(dp0
S'K_all3.csv'
p1
(dp2
S'machine'
p3
(dp4
S'count'
p5
I507
sS'truepos'
p6
I32
sS'falseneg'
p7
I9
sS'correction'
p8
I8
sS'unknownyes'
p9
I4
sS'falsepos'
p10
I9
sS'unique'
p11
I390
ssS'knee'
p12
(dp13
g5
I66
sg6
I6
sg7
I2
sg8
I2
sg9
I37
sg10
I0
sg11
I50
ssS'none'
p14
(dp15
g5
I600
sg6
I30
sg7
I12
sg8
I0
sg9
I3
sg10
I5
sg11
I600
ssS'three'
p16
(dp17
g5
I1061
sg6
I33
sg7
I8
sg8
I20
sg9
I4
sg10
I0
sg11
I520
sssS'Wahono.csv'
p18
(dp19
g3
(dp20
g5
I1447
sg6
I45
sg7
I14
sg8
I9
sg9
I3
sg10
I3
sg11
I1260
ssg12
(dp21
g5
I719
sg6
I38
sg7
I6
sg8
I8
sg9
I18
sg10
I2
sg11
I410
ssg14
(dp22
g5
I1930
sg6
I42
sg7
I20
sg8
I0
sg9
I0
sg10
I7
sg11
I1930
ssg16
(dp23
g5
I3091
sg6
I41
sg7
I18
sg8
I26
sg9
I3
sg10
I0
sg11
I1530
sssS'Hall.csv'
p24
(dp25
g3
(dp26
g5
I638
sg6
I88
sg7
I12
sg8
I18
sg9
I4
sg10
I0
sg11
I480
ssg12
(dp27
g5
I675
sg6
I82
sg7
I20
sg8
I19
sg9
I2
sg10
I2
sg11
I520
ssg14
(dp28
g5
I850
sg6
I76
sg7
I27
sg8
I0
sg9
I1
sg10
I4
sg11
I850
ssg16
(dp29
g5
I1507
sg6
I82
sg7
I20
sg8
I44
sg9
I2
sg10
I0
sg11
I730
sssS'Danijel.csv'
p30
(dp31
g3
(dp32
g5
I853
sg6
I38
sg7
I7
sg8
I6
sg9
I3
sg10
I0
sg11
I710
ssg12
(dp33
g5
I796
sg6
I42
sg7
I2
sg8
I7
sg9
I4
sg10
I2
sg11
I600
ssg14
(dp34
g5
I1260
sg6
I32
sg7
I14
sg8
I0
sg9
I2
sg10
I6
sg11
I1260
ssg16
(dp35
g5
I1722
sg6
I37
sg7
I9
sg8
I19
sg9
I2
sg10
I0
sg11
I850
sss.(dp0
S'K_all3.csv'
p1
(dp2
S'machine'
p3
(dp4
S'count'
p5
I774
sS'truepos'
p6
I32
sS'falseneg'
p7
I9
sS'correction'
p8
I6
sS'unknownyes'
p9
I4
sS'falsepos'
p10
I6
sS'unique'
p11
I660
ssS'knee'
p12
(dp13
g5
I460
sg6
I25
sg7
I7
sg8
I4
sg9
I13
sg10
I3
sg11
I310
ssS'none'
p14
(dp15
g5
I620
sg6
I25
sg7
I13
sg8
I0
sg9
I7
sg10
I7
sg11
I620
ssS'three'
p16
(dp17
g5
I1171
sg6
I33
sg7
I8
sg8
I28
sg9
I4
sg10
I0
sg11
I570
sssS'Wahono.csv'
p18
(dp19
g3
(dp20
g5
I1609
sg6
I47
sg7
I13
sg8
I11
sg9
I2
sg10
I0
sg11
I1430
ssg12
(dp21
g5
I291
sg6
I24
sg7
I2
sg8
I5
sg9
I36
sg10
I0
sg11
I190
ssg14
(dp22
g5
I1650
sg6
I37
sg7
I24
sg8
I0
sg9
I1
sg10
I6
sg11
I1650
ssg16
(dp23
g5
I2849
sg6
I38
sg7
I21
sg8
I21
sg9
I3
sg10
I0
sg11
I1410
sssS'Hall.csv'
p24
(dp25
g3
(dp26
g5
I644
sg6
I91
sg7
I11
sg8
I16
sg9
I2
sg10
I0
sg11
I490
ssg12
(dp27
g5
I682
sg6
I84
sg7
I18
sg8
I20
sg9
I2
sg10
I0
sg11
I510
ssg14
(dp28
g5
I920
sg6
I73
sg7
I30
sg8
I0
sg9
I1
sg10
I3
sg11
I920
ssg16
(dp29
g5
I1261
sg6
I80
sg7
I22
sg8
I35
sg9
I2
sg10
I0
sg11
I610
sssS'Danijel.csv'
p30
(dp31
g3
(dp32
g5
I1286
sg6
I36
sg7
I10
sg8
I9
sg9
I2
sg10
I0
sg11
I1120
ssg12
(dp33
g5
I368
sg6
I30
sg7
I3
sg8
I9
sg9
I15
sg10
I1
sg11
I220
ssg14
(dp34
g5
I1060
sg6
I33
sg7
I13
sg8
I0
sg9
I2
sg10
I1
sg11
I1060
ssg16
(dp35
g5
I2929
sg6
I33
sg7
I13
sg8
I25
sg9
I2
sg10
I0
sg11
I1450
sss.(dp0
S'K_all3.csv'
p1
(dp2
S'machine'
p3
(dp4
S'count'
p5
I574
sS'truepos'
p6
I33
sS'falseneg'
p7
I7
sS'correction'
p8
I5
sS'unknownyes'
p9
I5
sS'falsepos'
p10
I5
sS'unique'
p11
I470
ssS'knee'
p12
(dp13
g5
I1019
sg6
I35
sg7
I8
sg8
I6
sg9
I2
sg10
I4
sg11
I750
ssS'none'
p14
(dp15
g5
I650
sg6
I27
sg7
I14
sg8
I0
sg9
I4
sg10
I6
sg11
I650
ssS'three'
p16
(dp17
g5
I1023
sg6
I33
sg7
I6
sg8
I19
sg9
I6
sg10
I0
sg11
I500
sssS'Wahono.csv'
p18
(dp19
g3
(dp20
g5
I1311
sg6
I43
sg7
I15
sg8
I7
sg9
I4
sg10
I0
sg11
I1130
ssg12
(dp21
g5
I1095
sg6
I51
sg7
I7
sg8
I8
sg9
I4
sg10
I0
sg11
I840
ssg14
(dp22
g5
I1450
sg6
I35
sg7
I24
sg8
I0
sg9
I3
sg10
I3
sg11
I1450
ssg16
(dp23
g5
I3112
sg6
I43
sg7
I16
sg8
I27
sg9
I3
sg10
I0
sg11
I1540
sssS'Hall.csv'
p24
(dp25
g3
(dp26
g5
I625
sg6
I91
sg7
I10
sg8
I27
sg9
I3
sg10
I0
sg11
I460
ssg12
(dp27
g5
I546
sg6
I84
sg7
I16
sg8
I17
sg9
I4
sg10
I2
sg11
I370
ssg14
(dp28
g5
I650
sg6
I74
sg7
I28
sg8
I0
sg9
I2
sg10
I2
sg11
I650
ssg16
(dp29
g5
I1832
sg6
I82
sg7
I21
sg8
I47
sg9
I1
sg10
I0
sg11
I890
sssS'Danijel.csv'
p30
(dp31
g3
(dp32
g5
I876
sg6
I40
sg7
I5
sg8
I9
sg9
I3
sg10
I2
sg11
I710
ssg12
(dp33
g5
I302
sg6
I26
sg7
I6
sg8
I6
sg9
I16
sg10
I0
sg11
I200
ssg14
(dp34
g5
I1070
sg6
I35
sg7
I11
sg8
I0
sg9
I2
sg10
I4
sg11
I1070
ssg16
(dp35
g5
I3331
sg6
I30
sg7
I16
sg8
I27
sg9
I2
sg10
I0
sg11
I1650
sss.(dp0
S'K_all3.csv'
p1
(dp2
S'machine'
p3
(dp4
S'count'
p5
I593
sS'truepos'
p6
I34
sS'falseneg'
p7
I7
sS'correction'
p8
I6
sS'unknownyes'
p9
I4
sS'falsepos'
p10
I1
sS'unique'
p11
I480
ssS'knee'
p12
(dp13
g5
I2393
sg6
I38
sg7
I7
sg8
I12
sg9
I0
sg10
I17
sg11
I1580
ssS'none'
p14
(dp15
g5
I760
sg6
I28
sg7
I14
sg8
I0
sg9
I3
sg10
I7
sg11
I760
ssS'three'
p16
(dp17
g5
I2037
sg6
I30
sg7
I14
sg8
I33
sg9
I1
sg10
I0
sg11
I1000
sssS'Wahono.csv'
p18
(dp19
g3
(dp20
g5
I1359
sg6
I45
sg7
I14
sg8
I8
sg9
I3
sg10
I3
sg11
I1160
ssg12
(dp21
g5
I1219
sg6
I40
sg7
I16
sg8
I7
sg9
I6
sg10
I1
sg11
I930
ssg14
(dp22
g5
I1630
sg6
I34
sg7
I24
sg8
I0
sg9
I4
sg10
I6
sg11
I1630
ssg16
(dp23
g5
I2953
sg6
I45
sg7
I16
sg8
I29
sg9
I1
sg10
I0
sg11
I1460
sssS'Hall.csv'
p24
(dp25
g3
(dp26
g5
I684
sg6
I86
sg7
I15
sg8
I21
sg9
I3
sg10
I4
sg11
I500
ssg12
(dp27
g5
I655
sg6
I78
sg7
I24
sg8
I8
sg9
I2
sg10
I0
sg11
I510
ssg14
(dp28
g5
I1010
sg6
I69
sg7
I33
sg8
I0
sg9
I2
sg10
I8
sg11
I1010
ssg16
(dp29
g5
I1282
sg6
I83
sg7
I19
sg8
I36
sg9
I2
sg10
I0
sg11
I620
sssS'Danijel.csv'
p30
(dp31
g3
(dp32
g5
I1073
sg6
I40
sg7
I5
sg8
I5
sg9
I3
sg10
I1
sg11
I910
ssg12
(dp33
g5
I560
sg6
I38
sg7
I2
sg8
I5
sg9
I8
sg10
I1
sg11
I360
ssg14
(dp34
g5
I1750
sg6
I27
sg7
I20
sg8
I0
sg9
I1
sg10
I3
sg11
I1750
ssg16
(dp35
g5
I2539
sg6
I32
sg7
I15
sg8
I18
sg9
I1
sg10
I0
sg11
I1260
sss.(dp0
S'K_all3.csv'
p1
(dp2
S'machine'
p3
(dp4
S'count'
p5
I694
sS'truepos'
p6
I28
sS'falseneg'
p7
I11
sS'correction'
p8
I6
sS'unknownyes'
p9
I6
sS'falsepos'
p10
I4
sS'unique'
p11
I620
ssS'knee'
p12
(dp13
g5
I1652
sg6
I40
sg7
I4
sg8
I9
sg9
I1
sg10
I15
sg11
I1040
ssS'none'
p14
(dp15
g5
I620
sg6
I25
sg7
I15
sg8
I0
sg9
I5
sg10
I6
sg11
I620
ssS'three'
p16
(dp17
g5
I1799
sg6
I30
sg7
I10
sg8
I35
sg9
I5
sg10
I0
sg11
I880
sssS'Wahono.csv'
p18
(dp19
g3
(dp20
g5
I1396
sg6
I47
sg7
I12
sg8
I9
sg9
I3
sg10
I2
sg11
I1190
ssg12
(dp21
g5
I52
sg6
I9
sg7
I2
sg8
I1
sg9
I51
sg10
I0
sg11
I40
ssg14
(dp22
g5
I1670
sg6
I45
sg7
I15
sg8
I0
sg9
I2
sg10
I8
sg11
I1670
ssg16
(dp23
g5
I2711
sg6
I44
sg7
I15
sg8
I25
sg9
I3
sg10
I0
sg11
I1340
sssS'Hall.csv'
p24
(dp25
g3
(dp26
g5
I712
sg6
I87
sg7
I15
sg8
I21
sg9
I2
sg10
I1
sg11
I530
ssg12
(dp27
g5
I669
sg6
I84
sg7
I18
sg8
I18
sg9
I2
sg10
I1
sg11
I520
ssg14
(dp28
g5
I1060
sg6
I68
sg7
I34
sg8
I0
sg9
I2
sg10
I5
sg11
I1060
ssg16
(dp29
g5
I1364
sg6
I82
sg7
I20
sg8
I37
sg9
I2
sg10
I0
sg11
I660
sssS'Danijel.csv'
p30
(dp31
g3
(dp32
g5
I1467
sg6
I31
sg7
I14
sg8
I11
sg9
I3
sg10
I0
sg11
I1360
ssg12
(dp33
g5
I564
sg6
I31
sg7
I4
sg8
I5
sg9
I13
sg10
I0
sg11
I330
ssg14
(dp34
g5
I1250
sg6
I32
sg7
I14
sg8
I0
sg9
I2
sg10
I0
sg11
I1250
ssg16
(dp35
g5
I1641
sg6
I39
sg7
I7
sg8
I20
sg9
I2
sg10
I0
sg11
I810
sss.(dp0
S'K_all3.csv'
p1
(dp2
S'machine'
p3
(dp4
S'count'
p5
I602
sS'truepos'
p6
I32
sS'falseneg'
p7
I6
sS'correction'
p8
I8
sS'unknownyes'
p9
I7
sS'falsepos'
p10
I2
sS'unique'
p11
I490
ssS'knee'
p12
(dp13
g5
I478
sg6
I31
sg7
I5
sg8
I6
sg9
I9
sg10
I2
sg11
I320
ssS'none'
p14
(dp15
g5
I580
sg6
I30
sg7
I10
sg8
I0
sg9
I5
sg10
I1
sg11
I580
ssS'three'
p16
(dp17
g5
I1068
sg6
I32
sg7
I10
sg8
I23
sg9
I3
sg10
I0
sg11
I520
sssS'Wahono.csv'
p18
(dp19
g3
(dp20
g5
I1381
sg6
I48
sg7
I11
sg8
I13
sg9
I3
sg10
I0
sg11
I1190
ssg12
(dp21
g5
I577
sg6
I44
sg7
I6
sg8
I11
sg9
I12
sg10
I6
sg11
I370
ssg14
(dp22
g5
I1440
sg6
I46
sg7
I14
sg8
I0
sg9
I2
sg10
I4
sg11
I1440
ssg16
(dp23
g5
I3414
sg6
I50
sg7
I11
sg8
I32
sg9
I1
sg10
I0
sg11
I1690
sssS'Hall.csv'
p24
(dp25
g3
(dp26
g5
I661
sg6
I87
sg7
I15
sg8
I14
sg9
I2
sg10
I1
sg11
I510
ssg12
(dp27
g5
I625
sg6
I86
sg7
I15
sg8
I21
sg9
I3
sg10
I1
sg11
I450
ssg14
(dp28
g5
I1360
sg6
I72
sg7
I31
sg8
I0
sg9
I1
sg10
I5
sg11
I1360
ssg16
(dp29
g5
I1310
sg6
I84
sg7
I18
sg8
I46
sg9
I2
sg10
I0
sg11
I630
sssS'Danijel.csv'
p30
(dp31
g3
(dp32
g5
I1384
sg6
I31
sg7
I15
sg8
I8
sg9
I2
sg10
I0
sg11
I1250
ssg12
(dp33
g5
I48
sg6
I4
sg7
I1
sg8
I2
sg9
I43
sg10
I0
sg11
I40
ssg14
(dp34
g5
I1370
sg6
I32
sg7
I15
sg8
I0
sg9
I1
sg10
I2
sg11
I1370
ssg16
(dp35
g5
I2726
sg6
I37
sg7
I9
sg8
I25
sg9
I2
sg10
I0
sg11
I1350
sss.(dp0
S'K_all3.csv'
p1
(dp2
S'machine'
p3
(dp4
S'count'
p5
I728
sS'truepos'
p6
I30
sS'falseneg'
p7
I12
sS'correction'
p8
I6
sS'unknownyes'
p9
I3
sS'falsepos'
p10
I6
sS'unique'
p11
I600
ssS'knee'
p12
(dp13
g5
I692
sg6
I31
sg7
I4
sg8
I11
sg9
I10
sg10
I2
sg11
I500
ssS'none'
p14
(dp15
g5
I890
sg6
I25
sg7
I16
sg8
I0
sg9
I4
sg10
I5
sg11
I890
ssS'three'
p16
(dp17
g5
I1101
sg6
I32
sg7
I7
sg8
I16
sg9
I6
sg10
I0
sg11
I540
sssS'Wahono.csv'
p18
(dp19
g3
(dp20
g5
I1646
sg6
I45
sg7
I15
sg8
I13
sg9
I2
sg10
I0
sg11
I1440
ssg12
(dp21
g5
I24
sg6
I6
sg7
I0
sg8
I0
sg9
I56
sg10
I0
sg11
I20
ssg14
(dp22
g5
I1570
sg6
I44
sg7
I16
sg8
I0
sg9
I2
sg10
I3
sg11
I1570
ssg16
(dp23
g5
I3096
sg6
I43
sg7
I16
sg8
I34
sg9
I3
sg10
I0
sg11
I1530
sssS'Hall.csv'
p24
(dp25
g3
(dp26
g5
I605
sg6
I86
sg7
I14
sg8
I21
sg9
I4
sg10
I0
sg11
I440
ssg12
(dp27
g5
I906
sg6
I92
sg7
I10
sg8
I20
sg9
I2
sg10
I1
sg11
I640
ssg14
(dp28
g5
I1150
sg6
I71
sg7
I31
sg8
I0
sg9
I2
sg10
I5
sg11
I1150
ssg16
(dp29
g5
I1240
sg6
I88
sg7
I14
sg8
I38
sg9
I2
sg10
I0
sg11
I600
sssS'Danijel.csv'
p30
(dp31
g3
(dp32
g5
I858
sg6
I36
sg7
I9
sg8
I10
sg9
I3
sg10
I2
sg11
I740
ssg12
(dp33
g5
I356
sg6
I30
sg7
I5
sg8
I5
sg9
I13
sg10
I0
sg11
I230
ssg14
(dp34
g5
I1810
sg6
I30
sg7
I17
sg8
I0
sg9
I1
sg10
I0
sg11
I1810
ssg16
(dp35
g5
I2327
sg6
I36
sg7
I11
sg8
I24
sg9
I1
sg10
I0
sg11
I1150
sss.(dp0
S'K_all3.csv'
p1
(dp2
S'machine'
p3
(dp4
S'count'
p5
I851
sS'truepos'
p6
I20
sS'falseneg'
p7
I19
sS'correction'
p8
I1
sS'unknownyes'
p9
I6
sS'falsepos'
p10
I10
sS'unique'
p11
I830
ssS'knee'
p12
(dp13
g5
I683
sg6
I33
sg7
I2
sg8
I7
sg9
I10
sg10
I6
sg11
I460
ssS'none'
p14
(dp15
g5
I720
sg6
I24
sg7
I16
sg8
I0
sg9
I5
sg10
I7
sg11
I720
ssS'three'
p16
(dp17
g5
I1612
sg6
I29
sg7
I12
sg8
I28
sg9
I4
sg10
I1
sg11
I790
sssS'Wahono.csv'
p18
(dp19
g3
(dp20
g5
I1533
sg6
I48
sg7
I11
sg8
I12
sg9
I3
sg10
I0
sg11
I1340
ssg12
(dp21
g5
I1300
sg6
I50
sg7
I9
sg8
I9
sg9
I3
sg10
I2
sg11
I1030
ssg14
(dp22
g5
I1680
sg6
I47
sg7
I14
sg8
I0
sg9
I1
sg10
I4
sg11
I1680
ssg16
(dp23
g5
I2754
sg6
I46
sg7
I14
sg8
I30
sg9
I2
sg10
I0
sg11
I1360
sssS'Hall.csv'
p24
(dp25
g3
(dp26
g5
I651
sg6
I92
sg7
I9
sg8
I25
sg9
I3
sg10
I0
sg11
I480
ssg12
(dp27
g5
I703
sg6
I82
sg7
I19
sg8
I20
sg9
I3
sg10
I1
sg11
I520
ssg14
(dp28
g5
I750
sg6
I71
sg7
I31
sg8
I0
sg9
I2
sg10
I1
sg11
I750
ssg16
(dp29
g5
I1273
sg6
I77
sg7
I25
sg8
I51
sg9
I2
sg10
I0
sg11
I610
sssS'Danijel.csv'
p30
(dp31
g3
(dp32
g5
I963
sg6
I36
sg7
I10
sg8
I8
sg9
I2
sg10
I2
sg11
I840
ssg12
(dp33
g5
I320
sg6
I26
sg7
I5
sg8
I3
sg9
I17
sg10
I0
sg11
I220
ssg14
(dp34
g5
I3000
sg6
I25
sg7
I23
sg8
I0
sg9
I0
sg10
I5
sg11
I3000
ssg16
(dp35
g5
I2940
sg6
I33
sg7
I13
sg8
I18
sg9
I2
sg10
I0
sg11
I1460
sss.