(dp0
S'K_all3.csv'
p1
(dp2
S'none'
p3
(dp4
S'count'
p5
I500
sS'truepos'
p6
I33
sS'falseneg'
p7
I1
sS'correction'
p8
I0
sS'unknownyes'
p9
I11
sS'falsepos'
p10
I33
sS'unique'
p11
I500
ssS'three'
p12
(dp13
g5
I1094
sg6
I37
sg7
I0
sg8
I53
sg9
I8
sg10
I1
sg11
I520
ssS'machine'
p14
(dp15
g5
I543
sg6
I33
sg7
I1
sg8
I22
sg9
I11
sg10
I4
sg11
I450
ssS'machine4'
p16
(dp17
g5
I470
sg6
I34
sg7
I0
sg8
I0
sg9
I11
sg10
I24
sg11
I470
ssS'machine3'
p18
(dp19
g5
I636
sg6
I38
sg7
I1
sg8
I23
sg9
I6
sg10
I0
sg11
I500
ssS'machine2'
p20
(dp21
g5
I566
sg6
I34
sg7
I1
sg8
I21
sg9
I10
sg10
I4
sg11
I440
sssS'Wahono.csv'
p22
(dp23
g3
(dp24
g5
I1270
sg6
I56
sg7
I1
sg8
I0
sg9
I5
sg10
I50
sg11
I1270
ssg12
(dp25
g5
I3080
sg6
I59
sg7
I0
sg8
I119
sg9
I3
sg10
I7
sg11
I1480
ssg14
(dp26
g5
I1404
sg6
I59
sg7
I0
sg8
I55
sg9
I3
sg10
I4
sg11
I1090
ssg16
(dp27
g5
I1340
sg6
I55
sg7
I2
sg8
I0
sg9
I5
sg10
I62
sg11
I1340
ssg18
(dp28
g5
I1865
sg6
I58
sg7
I1
sg8
I79
sg9
I3
sg10
I7
sg11
I1390
ssg20
(dp29
g5
I1411
sg6
I57
sg7
I2
sg8
I52
sg9
I3
sg10
I4
sg11
I1070
sssS'Hall.csv'
p30
(dp31
g3
(dp32
g5
I770
sg6
I95
sg7
I7
sg8
I0
sg9
I4
sg10
I32
sg11
I770
ssg12
(dp33
g5
I1306
sg6
I101
sg7
I1
sg8
I64
sg9
I4
sg10
I4
sg11
I620
ssg14
(dp34
g5
I523
sg6
I93
sg7
I6
sg8
I24
sg9
I7
sg10
I4
sg11
I370
ssg16
(dp35
g5
I1390
sg6
I98
sg7
I5
sg8
I0
sg9
I3
sg10
I69
sg11
I1390
ssg18
(dp36
g5
I893
sg6
I102
sg7
I0
sg8
I28
sg9
I4
sg10
I4
sg11
I620
ssg20
(dp37
g5
I891
sg6
I102
sg7
I0
sg8
I34
sg9
I4
sg10
I4
sg11
I610
sssS'Danijel.csv'
p38
(dp39
g3
(dp40
g5
I710
sg6
I41
sg7
I3
sg8
I0
sg9
I4
sg10
I36
sg11
I710
ssg12
(dp41
g5
I1721
sg6
I45
sg7
I0
sg8
I79
sg9
I3
sg10
I3
sg11
I820
ssg14
(dp42
g5
I988
sg6
I45
sg7
I0
sg8
I35
sg9
I3
sg10
I2
sg11
I770
ssg16
(dp43
g5
I810
sg6
I43
sg7
I1
sg8
I0
sg9
I4
sg10
I33
sg11
I810
ssg18
(dp44
g5
I1283
sg6
I46
sg7
I0
sg8
I57
sg9
I2
sg10
I4
sg11
I970
ssg20
(dp45
g5
I856
sg6
I43
sg7
I2
sg8
I27
sg9
I3
sg10
I5
sg11
I660
sss.(dp0
S'K_all3.csv'
p1
(dp2
S'none'
p3
(dp4
S'count'
p5
I440
sS'truepos'
p6
I37
sS'falseneg'
p7
I1
sS'correction'
p8
I0
sS'unknownyes'
p9
I7
sS'falsepos'
p10
I20
sS'unique'
p11
I440
ssS'three'
p12
(dp13
g5
I978
sg6
I31
sg7
I0
sg8
I37
sg9
I14
sg10
I3
sg11
I470
ssS'machine'
p14
(dp15
g5
I754
sg6
I37
sg7
I2
sg8
I35
sg9
I6
sg10
I3
sg11
I630
ssS'machine4'
p16
(dp17
g5
I540
sg6
I31
sg7
I1
sg8
I0
sg9
I13
sg10
I27
sg11
I540
ssS'machine3'
p18
(dp19
g5
I601
sg6
I37
sg7
I0
sg8
I20
sg9
I8
sg10
I1
sg11
I490
ssS'machine2'
p20
(dp21
g5
I513
sg6
I33
sg7
I0
sg8
I19
sg9
I12
sg10
I1
sg11
I410
sssS'Wahono.csv'
p22
(dp23
g3
(dp24
g5
I2160
sg6
I54
sg7
I3
sg8
I0
sg9
I5
sg10
I104
sg11
I2160
ssg12
(dp25
g5
I2342
sg6
I59
sg7
I0
sg8
I102
sg9
I3
sg10
I6
sg11
I1120
ssg14
(dp26
g5
I1449
sg6
I56
sg7
I3
sg8
I63
sg9
I3
sg10
I2
sg11
I1120
ssg16
(dp27
g5
I2010
sg6
I55
sg7
I3
sg8
I0
sg9
I4
sg10
I99
sg11
I2010
ssg18
(dp28
g5
I1626
sg6
I60
sg7
I0
sg8
I62
sg9
I2
sg10
I9
sg11
I1230
ssg20
(dp29
g5
I1600
sg6
I56
sg7
I3
sg8
I66
sg9
I3
sg10
I3
sg11
I1210
sssS'Hall.csv'
p30
(dp31
g3
(dp32
g5
I830
sg6
I100
sg7
I3
sg8
I0
sg9
I3
sg10
I36
sg11
I830
ssg12
(dp33
g5
I1035
sg6
I102
sg7
I0
sg8
I54
sg9
I4
sg10
I3
sg11
I490
ssg14
(dp34
g5
I602
sg6
I95
sg7
I6
sg8
I25
sg9
I5
sg10
I1
sg11
I430
ssg16
(dp35
g5
I850
sg6
I98
sg7
I5
sg8
I0
sg9
I3
sg10
I36
sg11
I850
ssg18
(dp36
g5
I750
sg6
I101
sg7
I1
sg8
I35
sg9
I4
sg10
I3
sg11
I490
ssg20
(dp37
g5
I718
sg6
I102
sg7
I0
sg8
I31
sg9
I4
sg10
I4
sg11
I500
sssS'Danijel.csv'
p38
(dp39
g3
(dp40
g5
I740
sg6
I41
sg7
I2
sg8
I0
sg9
I5
sg10
I26
sg11
I740
ssg12
(dp41
g5
I1907
sg6
I46
sg7
I0
sg8
I85
sg9
I2
sg10
I6
sg11
I910
ssg14
(dp42
g5
I936
sg6
I44
sg7
I2
sg8
I43
sg9
I2
sg10
I1
sg11
I720
ssg16
(dp43
g5
I760
sg6
I42
sg7
I2
sg8
I0
sg9
I4
sg10
I34
sg11
I760
ssg18
(dp44
g5
I1038
sg6
I42
sg7
I1
sg8
I53
sg9
I5
sg10
I6
sg11
I770
ssg20
(dp45
g5
I1082
sg6
I46
sg7
I0
sg8
I42
sg9
I2
sg10
I5
sg11
I810
sss.(dp0
S'K_all3.csv'
p1
(dp2
S'none'
p3
(dp4
S'count'
p5
I500
sS'truepos'
p6
I28
sS'falseneg'
p7
I3
sS'correction'
p8
I0
sS'unknownyes'
p9
I14
sS'falsepos'
p10
I16
sS'unique'
p11
I500
ssS'three'
p12
(dp13
g5
I903
sg6
I38
sg7
I0
sg8
I42
sg9
I7
sg10
I4
sg11
I430
ssS'machine'
p14
(dp15
g5
I511
sg6
I29
sg7
I2
sg8
I28
sg9
I14
sg10
I0
sg11
I410
ssS'machine4'
p16
(dp17
g5
I580
sg6
I29
sg7
I5
sg8
I0
sg9
I11
sg10
I25
sg11
I580
ssS'machine3'
p18
(dp19
g5
I514
sg6
I34
sg7
I3
sg8
I23
sg9
I8
sg10
I4
sg11
I390
ssS'machine2'
p20
(dp21
g5
I552
sg6
I36
sg7
I1
sg8
I25
sg9
I8
sg10
I3
sg11
I410
sssS'Wahono.csv'
p22
(dp23
g3
(dp24
g5
I1610
sg6
I56
sg7
I2
sg8
I0
sg9
I4
sg10
I86
sg11
I1610
ssg12
(dp25
g5
I3165
sg6
I61
sg7
I0
sg8
I123
sg9
I1
sg10
I7
sg11
I1520
ssg14
(dp26
g5
I1698
sg6
I58
sg7
I2
sg8
I90
sg9
I2
sg10
I6
sg11
I1310
ssg16
(dp27
g5
I1680
sg6
I58
sg7
I2
sg8
I0
sg9
I2
sg10
I71
sg11
I1680
ssg18
(dp28
g5
I2108
sg6
I60
sg7
I0
sg8
I95
sg9
I2
sg10
I9
sg11
I1570
ssg20
(dp29
g5
I1603
sg6
I59
sg7
I0
sg8
I68
sg9
I3
sg10
I4
sg11
I1210
sssS'Hall.csv'
p30
(dp31
g3
(dp32
g5
I1260
sg6
I97
sg7
I5
sg8
I0
sg9
I4
sg10
I62
sg11
I1260
ssg12
(dp33
g5
I1102
sg6
I100
sg7
I1
sg8
I40
sg9
I5
sg10
I3
sg11
I530
ssg14
(dp34
g5
I584
sg6
I96
sg7
I3
sg8
I12
sg9
I7
sg10
I2
sg11
I410
ssg16
(dp35
g5
I1110
sg6
I99
sg7
I3
sg8
I0
sg9
I4
sg10
I55
sg11
I1110
ssg18
(dp36
g5
I787
sg6
I102
sg7
I0
sg8
I28
sg9
I4
sg10
I0
sg11
I530
ssg20
(dp37
g5
I797
sg6
I101
sg7
I1
sg8
I25
sg9
I4
sg10
I7
sg11
I560
sssS'Danijel.csv'
p38
(dp39
g3
(dp40
g5
I970
sg6
I42
sg7
I3
sg8
I0
sg9
I3
sg10
I43
sg11
I970
ssg12
(dp41
g5
I3005
sg6
I46
sg7
I0
sg8
I138
sg9
I2
sg10
I18
sg11
I1430
ssg14
(dp42
g5
I1102
sg6
I44
sg7
I2
sg8
I39
sg9
I2
sg10
I4
sg11
I860
ssg16
(dp43
g5
I880
sg6
I41
sg7
I3
sg8
I0
sg9
I4
sg10
I56
sg11
I880
ssg18
(dp44
g5
I958
sg6
I44
sg7
I1
sg8
I39
sg9
I3
sg10
I2
sg11
I720
ssg20
(dp45
g5
I1022
sg6
I45
sg7
I0
sg8
I34
sg9
I3
sg10
I5
sg11
I770
sss.(dp0
S'K_all3.csv'
p1
(dp2
S'none'
p3
(dp4
S'count'
p5
I510
sS'truepos'
p6
I36
sS'falseneg'
p7
I2
sS'correction'
p8
I0
sS'unknownyes'
p9
I7
sS'falsepos'
p10
I21
sS'unique'
p11
I510
ssS'three'
p12
(dp13
g5
I940
sg6
I33
sg7
I0
sg8
I39
sg9
I12
sg10
I4
sg11
I450
ssS'machine'
p14
(dp15
g5
I575
sg6
I36
sg7
I1
sg8
I29
sg9
I8
sg10
I0
sg11
I460
ssS'machine4'
p16
(dp17
g5
I410
sg6
I30
sg7
I1
sg8
I0
sg9
I14
sg10
I29
sg11
I410
ssS'machine3'
p18
(dp19
g5
I583
sg6
I38
sg7
I1
sg8
I16
sg9
I6
sg10
I2
sg11
I450
ssS'machine2'
p20
(dp21
g5
I496
sg6
I34
sg7
I0
sg8
I8
sg9
I11
sg10
I0
sg11
I410
sssS'Wahono.csv'
p22
(dp23
g3
(dp24
g5
I1670
sg6
I57
sg7
I3
sg8
I0
sg9
I2
sg10
I86
sg11
I1670
ssg12
(dp25
g5
I2516
sg6
I60
sg7
I0
sg8
I114
sg9
I2
sg10
I13
sg11
I1200
ssg14
(dp26
g5
I1747
sg6
I58
sg7
I0
sg8
I78
sg9
I4
sg10
I5
sg11
I1360
ssg16
(dp27
g5
I1890
sg6
I61
sg7
I0
sg8
I0
sg9
I1
sg10
I88
sg11
I1890
ssg18
(dp28
g5
I1818
sg6
I58
sg7
I1
sg8
I74
sg9
I3
sg10
I8
sg11
I1370
ssg20
(dp29
g5
I1201
sg6
I57
sg7
I1
sg8
I41
sg9
I4
sg10
I4
sg11
I910
sssS'Hall.csv'
p30
(dp31
g3
(dp32
g5
I1230
sg6
I92
sg7
I10
sg8
I0
sg9
I4
sg10
I62
sg11
I1230
ssg12
(dp33
g5
I1181
sg6
I101
sg7
I1
sg8
I59
sg9
I4
sg10
I2
sg11
I560
ssg14
(dp34
g5
I742
sg6
I101
sg7
I1
sg8
I26
sg9
I4
sg10
I3
sg11
I530
ssg16
(dp35
g5
I740
sg6
I97
sg7
I4
sg8
I0
sg9
I5
sg10
I37
sg11
I740
ssg18
(dp36
g5
I936
sg6
I100
sg7
I2
sg8
I43
sg9
I4
sg10
I4
sg11
I640
ssg20
(dp37
g5
I718
sg6
I100
sg7
I1
sg8
I28
sg9
I5
sg10
I3
sg11
I510
sssS'Danijel.csv'
p38
(dp39
g3
(dp40
g5
I1000
sg6
I46
sg7
I0
sg8
I0
sg9
I2
sg10
I42
sg11
I1000
ssg12
(dp41
g5
I1706
sg6
I46
sg7
I0
sg8
I65
sg9
I2
sg10
I5
sg11
I820
ssg14
(dp42
g5
I956
sg6
I39
sg7
I4
sg8
I35
sg9
I5
sg10
I2
sg11
I760
ssg16
(dp43
g5
I1910
sg6
I40
sg7
I4
sg8
I0
sg9
I4
sg10
I89
sg11
I1910
ssg18
(dp44
g5
I1528
sg6
I45
sg7
I1
sg8
I66
sg9
I2
sg10
I7
sg11
I1150
ssg20
(dp45
g5
I940
sg6
I45
sg7
I0
sg8
I40
sg9
I3
sg10
I5
sg11
I710
sss.(dp0
S'K_all3.csv'
p1
(dp2
S'none'
p3
(dp4
S'count'
p5
I550
sS'truepos'
p6
I29
sS'falseneg'
p7
I3
sS'correction'
p8
I0
sS'unknownyes'
p9
I13
sS'falsepos'
p10
I28
sS'unique'
p11
I550
ssS'three'
p12
(dp13
g5
I1054
sg6
I37
sg7
I1
sg8
I53
sg9
I7
sg10
I1
sg11
I500
ssS'machine'
p14
(dp15
g5
I433
sg6
I32
sg7
I2
sg8
I14
sg9
I11
sg10
I1
sg11
I360
ssS'machine4'
p16
(dp17
g5
I520
sg6
I31
sg7
I2
sg8
I0
sg9
I12
sg10
I27
sg11
I520
ssS'machine3'
p18
(dp19
g5
I568
sg6
I32
sg7
I1
sg8
I33
sg9
I12
sg10
I1
sg11
I440
ssS'machine2'
p20
(dp21
g5
I629
sg6
I33
sg7
I0
sg8
I27
sg9
I12
sg10
I5
sg11
I460
sssS'Wahono.csv'
p22
(dp23
g3
(dp24
g5
I2050
sg6
I53
sg7
I5
sg8
I0
sg9
I4
sg10
I125
sg11
I2050
ssg12
(dp25
g5
I3048
sg6
I58
sg7
I1
sg8
I127
sg9
I3
sg10
I9
sg11
I1460
ssg14
(dp26
g5
I1391
sg6
I56
sg7
I3
sg8
I56
sg9
I3
sg10
I1
sg11
I1080
ssg16
(dp27
g5
I1480
sg6
I51
sg7
I5
sg8
I0
sg9
I6
sg10
I63
sg11
I1480
ssg18
(dp28
g5
I1510
sg6
I57
sg7
I2
sg8
I70
sg9
I3
sg10
I6
sg11
I1120
ssg20
(dp29
g5
I2048
sg6
I58
sg7
I2
sg8
I93
sg9
I2
sg10
I8
sg11
I1530
sssS'Hall.csv'
p30
(dp31
g3
(dp32
g5
I610
sg6
I97
sg7
I5
sg8
I0
sg9
I4
sg10
I21
sg11
I610
ssg12
(dp33
g5
I1077
sg6
I101
sg7
I1
sg8
I56
sg9
I4
sg10
I3
sg11
I510
ssg14
(dp34
g5
I652
sg6
I97
sg7
I5
sg8
I24
sg9
I4
sg10
I2
sg11
I470
ssg16
(dp35
g5
I1890
sg6
I97
sg7
I5
sg8
I0
sg9
I4
sg10
I93
sg11
I1890
ssg18
(dp36
g5
I658
sg6
I99
sg7
I2
sg8
I15
sg9
I5
sg10
I1
sg11
I450
ssg20
(dp37
g5
I645
sg6
I101
sg7
I0
sg8
I27
sg9
I5
sg10
I7
sg11
I450
sssS'Danijel.csv'
p38
(dp39
g3
(dp40
g5
I950
sg6
I43
sg7
I3
sg8
I0
sg9
I2
sg10
I44
sg11
I950
ssg12
(dp41
g5
I1811
sg6
I45
sg7
I0
sg8
I87
sg9
I3
sg10
I6
sg11
I860
ssg14
(dp42
g5
I1038
sg6
I43
sg7
I2
sg8
I48
sg9
I3
sg10
I1
sg11
I810
ssg16
(dp43
g5
I910
sg6
I41
sg7
I3
sg8
I0
sg9
I4
sg10
I38
sg11
I910
ssg18
(dp44
g5
I1241
sg6
I45
sg7
I1
sg8
I42
sg9
I2
sg10
I6
sg11
I950
ssg20
(dp45
g5
I1317
sg6
I40
sg7
I4
sg8
I46
sg9
I4
sg10
I3
sg11
I1010
sss.(dp0
S'K_all3.csv'
p1
(dp2
S'none'
p3
(dp4
S'count'
p5
I440
sS'truepos'
p6
I32
sS'falseneg'
p7
I2
sS'correction'
p8
I0
sS'unknownyes'
p9
I11
sS'falsepos'
p10
I20
sS'unique'
p11
I440
ssS'three'
p12
(dp13
g5
I984
sg6
I34
sg7
I0
sg8
I43
sg9
I11
sg10
I5
sg11
I470
ssS'machine'
p14
(dp15
g5
I638
sg6
I31
sg7
I5
sg8
I20
sg9
I9
sg10
I1
sg11
I560
ssS'machine4'
p16
(dp17
g5
I470
sg6
I36
sg7
I1
sg8
I0
sg9
I8
sg10
I22
sg11
I470
ssS'machine3'
p18
(dp19
g5
I560
sg6
I37
sg7
I1
sg8
I24
sg9
I7
sg10
I2
sg11
I440
ssS'machine2'
p20
(dp21
g5
I630
sg6
I35
sg7
I0
sg8
I25
sg9
I10
sg10
I3
sg11
I470
sssS'Wahono.csv'
p22
(dp23
g3
(dp24
g5
I1910
sg6
I61
sg7
I1
sg8
I0
sg9
I0
sg10
I92
sg11
I1910
ssg12
(dp25
g5
I2520
sg6
I59
sg7
I0
sg8
I97
sg9
I3
sg10
I7
sg11
I1210
ssg14
(dp26
g5
I1607
sg6
I58
sg7
I2
sg8
I51
sg9
I2
sg10
I6
sg11
I1260
ssg16
(dp27
g5
I1790
sg6
I59
sg7
I0
sg8
I0
sg9
I3
sg10
I74
sg11
I1790
ssg18
(dp28
g5
I2271
sg6
I61
sg7
I0
sg8
I110
sg9
I1
sg10
I12
sg11
I1680
ssg20
(dp29
g5
I1999
sg6
I59
sg7
I2
sg8
I82
sg9
I1
sg10
I15
sg11
I1510
sssS'Hall.csv'
p30
(dp31
g3
(dp32
g5
I1330
sg6
I101
sg7
I2
sg8
I0
sg9
I3
sg10
I53
sg11
I1330
ssg12
(dp33
g5
I1069
sg6
I101
sg7
I1
sg8
I49
sg9
I4
sg10
I3
sg11
I510
ssg14
(dp34
g5
I583
sg6
I96
sg7
I5
sg8
I24
sg9
I5
sg10
I3
sg11
I420
ssg16
(dp35
g5
I580
sg6
I92
sg7
I8
sg8
I0
sg9
I6
sg10
I30
sg11
I580
ssg18
(dp36
g5
I623
sg6
I98
sg7
I3
sg8
I22
sg9
I5
sg10
I1
sg11
I410
ssg20
(dp37
g5
I462
sg6
I96
sg7
I2
sg8
I10
sg9
I8
sg10
I6
sg11
I320
sssS'Danijel.csv'
p38
(dp39
g3
(dp40
g5
I1430
sg6
I44
sg7
I2
sg8
I0
sg9
I2
sg10
I67
sg11
I1430
ssg12
(dp41
g5
I2017
sg6
I44
sg7
I0
sg8
I96
sg9
I4
sg10
I8
sg11
I960
ssg14
(dp42
g5
I1033
sg6
I44
sg7
I2
sg8
I45
sg9
I2
sg10
I6
sg11
I810
ssg16
(dp43
g5
I810
sg6
I43
sg7
I2
sg8
I0
sg9
I3
sg10
I38
sg11
I810
ssg18
(dp44
g5
I1156
sg6
I45
sg7
I1
sg8
I54
sg9
I2
sg10
I2
sg11
I860
ssg20
(dp45
g5
I1347
sg6
I43
sg7
I2
sg8
I58
sg9
I3
sg10
I9
sg11
I1010
sss.(dp0
S'K_all3.csv'
p1
(dp2
S'none'
p3
(dp4
S'count'
p5
I600
sS'truepos'
p6
I35
sS'falseneg'
p7
I2
sS'correction'
p8
I0
sS'unknownyes'
p9
I8
sS'falsepos'
p10
I26
sS'unique'
p11
I600
ssS'three'
p12
(dp13
g5
I941
sg6
I36
sg7
I0
sg8
I41
sg9
I9
sg10
I2
sg11
I450
ssS'machine'
p14
(dp15
g5
I490
sg6
I32
sg7
I1
sg8
I22
sg9
I12
sg10
I1
sg11
I410
ssS'machine4'
p16
(dp17
g5
I500
sg6
I35
sg7
I1
sg8
I0
sg9
I9
sg10
I21
sg11
I500
ssS'machine3'
p18
(dp19
g5
I615
sg6
I33
sg7
I2
sg8
I27
sg9
I10
sg10
I1
sg11
I490
ssS'machine2'
p20
(dp21
g5
I600
sg6
I36
sg7
I1
sg8
I21
sg9
I8
sg10
I1
sg11
I500
sssS'Wahono.csv'
p22
(dp23
g3
(dp24
g5
I1760
sg6
I57
sg7
I2
sg8
I0
sg9
I3
sg10
I71
sg11
I1760
ssg12
(dp25
g5
I2859
sg6
I58
sg7
I1
sg8
I115
sg9
I3
sg10
I14
sg11
I1370
ssg14
(dp26
g5
I1529
sg6
I57
sg7
I2
sg8
I50
sg9
I3
sg10
I5
sg11
I1210
ssg16
(dp27
g5
I2490
sg6
I59
sg7
I3
sg8
I0
sg9
I0
sg10
I111
sg11
I2490
ssg18
(dp28
g5
I1618
sg6
I59
sg7
I1
sg8
I78
sg9
I2
sg10
I5
sg11
I1190
ssg20
(dp29
g5
I1224
sg6
I58
sg7
I1
sg8
I54
sg9
I3
sg10
I2
sg11
I910
sssS'Hall.csv'
p30
(dp31
g3
(dp32
g5
I610
sg6
I96
sg7
I6
sg8
I0
sg9
I4
sg10
I21
sg11
I610
ssg12
(dp33
g5
I1068
sg6
I101
sg7
I1
sg8
I46
sg9
I4
sg10
I4
sg11
I510
ssg14
(dp34
g5
I491
sg6
I93
sg7
I7
sg8
I17
sg9
I6
sg10
I3
sg11
I360
ssg16
(dp35
g5
I500
sg6
I97
sg7
I5
sg8
I0
sg9
I4
sg10
I12
sg11
I500
ssg18
(dp36
g5
I729
sg6
I99
sg7
I3
sg8
I31
sg9
I4
sg10
I4
sg11
I490
ssg20
(dp37
g5
I983
sg6
I99
sg7
I3
sg8
I32
sg9
I4
sg10
I4
sg11
I700
sssS'Danijel.csv'
p38
(dp39
g3
(dp40
g5
I1760
sg6
I44
sg7
I2
sg8
I0
sg9
I2
sg10
I83
sg11
I1760
ssg12
(dp41
g5
I1835
sg6
I45
sg7
I0
sg8
I74
sg9
I3
sg10
I5
sg11
I880
ssg14
(dp42
g5
I1162
sg6
I46
sg7
I0
sg8
I44
sg9
I2
sg10
I5
sg11
I910
ssg16
(dp43
g5
I1380
sg6
I43
sg7
I2
sg8
I0
sg9
I3
sg10
I71
sg11
I1380
ssg18
(dp44
g5
I1134
sg6
I44
sg7
I1
sg8
I46
sg9
I3
sg10
I2
sg11
I850
ssg20
(dp45
g5
I1078
sg6
I43
sg7
I3
sg8
I46
sg9
I2
sg10
I9
sg11
I810
sss.(dp0
S'K_all3.csv'
p1
(dp2
S'none'
p3
(dp4
S'count'
p5
I470
sS'truepos'
p6
I30
sS'falseneg'
p7
I3
sS'correction'
p8
I0
sS'unknownyes'
p9
I12
sS'falsepos'
p10
I27
sS'unique'
p11
I470
ssS'three'
p12
(dp13
g5
I939
sg6
I35
sg7
I0
sg8
I37
sg9
I10
sg10
I4
sg11
I450
ssS'machine'
p14
(dp15
g5
I565
sg6
I34
sg7
I1
sg8
I15
sg9
I10
sg10
I1
sg11
I470
ssS'machine4'
p16
(dp17
g5
I510
sg6
I32
sg7
I2
sg8
I0
sg9
I11
sg10
I19
sg11
I510
ssS'machine3'
p18
(dp19
g5
I597
sg6
I34
sg7
I0
sg8
I25
sg9
I11
sg10
I3
sg11
I470
ssS'machine2'
p20
(dp21
g5
I628
sg6
I35
sg7
I0
sg8
I23
sg9
I10
sg10
I4
sg11
I480
sssS'Wahono.csv'
p22
(dp23
g3
(dp24
g5
I1840
sg6
I57
sg7
I3
sg8
I0
sg9
I2
sg10
I74
sg11
I1840
ssg12
(dp25
g5
I2726
sg6
I59
sg7
I2
sg8
I103
sg9
I1
sg10
I10
sg11
I1310
ssg14
(dp26
g5
I1752
sg6
I60
sg7
I0
sg8
I82
sg9
I2
sg10
I4
sg11
I1360
ssg16
(dp27
g5
I2070
sg6
I57
sg7
I3
sg8
I0
sg9
I2
sg10
I113
sg11
I2070
ssg18
(dp28
g5
I1794
sg6
I57
sg7
I2
sg8
I70
sg9
I3
sg10
I6
sg11
I1350
ssg20
(dp29
g5
I1470
sg6
I58
sg7
I0
sg8
I58
sg9
I4
sg10
I9
sg11
I1110
sssS'Hall.csv'
p30
(dp31
g3
(dp32
g5
I1660
sg6
I97
sg7
I5
sg8
I0
sg9
I4
sg10
I76
sg11
I1660
ssg12
(dp33
g5
I1286
sg6
I102
sg7
I0
sg8
I66
sg9
I4
sg10
I8
sg11
I610
ssg14
(dp34
g5
I612
sg6
I96
sg7
I5
sg8
I20
sg9
I5
sg10
I2
sg11
I440
ssg16
(dp35
g5
I780
sg6
I97
sg7
I5
sg8
I0
sg9
I4
sg10
I21
sg11
I780
ssg18
(dp36
g5
I723
sg6
I101
sg7
I0
sg8
I20
sg9
I5
sg10
I3
sg11
I490
ssg20
(dp37
g5
I748
sg6
I101
sg7
I1
sg8
I26
sg9
I4
sg10
I4
sg11
I510
sssS'Danijel.csv'
p38
(dp39
g3
(dp40
g5
I890
sg6
I44
sg7
I2
sg8
I0
sg9
I2
sg10
I35
sg11
I890
ssg12
(dp41
g5
I1949
sg6
I46
sg7
I0
sg8
I84
sg9
I2
sg10
I8
sg11
I930
ssg14
(dp42
g5
I908
sg6
I41
sg7
I3
sg8
I37
sg9
I4
sg10
I0
sg11
I710
ssg16
(dp43
g5
I1310
sg6
I43
sg7
I3
sg8
I0
sg9
I2
sg10
I63
sg11
I1310
ssg18
(dp44
g5
I1352
sg6
I44
sg7
I2
sg8
I54
sg9
I2
sg10
I7
sg11
I1020
ssg20
(dp45
g5
I987
sg6
I44
sg7
I1
sg8
I34
sg9
I3
sg10
I2
sg11
I760
sss.(dp0
S'K_all3.csv'
p1
(dp2
S'none'
p3
(dp4
S'count'
p5
I440
sS'truepos'
p6
I31
sS'falseneg'
p7
I4
sS'correction'
p8
I0
sS'unknownyes'
p9
I10
sS'falsepos'
p10
I27
sS'unique'
p11
I440
ssS'three'
p12
(dp13
g5
I985
sg6
I34
sg7
I0
sg8
I44
sg9
I11
sg10
I4
sg11
I470
ssS'machine'
p14
(dp15
g5
I576
sg6
I34
sg7
I2
sg8
I27
sg9
I9
sg10
I2
sg11
I450
ssS'machine4'
p16
(dp17
g5
I470
sg6
I38
sg7
I2
sg8
I0
sg9
I5
sg10
I21
sg11
I470
ssS'machine3'
p18
(dp19
g5
I607
sg6
I34
sg7
I1
sg8
I30
sg9
I10
sg10
I4
sg11
I470
ssS'machine2'
p20
(dp21
g5
I571
sg6
I32
sg7
I2
sg8
I18
sg9
I11
sg10
I4
sg11
I460
sssS'Wahono.csv'
p22
(dp23
g3
(dp24
g5
I2400
sg6
I57
sg7
I4
sg8
I0
sg9
I1
sg10
I114
sg11
I2400
ssg12
(dp25
g5
I2919
sg6
I60
sg7
I0
sg8
I115
sg9
I2
sg10
I11
sg11
I1400
ssg14
(dp26
g5
I1859
sg6
I60
sg7
I0
sg8
I88
sg9
I2
sg10
I5
sg11
I1460
ssg16
(dp27
g5
I1350
sg6
I47
sg7
I6
sg8
I0
sg9
I9
sg10
I51
sg11
I1350
ssg18
(dp28
g5
I1697
sg6
I60
sg7
I1
sg8
I73
sg9
I1
sg10
I7
sg11
I1270
ssg20
(dp29
g5
I1025
sg6
I53
sg7
I0
sg8
I42
sg9
I9
sg10
I8
sg11
I760
sssS'Hall.csv'
p30
(dp31
g3
(dp32
g5
I1060
sg6
I93
sg7
I9
sg8
I0
sg9
I4
sg10
I47
sg11
I1060
ssg12
(dp33
g5
I1141
sg6
I102
sg7
I0
sg8
I57
sg9
I4
sg10
I6
sg11
I540
ssg14
(dp34
g5
I632
sg6
I100
sg7
I1
sg8
I24
sg9
I5
sg10
I5
sg11
I460
ssg16
(dp35
g5
I1650
sg6
I96
sg7
I8
sg8
I0
sg9
I2
sg10
I75
sg11
I1650
ssg18
(dp36
g5
I722
sg6
I99
sg7
I3
sg8
I25
sg9
I4
sg10
I2
sg11
I490
ssg20
(dp37
g5
I691
sg6
I98
sg7
I3
sg8
I30
sg9
I5
sg10
I6
sg11
I470
sssS'Danijel.csv'
p38
(dp39
g3
(dp40
g5
I1360
sg6
I45
sg7
I1
sg8
I0
sg9
I2
sg10
I69
sg11
I1360
ssg12
(dp41
g5
I2474
sg6
I46
sg7
I0
sg8
I110
sg9
I2
sg10
I10
sg11
I1180
ssg14
(dp42
g5
I835
sg6
I41
sg7
I3
sg8
I34
sg9
I4
sg10
I2
sg11
I660
ssg16
(dp43
g5
I980
sg6
I40
sg7
I0
sg8
I0
sg9
I8
sg10
I48
sg11
I980
ssg18
(dp44
g5
I1089
sg6
I44
sg7
I1
sg8
I52
sg9
I3
sg10
I3
sg11
I810
ssg20
(dp45
g5
I1087
sg6
I45
sg7
I0
sg8
I45
sg9
I3
sg10
I5
sg11
I810
sss.(dp0
S'K_all3.csv'
p1
(dp2
S'none'
p3
(dp4
S'count'
p5
I400
sS'truepos'
p6
I26
sS'falseneg'
p7
I4
sS'correction'
p8
I0
sS'unknownyes'
p9
I15
sS'falsepos'
p10
I25
sS'unique'
p11
I400
ssS'three'
p12
(dp13
g5
I967
sg6
I34
sg7
I0
sg8
I46
sg9
I11
sg10
I4
sg11
I460
ssS'machine'
p14
(dp15
g5
I547
sg6
I32
sg7
I2
sg8
I19
sg9
I11
sg10
I2
sg11
I460
ssS'machine4'
p16
(dp17
g5
I460
sg6
I37
sg7
I2
sg8
I0
sg9
I6
sg10
I20
sg11
I460
ssS'machine3'
p18
(dp19
g5
I594
sg6
I35
sg7
I0
sg8
I13
sg9
I10
sg10
I3
sg11
I490
ssS'machine2'
p20
(dp21
g5
I562
sg6
I35
sg7
I0
sg8
I14
sg9
I10
sg10
I3
sg11
I430
sssS'Wahono.csv'
p22
(dp23
g3
(dp24
g5
I1870
sg6
I58
sg7
I2
sg8
I0
sg9
I2
sg10
I96
sg11
I1870
ssg12
(dp25
g5
I2660
sg6
I58
sg7
I1
sg8
I118
sg9
I3
sg10
I6
sg11
I1270
ssg14
(dp26
g5
I1499
sg6
I57
sg7
I2
sg8
I73
sg9
I3
sg10
I4
sg11
I1160
ssg16
(dp27
g5
I2530
sg6
I60
sg7
I1
sg8
I0
sg9
I1
sg10
I131
sg11
I2530
ssg18
(dp28
g5
I1419
sg6
I57
sg7
I2
sg8
I58
sg9
I3
sg10
I5
sg11
I1070
ssg20
(dp29
g5
I1938
sg6
I57
sg7
I2
sg8
I78
sg9
I3
sg10
I11
sg11
I1460
sssS'Hall.csv'
p30
(dp31
g3
(dp32
g5
I1430
sg6
I99
sg7
I4
sg8
I0
sg9
I3
sg10
I62
sg11
I1430
ssg12
(dp33
g5
I922
sg6
I101
sg7
I0
sg8
I41
sg9
I5
sg10
I6
sg11
I440
ssg14
(dp34
g5
I772
sg6
I100
sg7
I2
sg8
I30
sg9
I4
sg10
I3
sg11
I560
ssg16
(dp35
g5
I670
sg6
I97
sg7
I5
sg8
I0
sg9
I4
sg10
I22
sg11
I670
ssg18
(dp36
g5
I547
sg6
I99
sg7
I1
sg8
I18
sg9
I6
sg10
I1
sg11
I360
ssg20
(dp37
g5
I577
sg6
I99
sg7
I2
sg8
I21
sg9
I5
sg10
I1
sg11
I410
sssS'Danijel.csv'
p38
(dp39
g3
(dp40
g5
I920
sg6
I44
sg7
I1
sg8
I0
sg9
I3
sg10
I48
sg11
I920
ssg12
(dp41
g5
I1461
sg6
I45
sg7
I0
sg8
I57
sg9
I3
sg10
I6
sg11
I700
ssg14
(dp42
g5
I1098
sg6
I45
sg7
I0
sg8
I64
sg9
I3
sg10
I5
sg11
I860
ssg16
(dp43
g5
I880
sg6
I40
sg7
I4
sg8
I0
sg9
I4
sg10
I45
sg11
I880
ssg18
(dp44
g5
I1019
sg6
I43
sg7
I2
sg8
I49
sg9
I3
sg10
I2
sg11
I750
ssg20
(dp45
g5
I1138
sg6
I45
sg7
I0
sg8
I44
sg9
I3
sg10
I5
sg11
I860
sss.(dp0
S'K_all3.csv'
p1
(dp2
S'none'
p3
(dp4
S'count'
p5
I460
sS'truepos'
p6
I30
sS'falseneg'
p7
I4
sS'correction'
p8
I0
sS'unknownyes'
p9
I11
sS'falsepos'
p10
I18
sS'unique'
p11
I460
ssS'three'
p12
(dp13
g5
I922
sg6
I31
sg7
I0
sg8
I41
sg9
I14
sg10
I7
sg11
I440
ssS'machine'
p14
(dp15
g5
I562
sg6
I37
sg7
I0
sg8
I33
sg9
I8
sg10
I3
sg11
I460
ssS'machine4'
p16
(dp17
g5
I460
sg6
I31
sg7
I1
sg8
I0
sg9
I13
sg10
I27
sg11
I460
ssS'machine3'
p18
(dp19
g5
I565
sg6
I34
sg7
I2
sg8
I29
sg9
I9
sg10
I1
sg11
I440
ssS'machine2'
p20
(dp21
g5
I622
sg6
I35
sg7
I3
sg8
I21
sg9
I7
sg10
I4
sg11
I490
sssS'Wahono.csv'
p22
(dp23
g3
(dp24
g5
I1670
sg6
I54
sg7
I5
sg8
I0
sg9
I3
sg10
I82
sg11
I1670
ssg12
(dp25
g5
I2547
sg6
I58
sg7
I1
sg8
I103
sg9
I3
sg10
I9
sg11
I1220
ssg14
(dp26
g5
I1617
sg6
I58
sg7
I1
sg8
I58
sg9
I3
sg10
I6
sg11
I1260
ssg16
(dp27
g5
I1910
sg6
I54
sg7
I4
sg8
I0
sg9
I4
sg10
I79
sg11
I1910
ssg18
(dp28
g5
I1786
sg6
I60
sg7
I1
sg8
I73
sg9
I1
sg10
I6
sg11
I1350
ssg20
(dp29
g5
I1699
sg6
I59
sg7
I1
sg8
I77
sg9
I2
sg10
I5
sg11
I1260
sssS'Hall.csv'
p30
(dp31
g3
(dp32
g5
I1180
sg6
I97
sg7
I4
sg8
I0
sg9
I5
sg10
I58
sg11
I1180
ssg12
(dp33
g5
I998
sg6
I99
sg7
I2
sg8
I36
sg9
I5
sg10
I4
sg11
I480
ssg14
(dp34
g5
I492
sg6
I95
sg7
I6
sg8
I16
sg9
I5
sg10
I5
sg11
I360
ssg16
(dp35
g5
I1710
sg6
I99
sg7
I4
sg8
I0
sg9
I3
sg10
I72
sg11
I1710
ssg18
(dp36
g5
I723
sg6
I101
sg7
I1
sg8
I22
sg9
I4
sg10
I4
sg11
I490
ssg20
(dp37
g5
I644
sg6
I99
sg7
I1
sg8
I28
sg9
I6
sg10
I11
sg11
I450
sssS'Danijel.csv'
p38
(dp39
g3
(dp40
g5
I1920
sg6
I40
sg7
I6
sg8
I0
sg9
I2
sg10
I88
sg11
I1920
ssg12
(dp41
g5
I1480
sg6
I45
sg7
I0
sg8
I59
sg9
I3
sg10
I3
sg11
I710
ssg14
(dp42
g5
I710
sg6
I44
sg7
I1
sg8
I25
sg9
I3
sg10
I2
sg11
I560
ssg16
(dp43
g5
I1190
sg6
I44
sg7
I2
sg8
I0
sg9
I2
sg10
I54
sg11
I1190
ssg18
(dp44
g5
I964
sg6
I44
sg7
I1
sg8
I38
sg9
I3
sg10
I7
sg11
I720
ssg20
(dp45
g5
I1067
sg6
I43
sg7
I2
sg8
I41
sg9
I3
sg10
I5
sg11
I810
sss.(dp0
S'K_all3.csv'
p1
(dp2
S'none'
p3
(dp4
S'count'
p5
I500
sS'truepos'
p6
I33
sS'falseneg'
p7
I0
sS'correction'
p8
I0
sS'unknownyes'
p9
I12
sS'falsepos'
p10
I24
sS'unique'
p11
I500
ssS'three'
p12
(dp13
g5
I901
sg6
I36
sg7
I0
sg8
I40
sg9
I9
sg10
I4
sg11
I430
ssS'machine'
p14
(dp15
g5
I612
sg6
I32
sg7
I4
sg8
I26
sg9
I9
sg10
I0
sg11
I510
ssS'machine4'
p16
(dp17
g5
I430
sg6
I32
sg7
I3
sg8
I0
sg9
I10
sg10
I21
sg11
I430
ssS'machine3'
p18
(dp19
g5
I549
sg6
I34
sg7
I1
sg8
I23
sg9
I10
sg10
I5
sg11
I430
ssS'machine2'
p20
(dp21
g5
I581
sg6
I33
sg7
I2
sg8
I22
sg9
I10
sg10
I0
sg11
I460
sssS'Wahono.csv'
p22
(dp23
g3
(dp24
g5
I1660
sg6
I55
sg7
I5
sg8
I0
sg9
I2
sg10
I84
sg11
I1660
ssg12
(dp25
g5
I2716
sg6
I59
sg7
I0
sg8
I135
sg9
I3
sg10
I5
sg11
I1290
ssg14
(dp26
g5
I1617
sg6
I58
sg7
I1
sg8
I80
sg9
I3
sg10
I5
sg11
I1260
ssg16
(dp27
g5
I1790
sg6
I57
sg7
I3
sg8
I0
sg9
I2
sg10
I97
sg11
I1790
ssg18
(dp28
g5
I1264
sg6
I59
sg7
I0
sg8
I58
sg9
I3
sg10
I8
sg11
I930
ssg20
(dp29
g5
I1814
sg6
I59
sg7
I0
sg8
I76
sg9
I3
sg10
I10
sg11
I1360
sssS'Hall.csv'
p30
(dp31
g3
(dp32
g5
I2010
sg6
I100
sg7
I5
sg8
I0
sg9
I1
sg10
I113
sg11
I2010
ssg12
(dp33
g5
I1127
sg6
I101
sg7
I1
sg8
I45
sg9
I4
sg10
I4
sg11
I540
ssg14
(dp34
g5
I561
sg6
I97
sg7
I4
sg8
I23
sg9
I5
sg10
I5
sg11
I410
ssg16
(dp35
g5
I1160
sg6
I96
sg7
I6
sg8
I0
sg9
I4
sg10
I53
sg11
I1160
ssg18
(dp36
g5
I712
sg6
I98
sg7
I3
sg8
I25
sg9
I5
sg10
I2
sg11
I480
ssg20
(dp37
g5
I631
sg6
I99
sg7
I2
sg8
I20
sg9
I5
sg10
I5
sg11
I440
sssS'Danijel.csv'
p38
(dp39
g3
(dp40
g5
I1400
sg6
I45
sg7
I1
sg8
I0
sg9
I2
sg10
I75
sg11
I1400
ssg12
(dp41
g5
I2117
sg6
I46
sg7
I0
sg8
I94
sg9
I2
sg10
I7
sg11
I1010
ssg14
(dp42
g5
I1020
sg6
I43
sg7
I2
sg8
I37
sg9
I3
sg10
I3
sg11
I810
ssg16
(dp43
g5
I1200
sg6
I43
sg7
I2
sg8
I0
sg9
I3
sg10
I50
sg11
I1200
ssg18
(dp44
g5
I1238
sg6
I44
sg7
I1
sg8
I60
sg9
I3
sg10
I4
sg11
I920
ssg20
(dp45
g5
I1301
sg6
I44
sg7
I2
sg8
I65
sg9
I2
sg10
I9
sg11
I960
sss.(dp0
S'K_all3.csv'
p1
(dp2
S'none'
p3
(dp4
S'count'
p5
I440
sS'truepos'
p6
I30
sS'falseneg'
p7
I3
sS'correction'
p8
I0
sS'unknownyes'
p9
I12
sS'falsepos'
p10
I18
sS'unique'
p11
I440
ssS'three'
p12
(dp13
g5
I967
sg6
I34
sg7
I0
sg8
I45
sg9
I11
sg10
I5
sg11
I460
ssS'machine'
p14
(dp15
g5
I676
sg6
I34
sg7
I3
sg8
I24
sg9
I8
sg10
I0
sg11
I560
ssS'machine4'
p16
(dp17
g5
I420
sg6
I33
sg7
I1
sg8
I0
sg9
I11
sg10
I15
sg11
I420
ssS'machine3'
p18
(dp19
g5
I688
sg6
I32
sg7
I0
sg8
I34
sg9
I13
sg10
I6
sg11
I530
ssS'machine2'
p20
(dp21
g5
I566
sg6
I33
sg7
I0
sg8
I25
sg9
I12
sg10
I5
sg11
I420
sssS'Wahono.csv'
p22
(dp23
g3
(dp24
g5
I2250
sg6
I55
sg7
I3
sg8
I0
sg9
I4
sg10
I102
sg11
I2250
ssg12
(dp25
g5
I3109
sg6
I60
sg7
I0
sg8
I146
sg9
I2
sg10
I6
sg11
I1480
ssg14
(dp26
g5
I1502
sg6
I60
sg7
I0
sg8
I57
sg9
I2
sg10
I1
sg11
I1170
ssg16
(dp27
g5
I2200
sg6
I55
sg7
I4
sg8
I0
sg9
I3
sg10
I116
sg11
I2200
ssg18
(dp28
g5
I1912
sg6
I58
sg7
I2
sg8
I91
sg9
I2
sg10
I9
sg11
I1420
ssg20
(dp29
g5
I1605
sg6
I57
sg7
I2
sg8
I58
sg9
I3
sg10
I8
sg11
I1210
sssS'Hall.csv'
p30
(dp31
g3
(dp32
g5
I1310
sg6
I99
sg7
I3
sg8
I0
sg9
I4
sg10
I57
sg11
I1310
ssg12
(dp33
g5
I1162
sg6
I101
sg7
I1
sg8
I39
sg9
I4
sg10
I6
sg11
I560
ssg14
(dp34
g5
I662
sg6
I100
sg7
I2
sg8
I22
sg9
I4
sg10
I0
sg11
I470
ssg16
(dp35
g5
I1180
sg6
I98
sg7
I4
sg8
I0
sg9
I4
sg10
I64
sg11
I1180
ssg18
(dp36
g5
I679
sg6
I101
sg7
I1
sg8
I32
sg9
I4
sg10
I2
sg11
I440
ssg20
(dp37
g5
I640
sg6
I99
sg7
I2
sg8
I19
sg9
I5
sg10
I4
sg11
I450
sssS'Danijel.csv'
p38
(dp39
g3
(dp40
g5
I820
sg6
I41
sg7
I3
sg8
I0
sg9
I4
sg10
I42
sg11
I820
ssg12
(dp41
g5
I1633
sg6
I44
sg7
I1
sg8
I72
sg9
I3
sg10
I4
sg11
I780
ssg14
(dp42
g5
I905
sg6
I45
sg7
I0
sg8
I31
sg9
I3
sg10
I3
sg11
I710
ssg16
(dp43
g5
I1100
sg6
I45
sg7
I1
sg8
I0
sg9
I2
sg10
I53
sg11
I1100
ssg18
(dp44
g5
I1151
sg6
I45
sg7
I0
sg8
I48
sg9
I3
sg10
I2
sg11
I870
ssg20
(dp45
g5
I958
sg6
I45
sg7
I0
sg8
I44
sg9
I3
sg10
I5
sg11
I710
sss.(dp0
S'K_all3.csv'
p1
(dp2
S'none'
p3
(dp4
S'count'
p5
I450
sS'truepos'
p6
I32
sS'falseneg'
p7
I2
sS'correction'
p8
I0
sS'unknownyes'
p9
I11
sS'falsepos'
p10
I27
sS'unique'
p11
I450
ssS'three'
p12
(dp13
g5
I884
sg6
I33
sg7
I2
sg8
I44
sg9
I10
sg10
I5
sg11
I420
ssS'machine'
p14
(dp15
g5
I502
sg6
I34
sg7
I3
sg8
I23
sg9
I8
sg10
I0
sg11
I410
ssS'machine4'
p16
(dp17
g5
I560
sg6
I33
sg7
I2
sg8
I0
sg9
I10
sg10
I31
sg11
I560
ssS'machine3'
p18
(dp19
g5
I540
sg6
I34
sg7
I0
sg8
I20
sg9
I11
sg10
I1
sg11
I440
ssS'machine2'
p20
(dp21
g5
I635
sg6
I33
sg7
I1
sg8
I22
sg9
I11
sg10
I3
sg11
I510
sssS'Wahono.csv'
p22
(dp23
g3
(dp24
g5
I1720
sg6
I56
sg7
I4
sg8
I0
sg9
I2
sg10
I96
sg11
I1720
ssg12
(dp25
g5
I2981
sg6
I60
sg7
I0
sg8
I118
sg9
I2
sg10
I8
sg11
I1430
ssg14
(dp26
g5
I1291
sg6
I57
sg7
I2
sg8
I55
sg9
I3
sg10
I4
sg11
I1010
ssg16
(dp27
g5
I1970
sg6
I57
sg7
I2
sg8
I0
sg9
I3
sg10
I87
sg11
I1970
ssg18
(dp28
g5
I1946
sg6
I59
sg7
I1
sg8
I87
sg9
I2
sg10
I12
sg11
I1450
ssg20
(dp29
g5
I1768
sg6
I57
sg7
I2
sg8
I84
sg9
I3
sg10
I11
sg11
I1310
sssS'Hall.csv'
p30
(dp31
g3
(dp32
g5
I1370
sg6
I90
sg7
I11
sg8
I0
sg9
I5
sg10
I58
sg11
I1370
ssg12
(dp33
g5
I901
sg6
I99
sg7
I2
sg8
I40
sg9
I5
sg10
I2
sg11
I430
ssg14
(dp34
g5
I652
sg6
I100
sg7
I2
sg8
I28
sg9
I4
sg10
I2
sg11
I460
ssg16
(dp35
g5
I2050
sg6
I98
sg7
I4
sg8
I0
sg9
I4
sg10
I102
sg11
I2050
ssg18
(dp36
g5
I955
sg6
I102
sg7
I0
sg8
I35
sg9
I4
sg10
I7
sg11
I660
ssg20
(dp37
g5
I503
sg6
I98
sg7
I3
sg8
I12
sg9
I5
sg10
I9
sg11
I360
sssS'Danijel.csv'
p38
(dp39
g3
(dp40
g5
I1340
sg6
I43
sg7
I3
sg8
I0
sg9
I2
sg10
I59
sg11
I1340
ssg12
(dp41
g5
I1859
sg6
I45
sg7
I0
sg8
I77
sg9
I3
sg10
I8
sg11
I890
ssg14
(dp42
g5
I705
sg6
I38
sg7
I5
sg8
I26
sg9
I5
sg10
I0
sg11
I560
ssg16
(dp43
g5
I950
sg6
I44
sg7
I1
sg8
I0
sg9
I3
sg10
I46
sg11
I950
ssg18
(dp44
g5
I1100
sg6
I45
sg7
I1
sg8
I39
sg9
I2
sg10
I3
sg11
I830
ssg20
(dp45
g5
I1163
sg6
I44
sg7
I2
sg8
I53
sg9
I2
sg10
I5
sg11
I870
sss.(dp0
S'K_all3.csv'
p1
(dp2
S'none'
p3
(dp4
S'count'
p5
I420
sS'truepos'
p6
I34
sS'falseneg'
p7
I1
sS'correction'
p8
I0
sS'unknownyes'
p9
I10
sS'falsepos'
p10
I16
sS'unique'
p11
I420
ssS'three'
p12
(dp13
g5
I937
sg6
I39
sg7
I0
sg8
I35
sg9
I6
sg10
I5
sg11
I450
ssS'machine'
p14
(dp15
g5
I666
sg6
I35
sg7
I0
sg8
I30
sg9
I10
sg10
I2
sg11
I520
ssS'machine4'
p16
(dp17
g5
I440
sg6
I32
sg7
I0
sg8
I0
sg9
I13
sg10
I21
sg11
I440
ssS'machine3'
p18
(dp19
g5
I689
sg6
I36
sg7
I2
sg8
I29
sg9
I7
sg10
I2
sg11
I540
ssS'machine2'
p20
(dp21
g5
I591
sg6
I36
sg7
I2
sg8
I21
sg9
I7
sg10
I3
sg11
I450
sssS'Wahono.csv'
p22
(dp23
g3
(dp24
g5
I2420
sg6
I58
sg7
I2
sg8
I0
sg9
I2
sg10
I113
sg11
I2420
ssg12
(dp25
g5
I3840
sg6
I62
sg7
I0
sg8
I158
sg9
I0
sg10
I14
sg11
I1840
ssg14
(dp26
g5
I1721
sg6
I60
sg7
I1
sg8
I78
sg9
I1
sg10
I3
sg11
I1330
ssg16
(dp27
g5
I1950
sg6
I59
sg7
I1
sg8
I0
sg9
I2
sg10
I90
sg11
I1950
ssg18
(dp28
g5
I1866
sg6
I60
sg7
I0
sg8
I74
sg9
I2
sg10
I9
sg11
I1410
ssg20
(dp29
g5
I1595
sg6
I58
sg7
I2
sg8
I62
sg9
I2
sg10
I6
sg11
I1210
sssS'Hall.csv'
p30
(dp31
g3
(dp32
g5
I1680
sg6
I97
sg7
I5
sg8
I0
sg9
I4
sg10
I94
sg11
I1680
ssg12
(dp33
g5
I1020
sg6
I102
sg7
I0
sg8
I40
sg9
I4
sg10
I1
sg11
I490
ssg14
(dp34
g5
I652
sg6
I100
sg7
I2
sg8
I20
sg9
I4
sg10
I1
sg11
I460
ssg16
(dp35
g5
I840
sg6
I96
sg7
I6
sg8
I0
sg9
I4
sg10
I31
sg11
I840
ssg18
(dp36
g5
I743
sg6
I102
sg7
I0
sg8
I30
sg9
I4
sg10
I0
sg11
I500
ssg20
(dp37
g5
I606
sg6
I98
sg7
I2
sg8
I20
sg9
I6
sg10
I2
sg11
I420
sssS'Danijel.csv'
p38
(dp39
g3
(dp40
g5
I930
sg6
I42
sg7
I3
sg8
I0
sg9
I3
sg10
I38
sg11
I930
ssg12
(dp41
g5
I1552
sg6
I45
sg7
I0
sg8
I71
sg9
I3
sg10
I3
sg11
I740
ssg14
(dp42
g5
I1058
sg6
I43
sg7
I2
sg8
I44
sg9
I3
sg10
I3
sg11
I830
ssg16
(dp43
g5
I730
sg6
I44
sg7
I1
sg8
I0
sg9
I3
sg10
I28
sg11
I730
ssg18
(dp44
g5
I1097
sg6
I45
sg7
I0
sg8
I40
sg9
I3
sg10
I7
sg11
I830
ssg20
(dp45
g5
I1322
sg6
I42
sg7
I2
sg8
I43
sg9
I4
sg10
I7
sg11
I1010
sss.(dp0
S'K_all3.csv'
p1
(dp2
S'none'
p3
(dp4
S'count'
p5
I440
sS'truepos'
p6
I33
sS'falseneg'
p7
I1
sS'correction'
p8
I0
sS'unknownyes'
p9
I11
sS'falsepos'
p10
I12
sS'unique'
p11
I440
ssS'three'
p12
(dp13
g5
I981
sg6
I34
sg7
I0
sg8
I41
sg9
I11
sg10
I3
sg11
I470
ssS'machine'
p14
(dp15
g5
I603
sg6
I31
sg7
I6
sg8
I25
sg9
I8
sg10
I1
sg11
I510
ssS'machine4'
p16
(dp17
g5
I490
sg6
I35
sg7
I1
sg8
I0
sg9
I9
sg10
I22
sg11
I490
ssS'machine3'
p18
(dp19
g5
I653
sg6
I36
sg7
I0
sg8
I28
sg9
I9
sg10
I1
sg11
I510
ssS'machine2'
p20
(dp21
g5
I467
sg6
I30
sg7
I2
sg8
I18
sg9
I13
sg10
I4
sg11
I360
sssS'Wahono.csv'
p22
(dp23
g3
(dp24
g5
I2280
sg6
I58
sg7
I1
sg8
I0
sg9
I3
sg10
I118
sg11
I2280
ssg12
(dp25
g5
I2800
sg6
I59
sg7
I0
sg8
I118
sg9
I3
sg10
I11
sg11
I1340
ssg14
(dp26
g5
I1802
sg6
I61
sg7
I0
sg8
I67
sg9
I1
sg10
I6
sg11
I1410
ssg16
(dp27
g5
I1530
sg6
I54
sg7
I3
sg8
I0
sg9
I5
sg10
I80
sg11
I1530
ssg18
(dp28
g5
I1550
sg6
I57
sg7
I2
sg8
I54
sg9
I3
sg10
I4
sg11
I1170
ssg20
(dp29
g5
I1300
sg6
I59
sg7
I0
sg8
I57
sg9
I3
sg10
I3
sg11
I960
sssS'Hall.csv'
p30
(dp31
g3
(dp32
g5
I1090
sg6
I98
sg7
I4
sg8
I0
sg9
I4
sg10
I57
sg11
I1090
ssg12
(dp33
g5
I1157
sg6
I101
sg7
I1
sg8
I55
sg9
I4
sg10
I3
sg11
I550
ssg14
(dp34
g5
I552
sg6
I97
sg7
I3
sg8
I22
sg9
I6
sg10
I9
sg11
I400
ssg16
(dp35
g5
I1010
sg6
I96
sg7
I7
sg8
I0
sg9
I3
sg10
I38
sg11
I1010
ssg18
(dp36
g5
I703
sg6
I101
sg7
I1
sg8
I29
sg9
I4
sg10
I1
sg11
I460
ssg20
(dp37
g5
I678
sg6
I99
sg7
I2
sg8
I26
sg9
I5
sg10
I2
sg11
I460
sssS'Danijel.csv'
p38
(dp39
g3
(dp40
g5
I750
sg6
I39
sg7
I4
sg8
I0
sg9
I5
sg10
I37
sg11
I750
ssg12
(dp41
g5
I2175
sg6
I46
sg7
I0
sg8
I114
sg9
I2
sg10
I6
sg11
I1030
ssg14
(dp42
g5
I873
sg6
I43
sg7
I2
sg8
I28
sg9
I3
sg10
I1
sg11
I690
ssg16
(dp43
g5
I2060
sg6
I44
sg7
I3
sg8
I0
sg9
I1
sg10
I99
sg11
I2060
ssg18
(dp44
g5
I917
sg6
I44
sg7
I0
sg8
I44
sg9
I4
sg10
I4
sg11
I680
ssg20
(dp45
g5
I887
sg6
I45
sg7
I0
sg8
I36
sg9
I3
sg10
I7
sg11
I660
sss.(dp0
S'K_all3.csv'
p1
(dp2
S'none'
p3
(dp4
S'count'
p5
I410
sS'truepos'
p6
I36
sS'falseneg'
p7
I1
sS'correction'
p8
I0
sS'unknownyes'
p9
I8
sS'falsepos'
p10
I19
sS'unique'
p11
I410
ssS'three'
p12
(dp13
g5
I860
sg6
I37
sg7
I0
sg8
I39
sg9
I8
sg10
I2
sg11
I410
ssS'machine'
p14
(dp15
g5
I561
sg6
I35
sg7
I1
sg8
I29
sg9
I9
sg10
I1
sg11
I450
ssS'machine4'
p16
(dp17
g5
I410
sg6
I35
sg7
I2
sg8
I0
sg9
I8
sg10
I16
sg11
I410
ssS'machine3'
p18
(dp19
g5
I546
sg6
I33
sg7
I3
sg8
I26
sg9
I9
sg10
I0
sg11
I430
ssS'machine2'
p20
(dp21
g5
I589
sg6
I32
sg7
I3
sg8
I22
sg9
I10
sg10
I5
sg11
I460
sssS'Wahono.csv'
p22
(dp23
g3
(dp24
g5
I2080
sg6
I59
sg7
I1
sg8
I0
sg9
I2
sg10
I94
sg11
I2080
ssg12
(dp25
g5
I2617
sg6
I59
sg7
I0
sg8
I114
sg9
I3
sg10
I6
sg11
I1250
ssg14
(dp26
g5
I1688
sg6
I58
sg7
I1
sg8
I73
sg9
I3
sg10
I5
sg11
I1320
ssg16
(dp27
g5
I2210
sg6
I54
sg7
I2
sg8
I0
sg9
I6
sg10
I113
sg11
I2210
ssg18
(dp28
g5
I1585
sg6
I58
sg7
I1
sg8
I70
sg9
I3
sg10
I4
sg11
I1180
ssg20
(dp29
g5
I1574
sg6
I58
sg7
I1
sg8
I65
sg9
I3
sg10
I4
sg11
I1180
sssS'Hall.csv'
p30
(dp31
g3
(dp32
g5
I1510
sg6
I96
sg7
I7
sg8
I0
sg9
I3
sg10
I63
sg11
I1510
ssg12
(dp33
g5
I1204
sg6
I101
sg7
I1
sg8
I63
sg9
I4
sg10
I4
sg11
I570
ssg14
(dp34
g5
I633
sg6
I99
sg7
I3
sg8
I22
sg9
I4
sg10
I1
sg11
I460
ssg16
(dp35
g5
I1550
sg6
I99
sg7
I4
sg8
I0
sg9
I3
sg10
I79
sg11
I1550
ssg18
(dp36
g5
I727
sg6
I99
sg7
I3
sg8
I31
sg9
I4
sg10
I2
sg11
I480
ssg20
(dp37
g5
I509
sg6
I97
sg7
I2
sg8
I18
sg9
I7
sg10
I9
sg11
I360
sssS'Danijel.csv'
p38
(dp39
g3
(dp40
g5
I1680
sg6
I45
sg7
I1
sg8
I0
sg9
I2
sg10
I96
sg11
I1680
ssg12
(dp41
g5
I1716
sg6
I44
sg7
I2
sg8
I74
sg9
I2
sg10
I5
sg11
I820
ssg14
(dp42
g5
I1115
sg6
I43
sg7
I1
sg8
I53
sg9
I4
sg10
I1
sg11
I860
ssg16
(dp43
g5
I1480
sg6
I45
sg7
I1
sg8
I0
sg9
I2
sg10
I60
sg11
I1480
ssg18
(dp44
g5
I954
sg6
I45
sg7
I0
sg8
I49
sg9
I3
sg10
I3
sg11
I700
ssg20
(dp45
g5
I925
sg6
I45
sg7
I0
sg8
I36
sg9
I3
sg10
I2
sg11
I690
sss.(dp0
S'K_all3.csv'
p1
(dp2
S'none'
p3
(dp4
S'count'
p5
I720
sS'truepos'
p6
I37
sS'falseneg'
p7
I4
sS'correction'
p8
I0
sS'unknownyes'
p9
I4
sS'falsepos'
p10
I26
sS'unique'
p11
I720
ssS'three'
p12
(dp13
g5
I911
sg6
I37
sg7
I0
sg8
I51
sg9
I8
sg10
I1
sg11
I430
ssS'machine'
p14
(dp15
g5
I539
sg6
I37
sg7
I1
sg8
I22
sg9
I7
sg10
I2
sg11
I440
ssS'machine4'
p16
(dp17
g5
I500
sg6
I36
sg7
I2
sg8
I0
sg9
I7
sg10
I21
sg11
I500
ssS'machine3'
p18
(dp19
g5
I601
sg6
I36
sg7
I1
sg8
I19
sg9
I8
sg10
I2
sg11
I480
ssS'machine2'
p20
(dp21
g5
I574
sg6
I33
sg7
I1
sg8
I25
sg9
I11
sg10
I1
sg11
I440
sssS'Wahono.csv'
p22
(dp23
g3
(dp24
g5
I2190
sg6
I57
sg7
I4
sg8
I0
sg9
I1
sg10
I95
sg11
I2190
ssg12
(dp25
g5
I2828
sg6
I59
sg7
I0
sg8
I147
sg9
I3
sg10
I7
sg11
I1340
ssg14
(dp26
g5
I1304
sg6
I56
sg7
I2
sg8
I60
sg9
I4
sg10
I3
sg11
I1010
ssg16
(dp27
g5
I2260
sg6
I56
sg7
I1
sg8
I0
sg9
I5
sg10
I108
sg11
I2260
ssg18
(dp28
g5
I2024
sg6
I59
sg7
I2
sg8
I87
sg9
I1
sg10
I6
sg11
I1520
ssg20
(dp29
g5
I1609
sg6
I58
sg7
I1
sg8
I67
sg9
I3
sg10
I4
sg11
I1210
sssS'Hall.csv'
p30
(dp31
g3
(dp32
g5
I1710
sg6
I98
sg7
I4
sg8
I0
sg9
I4
sg10
I92
sg11
I1710
ssg12
(dp33
g5
I995
sg6
I100
sg7
I2
sg8
I53
sg9
I4
sg10
I4
sg11
I470
ssg14
(dp34
g5
I471
sg6
I95
sg7
I5
sg8
I12
sg9
I6
sg10
I9
sg11
I340
ssg16
(dp35
g5
I880
sg6
I96
sg7
I5
sg8
I0
sg9
I5
sg10
I34
sg11
I880
ssg18
(dp36
g5
I701
sg6
I100
sg7
I1
sg8
I27
sg9
I5
sg10
I0
sg11
I460
ssg20
(dp37
g5
I690
sg6
I98
sg7
I3
sg8
I29
sg9
I5
sg10
I3
sg11
I480
sssS'Danijel.csv'
p38
(dp39
g3
(dp40
g5
I1180
sg6
I41
sg7
I4
sg8
I0
sg9
I3
sg10
I62
sg11
I1180
ssg12
(dp41
g5
I1918
sg6
I44
sg7
I2
sg8
I93
sg9
I2
sg10
I12
sg11
I910
ssg14
(dp42
g5
I1067
sg6
I44
sg7
I1
sg8
I52
sg9
I3
sg10
I4
sg11
I820
ssg16
(dp43
g5
I1730
sg6
I43
sg7
I3
sg8
I0
sg9
I2
sg10
I91
sg11
I1730
ssg18
(dp44
g5
I1011
sg6
I45
sg7
I0
sg8
I52
sg9
I3
sg10
I2
sg11
I740
ssg20
(dp45
g5
I1026
sg6
I44
sg7
I1
sg8
I42
sg9
I3
sg10
I3
sg11
I760
sss.(dp0
S'K_all3.csv'
p1
(dp2
S'none'
p3
(dp4
S'count'
p5
I530
sS'truepos'
p6
I34
sS'falseneg'
p7
I2
sS'correction'
p8
I0
sS'unknownyes'
p9
I9
sS'falsepos'
p10
I28
sS'unique'
p11
I530
ssS'three'
p12
(dp13
g5
I969
sg6
I38
sg7
I0
sg8
I48
sg9
I7
sg10
I4
sg11
I460
ssS'machine'
p14
(dp15
g5
I581
sg6
I34
sg7
I2
sg8
I21
sg9
I9
sg10
I4
sg11
I460
ssS'machine4'
p16
(dp17
g5
I420
sg6
I34
sg7
I0
sg8
I0
sg9
I11
sg10
I21
sg11
I420
ssS'machine3'
p18
(dp19
g5
I549
sg6
I35
sg7
I1
sg8
I26
sg9
I9
sg10
I2
sg11
I420
ssS'machine2'
p20
(dp21
g5
I595
sg6
I32
sg7
I0
sg8
I22
sg9
I13
sg10
I5
sg11
I470
sssS'Wahono.csv'
p22
(dp23
g3
(dp24
g5
I1990
sg6
I56
sg7
I2
sg8
I0
sg9
I4
sg10
I77
sg11
I1990
ssg12
(dp25
g5
I3265
sg6
I58
sg7
I1
sg8
I161
sg9
I3
sg10
I12
sg11
I1550
ssg14
(dp26
g5
I1627
sg6
I57
sg7
I3
sg8
I76
sg9
I2
sg10
I6
sg11
I1260
ssg16
(dp27
g5
I2440
sg6
I54
sg7
I3
sg8
I0
sg9
I5
sg10
I110
sg11
I2440
ssg18
(dp28
g5
I1791
sg6
I58
sg7
I1
sg8
I78
sg9
I3
sg10
I8
sg11
I1330
ssg20
(dp29
g5
I1341
sg6
I58
sg7
I1
sg8
I57
sg9
I3
sg10
I2
sg11
I1010
sssS'Hall.csv'
p30
(dp31
g3
(dp32
g5
I1350
sg6
I96
sg7
I6
sg8
I0
sg9
I4
sg10
I64
sg11
I1350
ssg12
(dp33
g5
I1142
sg6
I102
sg7
I0
sg8
I59
sg9
I4
sg10
I4
sg11
I540
ssg14
(dp34
g5
I691
sg6
I96
sg7
I6
sg8
I28
sg9
I4
sg10
I1
sg11
I500
ssg16
(dp35
g5
I1870
sg6
I98
sg7
I5
sg8
I0
sg9
I3
sg10
I79
sg11
I1870
ssg18
(dp36
g5
I717
sg6
I100
sg7
I2
sg8
I21
sg9
I4
sg10
I2
sg11
I490
ssg20
(dp37
g5
I653
sg6
I99
sg7
I2
sg8
I24
sg9
I5
sg10
I4
sg11
I460
sssS'Danijel.csv'
p38
(dp39
g3
(dp40
g5
I770
sg6
I44
sg7
I1
sg8
I0
sg9
I3
sg10
I33
sg11
I770
ssg12
(dp41
g5
I1964
sg6
I44
sg7
I1
sg8
I83
sg9
I3
sg10
I6
sg11
I940
ssg14
(dp42
g5
I1337
sg6
I45
sg7
I1
sg8
I48
sg9
I2
sg10
I6
sg11
I1060
ssg16
(dp43
g5
I630
sg6
I41
sg7
I2
sg8
I0
sg9
I5
sg10
I22
sg11
I630
ssg18
(dp44
g5
I896
sg6
I44
sg7
I1
sg8
I31
sg9
I3
sg10
I2
sg11
I680
ssg20
(dp45
g5
I1018
sg6
I45
sg7
I1
sg8
I46
sg9
I2
sg10
I4
sg11
I760
sss.(dp0
S'K_all3.csv'
p1
(dp2
S'none'
p3
(dp4
S'count'
p5
I680
sS'truepos'
p6
I36
sS'falseneg'
p7
I2
sS'correction'
p8
I0
sS'unknownyes'
p9
I7
sS'falsepos'
p10
I33
sS'unique'
p11
I680
ssS'three'
p12
(dp13
g5
I967
sg6
I37
sg7
I0
sg8
I46
sg9
I8
sg10
I3
sg11
I460
ssS'machine'
p14
(dp15
g5
I563
sg6
I30
sg7
I5
sg8
I15
sg9
I10
sg10
I1
sg11
I460
ssS'machine4'
p16
(dp17
g5
I540
sg6
I36
sg7
I2
sg8
I0
sg9
I7
sg10
I19
sg11
I540
ssS'machine3'
p18
(dp19
g5
I617
sg6
I34
sg7
I0
sg8
I24
sg9
I11
sg10
I2
sg11
I480
ssS'machine2'
p20
(dp21
g5
I596
sg6
I38
sg7
I0
sg8
I24
sg9
I7
sg10
I2
sg11
I450
sssS'Wahono.csv'
p22
(dp23
g3
(dp24
g5
I2300
sg6
I54
sg7
I4
sg8
I0
sg9
I4
sg10
I110
sg11
I2300
ssg12
(dp25
g5
I2911
sg6
I59
sg7
I2
sg8
I128
sg9
I1
sg10
I7
sg11
I1390
ssg14
(dp26
g5
I1369
sg6
I58
sg7
I2
sg8
I62
sg9
I2
sg10
I1
sg11
I1060
ssg16
(dp27
g5
I2210
sg6
I59
sg7
I0
sg8
I0
sg9
I3
sg10
I104
sg11
I2210
ssg18
(dp28
g5
I1629
sg6
I59
sg7
I0
sg8
I55
sg9
I3
sg10
I5
sg11
I1230
ssg20
(dp29
g5
I1668
sg6
I58
sg7
I1
sg8
I62
sg9
I3
sg10
I9
sg11
I1260
sssS'Hall.csv'
p30
(dp31
g3
(dp32
g5
I1810
sg6
I101
sg7
I2
sg8
I0
sg9
I3
sg10
I101
sg11
I1810
ssg12
(dp33
g5
I1348
sg6
I102
sg7
I0
sg8
I67
sg9
I4
sg10
I6
sg11
I640
ssg14
(dp34
g5
I563
sg6
I94
sg7
I7
sg8
I20
sg9
I5
sg10
I2
sg11
I410
ssg16
(dp35
g5
I1620
sg6
I93
sg7
I9
sg8
I0
sg9
I4
sg10
I78
sg11
I1620
ssg18
(dp36
g5
I774
sg6
I100
sg7
I2
sg8
I27
sg9
I4
sg10
I1
sg11
I520
ssg20
(dp37
g5
I703
sg6
I98
sg7
I4
sg8
I25
sg9
I4
sg10
I5
sg11
I500
sssS'Danijel.csv'
p38
(dp39
g3
(dp40
g5
I1050
sg6
I44
sg7
I2
sg8
I0
sg9
I2
sg10
I41
sg11
I1050
ssg12
(dp41
g5
I1455
sg6
I45
sg7
I0
sg8
I74
sg9
I3
sg10
I1
sg11
I690
ssg14
(dp42
g5
I1115
sg6
I43
sg7
I2
sg8
I50
sg9
I3
sg10
I9
sg11
I860
ssg16
(dp43
g5
I850
sg6
I42
sg7
I3
sg8
I0
sg9
I3
sg10
I46
sg11
I850
ssg18
(dp44
g5
I1049
sg6
I45
sg7
I1
sg8
I40
sg9
I2
sg10
I0
sg11
I790
ssg20
(dp45
g5
I1062
sg6
I44
sg7
I1
sg8
I37
sg9
I3
sg10
I3
sg11
I810
sss.(dp0
S'K_all3.csv'
p1
(dp2
S'none'
p3
(dp4
S'count'
p5
I480
sS'truepos'
p6
I34
sS'falseneg'
p7
I2
sS'correction'
p8
I0
sS'unknownyes'
p9
I9
sS'falsepos'
p10
I27
sS'unique'
p11
I480
ssS'three'
p12
(dp13
g5
I948
sg6
I37
sg7
I0
sg8
I46
sg9
I8
sg10
I4
sg11
I450
ssS'machine'
p14
(dp15
g5
I558
sg6
I34
sg7
I5
sg8
I20
sg9
I6
sg10
I1
sg11
I460
ssS'machine4'
p16
(dp17
g5
I430
sg6
I34
sg7
I1
sg8
I0
sg9
I10
sg10
I23
sg11
I430
ssS'machine3'
p18
(dp19
g5
I575
sg6
I35
sg7
I3
sg8
I28
sg9
I7
sg10
I4
sg11
I450
ssS'machine2'
p20
(dp21
g5
I573
sg6
I33
sg7
I0
sg8
I17
sg9
I12
sg10
I3
sg11
I460
sssS'Wahono.csv'
p22
(dp23
g3
(dp24
g5
I2500
sg6
I56
sg7
I4
sg8
I0
sg9
I2
sg10
I122
sg11
I2500
ssg12
(dp25
g5
I3105
sg6
I58
sg7
I1
sg8
I140
sg9
I3
sg10
I18
sg11
I1480
ssg14
(dp26
g5
I1536
sg6
I56
sg7
I2
sg8
I70
sg9
I4
sg10
I4
sg11
I1210
ssg16
(dp27
g5
I2130
sg6
I57
sg7
I4
sg8
I0
sg9
I1
sg10
I95
sg11
I2130
ssg18
(dp28
g5
I1815
sg6
I58
sg7
I1
sg8
I81
sg9
I3
sg10
I4
sg11
I1360
ssg20
(dp29
g5
I1741
sg6
I60
sg7
I0
sg8
I70
sg9
I2
sg10
I5
sg11
I1310
sssS'Hall.csv'
p30
(dp31
g3
(dp32
g5
I1570
sg6
I97
sg7
I7
sg8
I0
sg9
I2
sg10
I76
sg11
I1570
ssg12
(dp33
g5
I1048
sg6
I102
sg7
I0
sg8
I48
sg9
I4
sg10
I0
sg11
I500
ssg14
(dp34
g5
I491
sg6
I96
sg7
I4
sg8
I9
sg9
I6
sg10
I1
sg11
I360
ssg16
(dp35
g5
I720
sg6
I96
sg7
I6
sg8
I0
sg9
I4
sg10
I27
sg11
I720
ssg18
(dp36
g5
I778
sg6
I101
sg7
I1
sg8
I29
sg9
I4
sg10
I4
sg11
I520
ssg20
(dp37
g5
I834
sg6
I100
sg7
I2
sg8
I35
sg9
I4
sg10
I3
sg11
I570
sssS'Danijel.csv'
p38
(dp39
g3
(dp40
g5
I1570
sg6
I44
sg7
I2
sg8
I0
sg9
I2
sg10
I85
sg11
I1570
ssg12
(dp41
g5
I1848
sg6
I46
sg7
I0
sg8
I88
sg9
I2
sg10
I2
sg11
I880
ssg14
(dp42
g5
I1105
sg6
I44
sg7
I2
sg8
I45
sg9
I2
sg10
I5
sg11
I860
ssg16
(dp43
g5
I1220
sg6
I40
sg7
I5
sg8
I0
sg9
I3
sg10
I55
sg11
I1220
ssg18
(dp44
g5
I1031
sg6
I43
sg7
I2
sg8
I42
sg9
I3
sg10
I3
sg11
I780
ssg20
(dp45
g5
I1324
sg6
I44
sg7
I1
sg8
I51
sg9
I3
sg10
I8
sg11
I1010
sss.(dp0
S'K_all3.csv'
p1
(dp2
S'none'
p3
(dp4
S'count'
p5
I440
sS'truepos'
p6
I33
sS'falseneg'
p7
I1
sS'correction'
p8
I0
sS'unknownyes'
p9
I11
sS'falsepos'
p10
I28
sS'unique'
p11
I440
ssS'three'
p12
(dp13
g5
I940
sg6
I34
sg7
I1
sg8
I38
sg9
I10
sg10
I2
sg11
I450
ssS'machine'
p14
(dp15
g5
I667
sg6
I35
sg7
I3
sg8
I29
sg9
I7
sg10
I1
sg11
I550
ssS'machine4'
p16
(dp17
g5
I400
sg6
I33
sg7
I0
sg8
I0
sg9
I12
sg10
I24
sg11
I400
ssS'machine3'
p18
(dp19
g5
I535
sg6
I36
sg7
I2
sg8
I14
sg9
I7
sg10
I3
sg11
I440
ssS'machine2'
p20
(dp21
g5
I544
sg6
I36
sg7
I0
sg8
I21
sg9
I9
sg10
I3
sg11
I410
sssS'Wahono.csv'
p22
(dp23
g3
(dp24
g5
I2560
sg6
I57
sg7
I4
sg8
I0
sg9
I1
sg10
I133
sg11
I2560
ssg12
(dp25
g5
I2861
sg6
I59
sg7
I1
sg8
I137
sg9
I2
sg10
I10
sg11
I1360
ssg14
(dp26
g5
I1458
sg6
I56
sg7
I3
sg8
I51
sg9
I3
sg10
I4
sg11
I1150
ssg16
(dp27
g5
I1560
sg6
I55
sg7
I2
sg8
I0
sg9
I5
sg10
I78
sg11
I1560
ssg18
(dp28
g5
I1517
sg6
I59
sg7
I0
sg8
I65
sg9
I3
sg10
I3
sg11
I1140
ssg20
(dp29
g5
I1347
sg6
I59
sg7
I0
sg8
I50
sg9
I3
sg10
I1
sg11
I1010
sssS'Hall.csv'
p30
(dp31
g3
(dp32
g5
I880
sg6
I94
sg7
I8
sg8
I0
sg9
I4
sg10
I28
sg11
I880
ssg12
(dp33
g5
I996
sg6
I101
sg7
I1
sg8
I36
sg9
I4
sg10
I2
sg11
I480
ssg14
(dp34
g5
I652
sg6
I99
sg7
I2
sg8
I24
sg9
I5
sg10
I1
sg11
I460
ssg16
(dp35
g5
I2440
sg6
I96
sg7
I7
sg8
I0
sg9
I3
sg10
I121
sg11
I2440
ssg18
(dp36
g5
I696
sg6
I101
sg7
I1
sg8
I23
sg9
I4
sg10
I1
sg11
I460
ssg20
(dp37
g5
I676
sg6
I99
sg7
I3
sg8
I19
sg9
I4
sg10
I3
sg11
I470
sssS'Danijel.csv'
p38
(dp39
g3
(dp40
g5
I1180
sg6
I44
sg7
I0
sg8
I0
sg9
I4
sg10
I52
sg11
I1180
ssg12
(dp41
g5
I2071
sg6
I45
sg7
I0
sg8
I109
sg9
I3
sg10
I9
sg11
I980
ssg14
(dp42
g5
I1076
sg6
I43
sg7
I2
sg8
I33
sg9
I3
sg10
I3
sg11
I860
ssg16
(dp43
g5
I1300
sg6
I41
sg7
I3
sg8
I0
sg9
I4
sg10
I74
sg11
I1300
ssg18
(dp44
g5
I1342
sg6
I44
sg7
I1
sg8
I55
sg9
I3
sg10
I7
sg11
I1010
ssg20
(dp45
g5
I1078
sg6
I45
sg7
I0
sg8
I49
sg9
I3
sg10
I2
sg11
I810
sss.(dp0
S'K_all3.csv'
p1
(dp2
S'none'
p3
(dp4
S'count'
p5
I400
sS'truepos'
p6
I29
sS'falseneg'
p7
I1
sS'correction'
p8
I0
sS'unknownyes'
p9
I15
sS'falsepos'
p10
I18
sS'unique'
p11
I400
ssS'three'
p12
(dp13
g5
I1043
sg6
I35
sg7
I0
sg8
I43
sg9
I10
sg10
I2
sg11
I500
ssS'machine'
p14
(dp15
g5
I603
sg6
I35
sg7
I0
sg8
I24
sg9
I10
sg10
I1
sg11
I480
ssS'machine4'
p16
(dp17
g5
I500
sg6
I31
sg7
I3
sg8
I0
sg9
I11
sg10
I26
sg11
I500
ssS'machine3'
p18
(dp19
g5
I599
sg6
I35
sg7
I2
sg8
I26
sg9
I8
sg10
I4
sg11
I470
ssS'machine2'
p20
(dp21
g5
I607
sg6
I33
sg7
I2
sg8
I28
sg9
I10
sg10
I3
sg11
I460
sssS'Wahono.csv'
p22
(dp23
g3
(dp24
g5
I1220
sg6
I50
sg7
I6
sg8
I0
sg9
I6
sg10
I46
sg11
I1220
ssg12
(dp25
g5
I3019
sg6
I59
sg7
I0
sg8
I155
sg9
I3
sg10
I11
sg11
I1430
ssg14
(dp26
g5
I2012
sg6
I59
sg7
I0
sg8
I91
sg9
I3
sg10
I8
sg11
I1570
ssg16
(dp27
g5
I2590
sg6
I55
sg7
I6
sg8
I0
sg9
I1
sg10
I144
sg11
I2590
ssg18
(dp28
g5
I1917
sg6
I57
sg7
I2
sg8
I81
sg9
I3
sg10
I12
sg11
I1440
ssg20
(dp29
g5
I1758
sg6
I59
sg7
I0
sg8
I75
sg9
I3
sg10
I11
sg11
I1310
sssS'Hall.csv'
p30
(dp31
g3
(dp32
g5
I1140
sg6
I95
sg7
I7
sg8
I0
sg9
I4
sg10
I42
sg11
I1140
ssg12
(dp33
g5
I945
sg6
I100
sg7
I2
sg8
I43
sg9
I4
sg10
I1
sg11
I450
ssg14
(dp34
g5
I651
sg6
I97
sg7
I3
sg8
I27
sg9
I6
sg10
I5
sg11
I460
ssg16
(dp35
g5
I2050
sg6
I94
sg7
I8
sg8
I0
sg9
I4
sg10
I111
sg11
I2050
ssg18
(dp36
g5
I770
sg6
I99
sg7
I3
sg8
I21
sg9
I4
sg10
I1
sg11
I530
ssg20
(dp37
g5
I781
sg6
I102
sg7
I1
sg8
I22
sg9
I3
sg10
I4
sg11
I560
sssS'Danijel.csv'
p38
(dp39
g3
(dp40
g5
I1380
sg6
I42
sg7
I2
sg8
I0
sg9
I4
sg10
I65
sg11
I1380
ssg12
(dp41
g5
I1711
sg6
I45
sg7
I0
sg8
I68
sg9
I3
sg10
I5
sg11
I820
ssg14
(dp42
g5
I1145
sg6
I45
sg7
I1
sg8
I48
sg9
I2
sg10
I4
sg11
I890
ssg16
(dp43
g5
I1450
sg6
I44
sg7
I3
sg8
I0
sg9
I1
sg10
I71
sg11
I1450
ssg18
(dp44
g5
I1132
sg6
I45
sg7
I1
sg8
I59
sg9
I2
sg10
I5
sg11
I830
ssg20
(dp45
g5
I1062
sg6
I42
sg7
I3
sg8
I34
sg9
I3
sg10
I3
sg11
I810
sss.(dp0
S'K_all3.csv'
p1
(dp2
S'none'
p3
(dp4
S'count'
p5
I360
sS'truepos'
p6
I33
sS'falseneg'
p7
I0
sS'correction'
p8
I0
sS'unknownyes'
p9
I12
sS'falsepos'
p10
I19
sS'unique'
p11
I360
ssS'three'
p12
(dp13
g5
I1031
sg6
I39
sg7
I0
sg8
I47
sg9
I6
sg10
I5
sg11
I490
ssS'machine'
p14
(dp15
g5
I615
sg6
I34
sg7
I1
sg8
I35
sg9
I10
sg10
I2
sg11
I500
ssS'machine4'
p16
(dp17
g5
I410
sg6
I35
sg7
I2
sg8
I0
sg9
I8
sg10
I13
sg11
I410
ssS'machine3'
p18
(dp19
g5
I680
sg6
I38
sg7
I0
sg8
I26
sg9
I7
sg10
I1
sg11
I550
ssS'machine2'
p20
(dp21
g5
I555
sg6
I34
sg7
I1
sg8
I21
sg9
I10
sg10
I4
sg11
I430
sssS'Wahono.csv'
p22
(dp23
g3
(dp24
g5
I1930
sg6
I57
sg7
I3
sg8
I0
sg9
I2
sg10
I92
sg11
I1930
ssg12
(dp25
g5
I3188
sg6
I60
sg7
I1
sg8
I145
sg9
I1
sg10
I7
sg11
I1520
ssg14
(dp26
g5
I1558
sg6
I57
sg7
I2
sg8
I67
sg9
I3
sg10
I6
sg11
I1210
ssg16
(dp27
g5
I2160
sg6
I58
sg7
I2
sg8
I0
sg9
I2
sg10
I120
sg11
I2160
ssg18
(dp28
g5
I1654
sg6
I58
sg7
I1
sg8
I92
sg9
I3
sg10
I3
sg11
I1210
ssg20
(dp29
g5
I2186
sg6
I60
sg7
I1
sg8
I84
sg9
I1
sg10
I12
sg11
I1660
sssS'Hall.csv'
p30
(dp31
g3
(dp32
g5
I1500
sg6
I92
sg7
I11
sg8
I0
sg9
I3
sg10
I79
sg11
I1500
ssg12
(dp33
g5
I1029
sg6
I101
sg7
I1
sg8
I48
sg9
I4
sg10
I3
sg11
I490
ssg14
(dp34
g5
I621
sg6
I95
sg7
I7
sg8
I17
sg9
I4
sg10
I3
sg11
I450
ssg16
(dp35
g5
I1660
sg6
I95
sg7
I8
sg8
I0
sg9
I3
sg10
I68
sg11
I1660
ssg18
(dp36
g5
I768
sg6
I98
sg7
I3
sg8
I33
sg9
I5
sg10
I4
sg11
I510
ssg20
(dp37
g5
I879
sg6
I102
sg7
I0
sg8
I39
sg9
I4
sg10
I6
sg11
I610
sssS'Danijel.csv'
p38
(dp39
g3
(dp40
g5
I1760
sg6
I44
sg7
I2
sg8
I0
sg9
I2
sg10
I95
sg11
I1760
ssg12
(dp41
g5
I2209
sg6
I46
sg7
I0
sg8
I87
sg9
I2
sg10
I8
sg11
I1060
ssg14
(dp42
g5
I1037
sg6
I42
sg7
I4
sg8
I57
sg9
I2
sg10
I3
sg11
I810
ssg16
(dp43
g5
I1420
sg6
I47
sg7
I0
sg8
I0
sg9
I1
sg10
I68
sg11
I1420
ssg18
(dp44
g5
I1479
sg6
I45
sg7
I1
sg8
I52
sg9
I2
sg10
I5
sg11
I1130
ssg20
(dp45
g5
I1148
sg6
I43
sg7
I2
sg8
I50
sg9
I3
sg10
I5
sg11
I860
sss.(dp0
S'K_all3.csv'
p1
(dp2
S'none'
p3
(dp4
S'count'
p5
I450
sS'truepos'
p6
I36
sS'falseneg'
p7
I0
sS'correction'
p8
I0
sS'unknownyes'
p9
I9
sS'falsepos'
p10
I17
sS'unique'
p11
I450
ssS'three'
p12
(dp13
g5
I925
sg6
I36
sg7
I1
sg8
I43
sg9
I8
sg10
I3
sg11
I440
ssS'machine'
p14
(dp15
g5
I546
sg6
I36
sg7
I2
sg8
I27
sg9
I7
sg10
I3
sg11
I440
ssS'machine4'
p16
(dp17
g5
I390
sg6
I36
sg7
I1
sg8
I0
sg9
I8
sg10
I17
sg11
I390
ssS'machine3'
p18
(dp19
g5
I577
sg6
I37
sg7
I1
sg8
I24
sg9
I7
sg10
I1
sg11
I450
ssS'machine2'
p20
(dp21
g5
I478
sg6
I32
sg7
I0
sg8
I17
sg9
I13
sg10
I4
sg11
I360
sssS'Wahono.csv'
p22
(dp23
g3
(dp24
g5
I2620
sg6
I57
sg7
I2
sg8
I0
sg9
I3
sg10
I112
sg11
I2620
ssg12
(dp25
g5
I2680
sg6
I61
sg7
I0
sg8
I118
sg9
I1
sg10
I5
sg11
I1280
ssg14
(dp26
g5
I1431
sg6
I56
sg7
I3
sg8
I66
sg9
I3
sg10
I4
sg11
I1110
ssg16
(dp27
g5
I1760
sg6
I56
sg7
I3
sg8
I0
sg9
I3
sg10
I85
sg11
I1760
ssg18
(dp28
g5
I1679
sg6
I59
sg7
I1
sg8
I78
sg9
I2
sg10
I5
sg11
I1240
ssg20
(dp29
g5
I1855
sg6
I60
sg7
I0
sg8
I75
sg9
I2
sg10
I5
sg11
I1410
sssS'Hall.csv'
p30
(dp31
g3
(dp32
g5
I1810
sg6
I97
sg7
I6
sg8
I0
sg9
I3
sg10
I76
sg11
I1810
ssg12
(dp33
g5
I924
sg6
I101
sg7
I0
sg8
I43
sg9
I5
sg10
I1
sg11
I440
ssg14
(dp34
g5
I703
sg6
I101
sg7
I1
sg8
I28
sg9
I4
sg10
I2
sg11
I510
ssg16
(dp35
g5
I1390
sg6
I99
sg7
I4
sg8
I0
sg9
I3
sg10
I63
sg11
I1390
ssg18
(dp36
g5
I847
sg6
I101
sg7
I1
sg8
I38
sg9
I4
sg10
I5
sg11
I570
ssg20
(dp37
g5
I596
sg6
I100
sg7
I1
sg8
I14
sg9
I5
sg10
I3
sg11
I410
sssS'Danijel.csv'
p38
(dp39
g3
(dp40
g5
I1130
sg6
I43
sg7
I3
sg8
I0
sg9
I2
sg10
I52
sg11
I1130
ssg12
(dp41
g5
I1438
sg6
I46
sg7
I0
sg8
I58
sg9
I2
sg10
I3
sg11
I690
ssg14
(dp42
g5
I1094
sg6
I45
sg7
I1
sg8
I50
sg9
I2
sg10
I3
sg11
I860
ssg16
(dp43
g5
I1350
sg6
I44
sg7
I1
sg8
I0
sg9
I3
sg10
I73
sg11
I1350
ssg18
(dp44
g5
I1207
sg6
I44
sg7
I1
sg8
I61
sg9
I3
sg10
I7
sg11
I900
ssg20
(dp45
g5
I1126
sg6
I43
sg7
I2
sg8
I42
sg9
I3
sg10
I3
sg11
I850
sss.(dp0
S'K_all3.csv'
p1
(dp2
S'none'
p3
(dp4
S'count'
p5
I410
sS'truepos'
p6
I29
sS'falseneg'
p7
I3
sS'correction'
p8
I0
sS'unknownyes'
p9
I13
sS'falsepos'
p10
I18
sS'unique'
p11
I410
ssS'three'
p12
(dp13
g5
I951
sg6
I37
sg7
I0
sg8
I31
sg9
I8
sg10
I1
sg11
I460
ssS'machine'
p14
(dp15
g5
I612
sg6
I33
sg7
I2
sg8
I23
sg9
I10
sg10
I2
sg11
I500
ssS'machine4'
p16
(dp17
g5
I420
sg6
I32
sg7
I1
sg8
I0
sg9
I12
sg10
I14
sg11
I420
ssS'machine3'
p18
(dp19
g5
I674
sg6
I32
sg7
I4
sg8
I24
sg9
I9
sg10
I2
sg11
I550
ssS'machine2'
p20
(dp21
g5
I647
sg6
I34
sg7
I1
sg8
I32
sg9
I10
sg10
I2
sg11
I500
sssS'Wahono.csv'
p22
(dp23
g3
(dp24
g5
I2250
sg6
I60
sg7
I0
sg8
I0
sg9
I2
sg10
I97
sg11
I2250
ssg12
(dp25
g5
I3519
sg6
I60
sg7
I0
sg8
I153
sg9
I2
sg10
I16
sg11
I1680
ssg14
(dp26
g5
I1121
sg6
I56
sg7
I3
sg8
I57
sg9
I3
sg10
I4
sg11
I860
ssg16
(dp27
g5
I2660
sg6
I52
sg7
I8
sg8
I0
sg9
I2
sg10
I124
sg11
I2660
ssg18
(dp28
g5
I1882
sg6
I60
sg7
I0
sg8
I74
sg9
I2
sg10
I11
sg11
I1420
ssg20
(dp29
g5
I1713
sg6
I58
sg7
I1
sg8
I70
sg9
I3
sg10
I10
sg11
I1290
sssS'Hall.csv'
p30
(dp31
g3
(dp32
g5
I730
sg6
I99
sg7
I4
sg8
I0
sg9
I3
sg10
I33
sg11
I730
ssg12
(dp33
g5
I1764
sg6
I102
sg7
I1
sg8
I79
sg9
I3
sg10
I10
sg11
I840
ssg14
(dp34
g5
I653
sg6
I99
sg7
I3
sg8
I26
sg9
I4
sg10
I2
sg11
I460
ssg16
(dp35
g5
I1740
sg6
I97
sg7
I5
sg8
I0
sg9
I4
sg10
I94
sg11
I1740
ssg18
(dp36
g5
I712
sg6
I100
sg7
I2
sg8
I25
sg9
I4
sg10
I1
sg11
I480
ssg20
(dp37
g5
I725
sg6
I100
sg7
I2
sg8
I26
sg9
I4
sg10
I3
sg11
I510
sssS'Danijel.csv'
p38
(dp39
g3
(dp40
g5
I740
sg6
I40
sg7
I4
sg8
I0
sg9
I4
sg10
I36
sg11
I740
ssg12
(dp41
g5
I1880
sg6
I46
sg7
I0
sg8
I79
sg9
I2
sg10
I6
sg11
I900
ssg14
(dp42
g5
I970
sg6
I41
sg7
I4
sg8
I35
sg9
I3
sg10
I4
sg11
I760
ssg16
(dp43
g5
I1580
sg6
I44
sg7
I2
sg8
I0
sg9
I2
sg10
I73
sg11
I1580
ssg18
(dp44
g5
I1133
sg6
I46
sg7
I0
sg8
I54
sg9
I2
sg10
I6
sg11
I840
ssg20
(dp45
g5
I1494
sg6
I45
sg7
I0
sg8
I78
sg9
I3
sg10
I7
sg11
I1110
sss.(dp0
S'K_all3.csv'
p1
(dp2
S'none'
p3
(dp4
S'count'
p5
I510
sS'truepos'
p6
I28
sS'falseneg'
p7
I4
sS'correction'
p8
I0
sS'unknownyes'
p9
I13
sS'falsepos'
p10
I31
sS'unique'
p11
I510
ssS'three'
p12
(dp13
g5
I1049
sg6
I35
sg7
I0
sg8
I48
sg9
I10
sg10
I4
sg11
I500
ssS'machine'
p14
(dp15
g5
I561
sg6
I31
sg7
I1
sg8
I21
sg9
I13
sg10
I4
sg11
I450
ssS'machine4'
p16
(dp17
g5
I440
sg6
I38
sg7
I0
sg8
I0
sg9
I7
sg10
I22
sg11
I440
ssS'machine3'
p18
(dp19
g5
I597
sg6
I34
sg7
I0
sg8
I19
sg9
I11
sg10
I3
sg11
I480
ssS'machine2'
p20
(dp21
g5
I587
sg6
I31
sg7
I3
sg8
I22
sg9
I11
sg10
I2
sg11
I460
sssS'Wahono.csv'
p22
(dp23
g3
(dp24
g5
I2460
sg6
I55
sg7
I6
sg8
I0
sg9
I1
sg10
I130
sg11
I2460
ssg12
(dp25
g5
I3244
sg6
I60
sg7
I1
sg8
I137
sg9
I1
sg10
I16
sg11
I1550
ssg14
(dp26
g5
I1492
sg6
I58
sg7
I1
sg8
I57
sg9
I3
sg10
I5
sg11
I1170
ssg16
(dp27
g5
I1970
sg6
I53
sg7
I4
sg8
I0
sg9
I5
sg10
I107
sg11
I1970
ssg18
(dp28
g5
I1696
sg6
I59
sg7
I0
sg8
I77
sg9
I3
sg10
I6
sg11
I1260
ssg20
(dp29
g5
I1738
sg6
I59
sg7
I0
sg8
I70
sg9
I3
sg10
I6
sg11
I1310
sssS'Hall.csv'
p30
(dp31
g3
(dp32
g5
I1690
sg6
I96
sg7
I7
sg8
I0
sg9
I3
sg10
I75
sg11
I1690
ssg12
(dp33
g5
I962
sg6
I102
sg7
I0
sg8
I41
sg9
I4
sg10
I2
sg11
I460
ssg14
(dp34
g5
I703
sg6
I101
sg7
I1
sg8
I28
sg9
I4
sg10
I4
sg11
I510
ssg16
(dp35
g5
I1470
sg6
I98
sg7
I4
sg8
I0
sg9
I4
sg10
I70
sg11
I1470
ssg18
(dp36
g5
I947
sg6
I102
sg7
I0
sg8
I40
sg9
I4
sg10
I7
sg11
I650
ssg20
(dp37
g5
I752
sg6
I101
sg7
I1
sg8
I19
sg9
I4
sg10
I2
sg11
I520
sssS'Danijel.csv'
p38
(dp39
g3
(dp40
g5
I1840
sg6
I46
sg7
I0
sg8
I0
sg9
I2
sg10
I101
sg11
I1840
ssg12
(dp41
g5
I1880
sg6
I46
sg7
I0
sg8
I78
sg9
I2
sg10
I8
sg11
I900
ssg14
(dp42
g5
I818
sg6
I43
sg7
I1
sg8
I34
sg9
I4
sg10
I3
sg11
I640
ssg16
(dp43
g5
I1470
sg6
I43
sg7
I2
sg8
I0
sg9
I3
sg10
I79
sg11
I1470
ssg18
(dp44
g5
I826
sg6
I45
sg7
I0
sg8
I26
sg9
I3
sg10
I4
sg11
I630
ssg20
(dp45
g5
I1001
sg6
I44
sg7
I1
sg8
I40
sg9
I3
sg10
I1
sg11
I770
sss.(dp0
S'K_all3.csv'
p1
(dp2
S'none'
p3
(dp4
S'count'
p5
I470
sS'truepos'
p6
I30
sS'falseneg'
p7
I3
sS'correction'
p8
I0
sS'unknownyes'
p9
I12
sS'falsepos'
p10
I23
sS'unique'
p11
I470
ssS'three'
p12
(dp13
g5
I899
sg6
I38
sg7
I0
sg8
I37
sg9
I7
sg10
I3
sg11
I430
ssS'machine'
p14
(dp15
g5
I611
sg6
I34
sg7
I4
sg8
I32
sg9
I7
sg10
I2
sg11
I510
ssS'machine4'
p16
(dp17
g5
I510
sg6
I31
sg7
I5
sg8
I0
sg9
I9
sg10
I19
sg11
I510
ssS'machine3'
p18
(dp19
g5
I582
sg6
I33
sg7
I0
sg8
I17
sg9
I12
sg10
I3
sg11
I470
ssS'machine2'
p20
(dp21
g5
I525
sg6
I31
sg7
I0
sg8
I20
sg9
I14
sg10
I4
sg11
I410
sssS'Wahono.csv'
p22
(dp23
g3
(dp24
g5
I1710
sg6
I56
sg7
I1
sg8
I0
sg9
I5
sg10
I74
sg11
I1710
ssg12
(dp25
g5
I2791
sg6
I59
sg7
I1
sg8
I110
sg9
I2
sg10
I6
sg11
I1340
ssg14
(dp26
g5
I1535
sg6
I56
sg7
I3
sg8
I66
sg9
I3
sg10
I5
sg11
I1190
ssg16
(dp27
g5
I2310
sg6
I57
sg7
I2
sg8
I0
sg9
I3
sg10
I107
sg11
I2310
ssg18
(dp28
g5
I1915
sg6
I60
sg7
I0
sg8
I78
sg9
I2
sg10
I7
sg11
I1440
ssg20
(dp29
g5
I1894
sg6
I60
sg7
I1
sg8
I78
sg9
I1
sg10
I3
sg11
I1420
sssS'Hall.csv'
p30
(dp31
g3
(dp32
g5
I2400
sg6
I103
sg7
I2
sg8
I0
sg9
I1
sg10
I99
sg11
I2400
ssg12
(dp33
g5
I970
sg6
I100
sg7
I1
sg8
I48
sg9
I5
sg10
I2
sg11
I460
ssg14
(dp34
g5
I582
sg6
I98
sg7
I2
sg8
I14
sg9
I6
sg10
I3
sg11
I410
ssg16
(dp35
g5
I1750
sg6
I97
sg7
I6
sg8
I0
sg9
I3
sg10
I92
sg11
I1750
ssg18
(dp36
g5
I863
sg6
I100
sg7
I2
sg8
I36
sg9
I4
sg10
I6
sg11
I590
ssg20
(dp37
g5
I992
sg6
I102
sg7
I0
sg8
I35
sg9
I4
sg10
I6
sg11
I680
sssS'Danijel.csv'
p38
(dp39
g3
(dp40
g5
I1480
sg6
I43
sg7
I2
sg8
I0
sg9
I3
sg10
I79
sg11
I1480
ssg12
(dp41
g5
I1554
sg6
I45
sg7
I0
sg8
I73
sg9
I3
sg10
I4
sg11
I740
ssg14
(dp42
g5
I988
sg6
I45
sg7
I0
sg8
I48
sg9
I3
sg10
I6
sg11
I760
ssg16
(dp43
g5
I1070
sg6
I45
sg7
I1
sg8
I0
sg9
I2
sg10
I41
sg11
I1070
ssg18
(dp44
g5
I1138
sg6
I46
sg7
I0
sg8
I48
sg9
I2
sg10
I5
sg11
I850
ssg20
(dp45
g5
I1155
sg6
I44
sg7
I2
sg8
I38
sg9
I2
sg10
I4
sg11
I890
sss.(dp0
S'K_all3.csv'
p1
(dp2
S'none'
p3
(dp4
S'count'
p5
I800
sS'truepos'
p6
I33
sS'falseneg'
p7
I4
sS'correction'
p8
I0
sS'unknownyes'
p9
I8
sS'falsepos'
p10
I40
sS'unique'
p11
I800
ssS'three'
p12
(dp13
g5
I1036
sg6
I34
sg7
I1
sg8
I55
sg9
I10
sg10
I1
sg11
I490
ssS'machine'
p14
(dp15
g5
I635
sg6
I35
sg7
I1
sg8
I25
sg9
I9
sg10
I5
sg11
I520
ssS'machine4'
p16
(dp17
g5
I510
sg6
I37
sg7
I2
sg8
I0
sg9
I6
sg10
I28
sg11
I510
ssS'machine3'
p18
(dp19
g5
I640
sg6
I36
sg7
I3
sg8
I35
sg9
I6
sg10
I2
sg11
I490
ssS'machine2'
p20
(dp21
g5
I600
sg6
I33
sg7
I1
sg8
I28
sg9
I11
sg10
I1
sg11
I460
sssS'Wahono.csv'
p22
(dp23
g3
(dp24
g5
I1950
sg6
I55
sg7
I4
sg8
I0
sg9
I3
sg10
I100
sg11
I1950
ssg12
(dp25
g5
I2671
sg6
I58
sg7
I1
sg8
I108
sg9
I3
sg10
I8
sg11
I1280
ssg14
(dp26
g5
I1606
sg6
I57
sg7
I2
sg8
I76
sg9
I3
sg10
I5
sg11
I1240
ssg16
(dp27
g5
I2420
sg6
I56
sg7
I4
sg8
I0
sg9
I2
sg10
I136
sg11
I2420
ssg18
(dp28
g5
I1268
sg6
I57
sg7
I2
sg8
I45
sg9
I3
sg10
I1
sg11
I960
ssg20
(dp29
g5
I1407
sg6
I55
sg7
I3
sg8
I52
sg9
I4
sg10
I2
sg11
I1060
sssS'Hall.csv'
p30
(dp31
g3
(dp32
g5
I1700
sg6
I97
sg7
I5
sg8
I0
sg9
I4
sg10
I75
sg11
I1700
ssg12
(dp33
g5
I1103
sg6
I102
sg7
I0
sg8
I42
sg9
I4
sg10
I4
sg11
I530
ssg14
(dp34
g5
I652
sg6
I97
sg7
I4
sg8
I29
sg9
I5
sg10
I5
sg11
I460
ssg16
(dp35
g5
I1610
sg6
I100
sg7
I4
sg8
I0
sg9
I2
sg10
I66
sg11
I1610
ssg18
(dp36
g5
I633
sg6
I100
sg7
I2
sg8
I22
sg9
I4
sg10
I1
sg11
I410
ssg20
(dp37
g5
I639
sg6
I98
sg7
I3
sg8
I18
sg9
I5
sg10
I1
sg11
I450
sssS'Danijel.csv'
p38
(dp39
g3
(dp40
g5
I1200
sg6
I44
sg7
I1
sg8
I0
sg9
I3
sg10
I51
sg11
I1200
ssg12
(dp41
g5
I1574
sg6
I45
sg7
I0
sg8
I73
sg9
I3
sg10
I4
sg11
I750
ssg14
(dp42
g5
I1184
sg6
I45
sg7
I0
sg8
I56
sg9
I3
sg10
I5
sg11
I910
ssg16
(dp43
g5
I2310
sg6
I44
sg7
I2
sg8
I0
sg9
I2
sg10
I109
sg11
I2310
ssg18
(dp44
g5
I1306
sg6
I43
sg7
I3
sg8
I71
sg9
I2
sg10
I2
sg11
I970
ssg20
(dp45
g5
I1303
sg6
I44
sg7
I2
sg8
I61
sg9
I2
sg10
I7
sg11
I960
sss.(dp0
S'K_all3.csv'
p1
(dp2
S'none'
p3
(dp4
S'count'
p5
I420
sS'truepos'
p6
I36
sS'falseneg'
p7
I2
sS'correction'
p8
I0
sS'unknownyes'
p9
I7
sS'falsepos'
p10
I22
sS'unique'
p11
I420
ssS'three'
p12
(dp13
g5
I926
sg6
I32
sg7
I0
sg8
I45
sg9
I13
sg10
I4
sg11
I440
ssS'machine'
p14
(dp15
g5
I565
sg6
I35
sg7
I1
sg8
I25
sg9
I9
sg10
I0
sg11
I460
ssS'machine4'
p16
(dp17
g5
I370
sg6
I29
sg7
I1
sg8
I0
sg9
I15
sg10
I16
sg11
I370
ssS'machine3'
p18
(dp19
g5
I642
sg6
I37
sg7
I1
sg8
I33
sg9
I7
sg10
I3
sg11
I490
ssS'machine2'
p20
(dp21
g5
I489
sg6
I34
sg7
I1
sg8
I22
sg9
I10
sg10
I3
sg11
I360
sssS'Wahono.csv'
p22
(dp23
g3
(dp24
g5
I2760
sg6
I57
sg7
I4
sg8
I0
sg9
I1
sg10
I146
sg11
I2760
ssg12
(dp25
g5
I2678
sg6
I59
sg7
I1
sg8
I117
sg9
I2
sg10
I8
sg11
I1280
ssg14
(dp26
g5
I1608
sg6
I58
sg7
I1
sg8
I72
sg9
I3
sg10
I2
sg11
I1260
ssg16
(dp27
g5
I1190
sg6
I56
sg7
I2
sg8
I0
sg9
I4
sg10
I50
sg11
I1190
ssg18
(dp28
g5
I1770
sg6
I60
sg7
I0
sg8
I71
sg9
I2
sg10
I5
sg11
I1330
ssg20
(dp29
g5
I1336
sg6
I58
sg7
I2
sg8
I45
sg9
I2
sg10
I3
sg11
I1010
sssS'Hall.csv'
p30
(dp31
g3
(dp32
g5
I1380
sg6
I99
sg7
I4
sg8
I0
sg9
I3
sg10
I72
sg11
I1380
ssg12
(dp33
g5
I1146
sg6
I102
sg7
I0
sg8
I66
sg9
I4
sg10
I1
sg11
I540
ssg14
(dp34
g5
I702
sg6
I100
sg7
I2
sg8
I29
sg9
I4
sg10
I5
sg11
I510
ssg16
(dp35
g5
I2330
sg6
I99
sg7
I4
sg8
I0
sg9
I3
sg10
I106
sg11
I2330
ssg18
(dp36
g5
I724
sg6
I100
sg7
I1
sg8
I26
sg9
I5
sg10
I2
sg11
I490
ssg20
(dp37
g5
I917
sg6
I99
sg7
I3
sg8
I38
sg9
I4
sg10
I5
sg11
I630
sssS'Danijel.csv'
p38
(dp39
g3
(dp40
g5
I860
sg6
I45
sg7
I0
sg8
I0
sg9
I3
sg10
I35
sg11
I860
ssg12
(dp41
g5
I2136
sg6
I45
sg7
I1
sg8
I93
sg9
I2
sg10
I9
sg11
I1020
ssg14
(dp42
g5
I1154
sg6
I43
sg7
I2
sg8
I48
sg9
I3
sg10
I6
sg11
I910
ssg16
(dp43
g5
I1780
sg6
I43
sg7
I3
sg8
I0
sg9
I2
sg10
I98
sg11
I1780
ssg18
(dp44
g5
I980
sg6
I45
sg7
I0
sg8
I33
sg9
I3
sg10
I1
sg11
I740
ssg20
(dp45
g5
I1025
sg6
I43
sg7
I2
sg8
I43
sg9
I3
sg10
I5
sg11
I760
sss.(dp0
S'K_all3.csv'
p1
(dp2
S'none'
p3
(dp4
S'count'
p5
I460
sS'truepos'
p6
I30
sS'falseneg'
p7
I2
sS'correction'
p8
I0
sS'unknownyes'
p9
I13
sS'falsepos'
p10
I16
sS'unique'
p11
I460
ssS'three'
p12
(dp13
g5
I945
sg6
I35
sg7
I0
sg8
I44
sg9
I10
sg10
I3
sg11
I450
ssS'machine'
p14
(dp15
g5
I649
sg6
I38
sg7
I0
sg8
I19
sg9
I7
sg10
I0
sg11
I530
ssS'machine4'
p16
(dp17
g5
I440
sg6
I36
sg7
I1
sg8
I0
sg9
I8
sg10
I16
sg11
I440
ssS'machine3'
p18
(dp19
g5
I654
sg6
I37
sg7
I0
sg8
I25
sg9
I8
sg10
I1
sg11
I510
ssS'machine2'
p20
(dp21
g5
I608
sg6
I38
sg7
I0
sg8
I28
sg9
I7
sg10
I1
sg11
I460
sssS'Wahono.csv'
p22
(dp23
g3
(dp24
g5
I3340
sg6
I60
sg7
I1
sg8
I0
sg9
I1
sg10
I176
sg11
I3340
ssg12
(dp25
g5
I2641
sg6
I60
sg7
I0
sg8
I118
sg9
I2
sg10
I13
sg11
I1260
ssg14
(dp26
g5
I1304
sg6
I57
sg7
I2
sg8
I53
sg9
I3
sg10
I5
sg11
I1010
ssg16
(dp27
g5
I2640
sg6
I57
sg7
I2
sg8
I0
sg9
I3
sg10
I135
sg11
I2640
ssg18
(dp28
g5
I1744
sg6
I59
sg7
I1
sg8
I74
sg9
I2
sg10
I7
sg11
I1310
ssg20
(dp29
g5
I1486
sg6
I58
sg7
I1
sg8
I48
sg9
I3
sg10
I10
sg11
I1120
sssS'Hall.csv'
p30
(dp31
g3
(dp32
g5
I950
sg6
I100
sg7
I2
sg8
I0
sg9
I4
sg10
I38
sg11
I950
ssg12
(dp33
g5
I963
sg6
I98
sg7
I3
sg8
I40
sg9
I5
sg10
I1
sg11
I460
ssg14
(dp34
g5
I841
sg6
I101
sg7
I1
sg8
I36
sg9
I4
sg10
I2
sg11
I610
ssg16
(dp35
g5
I1590
sg6
I99
sg7
I3
sg8
I0
sg9
I4
sg10
I80
sg11
I1590
ssg18
(dp36
g5
I666
sg6
I99
sg7
I2
sg8
I32
sg9
I5
sg10
I1
sg11
I430
ssg20
(dp37
g5
I585
sg6
I101
sg7
I0
sg8
I23
sg9
I5
sg10
I2
sg11
I410
sssS'Danijel.csv'
p38
(dp39
g3
(dp40
g5
I1280
sg6
I42
sg7
I4
sg8
I0
sg9
I2
sg10
I58
sg11
I1280
ssg12
(dp41
g5
I2235
sg6
I45
sg7
I0
sg8
I90
sg9
I3
sg10
I6
sg11
I1070
ssg14
(dp42
g5
I1180
sg6
I43
sg7
I3
sg8
I52
sg9
I2
sg10
I6
sg11
I910
ssg16
(dp43
g5
I1260
sg6
I43
sg7
I2
sg8
I0
sg9
I3
sg10
I60
sg11
I1260
ssg18
(dp44
g5
I940
sg6
I43
sg7
I2
sg8
I33
sg9
I3
sg10
I0
sg11
I720
ssg20
(dp45
g5
I808
sg6
I46
sg7
I0
sg8
I33
sg9
I2
sg10
I2
sg11
I610
sss.