(dp0
S'K_all3.csv'
p1
(dp2
S'machine'
p3
(dp4
S'count'
p5
I599
sS'truepos'
p6
I37
sS'falseneg'
p7
I0
sS'correction'
p8
I3
sS'unknownyes'
p9
I8
sS'falsepos'
p10
I1
sS'unique'
p11
I380
ssS'knee'
p12
(dp13
g5
I1262
sg6
I42
sg7
I2
sg8
I1
sg9
I1
sg10
I1
sg11
I1010
ssS'none'
p14
(dp15
g5
I490
sg6
I36
sg7
I3
sg8
I0
sg9
I6
sg10
I2
sg11
I490
ssS'three'
p16
(dp17
g5
I794
sg6
I39
sg7
I0
sg8
I14
sg9
I6
sg10
I0
sg11
I390
sssS'Wahono.csv'
p18
(dp19
g3
(dp20
g5
I1785
sg6
I58
sg7
I1
sg8
I4
sg9
I3
sg10
I3
sg11
I1180
ssg12
(dp21
g5
I24
sg6
I6
sg7
I0
sg8
I0
sg9
I56
sg10
I0
sg11
I20
ssg14
(dp22
g5
I1090
sg6
I58
sg7
I1
sg8
I0
sg9
I3
sg10
I0
sg11
I1090
ssg16
(dp23
g5
I2252
sg6
I57
sg7
I2
sg8
I11
sg9
I3
sg10
I0
sg11
I1120
sssS'Hall.csv'
p24
(dp25
g3
(dp26
g5
I683
sg6
I96
sg7
I5
sg8
I14
sg9
I3
sg10
I0
sg11
I480
ssg12
(dp27
g5
I584
sg6
I98
sg7
I2
sg8
I6
sg9
I4
sg10
I0
sg11
I400
ssg14
(dp28
g5
I480
sg6
I94
sg7
I8
sg8
I0
sg9
I2
sg10
I1
sg11
I480
ssg16
(dp29
g5
I981
sg6
I99
sg7
I3
sg8
I21
sg9
I2
sg10
I0
sg11
I480
sssS'Danijel.csv'
p30
(dp31
g3
(dp32
g5
I1239
sg6
I46
sg7
I0
sg8
I5
sg9
I2
sg10
I1
sg11
I770
ssg12
(dp33
g5
I709
sg6
I43
sg7
I0
sg8
I2
sg9
I5
sg10
I0
sg11
I500
ssg14
(dp34
g5
I850
sg6
I43
sg7
I3
sg8
I0
sg9
I2
sg10
I0
sg11
I850
ssg16
(dp35
g5
I1589
sg6
I46
sg7
I0
sg8
I9
sg9
I2
sg10
I0
sg11
I790
sss.(dp0
S'K_all3.csv'
p1
(dp2
S'machine'
p3
(dp4
S'count'
p5
I572
sS'truepos'
p6
I37
sS'falseneg'
p7
I1
sS'correction'
p8
I2
sS'unknownyes'
p9
I7
sS'falsepos'
p10
I1
sS'unique'
p11
I360
ssS'knee'
p12
(dp13
g5
I1238
sg6
I40
sg7
I3
sg8
I5
sg9
I2
sg10
I1
sg11
I1030
ssS'none'
p14
(dp15
g5
I450
sg6
I38
sg7
I4
sg8
I0
sg9
I3
sg10
I0
sg11
I450
ssS'three'
p16
(dp17
g5
I809
sg6
I38
sg7
I2
sg8
I8
sg9
I5
sg10
I0
sg11
I400
sssS'Wahono.csv'
p18
(dp19
g3
(dp20
g5
I1155
sg6
I55
sg7
I2
sg8
I3
sg9
I5
sg10
I2
sg11
I670
ssg12
(dp21
g5
I658
sg6
I48
sg7
I2
sg8
I5
sg9
I12
sg10
I2
sg11
I470
ssg14
(dp22
g5
I1230
sg6
I56
sg7
I4
sg8
I0
sg9
I2
sg10
I2
sg11
I1230
ssg16
(dp23
g5
I2654
sg6
I58
sg7
I2
sg8
I14
sg9
I2
sg10
I0
sg11
I1320
sssS'Hall.csv'
p24
(dp25
g3
(dp26
g5
I630
sg6
I101
sg7
I1
sg8
I7
sg9
I2
sg10
I0
sg11
I460
ssg12
(dp27
g5
I566
sg6
I99
sg7
I3
sg8
I3
sg9
I2
sg10
I0
sg11
I390
ssg14
(dp28
g5
I680
sg6
I91
sg7
I11
sg8
I0
sg9
I2
sg10
I1
sg11
I680
ssg16
(dp29
g5
I1071
sg6
I101
sg7
I1
sg8
I11
sg9
I2
sg10
I0
sg11
I530
sssS'Danijel.csv'
p30
(dp31
g3
(dp32
g5
I1125
sg6
I43
sg7
I1
sg8
I3
sg9
I4
sg10
I1
sg11
I700
ssg12
(dp33
g5
I700
sg6
I43
sg7
I0
sg8
I3
sg9
I5
sg10
I0
sg11
I490
ssg14
(dp34
g5
I780
sg6
I42
sg7
I3
sg8
I0
sg9
I3
sg10
I0
sg11
I780
ssg16
(dp35
g5
I1488
sg6
I44
sg7
I1
sg8
I7
sg9
I3
sg10
I0
sg11
I740
sss.(dp0
S'K_all3.csv'
p1
(dp2
S'machine'
p3
(dp4
S'count'
p5
I835
sS'truepos'
p6
I36
sS'falseneg'
p7
I3
sS'correction'
p8
I1
sS'unknownyes'
p9
I6
sS'falsepos'
p10
I0
sS'unique'
p11
I530
ssS'knee'
p12
(dp13
g5
I1102
sg6
I39
sg7
I4
sg8
I6
sg9
I2
sg10
I2
sg11
I760
ssS'none'
p14
(dp15
g5
I430
sg6
I39
sg7
I2
sg8
I0
sg9
I4
sg10
I0
sg11
I430
ssS'three'
p16
(dp17
g5
I849
sg6
I38
sg7
I1
sg8
I9
sg9
I6
sg10
I0
sg11
I420
sssS'Wahono.csv'
p18
(dp19
g3
(dp20
g5
I1756
sg6
I59
sg7
I0
sg8
I7
sg9
I3
sg10
I0
sg11
I1210
ssg12
(dp21
g5
I24
sg6
I6
sg7
I0
sg8
I0
sg9
I56
sg10
I0
sg11
I20
ssg14
(dp22
g5
I1310
sg6
I54
sg7
I5
sg8
I0
sg9
I3
sg10
I1
sg11
I1310
ssg16
(dp23
g5
I2312
sg6
I58
sg7
I1
sg8
I12
sg9
I3
sg10
I0
sg11
I1150
sssS'Hall.csv'
p24
(dp25
g3
(dp26
g5
I655
sg6
I101
sg7
I1
sg8
I7
sg9
I2
sg10
I2
sg11
I480
ssg12
(dp27
g5
I546
sg6
I98
sg7
I4
sg8
I7
sg9
I2
sg10
I0
sg11
I400
ssg14
(dp28
g5
I490
sg6
I95
sg7
I6
sg8
I0
sg9
I3
sg10
I0
sg11
I490
ssg16
(dp29
g5
I958
sg6
I100
sg7
I1
sg8
I18
sg9
I3
sg10
I0
sg11
I470
sssS'Danijel.csv'
p30
(dp31
g3
(dp32
g5
I1257
sg6
I45
sg7
I0
sg8
I3
sg9
I3
sg10
I4
sg11
I740
ssg12
(dp33
g5
I858
sg6
I46
sg7
I0
sg8
I2
sg9
I2
sg10
I0
sg11
I670
ssg14
(dp34
g5
I810
sg6
I41
sg7
I5
sg8
I0
sg9
I2
sg10
I0
sg11
I810
ssg16
(dp35
g5
I1508
sg6
I44
sg7
I1
sg8
I8
sg9
I3
sg10
I0
sg11
I750
sss.(dp0
S'K_all3.csv'
p1
(dp2
S'machine'
p3
(dp4
S'count'
p5
I603
sS'truepos'
p6
I36
sS'falseneg'
p7
I1
sS'correction'
p8
I0
sS'unknownyes'
p9
I8
sS'falsepos'
p10
I3
sS'unique'
p11
I390
ssS'knee'
p12
(dp13
g5
I1107
sg6
I41
sg7
I2
sg8
I4
sg9
I2
sg10
I2
sg11
I830
ssS'none'
p14
(dp15
g5
I480
sg6
I35
sg7
I6
sg8
I0
sg9
I4
sg10
I3
sg11
I480
ssS'three'
p16
(dp17
g5
I831
sg6
I38
sg7
I2
sg8
I10
sg9
I5
sg10
I0
sg11
I410
sssS'Wahono.csv'
p18
(dp19
g3
(dp20
g5
I1741
sg6
I59
sg7
I0
sg8
I5
sg9
I3
sg10
I0
sg11
I1150
ssg12
(dp21
g5
I24
sg6
I6
sg7
I0
sg8
I0
sg9
I56
sg10
I0
sg11
I20
ssg14
(dp22
g5
I1320
sg6
I54
sg7
I7
sg8
I0
sg9
I1
sg10
I3
sg11
I1320
ssg16
(dp23
g5
I2213
sg6
I58
sg7
I1
sg8
I13
sg9
I3
sg10
I0
sg11
I1100
sssS'Hall.csv'
p24
(dp25
g3
(dp26
g5
I678
sg6
I101
sg7
I1
sg8
I7
sg9
I2
sg10
I1
sg11
I490
ssg12
(dp27
g5
I702
sg6
I94
sg7
I8
sg8
I7
sg9
I2
sg10
I0
sg11
I540
ssg14
(dp28
g5
I510
sg6
I97
sg7
I4
sg8
I0
sg9
I3
sg10
I1
sg11
I510
ssg16
(dp29
g5
I1042
sg6
I98
sg7
I4
sg8
I20
sg9
I2
sg10
I0
sg11
I510
sssS'Danijel.csv'
p30
(dp31
g3
(dp32
g5
I1303
sg6
I44
sg7
I1
sg8
I1
sg9
I3
sg10
I1
sg11
I800
ssg12
(dp33
g5
I722
sg6
I42
sg7
I2
sg8
I2
sg9
I4
sg10
I0
sg11
I530
ssg14
(dp34
g5
I810
sg6
I42
sg7
I4
sg8
I0
sg9
I2
sg10
I0
sg11
I810
ssg16
(dp35
g5
I1413
sg6
I42
sg7
I3
sg8
I11
sg9
I3
sg10
I0
sg11
I700
sss.(dp0
S'K_all3.csv'
p1
(dp2
S'machine'
p3
(dp4
S'count'
p5
I575
sS'truepos'
p6
I34
sS'falseneg'
p7
I2
sS'correction'
p8
I4
sS'unknownyes'
p9
I9
sS'falsepos'
p10
I1
sS'unique'
p11
I370
ssS'knee'
p12
(dp13
g5
I189
sg6
I22
sg7
I0
sg8
I1
sg9
I23
sg10
I0
sg11
I120
ssS'none'
p14
(dp15
g5
I460
sg6
I36
sg7
I4
sg8
I0
sg9
I5
sg10
I2
sg11
I460
ssS'three'
p16
(dp17
g5
I789
sg6
I38
sg7
I1
sg8
I9
sg9
I6
sg10
I0
sg11
I390
sssS'Wahono.csv'
p18
(dp19
g3
(dp20
g5
I1865
sg6
I59
sg7
I1
sg8
I6
sg9
I2
sg10
I2
sg11
I1240
ssg12
(dp21
g5
I881
sg6
I50
sg7
I2
sg8
I4
sg9
I10
sg10
I0
sg11
I580
ssg14
(dp22
g5
I1280
sg6
I50
sg7
I9
sg8
I0
sg9
I3
sg10
I0
sg11
I1280
ssg16
(dp23
g5
I2315
sg6
I58
sg7
I1
sg8
I15
sg9
I3
sg10
I0
sg11
I1150
sssS'Hall.csv'
p24
(dp25
g3
(dp26
g5
I659
sg6
I101
sg7
I1
sg8
I12
sg9
I2
sg10
I0
sg11
I480
ssg12
(dp27
g5
I548
sg6
I97
sg7
I4
sg8
I16
sg9
I3
sg10
I0
sg11
I370
ssg14
(dp28
g5
I670
sg6
I88
sg7
I14
sg8
I0
sg9
I2
sg10
I2
sg11
I670
ssg16
(dp29
g5
I979
sg6
I101
sg7
I1
sg8
I18
sg9
I2
sg10
I0
sg11
I480
sssS'Danijel.csv'
p30
(dp31
g3
(dp32
g5
I1251
sg6
I45
sg7
I0
sg8
I4
sg9
I3
sg10
I0
sg11
I780
ssg12
(dp33
g5
I646
sg6
I40
sg7
I3
sg8
I1
sg9
I5
sg10
I2
sg11
I500
ssg14
(dp34
g5
I790
sg6
I43
sg7
I2
sg8
I0
sg9
I3
sg10
I0
sg11
I790
ssg16
(dp35
g5
I1508
sg6
I45
sg7
I0
sg8
I8
sg9
I3
sg10
I0
sg11
I750
sss.(dp0
S'K_all3.csv'
p1
(dp2
S'machine'
p3
(dp4
S'count'
p5
I529
sS'truepos'
p6
I35
sS'falseneg'
p7
I0
sS'correction'
p8
I2
sS'unknownyes'
p9
I10
sS'falsepos'
p10
I3
sS'unique'
p11
I340
ssS'knee'
p12
(dp13
g5
I987
sg6
I37
sg7
I6
sg8
I3
sg9
I2
sg10
I0
sg11
I810
ssS'none'
p14
(dp15
g5
I480
sg6
I34
sg7
I6
sg8
I0
sg9
I5
sg10
I2
sg11
I480
ssS'three'
p16
(dp17
g5
I932
sg6
I36
sg7
I4
sg8
I10
sg9
I5
sg10
I0
sg11
I460
sssS'Wahono.csv'
p18
(dp19
g3
(dp20
g5
I1708
sg6
I59
sg7
I0
sg8
I6
sg9
I3
sg10
I2
sg11
I1120
ssg12
(dp21
g5
I246
sg6
I28
sg7
I1
sg8
I4
sg9
I33
sg10
I0
sg11
I150
ssg14
(dp22
g5
I1620
sg6
I55
sg7
I6
sg8
I0
sg9
I1
sg10
I1
sg11
I1620
ssg16
(dp23
g5
I1993
sg6
I57
sg7
I2
sg8
I12
sg9
I3
sg10
I0
sg11
I990
sssS'Hall.csv'
p24
(dp25
g3
(dp26
g5
I719
sg6
I100
sg7
I2
sg8
I7
sg9
I2
sg10
I3
sg11
I520
ssg12
(dp27
g5
I602
sg6
I99
sg7
I2
sg8
I9
sg9
I3
sg10
I0
sg11
I410
ssg14
(dp28
g5
I540
sg6
I89
sg7
I13
sg8
I0
sg9
I2
sg10
I0
sg11
I540
ssg16
(dp29
g5
I1058
sg6
I99
sg7
I3
sg8
I16
sg9
I2
sg10
I0
sg11
I520
sssS'Danijel.csv'
p30
(dp31
g3
(dp32
g5
I1254
sg6
I44
sg7
I1
sg8
I5
sg9
I3
sg10
I2
sg11
I770
ssg12
(dp33
g5
I546
sg6
I39
sg7
I1
sg8
I1
sg9
I8
sg10
I0
sg11
I410
ssg14
(dp34
g5
I730
sg6
I40
sg7
I5
sg8
I0
sg9
I3
sg10
I1
sg11
I730
ssg16
(dp35
g5
I1530
sg6
I43
sg7
I2
sg8
I9
sg9
I3
sg10
I0
sg11
I760
sss.(dp0
S'K_all3.csv'
p1
(dp2
S'machine'
p3
(dp4
S'count'
p5
I472
sS'truepos'
p6
I36
sS'falseneg'
p7
I2
sS'correction'
p8
I1
sS'unknownyes'
p9
I7
sS'falsepos'
p10
I1
sS'unique'
p11
I330
ssS'knee'
p12
(dp13
g5
I1097
sg6
I42
sg7
I1
sg8
I3
sg9
I2
sg10
I0
sg11
I840
ssS'none'
p14
(dp15
g5
I420
sg6
I33
sg7
I5
sg8
I0
sg9
I7
sg10
I2
sg11
I420
ssS'three'
p16
(dp17
g5
I811
sg6
I38
sg7
I1
sg8
I11
sg9
I6
sg10
I0
sg11
I400
sssS'Wahono.csv'
p18
(dp19
g3
(dp20
g5
I1832
sg6
I61
sg7
I0
sg8
I5
sg9
I1
sg10
I1
sg11
I1260
ssg12
(dp21
g5
I24
sg6
I6
sg7
I0
sg8
I0
sg9
I56
sg10
I0
sg11
I20
ssg14
(dp22
g5
I1250
sg6
I53
sg7
I6
sg8
I0
sg9
I3
sg10
I1
sg11
I1250
ssg16
(dp23
g5
I2591
sg6
I58
sg7
I2
sg8
I10
sg9
I2
sg10
I0
sg11
I1290
sssS'Hall.csv'
p24
(dp25
g3
(dp26
g5
I694
sg6
I102
sg7
I0
sg8
I5
sg9
I2
sg10
I1
sg11
I510
ssg12
(dp27
g5
I516
sg6
I96
sg7
I5
sg8
I6
sg9
I3
sg10
I0
sg11
I370
ssg14
(dp28
g5
I690
sg6
I84
sg7
I18
sg8
I0
sg9
I2
sg10
I0
sg11
I690
ssg16
(dp29
g5
I951
sg6
I99
sg7
I3
sg8
I10
sg9
I2
sg10
I0
sg11
I470
sssS'Danijel.csv'
p30
(dp31
g3
(dp32
g5
I1164
sg6
I45
sg7
I0
sg8
I3
sg9
I3
sg10
I1
sg11
I750
ssg12
(dp33
g5
I495
sg6
I37
sg7
I1
sg8
I2
sg9
I10
sg10
I0
sg11
I360
ssg14
(dp34
g5
I760
sg6
I39
sg7
I7
sg8
I0
sg9
I2
sg10
I0
sg11
I760
ssg16
(dp35
g5
I1515
sg6
I45
sg7
I1
sg8
I15
sg9
I2
sg10
I0
sg11
I750
sss.(dp0
S'K_all3.csv'
p1
(dp2
S'machine'
p3
(dp4
S'count'
p5
I557
sS'truepos'
p6
I37
sS'falseneg'
p7
I1
sS'correction'
p8
I3
sS'unknownyes'
p9
I7
sS'falsepos'
p10
I2
sS'unique'
p11
I370
ssS'knee'
p12
(dp13
g5
I1063
sg6
I39
sg7
I4
sg8
I3
sg9
I2
sg10
I3
sg11
I850
ssS'none'
p14
(dp15
g5
I430
sg6
I35
sg7
I3
sg8
I0
sg9
I7
sg10
I0
sg11
I430
ssS'three'
p16
(dp17
g5
I812
sg6
I38
sg7
I2
sg8
I11
sg9
I5
sg10
I0
sg11
I400
sssS'Wahono.csv'
p18
(dp19
g3
(dp20
g5
I1606
sg6
I59
sg7
I0
sg8
I7
sg9
I3
sg10
I0
sg11
I1090
ssg12
(dp21
g5
I755
sg6
I48
sg7
I2
sg8
I3
sg9
I12
sg10
I0
sg11
I580
ssg14
(dp22
g5
I1300
sg6
I53
sg7
I6
sg8
I0
sg9
I3
sg10
I0
sg11
I1300
ssg16
(dp23
g5
I2256
sg6
I59
sg7
I0
sg8
I16
sg9
I3
sg10
I0
sg11
I1120
sssS'Hall.csv'
p24
(dp25
g3
(dp26
g5
I707
sg6
I98
sg7
I4
sg8
I8
sg9
I2
sg10
I2
sg11
I530
ssg12
(dp27
g5
I535
sg6
I99
sg7
I2
sg8
I9
sg9
I3
sg10
I0
sg11
I380
ssg14
(dp28
g5
I570
sg6
I91
sg7
I11
sg8
I0
sg9
I2
sg10
I1
sg11
I570
ssg16
(dp29
g5
I998
sg6
I102
sg7
I0
sg8
I18
sg9
I2
sg10
I0
sg11
I490
sssS'Danijel.csv'
p30
(dp31
g3
(dp32
g5
I1251
sg6
I46
sg7
I0
sg8
I3
sg9
I2
sg10
I0
sg11
I760
ssg12
(dp33
g5
I728
sg6
I43
sg7
I0
sg8
I3
sg9
I5
sg10
I0
sg11
I510
ssg14
(dp34
g5
I900
sg6
I40
sg7
I6
sg8
I0
sg9
I2
sg10
I1
sg11
I900
ssg16
(dp35
g5
I1590
sg6
I45
sg7
I1
sg8
I9
sg9
I2
sg10
I0
sg11
I790
sss.(dp0
S'K_all3.csv'
p1
(dp2
S'machine'
p3
(dp4
S'count'
p5
I577
sS'truepos'
p6
I38
sS'falseneg'
p7
I0
sS'correction'
p8
I1
sS'unknownyes'
p9
I7
sS'falsepos'
p10
I0
sS'unique'
p11
I370
ssS'knee'
p12
(dp13
g5
I299
sg6
I24
sg7
I0
sg8
I3
sg9
I21
sg10
I1
sg11
I180
ssS'none'
p14
(dp15
g5
I480
sg6
I38
sg7
I3
sg8
I0
sg9
I4
sg10
I0
sg11
I480
ssS'three'
p16
(dp17
g5
I889
sg6
I38
sg7
I1
sg8
I9
sg9
I6
sg10
I0
sg11
I440
sssS'Wahono.csv'
p18
(dp19
g3
(dp20
g5
I1704
sg6
I59
sg7
I0
sg8
I5
sg9
I3
sg10
I0
sg11
I1160
ssg12
(dp21
g5
I684
sg6
I49
sg7
I1
sg8
I3
sg9
I12
sg10
I0
sg11
I480
ssg14
(dp22
g5
I1370
sg6
I51
sg7
I8
sg8
I0
sg9
I3
sg10
I2
sg11
I1370
ssg16
(dp23
g5
I2291
sg6
I58
sg7
I1
sg8
I11
sg9
I3
sg10
I0
sg11
I1140
sssS'Hall.csv'
p24
(dp25
g3
(dp26
g5
I639
sg6
I101
sg7
I1
sg8
I11
sg9
I2
sg10
I0
sg11
I470
ssg12
(dp27
g5
I620
sg6
I99
sg7
I3
sg8
I14
sg9
I2
sg10
I0
sg11
I450
ssg14
(dp28
g5
I550
sg6
I98
sg7
I4
sg8
I0
sg9
I2
sg10
I0
sg11
I550
ssg16
(dp29
g5
I1058
sg6
I101
sg7
I1
sg8
I18
sg9
I2
sg10
I0
sg11
I520
sssS'Danijel.csv'
p30
(dp31
g3
(dp32
g5
I1360
sg6
I44
sg7
I1
sg8
I6
sg9
I3
sg10
I1
sg11
I840
ssg12
(dp33
g5
I666
sg6
I42
sg7
I2
sg8
I0
sg9
I4
sg10
I0
sg11
I550
ssg14
(dp34
g5
I810
sg6
I41
sg7
I4
sg8
I0
sg9
I3
sg10
I2
sg11
I810
ssg16
(dp35
g5
I1567
sg6
I45
sg7
I0
sg8
I7
sg9
I3
sg10
I0
sg11
I780
sss.(dp0
S'K_all3.csv'
p1
(dp2
S'machine'
p3
(dp4
S'count'
p5
I706
sS'truepos'
p6
I37
sS'falseneg'
p7
I1
sS'correction'
p8
I1
sS'unknownyes'
p9
I7
sS'falsepos'
p10
I1
sS'unique'
p11
I440
ssS'knee'
p12
(dp13
g5
I1045
sg6
I42
sg7
I1
sg8
I4
sg9
I2
sg10
I1
sg11
I860
ssS'none'
p14
(dp15
g5
I440
sg6
I38
sg7
I2
sg8
I0
sg9
I5
sg10
I0
sg11
I440
ssS'three'
p16
(dp17
g5
I786
sg6
I38
sg7
I0
sg8
I6
sg9
I7
sg10
I0
sg11
I390
sssS'Wahono.csv'
p18
(dp19
g3
(dp20
g5
I1751
sg6
I57
sg7
I2
sg8
I4
sg9
I3
sg10
I3
sg11
I1110
ssg12
(dp21
g5
I767
sg6
I51
sg7
I1
sg8
I8
sg9
I10
sg10
I2
sg11
I530
ssg14
(dp22
g5
I1300
sg6
I51
sg7
I8
sg8
I0
sg9
I3
sg10
I0
sg11
I1300
ssg16
(dp23
g5
I2292
sg6
I58
sg7
I1
sg8
I12
sg9
I3
sg10
I0
sg11
I1140
sssS'Hall.csv'
p24
(dp25
g3
(dp26
g5
I755
sg6
I99
sg7
I3
sg8
I7
sg9
I2
sg10
I1
sg11
I550
ssg12
(dp27
g5
I637
sg6
I97
sg7
I4
sg8
I9
sg9
I3
sg10
I2
sg11
I460
ssg14
(dp28
g5
I610
sg6
I93
sg7
I9
sg8
I0
sg9
I2
sg10
I0
sg11
I610
ssg16
(dp29
g5
I926
sg6
I98
sg7
I4
sg8
I25
sg9
I2
sg10
I0
sg11
I450
sssS'Danijel.csv'
p30
(dp31
g3
(dp32
g5
I1203
sg6
I45
sg7
I0
sg8
I2
sg9
I3
sg10
I0
sg11
I740
ssg12
(dp33
g5
I807
sg6
I43
sg7
I1
sg8
I2
sg9
I4
sg10
I1
sg11
I630
ssg14
(dp34
g5
I640
sg6
I41
sg7
I4
sg8
I0
sg9
I3
sg10
I2
sg11
I640
ssg16
(dp35
g5
I1671
sg6
I43
sg7
I2
sg8
I11
sg9
I3
sg10
I0
sg11
I830
sss.(dp0
S'K_all3.csv'
p1
(dp2
S'machine'
p3
(dp4
S'count'
p5
I702
sS'truepos'
p6
I38
sS'falseneg'
p7
I1
sS'correction'
p8
I4
sS'unknownyes'
p9
I6
sS'falsepos'
p10
I1
sS'unique'
p11
I450
ssS'knee'
p12
(dp13
g5
I868
sg6
I38
sg7
I4
sg8
I3
sg9
I3
sg10
I0
sg11
I720
ssS'none'
p14
(dp15
g5
I400
sg6
I37
sg7
I3
sg8
I0
sg9
I5
sg10
I2
sg11
I400
ssS'three'
p16
(dp17
g5
I807
sg6
I38
sg7
I0
sg8
I7
sg9
I7
sg10
I0
sg11
I400
sssS'Wahono.csv'
p18
(dp19
g3
(dp20
g5
I1862
sg6
I59
sg7
I0
sg8
I8
sg9
I3
sg10
I3
sg11
I1250
ssg12
(dp21
g5
I35
sg6
I7
sg7
I0
sg8
I0
sg9
I55
sg10
I0
sg11
I30
ssg14
(dp22
g5
I1430
sg6
I52
sg7
I8
sg8
I0
sg9
I2
sg10
I3
sg11
I1430
ssg16
(dp23
g5
I2415
sg6
I57
sg7
I2
sg8
I15
sg9
I3
sg10
I0
sg11
I1200
sssS'Hall.csv'
p24
(dp25
g3
(dp26
g5
I610
sg6
I101
sg7
I1
sg8
I8
sg9
I2
sg10
I0
sg11
I460
ssg12
(dp27
g5
I681
sg6
I102
sg7
I0
sg8
I7
sg9
I2
sg10
I0
sg11
I490
ssg14
(dp28
g5
I590
sg6
I90
sg7
I12
sg8
I0
sg9
I2
sg10
I0
sg11
I590
ssg16
(dp29
g5
I1078
sg6
I97
sg7
I5
sg8
I15
sg9
I2
sg10
I0
sg11
I530
sssS'Danijel.csv'
p30
(dp31
g3
(dp32
g5
I1094
sg6
I45
sg7
I0
sg8
I4
sg9
I3
sg10
I2
sg11
I670
ssg12
(dp33
g5
I608
sg6
I38
sg7
I0
sg8
I6
sg9
I10
sg10
I0
sg11
I370
ssg14
(dp34
g5
I850
sg6
I43
sg7
I3
sg8
I0
sg9
I2
sg10
I1
sg11
I850
ssg16
(dp35
g5
I1485
sg6
I44
sg7
I1
sg8
I5
sg9
I3
sg10
I0
sg11
I740
sss.(dp0
S'K_all3.csv'
p1
(dp2
S'machine'
p3
(dp4
S'count'
p5
I670
sS'truepos'
p6
I38
sS'falseneg'
p7
I2
sS'correction'
p8
I1
sS'unknownyes'
p9
I5
sS'falsepos'
p10
I0
sS'unique'
p11
I420
ssS'knee'
p12
(dp13
g5
I187
sg6
I22
sg7
I0
sg8
I0
sg9
I23
sg10
I1
sg11
I120
ssS'none'
p14
(dp15
g5
I400
sg6
I36
sg7
I3
sg8
I0
sg9
I6
sg10
I2
sg11
I400
ssS'three'
p16
(dp17
g5
I875
sg6
I34
sg7
I2
sg8
I14
sg9
I9
sg10
I0
sg11
I430
sssS'Wahono.csv'
p18
(dp19
g3
(dp20
g5
I1702
sg6
I58
sg7
I1
sg8
I7
sg9
I3
sg10
I0
sg11
I1150
ssg12
(dp21
g5
I1178
sg6
I57
sg7
I2
sg8
I5
sg9
I3
sg10
I1
sg11
I950
ssg14
(dp22
g5
I1420
sg6
I52
sg7
I7
sg8
I0
sg9
I3
sg10
I4
sg11
I1420
ssg16
(dp23
g5
I2172
sg6
I57
sg7
I2
sg8
I12
sg9
I3
sg10
I0
sg11
I1080
sssS'Hall.csv'
p24
(dp25
g3
(dp26
g5
I597
sg6
I98
sg7
I3
sg8
I10
sg9
I3
sg10
I0
sg11
I420
ssg12
(dp27
g5
I637
sg6
I98
sg7
I4
sg8
I11
sg9
I2
sg10
I0
sg11
I450
ssg14
(dp28
g5
I630
sg6
I93
sg7
I9
sg8
I0
sg9
I2
sg10
I0
sg11
I630
ssg16
(dp29
g5
I976
sg6
I99
sg7
I3
sg8
I15
sg9
I2
sg10
I0
sg11
I480
sssS'Danijel.csv'
p30
(dp31
g3
(dp32
g5
I1155
sg6
I45
sg7
I0
sg8
I6
sg9
I3
sg10
I0
sg11
I730
ssg12
(dp33
g5
I815
sg6
I42
sg7
I2
sg8
I5
sg9
I4
sg10
I0
sg11
I600
ssg14
(dp34
g5
I750
sg6
I43
sg7
I2
sg8
I0
sg9
I3
sg10
I1
sg11
I750
ssg16
(dp35
g5
I1630
sg6
I43
sg7
I2
sg8
I10
sg9
I3
sg10
I0
sg11
I810
sss.(dp0
S'K_all3.csv'
p1
(dp2
S'machine'
p3
(dp4
S'count'
p5
I566
sS'truepos'
p6
I36
sS'falseneg'
p7
I0
sS'correction'
p8
I5
sS'unknownyes'
p9
I9
sS'falsepos'
p10
I2
sS'unique'
p11
I370
ssS'knee'
p12
(dp13
g5
I1099
sg6
I37
sg7
I6
sg8
I6
sg9
I2
sg10
I1
sg11
I850
ssS'none'
p14
(dp15
g5
I590
sg6
I33
sg7
I9
sg8
I0
sg9
I3
sg10
I0
sg11
I590
ssS'three'
p16
(dp17
g5
I811
sg6
I38
sg7
I0
sg8
I11
sg9
I7
sg10
I0
sg11
I400
sssS'Wahono.csv'
p18
(dp19
g3
(dp20
g5
I1898
sg6
I56
sg7
I4
sg8
I4
sg9
I2
sg10
I1
sg11
I1320
ssg12
(dp21
g5
I24
sg6
I6
sg7
I0
sg8
I0
sg9
I56
sg10
I0
sg11
I20
ssg14
(dp22
g5
I1420
sg6
I52
sg7
I7
sg8
I0
sg9
I3
sg10
I0
sg11
I1420
ssg16
(dp23
g5
I2394
sg6
I57
sg7
I2
sg8
I14
sg9
I3
sg10
I0
sg11
I1190
sssS'Hall.csv'
p24
(dp25
g3
(dp26
g5
I660
sg6
I98
sg7
I4
sg8
I7
sg9
I2
sg10
I1
sg11
I490
ssg12
(dp27
g5
I663
sg6
I99
sg7
I3
sg8
I7
sg9
I2
sg10
I0
sg11
I460
ssg14
(dp28
g5
I520
sg6
I93
sg7
I9
sg8
I0
sg9
I2
sg10
I0
sg11
I520
ssg16
(dp29
g5
I1014
sg6
I99
sg7
I3
sg8
I12
sg9
I2
sg10
I0
sg11
I500
sssS'Danijel.csv'
p30
(dp31
g3
(dp32
g5
I1262
sg6
I45
sg7
I0
sg8
I4
sg9
I3
sg10
I2
sg11
I790
ssg12
(dp33
g5
I756
sg6
I43
sg7
I1
sg8
I2
sg9
I4
sg10
I0
sg11
I540
ssg14
(dp34
g5
I820
sg6
I41
sg7
I5
sg8
I0
sg9
I2
sg10
I0
sg11
I820
ssg16
(dp35
g5
I1614
sg6
I43
sg7
I2
sg8
I14
sg9
I3
sg10
I0
sg11
I800
sss.(dp0
S'K_all3.csv'
p1
(dp2
S'machine'
p3
(dp4
S'count'
p5
I630
sS'truepos'
p6
I36
sS'falseneg'
p7
I0
sS'correction'
p8
I1
sS'unknownyes'
p9
I9
sS'falsepos'
p10
I2
sS'unique'
p11
I400
ssS'knee'
p12
(dp13
g5
I1267
sg6
I41
sg7
I1
sg8
I8
sg9
I3
sg10
I5
sg11
I860
ssS'none'
p14
(dp15
g5
I480
sg6
I34
sg7
I6
sg8
I0
sg9
I5
sg10
I2
sg11
I480
ssS'three'
p16
(dp17
g5
I728
sg6
I39
sg7
I0
sg8
I8
sg9
I6
sg10
I0
sg11
I360
sssS'Wahono.csv'
p18
(dp19
g3
(dp20
g5
I1743
sg6
I59
sg7
I1
sg8
I4
sg9
I2
sg10
I0
sg11
I1190
ssg12
(dp21
g5
I1094
sg6
I56
sg7
I2
sg8
I7
sg9
I4
sg10
I0
sg11
I780
ssg14
(dp22
g5
I1400
sg6
I54
sg7
I6
sg8
I0
sg9
I2
sg10
I1
sg11
I1400
ssg16
(dp23
g5
I2434
sg6
I58
sg7
I1
sg8
I14
sg9
I3
sg10
I0
sg11
I1210
sssS'Hall.csv'
p24
(dp25
g3
(dp26
g5
I642
sg6
I100
sg7
I2
sg8
I12
sg9
I2
sg10
I1
sg11
I460
ssg12
(dp27
g5
I616
sg6
I97
sg7
I4
sg8
I6
sg9
I3
sg10
I0
sg11
I440
ssg14
(dp28
g5
I580
sg6
I87
sg7
I15
sg8
I0
sg9
I2
sg10
I0
sg11
I580
ssg16
(dp29
g5
I997
sg6
I101
sg7
I1
sg8
I16
sg9
I2
sg10
I0
sg11
I490
sssS'Danijel.csv'
p30
(dp31
g3
(dp32
g5
I1424
sg6
I44
sg7
I1
sg8
I5
sg9
I3
sg10
I1
sg11
I920
ssg12
(dp33
g5
I54
sg6
I6
sg7
I0
sg8
I1
sg9
I42
sg10
I1
sg11
I40
ssg14
(dp34
g5
I840
sg6
I39
sg7
I7
sg8
I0
sg9
I2
sg10
I0
sg11
I840
ssg16
(dp35
g5
I1533
sg6
I43
sg7
I2
sg8
I13
sg9
I3
sg10
I0
sg11
I760
sss.(dp0
S'K_all3.csv'
p1
(dp2
S'machine'
p3
(dp4
S'count'
p5
I614
sS'truepos'
p6
I36
sS'falseneg'
p7
I4
sS'correction'
p8
I1
sS'unknownyes'
p9
I5
sS'falsepos'
p10
I1
sS'unique'
p11
I410
ssS'knee'
p12
(dp13
g5
I1086
sg6
I41
sg7
I3
sg8
I7
sg9
I1
sg10
I0
sg11
I880
ssS'none'
p14
(dp15
g5
I480
sg6
I38
sg7
I3
sg8
I0
sg9
I4
sg10
I1
sg11
I480
ssS'three'
p16
(dp17
g5
I770
sg6
I38
sg7
I0
sg8
I10
sg9
I7
sg10
I0
sg11
I380
sssS'Wahono.csv'
p18
(dp19
g3
(dp20
g5
I1792
sg6
I59
sg7
I0
sg8
I6
sg9
I3
sg10
I2
sg11
I1200
ssg12
(dp21
g5
I1136
sg6
I55
sg7
I3
sg8
I4
sg9
I4
sg10
I0
sg11
I900
ssg14
(dp22
g5
I1540
sg6
I55
sg7
I6
sg8
I0
sg9
I1
sg10
I2
sg11
I1540
ssg16
(dp23
g5
I2053
sg6
I57
sg7
I2
sg8
I13
sg9
I3
sg10
I0
sg11
I1020
sssS'Hall.csv'
p24
(dp25
g3
(dp26
g5
I599
sg6
I100
sg7
I2
sg8
I9
sg9
I2
sg10
I2
sg11
I430
ssg12
(dp27
g5
I577
sg6
I101
sg7
I0
sg8
I11
sg9
I3
sg10
I1
sg11
I380
ssg14
(dp28
g5
I490
sg6
I83
sg7
I18
sg8
I0
sg9
I3
sg10
I0
sg11
I490
ssg16
(dp29
g5
I1035
sg6
I101
sg7
I1
sg8
I14
sg9
I2
sg10
I0
sg11
I510
sssS'Danijel.csv'
p30
(dp31
g3
(dp32
g5
I1311
sg6
I44
sg7
I1
sg8
I7
sg9
I3
sg10
I1
sg11
I820
ssg12
(dp33
g5
I733
sg6
I43
sg7
I1
sg8
I2
sg9
I4
sg10
I0
sg11
I540
ssg14
(dp34
g5
I840
sg6
I45
sg7
I1
sg8
I0
sg9
I2
sg10
I1
sg11
I840
ssg16
(dp35
g5
I1611
sg6
I44
sg7
I1
sg8
I11
sg9
I3
sg10
I0
sg11
I800
sss.(dp0
S'K_all3.csv'
p1
(dp2
S'machine'
p3
(dp4
S'count'
p5
I627
sS'truepos'
p6
I36
sS'falseneg'
p7
I0
sS'correction'
p8
I4
sS'unknownyes'
p9
I9
sS'falsepos'
p10
I2
sS'unique'
p11
I390
ssS'knee'
p12
(dp13
g5
I590
sg6
I32
sg7
I0
sg8
I4
sg9
I13
sg10
I3
sg11
I340
ssS'none'
p14
(dp15
g5
I500
sg6
I35
sg7
I3
sg8
I0
sg9
I7
sg10
I1
sg11
I500
ssS'three'
p16
(dp17
g5
I814
sg6
I38
sg7
I0
sg8
I14
sg9
I7
sg10
I0
sg11
I400
sssS'Wahono.csv'
p18
(dp19
g3
(dp20
g5
I1831
sg6
I57
sg7
I2
sg8
I4
sg9
I3
sg10
I2
sg11
I1230
ssg12
(dp21
g5
I700
sg6
I51
sg7
I0
sg8
I2
sg9
I11
sg10
I1
sg11
I530
ssg14
(dp22
g5
I1370
sg6
I54
sg7
I6
sg8
I0
sg9
I2
sg10
I1
sg11
I1370
ssg16
(dp23
g5
I2171
sg6
I59
sg7
I0
sg8
I11
sg9
I3
sg10
I0
sg11
I1080
sssS'Hall.csv'
p24
(dp25
g3
(dp26
g5
I699
sg6
I101
sg7
I1
sg8
I6
sg9
I2
sg10
I0
sg11
I510
ssg12
(dp27
g5
I672
sg6
I98
sg7
I3
sg8
I19
sg9
I3
sg10
I0
sg11
I460
ssg14
(dp28
g5
I840
sg6
I87
sg7
I15
sg8
I0
sg9
I2
sg10
I1
sg11
I840
ssg16
(dp29
g5
I1106
sg6
I97
sg7
I5
sg8
I25
sg9
I2
sg10
I0
sg11
I540
sssS'Danijel.csv'
p30
(dp31
g3
(dp32
g5
I1103
sg6
I45
sg7
I0
sg8
I4
sg9
I3
sg10
I1
sg11
I700
ssg12
(dp33
g5
I700
sg6
I41
sg7
I3
sg8
I3
sg9
I4
sg10
I0
sg11
I590
ssg14
(dp34
g5
I900
sg6
I39
sg7
I7
sg8
I0
sg9
I2
sg10
I0
sg11
I900
ssg16
(dp35
g5
I1630
sg6
I44
sg7
I1
sg8
I10
sg9
I3
sg10
I0
sg11
I810
sss.(dp0
S'K_all3.csv'
p1
(dp2
S'machine'
p3
(dp4
S'count'
p5
I621
sS'truepos'
p6
I36
sS'falseneg'
p7
I1
sS'correction'
p8
I1
sS'unknownyes'
p9
I8
sS'falsepos'
p10
I2
sS'unique'
p11
I390
ssS'knee'
p12
(dp13
g5
I905
sg6
I38
sg7
I4
sg8
I5
sg9
I3
sg10
I0
sg11
I780
ssS'none'
p14
(dp15
g5
I460
sg6
I37
sg7
I3
sg8
I0
sg9
I5
sg10
I1
sg11
I460
ssS'three'
p16
(dp17
g5
I809
sg6
I38
sg7
I1
sg8
I9
sg9
I6
sg10
I0
sg11
I400
sssS'Wahono.csv'
p18
(dp19
g3
(dp20
g5
I1615
sg6
I58
sg7
I1
sg8
I5
sg9
I3
sg10
I0
sg11
I1100
ssg12
(dp21
g5
I658
sg6
I48
sg7
I0
sg8
I6
sg9
I14
sg10
I0
sg11
I420
ssg14
(dp22
g5
I1590
sg6
I55
sg7
I5
sg8
I0
sg9
I2
sg10
I1
sg11
I1590
ssg16
(dp23
g5
I2696
sg6
I57
sg7
I3
sg8
I16
sg9
I2
sg10
I0
sg11
I1340
sssS'Hall.csv'
p24
(dp25
g3
(dp26
g5
I663
sg6
I100
sg7
I2
sg8
I10
sg9
I2
sg10
I0
sg11
I470
ssg12
(dp27
g5
I709
sg6
I96
sg7
I6
sg8
I8
sg9
I2
sg10
I1
sg11
I520
ssg14
(dp28
g5
I760
sg6
I90
sg7
I12
sg8
I0
sg9
I2
sg10
I1
sg11
I760
ssg16
(dp29
g5
I1083
sg6
I100
sg7
I2
sg8
I22
sg9
I2
sg10
I0
sg11
I530
sssS'Danijel.csv'
p30
(dp31
g3
(dp32
g5
I1468
sg6
I45
sg7
I1
sg8
I5
sg9
I2
sg10
I1
sg11
I950
ssg12
(dp33
g5
I779
sg6
I43
sg7
I1
sg8
I4
sg9
I4
sg10
I0
sg11
I600
ssg14
(dp34
g5
I880
sg6
I42
sg7
I4
sg8
I0
sg9
I2
sg10
I1
sg11
I880
ssg16
(dp35
g5
I1507
sg6
I45
sg7
I0
sg8
I7
sg9
I3
sg10
I0
sg11
I750
sss.(dp0
S'K_all3.csv'
p1
(dp2
S'machine'
p3
(dp4
S'count'
p5
I642
sS'truepos'
p6
I37
sS'falseneg'
p7
I1
sS'correction'
p8
I2
sS'unknownyes'
p9
I7
sS'falsepos'
p10
I1
sS'unique'
p11
I440
ssS'knee'
p12
(dp13
g5
I155
sg6
I18
sg7
I0
sg8
I3
sg9
I27
sg10
I0
sg11
I100
ssS'none'
p14
(dp15
g5
I500
sg6
I33
sg7
I7
sg8
I0
sg9
I5
sg10
I1
sg11
I500
ssS'three'
p16
(dp17
g5
I808
sg6
I38
sg7
I1
sg8
I8
sg9
I6
sg10
I0
sg11
I400
sssS'Wahono.csv'
p18
(dp19
g3
(dp20
g5
I1876
sg6
I59
sg7
I1
sg8
I3
sg9
I2
sg10
I5
sg11
I1280
ssg12
(dp21
g5
I1148
sg6
I56
sg7
I2
sg8
I8
sg9
I4
sg10
I0
sg11
I840
ssg14
(dp22
g5
I1580
sg6
I53
sg7
I7
sg8
I0
sg9
I2
sg10
I2
sg11
I1580
ssg16
(dp23
g5
I2392
sg6
I59
sg7
I0
sg8
I12
sg9
I3
sg10
I0
sg11
I1190
sssS'Hall.csv'
p24
(dp25
g3
(dp26
g5
I511
sg6
I99
sg7
I1
sg8
I11
sg9
I4
sg10
I0
sg11
I360
ssg12
(dp27
g5
I618
sg6
I100
sg7
I2
sg8
I7
sg9
I2
sg10
I0
sg11
I440
ssg14
(dp28
g5
I660
sg6
I91
sg7
I11
sg8
I0
sg9
I2
sg10
I0
sg11
I660
ssg16
(dp29
g5
I979
sg6
I102
sg7
I0
sg8
I19
sg9
I2
sg10
I0
sg11
I480
sssS'Danijel.csv'
p30
(dp31
g3
(dp32
g5
I1302
sg6
I44
sg7
I1
sg8
I1
sg9
I3
sg10
I1
sg11
I820
ssg12
(dp33
g5
I688
sg6
I41
sg7
I3
sg8
I2
sg9
I4
sg10
I0
sg11
I530
ssg14
(dp34
g5
I740
sg6
I41
sg7
I4
sg8
I0
sg9
I3
sg10
I1
sg11
I740
ssg16
(dp35
g5
I1528
sg6
I44
sg7
I1
sg8
I8
sg9
I3
sg10
I0
sg11
I760
sss.(dp0
S'K_all3.csv'
p1
(dp2
S'machine'
p3
(dp4
S'count'
p5
I542
sS'truepos'
p6
I36
sS'falseneg'
p7
I3
sS'correction'
p8
I2
sS'unknownyes'
p9
I6
sS'falsepos'
p10
I2
sS'unique'
p11
I370
ssS'knee'
p12
(dp13
g5
I877
sg6
I40
sg7
I3
sg8
I2
sg9
I2
sg10
I2
sg11
I730
ssS'none'
p14
(dp15
g5
I460
sg6
I33
sg7
I5
sg8
I0
sg9
I7
sg10
I2
sg11
I460
ssS'three'
p16
(dp17
g5
I724
sg6
I38
sg7
I0
sg8
I4
sg9
I7
sg10
I0
sg11
I360
sssS'Wahono.csv'
p18
(dp19
g3
(dp20
g5
I1938
sg6
I60
sg7
I0
sg8
I4
sg9
I2
sg10
I4
sg11
I1260
ssg12
(dp21
g5
I1202
sg6
I56
sg7
I2
sg8
I6
sg9
I4
sg10
I0
sg11
I920
ssg14
(dp22
g5
I1720
sg6
I50
sg7
I10
sg8
I0
sg9
I2
sg10
I3
sg11
I1720
ssg16
(dp23
g5
I2328
sg6
I58
sg7
I1
sg8
I8
sg9
I3
sg10
I0
sg11
I1160
sssS'Hall.csv'
p24
(dp25
g3
(dp26
g5
I706
sg6
I100
sg7
I2
sg8
I7
sg9
I2
sg10
I1
sg11
I530
ssg12
(dp27
g5
I584
sg6
I95
sg7
I6
sg8
I10
sg9
I3
sg10
I1
sg11
I430
ssg14
(dp28
g5
I490
sg6
I95
sg7
I6
sg8
I0
sg9
I3
sg10
I1
sg11
I490
ssg16
(dp29
g5
I955
sg6
I99
sg7
I2
sg8
I15
sg9
I3
sg10
I0
sg11
I470
sssS'Danijel.csv'
p30
(dp31
g3
(dp32
g5
I1372
sg6
I45
sg7
I0
sg8
I3
sg9
I3
sg10
I1
sg11
I850
ssg12
(dp33
g5
I929
sg6
I43
sg7
I1
sg8
I4
sg9
I4
sg10
I1
sg11
I660
ssg14
(dp34
g5
I800
sg6
I45
sg7
I1
sg8
I0
sg9
I2
sg10
I1
sg11
I800
ssg16
(dp35
g5
I1550
sg6
I44
sg7
I1
sg8
I10
sg9
I3
sg10
I0
sg11
I770
sss.(dp0
S'K_all3.csv'
p1
(dp2
S'machine'
p3
(dp4
S'count'
p5
I652
sS'truepos'
p6
I36
sS'falseneg'
p7
I0
sS'correction'
p8
I4
sS'unknownyes'
p9
I9
sS'falsepos'
p10
I1
sS'unique'
p11
I420
ssS'knee'
p12
(dp13
g5
I865
sg6
I38
sg7
I4
sg8
I5
sg9
I3
sg10
I1
sg11
I700
ssS'none'
p14
(dp15
g5
I560
sg6
I32
sg7
I6
sg8
I0
sg9
I7
sg10
I6
sg11
I560
ssS'three'
p16
(dp17
g5
I849
sg6
I40
sg7
I1
sg8
I9
sg9
I4
sg10
I0
sg11
I420
sssS'Wahono.csv'
p18
(dp19
g3
(dp20
g5
I1671
sg6
I58
sg7
I1
sg8
I4
sg9
I3
sg10
I1
sg11
I1150
ssg12
(dp21
g5
I1169
sg6
I56
sg7
I3
sg8
I2
sg9
I3
sg10
I0
sg11
I950
ssg14
(dp22
g5
I1430
sg6
I52
sg7
I8
sg8
I0
sg9
I2
sg10
I3
sg11
I1430
ssg16
(dp23
g5
I2272
sg6
I59
sg7
I0
sg8
I12
sg9
I3
sg10
I0
sg11
I1130
sssS'Hall.csv'
p24
(dp25
g3
(dp26
g5
I521
sg6
I99
sg7
I2
sg8
I8
sg9
I3
sg10
I0
sg11
I370
ssg12
(dp27
g5
I672
sg6
I97
sg7
I5
sg8
I14
sg9
I2
sg10
I0
sg11
I490
ssg14
(dp28
g5
I630
sg6
I88
sg7
I14
sg8
I0
sg9
I2
sg10
I0
sg11
I630
ssg16
(dp29
g5
I978
sg6
I102
sg7
I0
sg8
I18
sg9
I2
sg10
I0
sg11
I480
sssS'Danijel.csv'
p30
(dp31
g3
(dp32
g5
I1393
sg6
I45
sg7
I1
sg8
I4
sg9
I2
sg10
I2
sg11
I840
ssg12
(dp33
g5
I282
sg6
I29
sg7
I1
sg8
I1
sg9
I18
sg10
I0
sg11
I170
ssg14
(dp34
g5
I780
sg6
I42
sg7
I3
sg8
I0
sg9
I3
sg10
I1
sg11
I780
ssg16
(dp35
g5
I1670
sg6
I43
sg7
I2
sg8
I9
sg9
I3
sg10
I0
sg11
I830
sss.(dp0
S'K_all3.csv'
p1
(dp2
S'machine'
p3
(dp4
S'count'
p5
I580
sS'truepos'
p6
I36
sS'falseneg'
p7
I2
sS'correction'
p8
I2
sS'unknownyes'
p9
I7
sS'falsepos'
p10
I0
sS'unique'
p11
I380
ssS'knee'
p12
(dp13
g5
I1329
sg6
I41
sg7
I2
sg8
I4
sg9
I2
sg10
I0
sg11
I900
ssS'none'
p14
(dp15
g5
I520
sg6
I34
sg7
I7
sg8
I0
sg9
I4
sg10
I1
sg11
I520
ssS'three'
p16
(dp17
g5
I830
sg6
I38
sg7
I1
sg8
I10
sg9
I6
sg10
I0
sg11
I410
sssS'Wahono.csv'
p18
(dp19
g3
(dp20
g5
I1791
sg6
I58
sg7
I1
sg8
I5
sg9
I3
sg10
I1
sg11
I1210
ssg12
(dp21
g5
I1176
sg6
I55
sg7
I3
sg8
I5
sg9
I4
sg10
I3
sg11
I920
ssg14
(dp22
g5
I1490
sg6
I47
sg7
I12
sg8
I0
sg9
I3
sg10
I0
sg11
I1490
ssg16
(dp23
g5
I2251
sg6
I58
sg7
I1
sg8
I11
sg9
I3
sg10
I0
sg11
I1120
sssS'Hall.csv'
p24
(dp25
g3
(dp26
g5
I664
sg6
I102
sg7
I0
sg8
I9
sg9
I2
sg10
I0
sg11
I490
ssg12
(dp27
g5
I613
sg6
I95
sg7
I6
sg8
I8
sg9
I3
sg10
I0
sg11
I460
ssg14
(dp28
g5
I450
sg6
I95
sg7
I7
sg8
I0
sg9
I2
sg10
I0
sg11
I450
ssg16
(dp29
g5
I1016
sg6
I102
sg7
I0
sg8
I16
sg9
I2
sg10
I0
sg11
I500
sssS'Danijel.csv'
p30
(dp31
g3
(dp32
g5
I1253
sg6
I44
sg7
I0
sg8
I2
sg9
I4
sg10
I1
sg11
I740
ssg12
(dp33
g5
I122
sg6
I18
sg7
I0
sg8
I0
sg9
I30
sg10
I0
sg11
I80
ssg14
(dp34
g5
I990
sg6
I40
sg7
I5
sg8
I0
sg9
I3
sg10
I0
sg11
I990
ssg16
(dp35
g5
I1715
sg6
I44
sg7
I1
sg8
I14
sg9
I3
sg10
I0
sg11
I850
sss.(dp0
S'K_all3.csv'
p1
(dp2
S'machine'
p3
(dp4
S'count'
p5
I650
sS'truepos'
p6
I34
sS'falseneg'
p7
I2
sS'correction'
p8
I4
sS'unknownyes'
p9
I9
sS'falsepos'
p10
I2
sS'unique'
p11
I430
ssS'knee'
p12
(dp13
g5
I447
sg6
I32
sg7
I0
sg8
I2
sg9
I13
sg10
I1
sg11
I320
ssS'none'
p14
(dp15
g5
I450
sg6
I38
sg7
I2
sg8
I0
sg9
I5
sg10
I1
sg11
I450
ssS'three'
p16
(dp17
g5
I895
sg6
I39
sg7
I1
sg8
I15
sg9
I5
sg10
I0
sg11
I440
sssS'Wahono.csv'
p18
(dp19
g3
(dp20
g5
I1677
sg6
I59
sg7
I0
sg8
I7
sg9
I3
sg10
I1
sg11
I1120
ssg12
(dp21
g5
I729
sg6
I49
sg7
I3
sg8
I3
sg9
I10
sg10
I1
sg11
I470
ssg14
(dp22
g5
I1530
sg6
I49
sg7
I11
sg8
I0
sg9
I2
sg10
I2
sg11
I1530
ssg16
(dp23
g5
I2334
sg6
I57
sg7
I2
sg8
I12
sg9
I3
sg10
I0
sg11
I1160
sssS'Hall.csv'
p24
(dp25
g3
(dp26
g5
I628
sg6
I100
sg7
I2
sg8
I8
sg9
I2
sg10
I0
sg11
I460
ssg12
(dp27
g5
I636
sg6
I99
sg7
I3
sg8
I9
sg9
I2
sg10
I0
sg11
I450
ssg14
(dp28
g5
I470
sg6
I95
sg7
I7
sg8
I0
sg9
I2
sg10
I0
sg11
I470
ssg16
(dp29
g5
I1141
sg6
I101
sg7
I1
sg8
I21
sg9
I2
sg10
I0
sg11
I560
sssS'Danijel.csv'
p30
(dp31
g3
(dp32
g5
I1127
sg6
I45
sg7
I0
sg8
I2
sg9
I3
sg10
I0
sg11
I690
ssg12
(dp33
g5
I584
sg6
I38
sg7
I3
sg8
I5
sg9
I7
sg10
I0
sg11
I410
ssg14
(dp34
g5
I810
sg6
I39
sg7
I6
sg8
I0
sg9
I3
sg10
I0
sg11
I810
ssg16
(dp35
g5
I1489
sg6
I45
sg7
I0
sg8
I9
sg9
I3
sg10
I0
sg11
I740
sss.(dp0
S'K_all3.csv'
p1
(dp2
S'machine'
p3
(dp4
S'count'
p5
I600
sS'truepos'
p6
I35
sS'falseneg'
p7
I2
sS'correction'
p8
I2
sS'unknownyes'
p9
I8
sS'falsepos'
p10
I4
sS'unique'
p11
I380
ssS'knee'
p12
(dp13
g5
I645
sg6
I35
sg7
I3
sg8
I2
sg9
I7
sg10
I0
sg11
I450
ssS'none'
p14
(dp15
g5
I490
sg6
I36
sg7
I5
sg8
I0
sg9
I4
sg10
I1
sg11
I490
ssS'three'
p16
(dp17
g5
I908
sg6
I38
sg7
I2
sg8
I8
sg9
I5
sg10
I0
sg11
I450
sssS'Wahono.csv'
p18
(dp19
g3
(dp20
g5
I1785
sg6
I57
sg7
I3
sg8
I12
sg9
I2
sg10
I0
sg11
I1190
ssg12
(dp21
g5
I574
sg6
I43
sg7
I1
sg8
I7
sg9
I18
sg10
I0
sg11
I420
ssg14
(dp22
g5
I1420
sg6
I53
sg7
I6
sg8
I0
sg9
I3
sg10
I2
sg11
I1420
ssg16
(dp23
g5
I2272
sg6
I58
sg7
I1
sg8
I12
sg9
I3
sg10
I0
sg11
I1130
sssS'Hall.csv'
p24
(dp25
g3
(dp26
g5
I674
sg6
I97
sg7
I5
sg8
I9
sg9
I2
sg10
I1
sg11
I470
ssg12
(dp27
g5
I561
sg6
I99
sg7
I1
sg8
I7
sg9
I4
sg10
I1
sg11
I390
ssg14
(dp28
g5
I520
sg6
I93
sg7
I9
sg8
I0
sg9
I2
sg10
I0
sg11
I520
ssg16
(dp29
g5
I953
sg6
I101
sg7
I1
sg8
I13
sg9
I2
sg10
I0
sg11
I470
sssS'Danijel.csv'
p30
(dp31
g3
(dp32
g5
I1253
sg6
I45
sg7
I0
sg8
I1
sg9
I3
sg10
I0
sg11
I810
ssg12
(dp33
g5
I628
sg6
I41
sg7
I1
sg8
I2
sg9
I6
sg10
I1
sg11
I430
ssg14
(dp34
g5
I800
sg6
I39
sg7
I6
sg8
I0
sg9
I3
sg10
I0
sg11
I800
ssg16
(dp35
g5
I1525
sg6
I44
sg7
I1
sg8
I4
sg9
I3
sg10
I0
sg11
I760
sss.(dp0
S'K_all3.csv'
p1
(dp2
S'machine'
p3
(dp4
S'count'
p5
I658
sS'truepos'
p6
I35
sS'falseneg'
p7
I1
sS'correction'
p8
I3
sS'unknownyes'
p9
I9
sS'falsepos'
p10
I3
sS'unique'
p11
I410
ssS'knee'
p12
(dp13
g5
I1119
sg6
I42
sg7
I0
sg8
I8
sg9
I3
sg10
I1
sg11
I740
ssS'none'
p14
(dp15
g5
I450
sg6
I37
sg7
I3
sg8
I0
sg9
I5
sg10
I1
sg11
I450
ssS'three'
p16
(dp17
g5
I784
sg6
I38
sg7
I0
sg8
I4
sg9
I7
sg10
I0
sg11
I390
sssS'Wahono.csv'
p18
(dp19
g3
(dp20
g5
I1704
sg6
I59
sg7
I0
sg8
I5
sg9
I3
sg10
I0
sg11
I1160
ssg12
(dp21
g5
I968
sg6
I57
sg7
I1
sg8
I3
sg9
I4
sg10
I0
sg11
I730
ssg14
(dp22
g5
I1540
sg6
I54
sg7
I5
sg8
I0
sg9
I3
sg10
I2
sg11
I1540
ssg16
(dp23
g5
I2468
sg6
I56
sg7
I3
sg8
I7
sg9
I3
sg10
I0
sg11
I1230
sssS'Hall.csv'
p24
(dp25
g3
(dp26
g5
I677
sg6
I101
sg7
I1
sg8
I12
sg9
I2
sg10
I0
sg11
I500
ssg12
(dp27
g5
I528
sg6
I99
sg7
I1
sg8
I7
sg9
I4
sg10
I0
sg11
I370
ssg14
(dp28
g5
I560
sg6
I90
sg7
I12
sg8
I0
sg9
I2
sg10
I1
sg11
I560
ssg16
(dp29
g5
I1018
sg6
I98
sg7
I4
sg8
I16
sg9
I2
sg10
I0
sg11
I500
sssS'Danijel.csv'
p30
(dp31
g3
(dp32
g5
I1174
sg6
I43
sg7
I1
sg8
I7
sg9
I4
sg10
I1
sg11
I720
ssg12
(dp33
g5
I517
sg6
I40
sg7
I1
sg8
I4
sg9
I7
sg10
I0
sg11
I390
ssg14
(dp34
g5
I790
sg6
I42
sg7
I3
sg8
I0
sg9
I3
sg10
I1
sg11
I790
ssg16
(dp35
g5
I1568
sg6
I44
sg7
I1
sg8
I8
sg9
I3
sg10
I0
sg11
I780
sss.(dp0
S'K_all3.csv'
p1
(dp2
S'machine'
p3
(dp4
S'count'
p5
I617
sS'truepos'
p6
I37
sS'falseneg'
p7
I1
sS'correction'
p8
I5
sS'unknownyes'
p9
I7
sS'falsepos'
p10
I1
sS'unique'
p11
I410
ssS'knee'
p12
(dp13
g5
I1084
sg6
I40
sg7
I2
sg8
I1
sg9
I3
sg10
I1
sg11
I720
ssS'none'
p14
(dp15
g5
I460
sg6
I34
sg7
I4
sg8
I0
sg9
I7
sg10
I2
sg11
I460
ssS'three'
p16
(dp17
g5
I810
sg6
I39
sg7
I0
sg8
I10
sg9
I6
sg10
I0
sg11
I400
sssS'Wahono.csv'
p18
(dp19
g3
(dp20
g5
I1631
sg6
I58
sg7
I1
sg8
I3
sg9
I3
sg10
I2
sg11
I1060
ssg12
(dp21
g5
I24
sg6
I6
sg7
I0
sg8
I0
sg9
I56
sg10
I0
sg11
I20
ssg14
(dp22
g5
I1390
sg6
I56
sg7
I4
sg8
I0
sg9
I2
sg10
I1
sg11
I1390
ssg16
(dp23
g5
I2297
sg6
I59
sg7
I0
sg8
I17
sg9
I3
sg10
I0
sg11
I1140
sssS'Hall.csv'
p24
(dp25
g3
(dp26
g5
I665
sg6
I100
sg7
I2
sg8
I8
sg9
I2
sg10
I1
sg11
I490
ssg12
(dp27
g5
I34
sg6
I9
sg7
I0
sg8
I1
sg9
I95
sg10
I0
sg11
I30
ssg14
(dp28
g5
I570
sg6
I95
sg7
I7
sg8
I0
sg9
I2
sg10
I0
sg11
I570
ssg16
(dp29
g5
I1105
sg6
I98
sg7
I4
sg8
I23
sg9
I2
sg10
I0
sg11
I540
sssS'Danijel.csv'
p30
(dp31
g3
(dp32
g5
I1309
sg6
I42
sg7
I3
sg8
I5
sg9
I3
sg10
I0
sg11
I800
ssg12
(dp33
g5
I648
sg6
I40
sg7
I4
sg8
I1
sg9
I4
sg10
I0
sg11
I500
ssg14
(dp34
g5
I810
sg6
I42
sg7
I3
sg8
I0
sg9
I3
sg10
I0
sg11
I810
ssg16
(dp35
g5
I1388
sg6
I44
sg7
I1
sg8
I7
sg9
I3
sg10
I0
sg11
I690
sss.(dp0
S'K_all3.csv'
p1
(dp2
S'machine'
p3
(dp4
S'count'
p5
I735
sS'truepos'
p6
I39
sS'falseneg'
p7
I2
sS'correction'
p8
I3
sS'unknownyes'
p9
I4
sS'falsepos'
p10
I1
sS'unique'
p11
I470
ssS'knee'
p12
(dp13
g5
I1375
sg6
I42
sg7
I1
sg8
I4
sg9
I2
sg10
I4
sg11
I940
ssS'none'
p14
(dp15
g5
I470
sg6
I34
sg7
I6
sg8
I0
sg9
I5
sg10
I1
sg11
I470
ssS'three'
p16
(dp17
g5
I791
sg6
I38
sg7
I1
sg8
I11
sg9
I6
sg10
I0
sg11
I390
sssS'Wahono.csv'
p18
(dp19
g3
(dp20
g5
I1734
sg6
I59
sg7
I0
sg8
I5
sg9
I3
sg10
I2
sg11
I1170
ssg12
(dp21
g5
I755
sg6
I48
sg7
I2
sg8
I4
sg9
I12
sg10
I0
sg11
I520
ssg14
(dp22
g5
I1230
sg6
I56
sg7
I3
sg8
I0
sg9
I3
sg10
I1
sg11
I1230
ssg16
(dp23
g5
I2193
sg6
I58
sg7
I1
sg8
I13
sg9
I3
sg10
I0
sg11
I1090
sssS'Hall.csv'
p24
(dp25
g3
(dp26
g5
I588
sg6
I99
sg7
I1
sg8
I7
sg9
I4
sg10
I1
sg11
I420
ssg12
(dp27
g5
I573
sg6
I98
sg7
I4
sg8
I5
sg9
I2
sg10
I0
sg11
I410
ssg14
(dp28
g5
I540
sg6
I96
sg7
I6
sg8
I0
sg9
I2
sg10
I1
sg11
I540
ssg16
(dp29
g5
I980
sg6
I97
sg7
I4
sg8
I18
sg9
I3
sg10
I0
sg11
I480
sssS'Danijel.csv'
p30
(dp31
g3
(dp32
g5
I1273
sg6
I45
sg7
I0
sg8
I2
sg9
I3
sg10
I0
sg11
I760
ssg12
(dp33
g5
I306
sg6
I28
sg7
I1
sg8
I2
sg9
I19
sg10
I0
sg11
I200
ssg14
(dp34
g5
I950
sg6
I41
sg7
I4
sg8
I0
sg9
I3
sg10
I1
sg11
I950
ssg16
(dp35
g5
I1453
sg6
I45
sg7
I0
sg8
I13
sg9
I3
sg10
I0
sg11
I720
sss.(dp0
S'K_all3.csv'
p1
(dp2
S'machine'
p3
(dp4
S'count'
p5
I692
sS'truepos'
p6
I39
sS'falseneg'
p7
I0
sS'correction'
p8
I4
sS'unknownyes'
p9
I6
sS'falsepos'
p10
I3
sS'unique'
p11
I430
ssS'knee'
p12
(dp13
g5
I453
sg6
I31
sg7
I0
sg8
I3
sg9
I14
sg10
I1
sg11
I290
ssS'none'
p14
(dp15
g5
I470
sg6
I30
sg7
I7
sg8
I0
sg9
I8
sg10
I1
sg11
I470
ssS'three'
p16
(dp17
g5
I791
sg6
I38
sg7
I1
sg8
I11
sg9
I6
sg10
I0
sg11
I390
sssS'Wahono.csv'
p18
(dp19
g3
(dp20
g5
I1836
sg6
I59
sg7
I0
sg8
I8
sg9
I3
sg10
I2
sg11
I1250
ssg12
(dp21
g5
I762
sg6
I48
sg7
I3
sg8
I3
sg9
I11
sg10
I0
sg11
I530
ssg14
(dp22
g5
I1050
sg6
I56
sg7
I4
sg8
I0
sg9
I2
sg10
I1
sg11
I1050
ssg16
(dp23
g5
I2395
sg6
I58
sg7
I1
sg8
I15
sg9
I3
sg10
I0
sg11
I1190
sssS'Hall.csv'
p24
(dp25
g3
(dp26
g5
I679
sg6
I101
sg7
I1
sg8
I9
sg9
I2
sg10
I0
sg11
I480
ssg12
(dp27
g5
I534
sg6
I99
sg7
I2
sg8
I12
sg9
I3
sg10
I0
sg11
I370
ssg14
(dp28
g5
I630
sg6
I90
sg7
I12
sg8
I0
sg9
I2
sg10
I1
sg11
I630
ssg16
(dp29
g5
I997
sg6
I99
sg7
I2
sg8
I16
sg9
I3
sg10
I0
sg11
I490
sssS'Danijel.csv'
p30
(dp31
g3
(dp32
g5
I1222
sg6
I45
sg7
I1
sg8
I5
sg9
I2
sg10
I2
sg11
I780
ssg12
(dp33
g5
I599
sg6
I38
sg7
I5
sg8
I1
sg9
I5
sg10
I1
sg11
I500
ssg14
(dp34
g5
I850
sg6
I40
sg7
I5
sg8
I0
sg9
I3
sg10
I1
sg11
I850
ssg16
(dp35
g5
I1632
sg6
I45
sg7
I0
sg8
I12
sg9
I3
sg10
I0
sg11
I810
sss.(dp0
S'K_all3.csv'
p1
(dp2
S'machine'
p3
(dp4
S'count'
p5
I616
sS'truepos'
p6
I36
sS'falseneg'
p7
I3
sS'correction'
p8
I2
sS'unknownyes'
p9
I6
sS'falsepos'
p10
I2
sS'unique'
p11
I420
ssS'knee'
p12
(dp13
g5
I1224
sg6
I41
sg7
I2
sg8
I3
sg9
I2
sg10
I2
sg11
I840
ssS'none'
p14
(dp15
g5
I510
sg6
I36
sg7
I5
sg8
I0
sg9
I4
sg10
I0
sg11
I510
ssS'three'
p16
(dp17
g5
I826
sg6
I38
sg7
I1
sg8
I6
sg9
I6
sg10
I0
sg11
I410
sssS'Wahono.csv'
p18
(dp19
g3
(dp20
g5
I1758
sg6
I58
sg7
I1
sg8
I4
sg9
I3
sg10
I1
sg11
I1170
ssg12
(dp21
g5
I24
sg6
I6
sg7
I0
sg8
I0
sg9
I56
sg10
I0
sg11
I20
ssg14
(dp22
g5
I1510
sg6
I53
sg7
I7
sg8
I0
sg9
I2
sg10
I1
sg11
I1510
ssg16
(dp23
g5
I2293
sg6
I58
sg7
I1
sg8
I12
sg9
I3
sg10
I0
sg11
I1140
sssS'Hall.csv'
p24
(dp25
g3
(dp26
g5
I712
sg6
I100
sg7
I2
sg8
I15
sg9
I2
sg10
I0
sg11
I520
ssg12
(dp27
g5
I529
sg6
I94
sg7
I5
sg8
I9
sg9
I5
sg10
I0
sg11
I350
ssg14
(dp28
g5
I550
sg6
I92
sg7
I10
sg8
I0
sg9
I2
sg10
I0
sg11
I550
ssg16
(dp29
g5
I997
sg6
I97
sg7
I5
sg8
I16
sg9
I2
sg10
I0
sg11
I490
sssS'Danijel.csv'
p30
(dp31
g3
(dp32
g5
I1229
sg6
I44
sg7
I1
sg8
I4
sg9
I3
sg10
I1
sg11
I740
ssg12
(dp33
g5
I828
sg6
I44
sg7
I0
sg8
I2
sg9
I4
sg10
I0
sg11
I590
ssg14
(dp34
g5
I770
sg6
I42
sg7
I3
sg8
I0
sg9
I3
sg10
I0
sg11
I770
ssg16
(dp35
g5
I1554
sg6
I45
sg7
I0
sg8
I14
sg9
I3
sg10
I0
sg11
I770
sss.(dp0
S'K_all3.csv'
p1
(dp2
S'machine'
p3
(dp4
S'count'
p5
I629
sS'truepos'
p6
I35
sS'falseneg'
p7
I1
sS'correction'
p8
I1
sS'unknownyes'
p9
I9
sS'falsepos'
p10
I3
sS'unique'
p11
I380
ssS'knee'
p12
(dp13
g5
I994
sg6
I40
sg7
I2
sg8
I4
sg9
I3
sg10
I2
sg11
I800
ssS'none'
p14
(dp15
g5
I450
sg6
I38
sg7
I2
sg8
I0
sg9
I5
sg10
I0
sg11
I450
ssS'three'
p16
(dp17
g5
I908
sg6
I37
sg7
I2
sg8
I8
sg9
I6
sg10
I0
sg11
I450
sssS'Wahono.csv'
p18
(dp19
g3
(dp20
g5
I1778
sg6
I58
sg7
I1
sg8
I7
sg9
I3
sg10
I1
sg11
I1190
ssg12
(dp21
g5
I1080
sg6
I54
sg7
I4
sg8
I3
sg9
I4
sg10
I0
sg11
I880
ssg14
(dp22
g5
I1240
sg6
I51
sg7
I8
sg8
I0
sg9
I3
sg10
I1
sg11
I1240
ssg16
(dp23
g5
I2312
sg6
I57
sg7
I3
sg8
I12
sg9
I2
sg10
I0
sg11
I1150
sssS'Hall.csv'
p24
(dp25
g3
(dp26
g5
I654
sg6
I101
sg7
I1
sg8
I15
sg9
I2
sg10
I1
sg11
I470
ssg12
(dp27
g5
I627
sg6
I100
sg7
I1
sg8
I9
sg9
I3
sg10
I1
sg11
I470
ssg14
(dp28
g5
I500
sg6
I90
sg7
I12
sg8
I0
sg9
I2
sg10
I1
sg11
I500
ssg16
(dp29
g5
I1168
sg6
I99
sg7
I3
sg8
I27
sg9
I2
sg10
I0
sg11
I570
sssS'Danijel.csv'
p30
(dp31
g3
(dp32
g5
I1193
sg6
I45
sg7
I0
sg8
I5
sg9
I3
sg10
I0
sg11
I750
ssg12
(dp33
g5
I856
sg6
I43
sg7
I1
sg8
I5
sg9
I4
sg10
I1
sg11
I580
ssg14
(dp34
g5
I790
sg6
I42
sg7
I3
sg8
I0
sg9
I3
sg10
I1
sg11
I790
ssg16
(dp35
g5
I1491
sg6
I45
sg7
I0
sg8
I11
sg9
I3
sg10
I0
sg11
I740
sss.(dp0
S'K_all3.csv'
p1
(dp2
S'machine'
p3
(dp4
S'count'
p5
I653
sS'truepos'
p6
I38
sS'falseneg'
p7
I0
sS'correction'
p8
I0
sS'unknownyes'
p9
I7
sS'falsepos'
p10
I2
sS'unique'
p11
I420
ssS'knee'
p12
(dp13
g5
I375
sg6
I30
sg7
I1
sg8
I1
sg9
I14
sg10
I0
sg11
I250
ssS'none'
p14
(dp15
g5
I490
sg6
I37
sg7
I3
sg8
I0
sg9
I5
sg10
I1
sg11
I490
ssS'three'
p16
(dp17
g5
I807
sg6
I38
sg7
I0
sg8
I7
sg9
I7
sg10
I0
sg11
I400
sssS'Wahono.csv'
p18
(dp19
g3
(dp20
g5
I1776
sg6
I59
sg7
I0
sg8
I6
sg9
I3
sg10
I1
sg11
I1230
ssg12
(dp21
g5
I1215
sg6
I56
sg7
I3
sg8
I3
sg9
I3
sg10
I1
sg11
I970
ssg14
(dp22
g5
I1170
sg6
I54
sg7
I5
sg8
I0
sg9
I3
sg10
I1
sg11
I1170
ssg16
(dp23
g5
I2659
sg6
I57
sg7
I3
sg8
I17
sg9
I2
sg10
I0
sg11
I1320
sssS'Hall.csv'
p24
(dp25
g3
(dp26
g5
I618
sg6
I101
sg7
I1
sg8
I6
sg9
I2
sg10
I1
sg11
I450
ssg12
(dp27
g5
I540
sg6
I99
sg7
I1
sg8
I11
sg9
I4
sg10
I0
sg11
I390
ssg14
(dp28
g5
I560
sg6
I88
sg7
I14
sg8
I0
sg9
I2
sg10
I0
sg11
I560
ssg16
(dp29
g5
I1063
sg6
I102
sg7
I0
sg8
I23
sg9
I2
sg10
I0
sg11
I520
sssS'Danijel.csv'
p30
(dp31
g3
(dp32
g5
I1248
sg6
I46
sg7
I0
sg8
I7
sg9
I2
sg10
I3
sg11
I750
ssg12
(dp33
g5
I715
sg6
I44
sg7
I1
sg8
I0
sg9
I3
sg10
I0
sg11
I550
ssg14
(dp34
g5
I760
sg6
I40
sg7
I6
sg8
I0
sg9
I2
sg10
I0
sg11
I760
ssg16
(dp35
g5
I1587
sg6
I44
sg7
I1
sg8
I7
sg9
I3
sg10
I0
sg11
I790
sss.(dp0
S'K_all3.csv'
p1
(dp2
S'machine'
p3
(dp4
S'count'
p5
I578
sS'truepos'
p6
I37
sS'falseneg'
p7
I0
sS'correction'
p8
I3
sS'unknownyes'
p9
I8
sS'falsepos'
p10
I2
sS'unique'
p11
I370
ssS'knee'
p12
(dp13
g5
I192
sg6
I20
sg7
I1
sg8
I2
sg9
I24
sg10
I0
sg11
I120
ssS'none'
p14
(dp15
g5
I470
sg6
I37
sg7
I5
sg8
I0
sg9
I3
sg10
I1
sg11
I470
ssS'three'
p16
(dp17
g5
I1011
sg6
I37
sg7
I3
sg8
I9
sg9
I5
sg10
I0
sg11
I500
sssS'Wahono.csv'
p18
(dp19
g3
(dp20
g5
I1791
sg6
I57
sg7
I2
sg8
I3
sg9
I3
sg10
I2
sg11
I1200
ssg12
(dp21
g5
I1085
sg6
I57
sg7
I2
sg8
I9
sg9
I3
sg10
I0
sg11
I840
ssg14
(dp22
g5
I1550
sg6
I53
sg7
I8
sg8
I0
sg9
I1
sg10
I6
sg11
I1550
ssg16
(dp23
g5
I2813
sg6
I55
sg7
I4
sg8
I12
sg9
I3
sg10
I0
sg11
I1400
sssS'Hall.csv'
p24
(dp25
g3
(dp26
g5
I725
sg6
I101
sg7
I1
sg8
I10
sg9
I2
sg10
I1
sg11
I520
ssg12
(dp27
g5
I531
sg6
I97
sg7
I4
sg8
I8
sg9
I3
sg10
I0
sg11
I370
ssg14
(dp28
g5
I660
sg6
I89
sg7
I13
sg8
I0
sg9
I2
sg10
I2
sg11
I660
ssg16
(dp29
g5
I1061
sg6
I99
sg7
I3
sg8
I20
sg9
I2
sg10
I0
sg11
I520
sssS'Danijel.csv'
p30
(dp31
g3
(dp32
g5
I1256
sg6
I46
sg7
I0
sg8
I6
sg9
I2
sg10
I0
sg11
I780
ssg12
(dp33
g5
I966
sg6
I44
sg7
I2
sg8
I6
sg9
I2
sg10
I0
sg11
I790
ssg14
(dp34
g5
I860
sg6
I39
sg7
I7
sg8
I0
sg9
I2
sg10
I0
sg11
I860
ssg16
(dp35
g5
I1529
sg6
I42
sg7
I3
sg8
I8
sg9
I3
sg10
I0
sg11
I760
sss.