(dp0
S'K_all3.csv'
p1
(dp2
S'machine'
p3
(dp4
S'count'
p5
I490
sS'truepos'
p6
I38
sS'falseneg'
p7
I0
sS'unknownyes'
p8
I7
sS'falsepos'
p9
I0
sS'unique'
p10
I490
ssS'none'
p11
(dp12
g5
I510
sg6
I37
sg7
I0
sg8
I8
sg9
I0
sg10
I510
ssS'three'
p13
(dp14
g5
I1040
sg6
I37
sg7
I0
sg8
I8
sg9
I0
sg10
I520
ssS'machine3'
p15
(dp16
g5
I527
sg6
I37
sg7
I0
sg8
I8
sg9
I0
sg10
I490
ssS'machine2'
p17
(dp18
g5
I490
sg6
I36
sg7
I0
sg8
I9
sg9
I0
sg10
I490
sssS'Wahono.csv'
p19
(dp20
g3
(dp21
g5
I1140
sg6
I59
sg7
I0
sg8
I3
sg9
I0
sg10
I1140
ssg11
(dp22
g5
I1180
sg6
I59
sg7
I0
sg8
I3
sg9
I0
sg10
I1180
ssg13
(dp23
g5
I2200
sg6
I59
sg7
I0
sg8
I3
sg9
I0
sg10
I1100
ssg15
(dp24
g5
I1069
sg6
I59
sg7
I0
sg8
I3
sg9
I0
sg10
I1010
ssg17
(dp25
g5
I1150
sg6
I59
sg7
I0
sg8
I3
sg9
I0
sg10
I1150
sssS'Hall.csv'
p26
(dp27
g3
(dp28
g5
I480
sg6
I102
sg7
I0
sg8
I4
sg9
I0
sg10
I480
ssg11
(dp29
g5
I470
sg6
I101
sg7
I0
sg8
I5
sg9
I0
sg10
I470
ssg13
(dp30
g5
I900
sg6
I102
sg7
I0
sg8
I4
sg9
I0
sg10
I450
ssg15
(dp31
g5
I612
sg6
I102
sg7
I0
sg8
I4
sg9
I0
sg10
I510
ssg17
(dp32
g5
I490
sg6
I102
sg7
I0
sg8
I4
sg9
I0
sg10
I490
sssS'Danijel.csv'
p33
(dp34
g3
(dp35
g5
I770
sg6
I45
sg7
I0
sg8
I3
sg9
I0
sg10
I770
ssg11
(dp36
g5
I750
sg6
I45
sg7
I0
sg8
I3
sg9
I0
sg10
I750
ssg13
(dp37
g5
I1500
sg6
I45
sg7
I0
sg8
I3
sg9
I0
sg10
I750
ssg15
(dp38
g5
I825
sg6
I45
sg7
I0
sg8
I3
sg9
I0
sg10
I780
ssg17
(dp39
g5
I770
sg6
I45
sg7
I0
sg8
I3
sg9
I0
sg10
I770
sss.(dp0
S'K_all3.csv'
p1
(dp2
S'machine'
p3
(dp4
S'count'
p5
I530
sS'truepos'
p6
I39
sS'falseneg'
p7
I0
sS'unknownyes'
p8
I6
sS'falsepos'
p9
I0
sS'unique'
p10
I530
ssS'none'
p11
(dp12
g5
I480
sg6
I36
sg7
I0
sg8
I9
sg9
I0
sg10
I480
ssS'three'
p13
(dp14
g5
I1000
sg6
I38
sg7
I0
sg8
I7
sg9
I0
sg10
I500
ssS'machine3'
p15
(dp16
g5
I547
sg6
I37
sg7
I0
sg8
I8
sg9
I0
sg10
I510
ssS'machine2'
p17
(dp18
g5
I480
sg6
I36
sg7
I0
sg8
I9
sg9
I0
sg10
I480
sssS'Wahono.csv'
p19
(dp20
g3
(dp21
g5
I1140
sg6
I59
sg7
I0
sg8
I3
sg9
I0
sg10
I1140
ssg11
(dp22
g5
I1220
sg6
I59
sg7
I0
sg8
I3
sg9
I0
sg10
I1220
ssg13
(dp23
g5
I2260
sg6
I59
sg7
I0
sg8
I3
sg9
I0
sg10
I1130
ssg15
(dp24
g5
I1149
sg6
I59
sg7
I0
sg8
I3
sg9
I0
sg10
I1090
ssg17
(dp25
g5
I1080
sg6
I59
sg7
I0
sg8
I3
sg9
I0
sg10
I1080
sssS'Hall.csv'
p26
(dp27
g3
(dp28
g5
I500
sg6
I102
sg7
I0
sg8
I4
sg9
I0
sg10
I500
ssg11
(dp29
g5
I430
sg6
I101
sg7
I0
sg8
I5
sg9
I0
sg10
I430
ssg13
(dp30
g5
I900
sg6
I102
sg7
I0
sg8
I4
sg9
I0
sg10
I450
ssg15
(dp31
g5
I622
sg6
I102
sg7
I0
sg8
I4
sg9
I0
sg10
I520
ssg17
(dp32
g5
I500
sg6
I102
sg7
I0
sg8
I4
sg9
I0
sg10
I500
sssS'Danijel.csv'
p33
(dp34
g3
(dp35
g5
I780
sg6
I45
sg7
I0
sg8
I3
sg9
I0
sg10
I780
ssg11
(dp36
g5
I750
sg6
I45
sg7
I0
sg8
I3
sg9
I0
sg10
I750
ssg13
(dp37
g5
I1340
sg6
I45
sg7
I0
sg8
I3
sg9
I0
sg10
I670
ssg15
(dp38
g5
I796
sg6
I46
sg7
I0
sg8
I2
sg9
I0
sg10
I750
ssg17
(dp39
g5
I750
sg6
I46
sg7
I0
sg8
I2
sg9
I0
sg10
I750
sss.(dp0
S'K_all3.csv'
p1
(dp2
S'machine'
p3
(dp4
S'count'
p5
I480
sS'truepos'
p6
I37
sS'falseneg'
p7
I0
sS'unknownyes'
p8
I8
sS'falsepos'
p9
I0
sS'unique'
p10
I480
ssS'none'
p11
(dp12
g5
I500
sg6
I37
sg7
I0
sg8
I8
sg9
I0
sg10
I500
ssS'three'
p13
(dp14
g5
I940
sg6
I37
sg7
I0
sg8
I8
sg9
I0
sg10
I470
ssS'machine3'
p15
(dp16
g5
I537
sg6
I37
sg7
I0
sg8
I8
sg9
I0
sg10
I500
ssS'machine2'
p17
(dp18
g5
I510
sg6
I37
sg7
I0
sg8
I8
sg9
I0
sg10
I510
sssS'Wahono.csv'
p19
(dp20
g3
(dp21
g5
I1090
sg6
I59
sg7
I0
sg8
I3
sg9
I0
sg10
I1090
ssg11
(dp22
g5
I1110
sg6
I59
sg7
I0
sg8
I3
sg9
I0
sg10
I1110
ssg13
(dp23
g5
I2340
sg6
I59
sg7
I0
sg8
I3
sg9
I0
sg10
I1170
ssg15
(dp24
g5
I1239
sg6
I59
sg7
I0
sg8
I3
sg9
I0
sg10
I1180
ssg17
(dp25
g5
I1180
sg6
I59
sg7
I0
sg8
I3
sg9
I0
sg10
I1180
sssS'Hall.csv'
p26
(dp27
g3
(dp28
g5
I490
sg6
I102
sg7
I0
sg8
I4
sg9
I0
sg10
I490
ssg11
(dp29
g5
I480
sg6
I102
sg7
I0
sg8
I4
sg9
I0
sg10
I480
ssg13
(dp30
g5
I1060
sg6
I102
sg7
I0
sg8
I4
sg9
I0
sg10
I530
ssg15
(dp31
g5
I582
sg6
I102
sg7
I0
sg8
I4
sg9
I0
sg10
I480
ssg17
(dp32
g5
I510
sg6
I102
sg7
I0
sg8
I4
sg9
I0
sg10
I510
sssS'Danijel.csv'
p33
(dp34
g3
(dp35
g5
I760
sg6
I45
sg7
I0
sg8
I3
sg9
I0
sg10
I760
ssg11
(dp36
g5
I730
sg6
I45
sg7
I0
sg8
I3
sg9
I0
sg10
I730
ssg13
(dp37
g5
I1500
sg6
I45
sg7
I0
sg8
I3
sg9
I0
sg10
I750
ssg15
(dp38
g5
I815
sg6
I45
sg7
I0
sg8
I3
sg9
I0
sg10
I770
ssg17
(dp39
g5
I820
sg6
I45
sg7
I0
sg8
I3
sg9
I0
sg10
I820
sss.(dp0
S'K_all3.csv'
p1
(dp2
S'machine'
p3
(dp4
S'count'
p5
I510
sS'truepos'
p6
I38
sS'falseneg'
p7
I0
sS'unknownyes'
p8
I7
sS'falsepos'
p9
I0
sS'unique'
p10
I510
ssS'none'
p11
(dp12
g5
I530
sg6
I38
sg7
I0
sg8
I7
sg9
I0
sg10
I530
ssS'three'
p13
(dp14
g5
I1020
sg6
I37
sg7
I0
sg8
I8
sg9
I0
sg10
I510
ssS'machine3'
p15
(dp16
g5
I538
sg6
I38
sg7
I0
sg8
I7
sg9
I0
sg10
I500
ssS'machine2'
p17
(dp18
g5
I520
sg6
I39
sg7
I0
sg8
I6
sg9
I0
sg10
I520
sssS'Wahono.csv'
p19
(dp20
g3
(dp21
g5
I1150
sg6
I59
sg7
I0
sg8
I3
sg9
I0
sg10
I1150
ssg11
(dp22
g5
I1100
sg6
I59
sg7
I0
sg8
I3
sg9
I0
sg10
I1100
ssg13
(dp23
g5
I2380
sg6
I59
sg7
I0
sg8
I3
sg9
I0
sg10
I1190
ssg15
(dp24
g5
I1199
sg6
I59
sg7
I0
sg8
I3
sg9
I0
sg10
I1140
ssg17
(dp25
g5
I1050
sg6
I59
sg7
I0
sg8
I3
sg9
I0
sg10
I1050
sssS'Hall.csv'
p26
(dp27
g3
(dp28
g5
I520
sg6
I102
sg7
I0
sg8
I4
sg9
I0
sg10
I520
ssg11
(dp29
g5
I510
sg6
I102
sg7
I0
sg8
I4
sg9
I0
sg10
I510
ssg13
(dp30
g5
I1000
sg6
I102
sg7
I0
sg8
I4
sg9
I0
sg10
I500
ssg15
(dp31
g5
I592
sg6
I102
sg7
I0
sg8
I4
sg9
I0
sg10
I490
ssg17
(dp32
g5
I490
sg6
I102
sg7
I0
sg8
I4
sg9
I0
sg10
I490
sssS'Danijel.csv'
p33
(dp34
g3
(dp35
g5
I760
sg6
I45
sg7
I0
sg8
I3
sg9
I0
sg10
I760
ssg11
(dp36
g5
I770
sg6
I46
sg7
I0
sg8
I2
sg9
I0
sg10
I770
ssg13
(dp37
g5
I1580
sg6
I45
sg7
I0
sg8
I3
sg9
I0
sg10
I790
ssg15
(dp38
g5
I765
sg6
I45
sg7
I0
sg8
I3
sg9
I0
sg10
I720
ssg17
(dp39
g5
I780
sg6
I46
sg7
I0
sg8
I2
sg9
I0
sg10
I780
sss.(dp0
S'K_all3.csv'
p1
(dp2
S'machine'
p3
(dp4
S'count'
p5
I510
sS'truepos'
p6
I36
sS'falseneg'
p7
I0
sS'unknownyes'
p8
I9
sS'falsepos'
p9
I0
sS'unique'
p10
I510
ssS'none'
p11
(dp12
g5
I510
sg6
I38
sg7
I0
sg8
I7
sg9
I0
sg10
I510
ssS'three'
p13
(dp14
g5
I940
sg6
I35
sg7
I0
sg8
I10
sg9
I0
sg10
I470
ssS'machine3'
p15
(dp16
g5
I548
sg6
I38
sg7
I0
sg8
I7
sg9
I0
sg10
I510
ssS'machine2'
p17
(dp18
g5
I480
sg6
I37
sg7
I0
sg8
I8
sg9
I0
sg10
I480
sssS'Wahono.csv'
p19
(dp20
g3
(dp21
g5
I1150
sg6
I59
sg7
I0
sg8
I3
sg9
I0
sg10
I1150
ssg11
(dp22
g5
I1140
sg6
I59
sg7
I0
sg8
I3
sg9
I0
sg10
I1140
ssg13
(dp23
g5
I2360
sg6
I59
sg7
I0
sg8
I3
sg9
I0
sg10
I1180
ssg15
(dp24
g5
I1189
sg6
I59
sg7
I0
sg8
I3
sg9
I0
sg10
I1130
ssg17
(dp25
g5
I1190
sg6
I59
sg7
I0
sg8
I3
sg9
I0
sg10
I1190
sssS'Hall.csv'
p26
(dp27
g3
(dp28
g5
I500
sg6
I102
sg7
I0
sg8
I4
sg9
I0
sg10
I500
ssg11
(dp29
g5
I480
sg6
I102
sg7
I0
sg8
I4
sg9
I0
sg10
I480
ssg13
(dp30
g5
I1020
sg6
I102
sg7
I0
sg8
I4
sg9
I0
sg10
I510
ssg15
(dp31
g5
I592
sg6
I102
sg7
I0
sg8
I4
sg9
I0
sg10
I490
ssg17
(dp32
g5
I470
sg6
I102
sg7
I0
sg8
I4
sg9
I0
sg10
I470
sssS'Danijel.csv'
p33
(dp34
g3
(dp35
g5
I810
sg6
I45
sg7
I0
sg8
I3
sg9
I0
sg10
I810
ssg11
(dp36
g5
I720
sg6
I45
sg7
I0
sg8
I3
sg9
I0
sg10
I720
ssg13
(dp37
g5
I1560
sg6
I46
sg7
I0
sg8
I2
sg9
I0
sg10
I780
ssg15
(dp38
g5
I775
sg6
I45
sg7
I0
sg8
I3
sg9
I0
sg10
I730
ssg17
(dp39
g5
I790
sg6
I46
sg7
I0
sg8
I2
sg9
I0
sg10
I790
sss.(dp0
S'K_all3.csv'
p1
(dp2
S'machine'
p3
(dp4
S'count'
p5
I500
sS'truepos'
p6
I38
sS'falseneg'
p7
I0
sS'unknownyes'
p8
I7
sS'falsepos'
p9
I0
sS'unique'
p10
I500
ssS'none'
p11
(dp12
g5
I490
sg6
I37
sg7
I0
sg8
I8
sg9
I0
sg10
I490
ssS'three'
p13
(dp14
g5
I960
sg6
I36
sg7
I0
sg8
I9
sg9
I0
sg10
I480
ssS'machine3'
p15
(dp16
g5
I529
sg6
I39
sg7
I0
sg8
I6
sg9
I0
sg10
I490
ssS'machine2'
p17
(dp18
g5
I530
sg6
I38
sg7
I0
sg8
I7
sg9
I0
sg10
I530
sssS'Wahono.csv'
p19
(dp20
g3
(dp21
g5
I1120
sg6
I59
sg7
I0
sg8
I3
sg9
I0
sg10
I1120
ssg11
(dp22
g5
I1060
sg6
I59
sg7
I0
sg8
I3
sg9
I0
sg10
I1060
ssg13
(dp23
g5
I2280
sg6
I59
sg7
I0
sg8
I3
sg9
I0
sg10
I1140
ssg15
(dp24
g5
I1179
sg6
I59
sg7
I0
sg8
I3
sg9
I0
sg10
I1120
ssg17
(dp25
g5
I1200
sg6
I59
sg7
I0
sg8
I3
sg9
I0
sg10
I1200
sssS'Hall.csv'
p26
(dp27
g3
(dp28
g5
I470
sg6
I101
sg7
I0
sg8
I5
sg9
I0
sg10
I470
ssg11
(dp29
g5
I490
sg6
I102
sg7
I0
sg8
I4
sg9
I0
sg10
I490
ssg13
(dp30
g5
I980
sg6
I102
sg7
I0
sg8
I4
sg9
I0
sg10
I490
ssg15
(dp31
g5
I602
sg6
I102
sg7
I0
sg8
I4
sg9
I0
sg10
I500
ssg17
(dp32
g5
I500
sg6
I102
sg7
I0
sg8
I4
sg9
I0
sg10
I500
sssS'Danijel.csv'
p33
(dp34
g3
(dp35
g5
I810
sg6
I46
sg7
I0
sg8
I2
sg9
I0
sg10
I810
ssg11
(dp36
g5
I770
sg6
I46
sg7
I0
sg8
I2
sg9
I0
sg10
I770
ssg13
(dp37
g5
I1600
sg6
I45
sg7
I0
sg8
I3
sg9
I0
sg10
I800
ssg15
(dp38
g5
I825
sg6
I45
sg7
I0
sg8
I3
sg9
I0
sg10
I780
ssg17
(dp39
g5
I690
sg6
I45
sg7
I0
sg8
I3
sg9
I0
sg10
I690
sss.(dp0
S'K_all3.csv'
p1
(dp2
S'machine'
p3
(dp4
S'count'
p5
I530
sS'truepos'
p6
I38
sS'falseneg'
p7
I0
sS'unknownyes'
p8
I7
sS'falsepos'
p9
I0
sS'unique'
p10
I530
ssS'none'
p11
(dp12
g5
I510
sg6
I38
sg7
I0
sg8
I7
sg9
I0
sg10
I510
ssS'three'
p13
(dp14
g5
I1100
sg6
I38
sg7
I0
sg8
I7
sg9
I0
sg10
I550
ssS'machine3'
p15
(dp16
g5
I547
sg6
I37
sg7
I0
sg8
I8
sg9
I0
sg10
I510
ssS'machine2'
p17
(dp18
g5
I520
sg6
I38
sg7
I0
sg8
I7
sg9
I0
sg10
I520
sssS'Wahono.csv'
p19
(dp20
g3
(dp21
g5
I1210
sg6
I59
sg7
I0
sg8
I3
sg9
I0
sg10
I1210
ssg11
(dp22
g5
I1170
sg6
I59
sg7
I0
sg8
I3
sg9
I0
sg10
I1170
ssg13
(dp23
g5
I2140
sg6
I59
sg7
I0
sg8
I3
sg9
I0
sg10
I1070
ssg15
(dp24
g5
I1119
sg6
I59
sg7
I0
sg8
I3
sg9
I0
sg10
I1060
ssg17
(dp25
g5
I1150
sg6
I59
sg7
I0
sg8
I3
sg9
I0
sg10
I1150
sssS'Hall.csv'
p26
(dp27
g3
(dp28
g5
I520
sg6
I102
sg7
I0
sg8
I4
sg9
I0
sg10
I520
ssg11
(dp29
g5
I520
sg6
I102
sg7
I0
sg8
I4
sg9
I0
sg10
I520
ssg13
(dp30
g5
I980
sg6
I102
sg7
I0
sg8
I4
sg9
I0
sg10
I490
ssg15
(dp31
g5
I582
sg6
I102
sg7
I0
sg8
I4
sg9
I0
sg10
I480
ssg17
(dp32
g5
I470
sg6
I102
sg7
I0
sg8
I4
sg9
I0
sg10
I470
sssS'Danijel.csv'
p33
(dp34
g3
(dp35
g5
I810
sg6
I45
sg7
I0
sg8
I3
sg9
I0
sg10
I810
ssg11
(dp36
g5
I720
sg6
I45
sg7
I0
sg8
I3
sg9
I0
sg10
I720
ssg13
(dp37
g5
I1520
sg6
I45
sg7
I0
sg8
I3
sg9
I0
sg10
I760
ssg15
(dp38
g5
I795
sg6
I45
sg7
I0
sg8
I3
sg9
I0
sg10
I750
ssg17
(dp39
g5
I710
sg6
I45
sg7
I0
sg8
I3
sg9
I0
sg10
I710
sss.(dp0
S'K_all3.csv'
p1
(dp2
S'machine'
p3
(dp4
S'count'
p5
I540
sS'truepos'
p6
I39
sS'falseneg'
p7
I0
sS'unknownyes'
p8
I6
sS'falsepos'
p9
I0
sS'unique'
p10
I540
ssS'none'
p11
(dp12
g5
I500
sg6
I37
sg7
I0
sg8
I8
sg9
I0
sg10
I500
ssS'three'
p13
(dp14
g5
I1020
sg6
I38
sg7
I0
sg8
I7
sg9
I0
sg10
I510
ssS'machine3'
p15
(dp16
g5
I528
sg6
I38
sg7
I0
sg8
I7
sg9
I0
sg10
I490
ssS'machine2'
p17
(dp18
g5
I500
sg6
I37
sg7
I0
sg8
I8
sg9
I0
sg10
I500
sssS'Wahono.csv'
p19
(dp20
g3
(dp21
g5
I1060
sg6
I59
sg7
I0
sg8
I3
sg9
I0
sg10
I1060
ssg11
(dp22
g5
I1150
sg6
I59
sg7
I0
sg8
I3
sg9
I0
sg10
I1150
ssg13
(dp23
g5
I1980
sg6
I59
sg7
I0
sg8
I3
sg9
I0
sg10
I990
ssg15
(dp24
g5
I1210
sg6
I60
sg7
I0
sg8
I2
sg9
I0
sg10
I1150
ssg17
(dp25
g5
I1150
sg6
I59
sg7
I0
sg8
I3
sg9
I0
sg10
I1150
sssS'Hall.csv'
p26
(dp27
g3
(dp28
g5
I510
sg6
I102
sg7
I0
sg8
I4
sg9
I0
sg10
I510
ssg11
(dp29
g5
I490
sg6
I102
sg7
I0
sg8
I4
sg9
I0
sg10
I490
ssg13
(dp30
g5
I940
sg6
I102
sg7
I0
sg8
I4
sg9
I0
sg10
I470
ssg15
(dp31
g5
I601
sg6
I101
sg7
I0
sg8
I5
sg9
I0
sg10
I500
ssg17
(dp32
g5
I470
sg6
I101
sg7
I0
sg8
I5
sg9
I0
sg10
I470
sssS'Danijel.csv'
p33
(dp34
g3
(dp35
g5
I780
sg6
I45
sg7
I0
sg8
I3
sg9
I0
sg10
I780
ssg11
(dp36
g5
I770
sg6
I45
sg7
I0
sg8
I3
sg9
I0
sg10
I770
ssg13
(dp37
g5
I1640
sg6
I45
sg7
I0
sg8
I3
sg9
I0
sg10
I820
ssg15
(dp38
g5
I855
sg6
I45
sg7
I0
sg8
I3
sg9
I0
sg10
I810
ssg17
(dp39
g5
I790
sg6
I45
sg7
I0
sg8
I3
sg9
I0
sg10
I790
sss.(dp0
S'K_all3.csv'
p1
(dp2
S'machine'
p3
(dp4
S'count'
p5
I500
sS'truepos'
p6
I38
sS'falseneg'
p7
I0
sS'unknownyes'
p8
I7
sS'falsepos'
p9
I0
sS'unique'
p10
I500
ssS'none'
p11
(dp12
g5
I500
sg6
I37
sg7
I0
sg8
I8
sg9
I0
sg10
I500
ssS'three'
p13
(dp14
g5
I980
sg6
I36
sg7
I0
sg8
I9
sg9
I0
sg10
I490
ssS'machine3'
p15
(dp16
g5
I558
sg6
I38
sg7
I0
sg8
I7
sg9
I0
sg10
I520
ssS'machine2'
p17
(dp18
g5
I490
sg6
I38
sg7
I0
sg8
I7
sg9
I0
sg10
I490
sssS'Wahono.csv'
p19
(dp20
g3
(dp21
g5
I1110
sg6
I59
sg7
I0
sg8
I3
sg9
I0
sg10
I1110
ssg11
(dp22
g5
I1180
sg6
I59
sg7
I0
sg8
I3
sg9
I0
sg10
I1180
ssg13
(dp23
g5
I2260
sg6
I59
sg7
I0
sg8
I3
sg9
I0
sg10
I1130
ssg15
(dp24
g5
I1149
sg6
I59
sg7
I0
sg8
I3
sg9
I0
sg10
I1090
ssg17
(dp25
g5
I1010
sg6
I59
sg7
I0
sg8
I3
sg9
I0
sg10
I1010
sssS'Hall.csv'
p26
(dp27
g3
(dp28
g5
I470
sg6
I101
sg7
I0
sg8
I5
sg9
I0
sg10
I470
ssg11
(dp29
g5
I520
sg6
I102
sg7
I0
sg8
I4
sg9
I0
sg10
I520
ssg13
(dp30
g5
I980
sg6
I102
sg7
I0
sg8
I4
sg9
I0
sg10
I490
ssg15
(dp31
g5
I612
sg6
I102
sg7
I0
sg8
I4
sg9
I0
sg10
I510
ssg17
(dp32
g5
I520
sg6
I102
sg7
I0
sg8
I4
sg9
I0
sg10
I520
sssS'Danijel.csv'
p33
(dp34
g3
(dp35
g5
I750
sg6
I45
sg7
I0
sg8
I3
sg9
I0
sg10
I750
ssg11
(dp36
g5
I730
sg6
I45
sg7
I0
sg8
I3
sg9
I0
sg10
I730
ssg13
(dp37
g5
I1440
sg6
I45
sg7
I0
sg8
I3
sg9
I0
sg10
I720
ssg15
(dp38
g5
I845
sg6
I45
sg7
I0
sg8
I3
sg9
I0
sg10
I800
ssg17
(dp39
g5
I810
sg6
I46
sg7
I0
sg8
I2
sg9
I0
sg10
I810
sss.(dp0
S'K_all3.csv'
p1
(dp2
S'machine'
p3
(dp4
S'count'
p5
I510
sS'truepos'
p6
I38
sS'falseneg'
p7
I0
sS'unknownyes'
p8
I7
sS'falsepos'
p9
I0
sS'unique'
p10
I510
ssS'none'
p11
(dp12
g5
I490
sg6
I38
sg7
I0
sg8
I7
sg9
I0
sg10
I490
ssS'three'
p13
(dp14
g5
I940
sg6
I38
sg7
I0
sg8
I7
sg9
I0
sg10
I470
ssS'machine3'
p15
(dp16
g5
I548
sg6
I38
sg7
I0
sg8
I7
sg9
I0
sg10
I510
ssS'machine2'
p17
(dp18
g5
I500
sg6
I38
sg7
I0
sg8
I7
sg9
I0
sg10
I500
sssS'Wahono.csv'
p19
(dp20
g3
(dp21
g5
I1170
sg6
I59
sg7
I0
sg8
I3
sg9
I0
sg10
I1170
ssg11
(dp22
g5
I1170
sg6
I59
sg7
I0
sg8
I3
sg9
I0
sg10
I1170
ssg13
(dp23
g5
I2160
sg6
I59
sg7
I0
sg8
I3
sg9
I0
sg10
I1080
ssg15
(dp24
g5
I1099
sg6
I59
sg7
I0
sg8
I3
sg9
I0
sg10
I1040
ssg17
(dp25
g5
I1170
sg6
I59
sg7
I0
sg8
I3
sg9
I0
sg10
I1170
sssS'Hall.csv'
p26
(dp27
g3
(dp28
g5
I490
sg6
I102
sg7
I0
sg8
I4
sg9
I0
sg10
I490
ssg11
(dp29
g5
I470
sg6
I102
sg7
I0
sg8
I4
sg9
I0
sg10
I470
ssg13
(dp30
g5
I1040
sg6
I102
sg7
I0
sg8
I4
sg9
I0
sg10
I520
ssg15
(dp31
g5
I602
sg6
I102
sg7
I0
sg8
I4
sg9
I0
sg10
I500
ssg17
(dp32
g5
I480
sg6
I102
sg7
I0
sg8
I4
sg9
I0
sg10
I480
sssS'Danijel.csv'
p33
(dp34
g3
(dp35
g5
I750
sg6
I45
sg7
I0
sg8
I3
sg9
I0
sg10
I750
ssg11
(dp36
g5
I710
sg6
I45
sg7
I0
sg8
I3
sg9
I0
sg10
I710
ssg13
(dp37
g5
I1540
sg6
I45
sg7
I0
sg8
I3
sg9
I0
sg10
I770
ssg15
(dp38
g5
I825
sg6
I45
sg7
I0
sg8
I3
sg9
I0
sg10
I780
ssg17
(dp39
g5
I810
sg6
I45
sg7
I0
sg8
I3
sg9
I0
sg10
I810
sss.(dp0
S'K_all3.csv'
p1
(dp2
S'machine'
p3
(dp4
S'count'
p5
I530
sS'truepos'
p6
I38
sS'falseneg'
p7
I0
sS'unknownyes'
p8
I7
sS'falsepos'
p9
I0
sS'unique'
p10
I530
ssS'none'
p11
(dp12
g5
I500
sg6
I38
sg7
I0
sg8
I7
sg9
I0
sg10
I500
ssS'three'
p13
(dp14
g5
I1000
sg6
I37
sg7
I0
sg8
I8
sg9
I0
sg10
I500
ssS'machine3'
p15
(dp16
g5
I528
sg6
I38
sg7
I0
sg8
I7
sg9
I0
sg10
I490
ssS'machine2'
p17
(dp18
g5
I510
sg6
I39
sg7
I0
sg8
I6
sg9
I0
sg10
I510
sssS'Wahono.csv'
p19
(dp20
g3
(dp21
g5
I1170
sg6
I59
sg7
I0
sg8
I3
sg9
I0
sg10
I1170
ssg11
(dp22
g5
I1190
sg6
I59
sg7
I0
sg8
I3
sg9
I0
sg10
I1190
ssg13
(dp23
g5
I2220
sg6
I59
sg7
I0
sg8
I3
sg9
I0
sg10
I1110
ssg15
(dp24
g5
I1279
sg6
I59
sg7
I0
sg8
I3
sg9
I0
sg10
I1220
ssg17
(dp25
g5
I1090
sg6
I59
sg7
I0
sg8
I3
sg9
I0
sg10
I1090
sssS'Hall.csv'
p26
(dp27
g3
(dp28
g5
I490
sg6
I101
sg7
I0
sg8
I5
sg9
I0
sg10
I490
ssg11
(dp29
g5
I400
sg6
I99
sg7
I0
sg8
I7
sg9
I0
sg10
I400
ssg13
(dp30
g5
I1000
sg6
I102
sg7
I0
sg8
I4
sg9
I0
sg10
I500
ssg15
(dp31
g5
I602
sg6
I102
sg7
I0
sg8
I4
sg9
I0
sg10
I500
ssg17
(dp32
g5
I460
sg6
I101
sg7
I0
sg8
I5
sg9
I0
sg10
I460
sssS'Danijel.csv'
p33
(dp34
g3
(dp35
g5
I790
sg6
I45
sg7
I0
sg8
I3
sg9
I0
sg10
I790
ssg11
(dp36
g5
I750
sg6
I45
sg7
I0
sg8
I3
sg9
I0
sg10
I750
ssg13
(dp37
g5
I1440
sg6
I45
sg7
I0
sg8
I3
sg9
I0
sg10
I720
ssg15
(dp38
g5
I815
sg6
I45
sg7
I0
sg8
I3
sg9
I0
sg10
I770
ssg17
(dp39
g5
I730
sg6
I45
sg7
I0
sg8
I3
sg9
I0
sg10
I730
sss.(dp0
S'K_all3.csv'
p1
(dp2
S'machine'
p3
(dp4
S'count'
p5
I470
sS'truepos'
p6
I36
sS'falseneg'
p7
I0
sS'unknownyes'
p8
I9
sS'falsepos'
p9
I0
sS'unique'
p10
I470
ssS'none'
p11
(dp12
g5
I490
sg6
I37
sg7
I0
sg8
I8
sg9
I0
sg10
I490
ssS'three'
p13
(dp14
g5
I1000
sg6
I39
sg7
I0
sg8
I6
sg9
I0
sg10
I500
ssS'machine3'
p15
(dp16
g5
I566
sg6
I36
sg7
I0
sg8
I9
sg9
I0
sg10
I530
ssS'machine2'
p17
(dp18
g5
I480
sg6
I36
sg7
I0
sg8
I9
sg9
I0
sg10
I480
sssS'Wahono.csv'
p19
(dp20
g3
(dp21
g5
I1180
sg6
I59
sg7
I0
sg8
I3
sg9
I0
sg10
I1180
ssg11
(dp22
g5
I1070
sg6
I59
sg7
I0
sg8
I3
sg9
I0
sg10
I1070
ssg13
(dp23
g5
I2420
sg6
I59
sg7
I0
sg8
I3
sg9
I0
sg10
I1210
ssg15
(dp24
g5
I1239
sg6
I59
sg7
I0
sg8
I3
sg9
I0
sg10
I1180
ssg17
(dp25
g5
I1140
sg6
I59
sg7
I0
sg8
I3
sg9
I0
sg10
I1140
sssS'Hall.csv'
p26
(dp27
g3
(dp28
g5
I500
sg6
I102
sg7
I0
sg8
I4
sg9
I0
sg10
I500
ssg11
(dp29
g5
I540
sg6
I102
sg7
I0
sg8
I4
sg9
I0
sg10
I540
ssg13
(dp30
g5
I940
sg6
I102
sg7
I0
sg8
I4
sg9
I0
sg10
I470
ssg15
(dp31
g5
I572
sg6
I102
sg7
I0
sg8
I4
sg9
I0
sg10
I470
ssg17
(dp32
g5
I450
sg6
I101
sg7
I0
sg8
I5
sg9
I0
sg10
I450
sssS'Danijel.csv'
p33
(dp34
g3
(dp35
g5
I780
sg6
I45
sg7
I0
sg8
I3
sg9
I0
sg10
I780
ssg11
(dp36
g5
I750
sg6
I45
sg7
I0
sg8
I3
sg9
I0
sg10
I750
ssg13
(dp37
g5
I1500
sg6
I45
sg7
I0
sg8
I3
sg9
I0
sg10
I750
ssg15
(dp38
g5
I825
sg6
I45
sg7
I0
sg8
I3
sg9
I0
sg10
I780
ssg17
(dp39
g5
I770
sg6
I46
sg7
I0
sg8
I2
sg9
I0
sg10
I770
sss.(dp0
S'K_all3.csv'
p1
(dp2
S'machine'
p3
(dp4
S'count'
p5
I460
sS'truepos'
p6
I36
sS'falseneg'
p7
I0
sS'unknownyes'
p8
I9
sS'falsepos'
p9
I0
sS'unique'
p10
I460
ssS'none'
p11
(dp12
g5
I500
sg6
I35
sg7
I0
sg8
I10
sg9
I0
sg10
I500
ssS'three'
p13
(dp14
g5
I1000
sg6
I38
sg7
I0
sg8
I7
sg9
I0
sg10
I500
ssS'machine3'
p15
(dp16
g5
I536
sg6
I36
sg7
I0
sg8
I9
sg9
I0
sg10
I500
ssS'machine2'
p17
(dp18
g5
I530
sg6
I37
sg7
I0
sg8
I8
sg9
I0
sg10
I530
sssS'Wahono.csv'
p19
(dp20
g3
(dp21
g5
I1210
sg6
I59
sg7
I0
sg8
I3
sg9
I0
sg10
I1210
ssg11
(dp22
g5
I1170
sg6
I59
sg7
I0
sg8
I3
sg9
I0
sg10
I1170
ssg13
(dp23
g5
I2360
sg6
I59
sg7
I0
sg8
I3
sg9
I0
sg10
I1180
ssg15
(dp24
g5
I1199
sg6
I59
sg7
I0
sg8
I3
sg9
I0
sg10
I1140
ssg17
(dp25
g5
I1100
sg6
I59
sg7
I0
sg8
I3
sg9
I0
sg10
I1100
sssS'Hall.csv'
p26
(dp27
g3
(dp28
g5
I450
sg6
I102
sg7
I0
sg8
I4
sg9
I0
sg10
I450
ssg11
(dp29
g5
I410
sg6
I99
sg7
I0
sg8
I7
sg9
I0
sg10
I410
ssg13
(dp30
g5
I1020
sg6
I102
sg7
I0
sg8
I4
sg9
I0
sg10
I510
ssg15
(dp31
g5
I582
sg6
I102
sg7
I0
sg8
I4
sg9
I0
sg10
I480
ssg17
(dp32
g5
I480
sg6
I102
sg7
I0
sg8
I4
sg9
I0
sg10
I480
sssS'Danijel.csv'
p33
(dp34
g3
(dp35
g5
I740
sg6
I45
sg7
I0
sg8
I3
sg9
I0
sg10
I740
ssg11
(dp36
g5
I800
sg6
I45
sg7
I0
sg8
I3
sg9
I0
sg10
I800
ssg13
(dp37
g5
I1360
sg6
I45
sg7
I0
sg8
I3
sg9
I0
sg10
I680
ssg15
(dp38
g5
I785
sg6
I45
sg7
I0
sg8
I3
sg9
I0
sg10
I740
ssg17
(dp39
g5
I720
sg6
I45
sg7
I0
sg8
I3
sg9
I0
sg10
I720
sss.(dp0
S'K_all3.csv'
p1
(dp2
S'machine'
p3
(dp4
S'count'
p5
I500
sS'truepos'
p6
I38
sS'falseneg'
p7
I0
sS'unknownyes'
p8
I7
sS'falsepos'
p9
I0
sS'unique'
p10
I500
ssS'none'
p11
(dp12
g5
I460
sg6
I36
sg7
I0
sg8
I9
sg9
I0
sg10
I460
ssS'three'
p13
(dp14
g5
I980
sg6
I36
sg7
I0
sg8
I9
sg9
I0
sg10
I490
ssS'machine3'
p15
(dp16
g5
I577
sg6
I37
sg7
I0
sg8
I8
sg9
I0
sg10
I540
ssS'machine2'
p17
(dp18
g5
I510
sg6
I36
sg7
I0
sg8
I9
sg9
I0
sg10
I510
sssS'Wahono.csv'
p19
(dp20
g3
(dp21
g5
I1170
sg6
I59
sg7
I0
sg8
I3
sg9
I0
sg10
I1170
ssg11
(dp22
g5
I1190
sg6
I59
sg7
I0
sg8
I3
sg9
I0
sg10
I1190
ssg13
(dp23
g5
I2120
sg6
I60
sg7
I0
sg8
I2
sg9
I0
sg10
I1060
ssg15
(dp24
g5
I1209
sg6
I59
sg7
I0
sg8
I3
sg9
I0
sg10
I1150
ssg17
(dp25
g5
I1160
sg6
I59
sg7
I0
sg8
I3
sg9
I0
sg10
I1160
sssS'Hall.csv'
p26
(dp27
g3
(dp28
g5
I360
sg6
I99
sg7
I0
sg8
I7
sg9
I0
sg10
I360
ssg11
(dp29
g5
I500
sg6
I102
sg7
I0
sg8
I4
sg9
I0
sg10
I500
ssg13
(dp30
g5
I980
sg6
I102
sg7
I0
sg8
I4
sg9
I0
sg10
I490
ssg15
(dp31
g5
I622
sg6
I102
sg7
I0
sg8
I4
sg9
I0
sg10
I520
ssg17
(dp32
g5
I500
sg6
I102
sg7
I0
sg8
I4
sg9
I0
sg10
I500
sssS'Danijel.csv'
p33
(dp34
g3
(dp35
g5
I770
sg6
I45
sg7
I0
sg8
I3
sg9
I0
sg10
I770
ssg11
(dp36
g5
I790
sg6
I45
sg7
I0
sg8
I3
sg9
I0
sg10
I790
ssg13
(dp37
g5
I1500
sg6
I45
sg7
I0
sg8
I3
sg9
I0
sg10
I750
ssg15
(dp38
g5
I766
sg6
I46
sg7
I0
sg8
I2
sg9
I0
sg10
I720
ssg17
(dp39
g5
I770
sg6
I46
sg7
I0
sg8
I2
sg9
I0
sg10
I770
sss.(dp0
S'K_all3.csv'
p1
(dp2
S'machine'
p3
(dp4
S'count'
p5
I510
sS'truepos'
p6
I37
sS'falseneg'
p7
I0
sS'unknownyes'
p8
I8
sS'falsepos'
p9
I0
sS'unique'
p10
I510
ssS'none'
p11
(dp12
g5
I490
sg6
I38
sg7
I0
sg8
I7
sg9
I0
sg10
I490
ssS'three'
p13
(dp14
g5
I1020
sg6
I37
sg7
I0
sg8
I8
sg9
I0
sg10
I510
ssS'machine3'
p15
(dp16
g5
I557
sg6
I37
sg7
I0
sg8
I8
sg9
I0
sg10
I520
ssS'machine2'
p17
(dp18
g5
I520
sg6
I38
sg7
I0
sg8
I7
sg9
I0
sg10
I520
sssS'Wahono.csv'
p19
(dp20
g3
(dp21
g5
I1240
sg6
I59
sg7
I0
sg8
I3
sg9
I0
sg10
I1240
ssg11
(dp22
g5
I1150
sg6
I59
sg7
I0
sg8
I3
sg9
I0
sg10
I1150
ssg13
(dp23
g5
I2380
sg6
I59
sg7
I0
sg8
I3
sg9
I0
sg10
I1190
ssg15
(dp24
g5
I1129
sg6
I59
sg7
I0
sg8
I3
sg9
I0
sg10
I1070
ssg17
(dp25
g5
I1150
sg6
I59
sg7
I0
sg8
I3
sg9
I0
sg10
I1150
sssS'Hall.csv'
p26
(dp27
g3
(dp28
g5
I500
sg6
I102
sg7
I0
sg8
I4
sg9
I0
sg10
I500
ssg11
(dp29
g5
I500
sg6
I102
sg7
I0
sg8
I4
sg9
I0
sg10
I500
ssg13
(dp30
g5
I960
sg6
I102
sg7
I0
sg8
I4
sg9
I0
sg10
I480
ssg15
(dp31
g5
I562
sg6
I102
sg7
I0
sg8
I4
sg9
I0
sg10
I460
ssg17
(dp32
g5
I480
sg6
I101
sg7
I0
sg8
I5
sg9
I0
sg10
I480
sssS'Danijel.csv'
p33
(dp34
g3
(dp35
g5
I770
sg6
I45
sg7
I0
sg8
I3
sg9
I0
sg10
I770
ssg11
(dp36
g5
I780
sg6
I45
sg7
I0
sg8
I3
sg9
I0
sg10
I780
ssg13
(dp37
g5
I1600
sg6
I46
sg7
I0
sg8
I2
sg9
I0
sg10
I800
ssg15
(dp38
g5
I765
sg6
I45
sg7
I0
sg8
I3
sg9
I0
sg10
I720
ssg17
(dp39
g5
I730
sg6
I45
sg7
I0
sg8
I3
sg9
I0
sg10
I730
sss.(dp0
S'K_all3.csv'
p1
(dp2
S'machine'
p3
(dp4
S'count'
p5
I490
sS'truepos'
p6
I37
sS'falseneg'
p7
I0
sS'unknownyes'
p8
I8
sS'falsepos'
p9
I0
sS'unique'
p10
I490
ssS'none'
p11
(dp12
g5
I500
sg6
I37
sg7
I0
sg8
I8
sg9
I0
sg10
I500
ssS'three'
p13
(dp14
g5
I960
sg6
I35
sg7
I0
sg8
I10
sg9
I0
sg10
I480
ssS'machine3'
p15
(dp16
g5
I546
sg6
I36
sg7
I0
sg8
I9
sg9
I0
sg10
I510
ssS'machine2'
p17
(dp18
g5
I470
sg6
I35
sg7
I0
sg8
I10
sg9
I0
sg10
I470
sssS'Wahono.csv'
p19
(dp20
g3
(dp21
g5
I1240
sg6
I59
sg7
I0
sg8
I3
sg9
I0
sg10
I1240
ssg11
(dp22
g5
I1190
sg6
I59
sg7
I0
sg8
I3
sg9
I0
sg10
I1190
ssg13
(dp23
g5
I2280
sg6
I59
sg7
I0
sg8
I3
sg9
I0
sg10
I1140
ssg15
(dp24
g5
I1219
sg6
I59
sg7
I0
sg8
I3
sg9
I0
sg10
I1160
ssg17
(dp25
g5
I1140
sg6
I59
sg7
I0
sg8
I3
sg9
I0
sg10
I1140
sssS'Hall.csv'
p26
(dp27
g3
(dp28
g5
I530
sg6
I102
sg7
I0
sg8
I4
sg9
I0
sg10
I530
ssg11
(dp29
g5
I480
sg6
I102
sg7
I0
sg8
I4
sg9
I0
sg10
I480
ssg13
(dp30
g5
I900
sg6
I101
sg7
I0
sg8
I5
sg9
I0
sg10
I450
ssg15
(dp31
g5
I612
sg6
I102
sg7
I0
sg8
I4
sg9
I0
sg10
I510
ssg17
(dp32
g5
I460
sg6
I101
sg7
I0
sg8
I5
sg9
I0
sg10
I460
sssS'Danijel.csv'
p33
(dp34
g3
(dp35
g5
I750
sg6
I46
sg7
I0
sg8
I2
sg9
I0
sg10
I750
ssg11
(dp36
g5
I720
sg6
I45
sg7
I0
sg8
I3
sg9
I0
sg10
I720
ssg13
(dp37
g5
I1540
sg6
I45
sg7
I0
sg8
I3
sg9
I0
sg10
I770
ssg15
(dp38
g5
I835
sg6
I45
sg7
I0
sg8
I3
sg9
I0
sg10
I790
ssg17
(dp39
g5
I770
sg6
I45
sg7
I0
sg8
I3
sg9
I0
sg10
I770
sss.(dp0
S'K_all3.csv'
p1
(dp2
S'machine'
p3
(dp4
S'count'
p5
I510
sS'truepos'
p6
I39
sS'falseneg'
p7
I0
sS'unknownyes'
p8
I6
sS'falsepos'
p9
I0
sS'unique'
p10
I510
ssS'none'
p11
(dp12
g5
I520
sg6
I37
sg7
I0
sg8
I8
sg9
I0
sg10
I520
ssS'three'
p13
(dp14
g5
I1060
sg6
I38
sg7
I0
sg8
I7
sg9
I0
sg10
I530
ssS'machine3'
p15
(dp16
g5
I558
sg6
I38
sg7
I0
sg8
I7
sg9
I0
sg10
I520
ssS'machine2'
p17
(dp18
g5
I520
sg6
I39
sg7
I0
sg8
I6
sg9
I0
sg10
I520
sssS'Wahono.csv'
p19
(dp20
g3
(dp21
g5
I1150
sg6
I59
sg7
I0
sg8
I3
sg9
I0
sg10
I1150
ssg11
(dp22
g5
I1170
sg6
I59
sg7
I0
sg8
I3
sg9
I0
sg10
I1170
ssg13
(dp23
g5
I2200
sg6
I59
sg7
I0
sg8
I3
sg9
I0
sg10
I1100
ssg15
(dp24
g5
I1219
sg6
I59
sg7
I0
sg8
I3
sg9
I0
sg10
I1160
ssg17
(dp25
g5
I1140
sg6
I59
sg7
I0
sg8
I3
sg9
I0
sg10
I1140
sssS'Hall.csv'
p26
(dp27
g3
(dp28
g5
I480
sg6
I102
sg7
I0
sg8
I4
sg9
I0
sg10
I480
ssg11
(dp29
g5
I500
sg6
I102
sg7
I0
sg8
I4
sg9
I0
sg10
I500
ssg13
(dp30
g5
I1040
sg6
I102
sg7
I0
sg8
I4
sg9
I0
sg10
I520
ssg15
(dp31
g5
I602
sg6
I102
sg7
I0
sg8
I4
sg9
I0
sg10
I500
ssg17
(dp32
g5
I520
sg6
I102
sg7
I0
sg8
I4
sg9
I0
sg10
I520
sssS'Danijel.csv'
p33
(dp34
g3
(dp35
g5
I750
sg6
I45
sg7
I0
sg8
I3
sg9
I0
sg10
I750
ssg11
(dp36
g5
I770
sg6
I45
sg7
I0
sg8
I3
sg9
I0
sg10
I770
ssg13
(dp37
g5
I1540
sg6
I45
sg7
I0
sg8
I3
sg9
I0
sg10
I770
ssg15
(dp38
g5
I775
sg6
I45
sg7
I0
sg8
I3
sg9
I0
sg10
I730
ssg17
(dp39
g5
I810
sg6
I45
sg7
I0
sg8
I3
sg9
I0
sg10
I810
sss.(dp0
S'K_all3.csv'
p1
(dp2
S'machine'
p3
(dp4
S'count'
p5
I520
sS'truepos'
p6
I39
sS'falseneg'
p7
I0
sS'unknownyes'
p8
I6
sS'falsepos'
p9
I0
sS'unique'
p10
I520
ssS'none'
p11
(dp12
g5
I480
sg6
I36
sg7
I0
sg8
I9
sg9
I0
sg10
I480
ssS'three'
p13
(dp14
g5
I960
sg6
I38
sg7
I0
sg8
I7
sg9
I0
sg10
I480
ssS'machine3'
p15
(dp16
g5
I529
sg6
I39
sg7
I0
sg8
I6
sg9
I0
sg10
I490
ssS'machine2'
p17
(dp18
g5
I490
sg6
I39
sg7
I0
sg8
I6
sg9
I0
sg10
I490
sssS'Wahono.csv'
p19
(dp20
g3
(dp21
g5
I1100
sg6
I59
sg7
I0
sg8
I3
sg9
I0
sg10
I1100
ssg11
(dp22
g5
I1150
sg6
I59
sg7
I0
sg8
I3
sg9
I0
sg10
I1150
ssg13
(dp23
g5
I2400
sg6
I59
sg7
I0
sg8
I3
sg9
I0
sg10
I1200
ssg15
(dp24
g5
I1179
sg6
I59
sg7
I0
sg8
I3
sg9
I0
sg10
I1120
ssg17
(dp25
g5
I1160
sg6
I59
sg7
I0
sg8
I3
sg9
I0
sg10
I1160
sssS'Hall.csv'
p26
(dp27
g3
(dp28
g5
I540
sg6
I102
sg7
I0
sg8
I4
sg9
I0
sg10
I540
ssg11
(dp29
g5
I490
sg6
I102
sg7
I0
sg8
I4
sg9
I0
sg10
I490
ssg13
(dp30
g5
I960
sg6
I102
sg7
I0
sg8
I4
sg9
I0
sg10
I480
ssg15
(dp31
g5
I531
sg6
I101
sg7
I0
sg8
I5
sg9
I0
sg10
I430
ssg17
(dp32
g5
I540
sg6
I102
sg7
I0
sg8
I4
sg9
I0
sg10
I540
sssS'Danijel.csv'
p33
(dp34
g3
(dp35
g5
I700
sg6
I45
sg7
I0
sg8
I3
sg9
I0
sg10
I700
ssg11
(dp36
g5
I780
sg6
I45
sg7
I0
sg8
I3
sg9
I0
sg10
I780
ssg13
(dp37
g5
I1540
sg6
I45
sg7
I0
sg8
I3
sg9
I0
sg10
I770
ssg15
(dp38
g5
I795
sg6
I45
sg7
I0
sg8
I3
sg9
I0
sg10
I750
ssg17
(dp39
g5
I790
sg6
I45
sg7
I0
sg8
I3
sg9
I0
sg10
I790
sss.(dp0
S'K_all3.csv'
p1
(dp2
S'machine'
p3
(dp4
S'count'
p5
I510
sS'truepos'
p6
I36
sS'falseneg'
p7
I0
sS'unknownyes'
p8
I9
sS'falsepos'
p9
I0
sS'unique'
p10
I510
ssS'none'
p11
(dp12
g5
I490
sg6
I38
sg7
I0
sg8
I7
sg9
I0
sg10
I490
ssS'three'
p13
(dp14
g5
I1040
sg6
I38
sg7
I0
sg8
I7
sg9
I0
sg10
I520
ssS'machine3'
p15
(dp16
g5
I558
sg6
I38
sg7
I0
sg8
I7
sg9
I0
sg10
I520
ssS'machine2'
p17
(dp18
g5
I540
sg6
I37
sg7
I0
sg8
I8
sg9
I0
sg10
I540
sssS'Wahono.csv'
p19
(dp20
g3
(dp21
g5
I1150
sg6
I59
sg7
I0
sg8
I3
sg9
I0
sg10
I1150
ssg11
(dp22
g5
I1130
sg6
I59
sg7
I0
sg8
I3
sg9
I0
sg10
I1130
ssg13
(dp23
g5
I2280
sg6
I59
sg7
I0
sg8
I3
sg9
I0
sg10
I1140
ssg15
(dp24
g5
I1129
sg6
I59
sg7
I0
sg8
I3
sg9
I0
sg10
I1070
ssg17
(dp25
g5
I1190
sg6
I59
sg7
I0
sg8
I3
sg9
I0
sg10
I1190
sssS'Hall.csv'
p26
(dp27
g3
(dp28
g5
I510
sg6
I102
sg7
I0
sg8
I4
sg9
I0
sg10
I510
ssg11
(dp29
g5
I430
sg6
I101
sg7
I0
sg8
I5
sg9
I0
sg10
I430
ssg13
(dp30
g5
I1040
sg6
I102
sg7
I0
sg8
I4
sg9
I0
sg10
I520
ssg15
(dp31
g5
I582
sg6
I102
sg7
I0
sg8
I4
sg9
I0
sg10
I480
ssg17
(dp32
g5
I520
sg6
I102
sg7
I0
sg8
I4
sg9
I0
sg10
I520
sssS'Danijel.csv'
p33
(dp34
g3
(dp35
g5
I760
sg6
I45
sg7
I0
sg8
I3
sg9
I0
sg10
I760
ssg11
(dp36
g5
I780
sg6
I45
sg7
I0
sg8
I3
sg9
I0
sg10
I780
ssg13
(dp37
g5
I1520
sg6
I45
sg7
I0
sg8
I3
sg9
I0
sg10
I760
ssg15
(dp38
g5
I856
sg6
I46
sg7
I0
sg8
I2
sg9
I0
sg10
I810
ssg17
(dp39
g5
I730
sg6
I45
sg7
I0
sg8
I3
sg9
I0
sg10
I730
sss.(dp0
S'K_all3.csv'
p1
(dp2
S'machine'
p3
(dp4
S'count'
p5
I500
sS'truepos'
p6
I38
sS'falseneg'
p7
I0
sS'unknownyes'
p8
I7
sS'falsepos'
p9
I0
sS'unique'
p10
I500
ssS'none'
p11
(dp12
g5
I510
sg6
I38
sg7
I0
sg8
I7
sg9
I0
sg10
I510
ssS'three'
p13
(dp14
g5
I1040
sg6
I37
sg7
I0
sg8
I8
sg9
I0
sg10
I520
ssS'machine3'
p15
(dp16
g5
I537
sg6
I37
sg7
I0
sg8
I8
sg9
I0
sg10
I500
ssS'machine2'
p17
(dp18
g5
I460
sg6
I36
sg7
I0
sg8
I9
sg9
I0
sg10
I460
sssS'Wahono.csv'
p19
(dp20
g3
(dp21
g5
I1160
sg6
I59
sg7
I0
sg8
I3
sg9
I0
sg10
I1160
ssg11
(dp22
g5
I1150
sg6
I59
sg7
I0
sg8
I3
sg9
I0
sg10
I1150
ssg13
(dp23
g5
I2280
sg6
I59
sg7
I0
sg8
I3
sg9
I0
sg10
I1140
ssg15
(dp24
g5
I1219
sg6
I59
sg7
I0
sg8
I3
sg9
I0
sg10
I1160
ssg17
(dp25
g5
I1120
sg6
I59
sg7
I0
sg8
I3
sg9
I0
sg10
I1120
sssS'Hall.csv'
p26
(dp27
g3
(dp28
g5
I510
sg6
I102
sg7
I0
sg8
I4
sg9
I0
sg10
I510
ssg11
(dp29
g5
I530
sg6
I102
sg7
I0
sg8
I4
sg9
I0
sg10
I530
ssg13
(dp30
g5
I880
sg6
I101
sg7
I0
sg8
I5
sg9
I0
sg10
I440
ssg15
(dp31
g5
I612
sg6
I102
sg7
I0
sg8
I4
sg9
I0
sg10
I510
ssg17
(dp32
g5
I470
sg6
I102
sg7
I0
sg8
I4
sg9
I0
sg10
I470
sssS'Danijel.csv'
p33
(dp34
g3
(dp35
g5
I740
sg6
I45
sg7
I0
sg8
I3
sg9
I0
sg10
I740
ssg11
(dp36
g5
I750
sg6
I45
sg7
I0
sg8
I3
sg9
I0
sg10
I750
ssg13
(dp37
g5
I1540
sg6
I45
sg7
I0
sg8
I3
sg9
I0
sg10
I770
ssg15
(dp38
g5
I805
sg6
I45
sg7
I0
sg8
I3
sg9
I0
sg10
I760
ssg17
(dp39
g5
I760
sg6
I45
sg7
I0
sg8
I3
sg9
I0
sg10
I760
sss.(dp0
S'K_all3.csv'
p1
(dp2
S'machine'
p3
(dp4
S'count'
p5
I490
sS'truepos'
p6
I36
sS'falseneg'
p7
I0
sS'unknownyes'
p8
I9
sS'falsepos'
p9
I0
sS'unique'
p10
I490
ssS'none'
p11
(dp12
g5
I510
sg6
I38
sg7
I0
sg8
I7
sg9
I0
sg10
I510
ssS'three'
p13
(dp14
g5
I1060
sg6
I37
sg7
I0
sg8
I8
sg9
I0
sg10
I530
ssS'machine3'
p15
(dp16
g5
I504
sg6
I34
sg7
I0
sg8
I11
sg9
I0
sg10
I470
ssS'machine2'
p17
(dp18
g5
I500
sg6
I35
sg7
I0
sg8
I10
sg9
I0
sg10
I500
sssS'Wahono.csv'
p19
(dp20
g3
(dp21
g5
I1180
sg6
I59
sg7
I0
sg8
I3
sg9
I0
sg10
I1180
ssg11
(dp22
g5
I1110
sg6
I59
sg7
I0
sg8
I3
sg9
I0
sg10
I1110
ssg13
(dp23
g5
I2280
sg6
I59
sg7
I0
sg8
I3
sg9
I0
sg10
I1140
ssg15
(dp24
g5
I1249
sg6
I59
sg7
I0
sg8
I3
sg9
I0
sg10
I1190
ssg17
(dp25
g5
I1130
sg6
I59
sg7
I0
sg8
I3
sg9
I0
sg10
I1130
sssS'Hall.csv'
p26
(dp27
g3
(dp28
g5
I540
sg6
I102
sg7
I0
sg8
I4
sg9
I0
sg10
I540
ssg11
(dp29
g5
I490
sg6
I102
sg7
I0
sg8
I4
sg9
I0
sg10
I490
ssg13
(dp30
g5
I1000
sg6
I102
sg7
I0
sg8
I4
sg9
I0
sg10
I500
ssg15
(dp31
g5
I562
sg6
I102
sg7
I0
sg8
I4
sg9
I0
sg10
I460
ssg17
(dp32
g5
I510
sg6
I102
sg7
I0
sg8
I4
sg9
I0
sg10
I510
sssS'Danijel.csv'
p33
(dp34
g3
(dp35
g5
I770
sg6
I45
sg7
I0
sg8
I3
sg9
I0
sg10
I770
ssg11
(dp36
g5
I730
sg6
I45
sg7
I0
sg8
I3
sg9
I0
sg10
I730
ssg13
(dp37
g5
I1540
sg6
I45
sg7
I0
sg8
I3
sg9
I0
sg10
I770
ssg15
(dp38
g5
I825
sg6
I45
sg7
I0
sg8
I3
sg9
I0
sg10
I780
ssg17
(dp39
g5
I740
sg6
I45
sg7
I0
sg8
I3
sg9
I0
sg10
I740
sss.(dp0
S'K_all3.csv'
p1
(dp2
S'machine'
p3
(dp4
S'count'
p5
I500
sS'truepos'
p6
I36
sS'falseneg'
p7
I0
sS'unknownyes'
p8
I9
sS'falsepos'
p9
I0
sS'unique'
p10
I500
ssS'none'
p11
(dp12
g5
I490
sg6
I38
sg7
I0
sg8
I7
sg9
I0
sg10
I490
ssS'three'
p13
(dp14
g5
I980
sg6
I35
sg7
I0
sg8
I10
sg9
I0
sg10
I490
ssS'machine3'
p15
(dp16
g5
I528
sg6
I38
sg7
I0
sg8
I7
sg9
I0
sg10
I490
ssS'machine2'
p17
(dp18
g5
I500
sg6
I38
sg7
I0
sg8
I7
sg9
I0
sg10
I500
sssS'Wahono.csv'
p19
(dp20
g3
(dp21
g5
I1220
sg6
I59
sg7
I0
sg8
I3
sg9
I0
sg10
I1220
ssg11
(dp22
g5
I1120
sg6
I59
sg7
I0
sg8
I3
sg9
I0
sg10
I1120
ssg13
(dp23
g5
I2180
sg6
I59
sg7
I0
sg8
I3
sg9
I0
sg10
I1090
ssg15
(dp24
g5
I1129
sg6
I59
sg7
I0
sg8
I3
sg9
I0
sg10
I1070
ssg17
(dp25
g5
I1160
sg6
I59
sg7
I0
sg8
I3
sg9
I0
sg10
I1160
sssS'Hall.csv'
p26
(dp27
g3
(dp28
g5
I540
sg6
I102
sg7
I0
sg8
I4
sg9
I0
sg10
I540
ssg11
(dp29
g5
I490
sg6
I102
sg7
I0
sg8
I4
sg9
I0
sg10
I490
ssg13
(dp30
g5
I1040
sg6
I102
sg7
I0
sg8
I4
sg9
I0
sg10
I520
ssg15
(dp31
g5
I592
sg6
I102
sg7
I0
sg8
I4
sg9
I0
sg10
I490
ssg17
(dp32
g5
I470
sg6
I102
sg7
I0
sg8
I4
sg9
I0
sg10
I470
sssS'Danijel.csv'
p33
(dp34
g3
(dp35
g5
I770
sg6
I45
sg7
I0
sg8
I3
sg9
I0
sg10
I770
ssg11
(dp36
g5
I790
sg6
I45
sg7
I0
sg8
I3
sg9
I0
sg10
I790
ssg13
(dp37
g5
I1500
sg6
I45
sg7
I0
sg8
I3
sg9
I0
sg10
I750
ssg15
(dp38
g5
I765
sg6
I45
sg7
I0
sg8
I3
sg9
I0
sg10
I720
ssg17
(dp39
g5
I760
sg6
I45
sg7
I0
sg8
I3
sg9
I0
sg10
I760
sss.(dp0
S'K_all3.csv'
p1
(dp2
S'machine'
p3
(dp4
S'count'
p5
I530
sS'truepos'
p6
I38
sS'falseneg'
p7
I0
sS'unknownyes'
p8
I7
sS'falsepos'
p9
I0
sS'unique'
p10
I530
ssS'none'
p11
(dp12
g5
I480
sg6
I36
sg7
I0
sg8
I9
sg9
I0
sg10
I480
ssS'three'
p13
(dp14
g5
I960
sg6
I38
sg7
I0
sg8
I7
sg9
I0
sg10
I480
ssS'machine3'
p15
(dp16
g5
I505
sg6
I35
sg7
I0
sg8
I10
sg9
I0
sg10
I470
ssS'machine2'
p17
(dp18
g5
I510
sg6
I37
sg7
I0
sg8
I8
sg9
I0
sg10
I510
sssS'Wahono.csv'
p19
(dp20
g3
(dp21
g5
I1170
sg6
I59
sg7
I0
sg8
I3
sg9
I0
sg10
I1170
ssg11
(dp22
g5
I1180
sg6
I59
sg7
I0
sg8
I3
sg9
I0
sg10
I1180
ssg13
(dp23
g5
I2280
sg6
I59
sg7
I0
sg8
I3
sg9
I0
sg10
I1140
ssg15
(dp24
g5
I1219
sg6
I59
sg7
I0
sg8
I3
sg9
I0
sg10
I1160
ssg17
(dp25
g5
I1210
sg6
I59
sg7
I0
sg8
I3
sg9
I0
sg10
I1210
sssS'Hall.csv'
p26
(dp27
g3
(dp28
g5
I500
sg6
I102
sg7
I0
sg8
I4
sg9
I0
sg10
I500
ssg11
(dp29
g5
I450
sg6
I101
sg7
I0
sg8
I5
sg9
I0
sg10
I450
ssg13
(dp30
g5
I1040
sg6
I102
sg7
I0
sg8
I4
sg9
I0
sg10
I520
ssg15
(dp31
g5
I592
sg6
I102
sg7
I0
sg8
I4
sg9
I0
sg10
I490
ssg17
(dp32
g5
I470
sg6
I102
sg7
I0
sg8
I4
sg9
I0
sg10
I470
sssS'Danijel.csv'
p33
(dp34
g3
(dp35
g5
I680
sg6
I45
sg7
I0
sg8
I3
sg9
I0
sg10
I680
ssg11
(dp36
g5
I770
sg6
I45
sg7
I0
sg8
I3
sg9
I0
sg10
I770
ssg13
(dp37
g5
I1500
sg6
I45
sg7
I0
sg8
I3
sg9
I0
sg10
I750
ssg15
(dp38
g5
I765
sg6
I45
sg7
I0
sg8
I3
sg9
I0
sg10
I720
ssg17
(dp39
g5
I740
sg6
I45
sg7
I0
sg8
I3
sg9
I0
sg10
I740
sss.(dp0
S'K_all3.csv'
p1
(dp2
S'machine'
p3
(dp4
S'count'
p5
I500
sS'truepos'
p6
I38
sS'falseneg'
p7
I0
sS'unknownyes'
p8
I7
sS'falsepos'
p9
I0
sS'unique'
p10
I500
ssS'none'
p11
(dp12
g5
I490
sg6
I36
sg7
I0
sg8
I9
sg9
I0
sg10
I490
ssS'three'
p13
(dp14
g5
I1000
sg6
I38
sg7
I0
sg8
I7
sg9
I0
sg10
I500
ssS'machine3'
p15
(dp16
g5
I547
sg6
I37
sg7
I0
sg8
I8
sg9
I0
sg10
I510
ssS'machine2'
p17
(dp18
g5
I460
sg6
I36
sg7
I0
sg8
I9
sg9
I0
sg10
I460
sssS'Wahono.csv'
p19
(dp20
g3
(dp21
g5
I1220
sg6
I59
sg7
I0
sg8
I3
sg9
I0
sg10
I1220
ssg11
(dp22
g5
I1180
sg6
I59
sg7
I0
sg8
I3
sg9
I0
sg10
I1180
ssg13
(dp23
g5
I2240
sg6
I59
sg7
I0
sg8
I3
sg9
I0
sg10
I1120
ssg15
(dp24
g5
I1289
sg6
I59
sg7
I0
sg8
I3
sg9
I0
sg10
I1230
ssg17
(dp25
g5
I1220
sg6
I59
sg7
I0
sg8
I3
sg9
I0
sg10
I1220
sssS'Hall.csv'
p26
(dp27
g3
(dp28
g5
I510
sg6
I102
sg7
I0
sg8
I4
sg9
I0
sg10
I510
ssg11
(dp29
g5
I450
sg6
I101
sg7
I0
sg8
I5
sg9
I0
sg10
I450
ssg13
(dp30
g5
I1020
sg6
I102
sg7
I0
sg8
I4
sg9
I0
sg10
I510
ssg15
(dp31
g5
I582
sg6
I102
sg7
I0
sg8
I4
sg9
I0
sg10
I480
ssg17
(dp32
g5
I510
sg6
I102
sg7
I0
sg8
I4
sg9
I0
sg10
I510
sssS'Danijel.csv'
p33
(dp34
g3
(dp35
g5
I700
sg6
I46
sg7
I0
sg8
I2
sg9
I0
sg10
I700
ssg11
(dp36
g5
I760
sg6
I45
sg7
I0
sg8
I3
sg9
I0
sg10
I760
ssg13
(dp37
g5
I1500
sg6
I45
sg7
I0
sg8
I3
sg9
I0
sg10
I750
ssg15
(dp38
g5
I795
sg6
I45
sg7
I0
sg8
I3
sg9
I0
sg10
I750
ssg17
(dp39
g5
I750
sg6
I46
sg7
I0
sg8
I2
sg9
I0
sg10
I750
sss.(dp0
S'K_all3.csv'
p1
(dp2
S'machine'
p3
(dp4
S'count'
p5
I500
sS'truepos'
p6
I38
sS'falseneg'
p7
I0
sS'unknownyes'
p8
I7
sS'falsepos'
p9
I0
sS'unique'
p10
I500
ssS'none'
p11
(dp12
g5
I500
sg6
I37
sg7
I0
sg8
I8
sg9
I0
sg10
I500
ssS'three'
p13
(dp14
g5
I1040
sg6
I38
sg7
I0
sg8
I7
sg9
I0
sg10
I520
ssS'machine3'
p15
(dp16
g5
I557
sg6
I37
sg7
I0
sg8
I8
sg9
I0
sg10
I520
ssS'machine2'
p17
(dp18
g5
I530
sg6
I38
sg7
I0
sg8
I7
sg9
I0
sg10
I530
sssS'Wahono.csv'
p19
(dp20
g3
(dp21
g5
I1110
sg6
I59
sg7
I0
sg8
I3
sg9
I0
sg10
I1110
ssg11
(dp22
g5
I1150
sg6
I59
sg7
I0
sg8
I3
sg9
I0
sg10
I1150
ssg13
(dp23
g5
I2320
sg6
I59
sg7
I0
sg8
I3
sg9
I0
sg10
I1160
ssg15
(dp24
g5
I1259
sg6
I59
sg7
I0
sg8
I3
sg9
I0
sg10
I1200
ssg17
(dp25
g5
I1150
sg6
I59
sg7
I0
sg8
I3
sg9
I0
sg10
I1150
sssS'Hall.csv'
p26
(dp27
g3
(dp28
g5
I500
sg6
I102
sg7
I0
sg8
I4
sg9
I0
sg10
I500
ssg11
(dp29
g5
I500
sg6
I102
sg7
I0
sg8
I4
sg9
I0
sg10
I500
ssg13
(dp30
g5
I1000
sg6
I102
sg7
I0
sg8
I4
sg9
I0
sg10
I500
ssg15
(dp31
g5
I541
sg6
I101
sg7
I0
sg8
I5
sg9
I0
sg10
I440
ssg17
(dp32
g5
I520
sg6
I102
sg7
I0
sg8
I4
sg9
I0
sg10
I520
sssS'Danijel.csv'
p33
(dp34
g3
(dp35
g5
I770
sg6
I45
sg7
I0
sg8
I3
sg9
I0
sg10
I770
ssg11
(dp36
g5
I720
sg6
I45
sg7
I0
sg8
I3
sg9
I0
sg10
I720
ssg13
(dp37
g5
I1500
sg6
I46
sg7
I0
sg8
I2
sg9
I0
sg10
I750
ssg15
(dp38
g5
I845
sg6
I45
sg7
I0
sg8
I3
sg9
I0
sg10
I800
ssg17
(dp39
g5
I780
sg6
I45
sg7
I0
sg8
I3
sg9
I0
sg10
I780
sss.(dp0
S'K_all3.csv'
p1
(dp2
S'machine'
p3
(dp4
S'count'
p5
I500
sS'truepos'
p6
I38
sS'falseneg'
p7
I0
sS'unknownyes'
p8
I7
sS'falsepos'
p9
I0
sS'unique'
p10
I500
ssS'none'
p11
(dp12
g5
I480
sg6
I37
sg7
I0
sg8
I8
sg9
I0
sg10
I480
ssS'three'
p13
(dp14
g5
I1020
sg6
I37
sg7
I0
sg8
I8
sg9
I0
sg10
I510
ssS'machine3'
p15
(dp16
g5
I527
sg6
I37
sg7
I0
sg8
I8
sg9
I0
sg10
I490
ssS'machine2'
p17
(dp18
g5
I520
sg6
I38
sg7
I0
sg8
I7
sg9
I0
sg10
I520
sssS'Wahono.csv'
p19
(dp20
g3
(dp21
g5
I1150
sg6
I59
sg7
I0
sg8
I3
sg9
I0
sg10
I1150
ssg11
(dp22
g5
I1170
sg6
I60
sg7
I0
sg8
I2
sg9
I0
sg10
I1170
ssg13
(dp23
g5
I2120
sg6
I59
sg7
I0
sg8
I3
sg9
I0
sg10
I1060
ssg15
(dp24
g5
I1189
sg6
I59
sg7
I0
sg8
I3
sg9
I0
sg10
I1130
ssg17
(dp25
g5
I1230
sg6
I59
sg7
I0
sg8
I3
sg9
I0
sg10
I1230
sssS'Hall.csv'
p26
(dp27
g3
(dp28
g5
I450
sg6
I101
sg7
I0
sg8
I5
sg9
I0
sg10
I450
ssg11
(dp29
g5
I480
sg6
I102
sg7
I0
sg8
I4
sg9
I0
sg10
I480
ssg13
(dp30
g5
I960
sg6
I102
sg7
I0
sg8
I4
sg9
I0
sg10
I480
ssg15
(dp31
g5
I582
sg6
I102
sg7
I0
sg8
I4
sg9
I0
sg10
I480
ssg17
(dp32
g5
I510
sg6
I102
sg7
I0
sg8
I4
sg9
I0
sg10
I510
sssS'Danijel.csv'
p33
(dp34
g3
(dp35
g5
I780
sg6
I46
sg7
I0
sg8
I2
sg9
I0
sg10
I780
ssg11
(dp36
g5
I750
sg6
I45
sg7
I0
sg8
I3
sg9
I0
sg10
I750
ssg13
(dp37
g5
I1540
sg6
I45
sg7
I0
sg8
I3
sg9
I0
sg10
I770
ssg15
(dp38
g5
I815
sg6
I45
sg7
I0
sg8
I3
sg9
I0
sg10
I770
ssg17
(dp39
g5
I830
sg6
I45
sg7
I0
sg8
I3
sg9
I0
sg10
I830
sss.(dp0
S'K_all3.csv'
p1
(dp2
S'machine'
p3
(dp4
S'count'
p5
I500
sS'truepos'
p6
I39
sS'falseneg'
p7
I0
sS'unknownyes'
p8
I6
sS'falsepos'
p9
I0
sS'unique'
p10
I500
ssS'none'
p11
(dp12
g5
I470
sg6
I37
sg7
I0
sg8
I8
sg9
I0
sg10
I470
ssS'three'
p13
(dp14
g5
I960
sg6
I35
sg7
I0
sg8
I10
sg9
I0
sg10
I480
ssS'machine3'
p15
(dp16
g5
I547
sg6
I37
sg7
I0
sg8
I8
sg9
I0
sg10
I510
ssS'machine2'
p17
(dp18
g5
I510
sg6
I37
sg7
I0
sg8
I8
sg9
I0
sg10
I510
sssS'Wahono.csv'
p19
(dp20
g3
(dp21
g5
I1210
sg6
I59
sg7
I0
sg8
I3
sg9
I0
sg10
I1210
ssg11
(dp22
g5
I1180
sg6
I59
sg7
I0
sg8
I3
sg9
I0
sg10
I1180
ssg13
(dp23
g5
I2120
sg6
I59
sg7
I0
sg8
I3
sg9
I0
sg10
I1060
ssg15
(dp24
g5
I1259
sg6
I59
sg7
I0
sg8
I3
sg9
I0
sg10
I1200
ssg17
(dp25
g5
I1160
sg6
I59
sg7
I0
sg8
I3
sg9
I0
sg10
I1160
sssS'Hall.csv'
p26
(dp27
g3
(dp28
g5
I500
sg6
I102
sg7
I0
sg8
I4
sg9
I0
sg10
I500
ssg11
(dp29
g5
I510
sg6
I102
sg7
I0
sg8
I4
sg9
I0
sg10
I510
ssg13
(dp30
g5
I900
sg6
I101
sg7
I0
sg8
I5
sg9
I0
sg10
I450
ssg15
(dp31
g5
I592
sg6
I102
sg7
I0
sg8
I4
sg9
I0
sg10
I490
ssg17
(dp32
g5
I510
sg6
I102
sg7
I0
sg8
I4
sg9
I0
sg10
I510
sssS'Danijel.csv'
p33
(dp34
g3
(dp35
g5
I790
sg6
I45
sg7
I0
sg8
I3
sg9
I0
sg10
I790
ssg11
(dp36
g5
I710
sg6
I45
sg7
I0
sg8
I3
sg9
I0
sg10
I710
ssg13
(dp37
g5
I1520
sg6
I45
sg7
I0
sg8
I3
sg9
I0
sg10
I760
ssg15
(dp38
g5
I765
sg6
I45
sg7
I0
sg8
I3
sg9
I0
sg10
I720
ssg17
(dp39
g5
I750
sg6
I45
sg7
I0
sg8
I3
sg9
I0
sg10
I750
sss.(dp0
S'K_all3.csv'
p1
(dp2
S'machine'
p3
(dp4
S'count'
p5
I490
sS'truepos'
p6
I35
sS'falseneg'
p7
I0
sS'unknownyes'
p8
I10
sS'falsepos'
p9
I0
sS'unique'
p10
I490
ssS'none'
p11
(dp12
g5
I490
sg6
I38
sg7
I0
sg8
I7
sg9
I0
sg10
I490
ssS'three'
p13
(dp14
g5
I980
sg6
I38
sg7
I0
sg8
I7
sg9
I0
sg10
I490
ssS'machine3'
p15
(dp16
g5
I517
sg6
I37
sg7
I0
sg8
I8
sg9
I0
sg10
I480
ssS'machine2'
p17
(dp18
g5
I460
sg6
I35
sg7
I0
sg8
I10
sg9
I0
sg10
I460
sssS'Wahono.csv'
p19
(dp20
g3
(dp21
g5
I1140
sg6
I59
sg7
I0
sg8
I3
sg9
I0
sg10
I1140
ssg11
(dp22
g5
I1170
sg6
I59
sg7
I0
sg8
I3
sg9
I0
sg10
I1170
ssg13
(dp23
g5
I2260
sg6
I59
sg7
I0
sg8
I3
sg9
I0
sg10
I1130
ssg15
(dp24
g5
I1269
sg6
I59
sg7
I0
sg8
I3
sg9
I0
sg10
I1210
ssg17
(dp25
g5
I1110
sg6
I60
sg7
I0
sg8
I2
sg9
I0
sg10
I1110
sssS'Hall.csv'
p26
(dp27
g3
(dp28
g5
I510
sg6
I102
sg7
I0
sg8
I4
sg9
I0
sg10
I510
ssg11
(dp29
g5
I500
sg6
I102
sg7
I0
sg8
I4
sg9
I0
sg10
I500
ssg13
(dp30
g5
I1000
sg6
I102
sg7
I0
sg8
I4
sg9
I0
sg10
I500
ssg15
(dp31
g5
I562
sg6
I102
sg7
I0
sg8
I4
sg9
I0
sg10
I460
ssg17
(dp32
g5
I480
sg6
I102
sg7
I0
sg8
I4
sg9
I0
sg10
I480
sssS'Danijel.csv'
p33
(dp34
g3
(dp35
g5
I720
sg6
I45
sg7
I0
sg8
I3
sg9
I0
sg10
I720
ssg11
(dp36
g5
I710
sg6
I45
sg7
I0
sg8
I3
sg9
I0
sg10
I710
ssg13
(dp37
g5
I1380
sg6
I45
sg7
I0
sg8
I3
sg9
I0
sg10
I690
ssg15
(dp38
g5
I785
sg6
I45
sg7
I0
sg8
I3
sg9
I0
sg10
I740
ssg17
(dp39
g5
I810
sg6
I45
sg7
I0
sg8
I3
sg9
I0
sg10
I810
sss.(dp0
S'K_all3.csv'
p1
(dp2
S'machine'
p3
(dp4
S'count'
p5
I510
sS'truepos'
p6
I38
sS'falseneg'
p7
I0
sS'unknownyes'
p8
I7
sS'falsepos'
p9
I0
sS'unique'
p10
I510
ssS'none'
p11
(dp12
g5
I500
sg6
I38
sg7
I0
sg8
I7
sg9
I0
sg10
I500
ssS'three'
p13
(dp14
g5
I940
sg6
I38
sg7
I0
sg8
I7
sg9
I0
sg10
I470
ssS'machine3'
p15
(dp16
g5
I547
sg6
I37
sg7
I0
sg8
I8
sg9
I0
sg10
I510
ssS'machine2'
p17
(dp18
g5
I500
sg6
I38
sg7
I0
sg8
I7
sg9
I0
sg10
I500
sssS'Wahono.csv'
p19
(dp20
g3
(dp21
g5
I1180
sg6
I59
sg7
I0
sg8
I3
sg9
I0
sg10
I1180
ssg11
(dp22
g5
I1120
sg6
I59
sg7
I0
sg8
I3
sg9
I0
sg10
I1120
ssg13
(dp23
g5
I2380
sg6
I59
sg7
I0
sg8
I3
sg9
I0
sg10
I1190
ssg15
(dp24
g5
I1209
sg6
I59
sg7
I0
sg8
I3
sg9
I0
sg10
I1150
ssg17
(dp25
g5
I1210
sg6
I59
sg7
I0
sg8
I3
sg9
I0
sg10
I1210
sssS'Hall.csv'
p26
(dp27
g3
(dp28
g5
I520
sg6
I102
sg7
I0
sg8
I4
sg9
I0
sg10
I520
ssg11
(dp29
g5
I470
sg6
I102
sg7
I0
sg8
I4
sg9
I0
sg10
I470
ssg13
(dp30
g5
I1000
sg6
I102
sg7
I0
sg8
I4
sg9
I0
sg10
I500
ssg15
(dp31
g5
I572
sg6
I102
sg7
I0
sg8
I4
sg9
I0
sg10
I470
ssg17
(dp32
g5
I510
sg6
I102
sg7
I0
sg8
I4
sg9
I0
sg10
I510
sssS'Danijel.csv'
p33
(dp34
g3
(dp35
g5
I800
sg6
I45
sg7
I0
sg8
I3
sg9
I0
sg10
I800
ssg11
(dp36
g5
I740
sg6
I45
sg7
I0
sg8
I3
sg9
I0
sg10
I740
ssg13
(dp37
g5
I1540
sg6
I45
sg7
I0
sg8
I3
sg9
I0
sg10
I770
ssg15
(dp38
g5
I785
sg6
I45
sg7
I0
sg8
I3
sg9
I0
sg10
I740
ssg17
(dp39
g5
I770
sg6
I45
sg7
I0
sg8
I3
sg9
I0
sg10
I770
sss.(dp0
S'K_all3.csv'
p1
(dp2
S'machine'
p3
(dp4
S'count'
p5
I520
sS'truepos'
p6
I37
sS'falseneg'
p7
I0
sS'unknownyes'
p8
I8
sS'falsepos'
p9
I0
sS'unique'
p10
I520
ssS'none'
p11
(dp12
g5
I530
sg6
I37
sg7
I0
sg8
I8
sg9
I0
sg10
I530
ssS'three'
p13
(dp14
g5
I940
sg6
I36
sg7
I0
sg8
I9
sg9
I0
sg10
I470
ssS'machine3'
p15
(dp16
g5
I558
sg6
I38
sg7
I0
sg8
I7
sg9
I0
sg10
I520
ssS'machine2'
p17
(dp18
g5
I520
sg6
I36
sg7
I0
sg8
I9
sg9
I0
sg10
I520
sssS'Wahono.csv'
p19
(dp20
g3
(dp21
g5
I1250
sg6
I59
sg7
I0
sg8
I3
sg9
I0
sg10
I1250
ssg11
(dp22
g5
I1150
sg6
I59
sg7
I0
sg8
I3
sg9
I0
sg10
I1150
ssg13
(dp23
g5
I2360
sg6
I59
sg7
I0
sg8
I3
sg9
I0
sg10
I1180
ssg15
(dp24
g5
I1219
sg6
I59
sg7
I0
sg8
I3
sg9
I0
sg10
I1160
ssg17
(dp25
g5
I1200
sg6
I60
sg7
I0
sg8
I2
sg9
I0
sg10
I1200
sssS'Hall.csv'
p26
(dp27
g3
(dp28
g5
I520
sg6
I102
sg7
I0
sg8
I4
sg9
I0
sg10
I520
ssg11
(dp29
g5
I480
sg6
I102
sg7
I0
sg8
I4
sg9
I0
sg10
I480
ssg13
(dp30
g5
I1000
sg6
I102
sg7
I0
sg8
I4
sg9
I0
sg10
I500
ssg15
(dp31
g5
I582
sg6
I102
sg7
I0
sg8
I4
sg9
I0
sg10
I480
ssg17
(dp32
g5
I480
sg6
I102
sg7
I0
sg8
I4
sg9
I0
sg10
I480
sssS'Danijel.csv'
p33
(dp34
g3
(dp35
g5
I790
sg6
I45
sg7
I0
sg8
I3
sg9
I0
sg10
I790
ssg11
(dp36
g5
I730
sg6
I45
sg7
I0
sg8
I3
sg9
I0
sg10
I730
ssg13
(dp37
g5
I1520
sg6
I45
sg7
I0
sg8
I3
sg9
I0
sg10
I760
ssg15
(dp38
g5
I865
sg6
I45
sg7
I0
sg8
I3
sg9
I0
sg10
I820
ssg17
(dp39
g5
I780
sg6
I45
sg7
I0
sg8
I3
sg9
I0
sg10
I780
sss.(dp0
S'K_all3.csv'
p1
(dp2
S'machine'
p3
(dp4
S'count'
p5
I510
sS'truepos'
p6
I38
sS'falseneg'
p7
I0
sS'unknownyes'
p8
I7
sS'falsepos'
p9
I0
sS'unique'
p10
I510
ssS'none'
p11
(dp12
g5
I510
sg6
I37
sg7
I0
sg8
I8
sg9
I0
sg10
I510
ssS'three'
p13
(dp14
g5
I960
sg6
I35
sg7
I0
sg8
I10
sg9
I0
sg10
I480
ssS'machine3'
p15
(dp16
g5
I557
sg6
I37
sg7
I0
sg8
I8
sg9
I0
sg10
I520
ssS'machine2'
p17
(dp18
g5
I540
sg6
I38
sg7
I0
sg8
I7
sg9
I0
sg10
I540
sssS'Wahono.csv'
p19
(dp20
g3
(dp21
g5
I1170
sg6
I59
sg7
I0
sg8
I3
sg9
I0
sg10
I1170
ssg11
(dp22
g5
I1180
sg6
I59
sg7
I0
sg8
I3
sg9
I0
sg10
I1180
ssg13
(dp23
g5
I2460
sg6
I59
sg7
I0
sg8
I3
sg9
I0
sg10
I1230
ssg15
(dp24
g5
I1229
sg6
I59
sg7
I0
sg8
I3
sg9
I0
sg10
I1170
ssg17
(dp25
g5
I1160
sg6
I59
sg7
I0
sg8
I3
sg9
I0
sg10
I1160
sssS'Hall.csv'
p26
(dp27
g3
(dp28
g5
I470
sg6
I102
sg7
I0
sg8
I4
sg9
I0
sg10
I470
ssg11
(dp29
g5
I480
sg6
I102
sg7
I0
sg8
I4
sg9
I0
sg10
I480
ssg13
(dp30
g5
I1060
sg6
I102
sg7
I0
sg8
I4
sg9
I0
sg10
I530
ssg15
(dp31
g5
I602
sg6
I102
sg7
I0
sg8
I4
sg9
I0
sg10
I500
ssg17
(dp32
g5
I480
sg6
I101
sg7
I0
sg8
I5
sg9
I0
sg10
I480
sssS'Danijel.csv'
p33
(dp34
g3
(dp35
g5
I740
sg6
I45
sg7
I0
sg8
I3
sg9
I0
sg10
I740
ssg11
(dp36
g5
I730
sg6
I45
sg7
I0
sg8
I3
sg9
I0
sg10
I730
ssg13
(dp37
g5
I1360
sg6
I45
sg7
I0
sg8
I3
sg9
I0
sg10
I680
ssg15
(dp38
g5
I875
sg6
I45
sg7
I0
sg8
I3
sg9
I0
sg10
I830
ssg17
(dp39
g5
I750
sg6
I45
sg7
I0
sg8
I3
sg9
I0
sg10
I750
sss.