(dp0
S'K_all3.csv'
p1
(dp2
S'machine'
p3
(dp4
S'count'
p5
I522
sS'truepos'
p6
I31
sS'falseneg'
p7
I4
sS'unknownyes'
p8
I10
sS'falsepos'
p9
I21
sS'unique'
p10
I410
ssS'none'
p11
(dp12
g5
I560
sg6
I37
sg7
I1
sg8
I7
sg9
I58
sg10
I560
ssS'three'
p13
(dp14
g5
I784
sg6
I30
sg7
I0
sg8
I15
sg9
I11
sg10
I360
sssS'Wahono.csv'
p15
(dp16
g3
(dp17
g5
I990
sg6
I55
sg7
I4
sg8
I3
sg9
I44
sg10
I760
ssg11
(dp18
g5
I2530
sg6
I52
sg7
I9
sg8
I1
sg9
I215
sg10
I2530
ssg13
(dp19
g5
I3820
sg6
I59
sg7
I1
sg8
I2
sg9
I49
sg10
I1750
sssS'Hall.csv'
p20
(dp21
g3
(dp22
g5
I1085
sg6
I96
sg7
I6
sg8
I4
sg9
I49
sg10
I840
ssg11
(dp23
g5
I2120
sg6
I91
sg7
I11
sg8
I4
sg9
I233
sg10
I2120
ssg13
(dp24
g5
I1482
sg6
I98
sg7
I4
sg8
I4
sg9
I18
sg10
I680
sssS'Danijel.csv'
p25
(dp26
g3
(dp27
g5
I1240
sg6
I40
sg7
I3
sg8
I5
sg9
I45
sg10
I960
ssg11
(dp28
g5
I2190
sg6
I43
sg7
I2
sg8
I3
sg9
I207
sg10
I2190
ssg13
(dp29
g5
I2017
sg6
I44
sg7
I0
sg8
I4
sg9
I17
sg10
I920
sss.(dp0
S'K_all3.csv'
p1
(dp2
S'machine'
p3
(dp4
S'count'
p5
I741
sS'truepos'
p6
I35
sS'falseneg'
p7
I5
sS'unknownyes'
p8
I5
sS'falsepos'
p9
I30
sS'unique'
p10
I590
ssS'none'
p11
(dp12
g5
I400
sg6
I29
sg7
I4
sg8
I12
sg9
I41
sg10
I400
ssS'three'
p13
(dp14
g5
I860
sg6
I31
sg7
I0
sg8
I14
sg9
I11
sg10
I390
sssS'Wahono.csv'
p15
(dp16
g3
(dp17
g5
I1366
sg6
I56
sg7
I3
sg8
I3
sg9
I38
sg10
I1060
ssg11
(dp18
g5
I2880
sg6
I54
sg7
I4
sg8
I4
sg9
I284
sg10
I2880
ssg13
(dp19
g5
I3373
sg6
I58
sg7
I1
sg8
I3
sg9
I44
sg10
I1540
sssS'Hall.csv'
p20
(dp21
g3
(dp22
g5
I621
sg6
I97
sg7
I3
sg8
I6
sg9
I28
sg10
I480
ssg11
(dp23
g5
I2590
sg6
I98
sg7
I8
sg8
I0
sg9
I246
sg10
I2590
ssg13
(dp24
g5
I1720
sg6
I99
sg7
I3
sg8
I4
sg9
I16
sg10
I790
sssS'Danijel.csv'
p25
(dp26
g3
(dp27
g5
I1422
sg6
I41
sg7
I4
sg8
I3
sg9
I52
sg10
I1110
ssg11
(dp28
g5
I2160
sg6
I45
sg7
I1
sg8
I2
sg9
I188
sg10
I2160
ssg13
(dp29
g5
I1904
sg6
I45
sg7
I1
sg8
I2
sg9
I15
sg10
I870
sss.(dp0
S'K_all3.csv'
p1
(dp2
S'machine'
p3
(dp4
S'count'
p5
I905
sS'truepos'
p6
I30
sS'falseneg'
p7
I8
sS'unknownyes'
p8
I7
sS'falsepos'
p9
I29
sS'unique'
p10
I770
ssS'none'
p11
(dp12
g5
I450
sg6
I33
sg7
I1
sg8
I11
sg9
I43
sg10
I450
ssS'three'
p13
(dp14
g5
I1040
sg6
I32
sg7
I0
sg8
I13
sg9
I11
sg10
I480
sssS'Wahono.csv'
p15
(dp16
g3
(dp17
g5
I2747
sg6
I56
sg7
I3
sg8
I3
sg9
I120
sg10
I2120
ssg11
(dp18
g5
I3050
sg6
I55
sg7
I6
sg8
I1
sg9
I304
sg10
I3050
ssg13
(dp19
g5
I3855
sg6
I57
sg7
I2
sg8
I3
sg9
I63
sg10
I1760
sssS'Hall.csv'
p20
(dp21
g3
(dp22
g5
I523
sg6
I93
sg7
I5
sg8
I8
sg9
I18
sg10
I410
ssg11
(dp23
g5
I2150
sg6
I84
sg7
I18
sg8
I4
sg9
I202
sg10
I2150
ssg13
(dp24
g5
I1491
sg6
I100
sg7
I2
sg8
I4
sg9
I9
sg10
I680
sssS'Danijel.csv'
p25
(dp26
g3
(dp27
g5
I2496
sg6
I44
sg7
I2
sg8
I2
sg9
I83
sg10
I1940
ssg11
(dp28
g5
I2640
sg6
I40
sg7
I6
sg8
I2
sg9
I279
sg10
I2640
ssg13
(dp29
g5
I1975
sg6
I41
sg7
I3
sg8
I4
sg9
I33
sg10
I900
sss.(dp0
S'K_all3.csv'
p1
(dp2
S'machine'
p3
(dp4
S'count'
p5
I733
sS'truepos'
p6
I30
sS'falseneg'
p7
I7
sS'unknownyes'
p8
I8
sS'falsepos'
p9
I23
sS'unique'
p10
I610
ssS'none'
p11
(dp12
g5
I470
sg6
I32
sg7
I3
sg8
I10
sg9
I36
sg10
I470
ssS'three'
p13
(dp14
g5
I852
sg6
I32
sg7
I3
sg8
I10
sg9
I10
sg10
I390
sssS'Wahono.csv'
p15
(dp16
g3
(dp17
g5
I1965
sg6
I57
sg7
I3
sg8
I2
sg9
I84
sg10
I1520
ssg11
(dp18
g5
I2940
sg6
I57
sg7
I2
sg8
I3
sg9
I261
sg10
I2940
ssg13
(dp19
g5
I3858
sg6
I56
sg7
I2
sg8
I4
sg9
I41
sg10
I1780
sssS'Hall.csv'
p20
(dp21
g3
(dp22
g5
I595
sg6
I97
sg7
I4
sg8
I5
sg9
I20
sg10
I460
ssg11
(dp23
g5
I3000
sg6
I96
sg7
I7
sg8
I3
sg9
I289
sg10
I3000
ssg13
(dp24
g5
I842
sg6
I98
sg7
I1
sg8
I7
sg9
I8
sg10
I390
sssS'Danijel.csv'
p25
(dp26
g3
(dp27
g5
I1100
sg6
I41
sg7
I5
sg8
I2
sg9
I41
sg10
I860
ssg11
(dp28
g5
I2710
sg6
I34
sg7
I11
sg8
I3
sg9
I265
sg10
I2710
ssg13
(dp29
g5
I1632
sg6
I46
sg7
I0
sg8
I2
sg9
I11
sg10
I750
sss.(dp0
S'K_all3.csv'
p1
(dp2
S'machine'
p3
(dp4
S'count'
p5
I575
sS'truepos'
p6
I28
sS'falseneg'
p7
I8
sS'unknownyes'
p8
I9
sS'falsepos'
p9
I36
sS'unique'
p10
I460
ssS'none'
p11
(dp12
g5
I480
sg6
I27
sg7
I4
sg8
I14
sg9
I51
sg10
I480
ssS'three'
p13
(dp14
g5
I1326
sg6
I35
sg7
I2
sg8
I8
sg9
I18
sg10
I610
sssS'Wahono.csv'
p15
(dp16
g3
(dp17
g5
I1951
sg6
I50
sg7
I8
sg8
I4
sg9
I77
sg10
I1510
ssg11
(dp18
g5
I2610
sg6
I51
sg7
I8
sg8
I3
sg9
I254
sg10
I2610
ssg13
(dp19
g5
I3055
sg6
I59
sg7
I1
sg8
I2
sg9
I36
sg10
I1400
sssS'Hall.csv'
p20
(dp21
g3
(dp22
g5
I709
sg6
I91
sg7
I10
sg8
I5
sg9
I26
sg10
I550
ssg11
(dp23
g5
I2440
sg6
I92
sg7
I13
sg8
I1
sg9
I231
sg10
I2440
ssg13
(dp24
g5
I2556
sg6
I101
sg7
I1
sg8
I4
sg9
I41
sg10
I1170
sssS'Danijel.csv'
p25
(dp26
g3
(dp27
g5
I1490
sg6
I40
sg7
I4
sg8
I4
sg9
I33
sg10
I1160
ssg11
(dp28
g5
I3490
sg6
I43
sg7
I3
sg8
I2
sg9
I350
sg10
I3490
ssg13
(dp29
g5
I1993
sg6
I44
sg7
I1
sg8
I3
sg9
I19
sg10
I920
sss.(dp0
S'K_all3.csv'
p1
(dp2
S'machine'
p3
(dp4
S'count'
p5
I568
sS'truepos'
p6
I34
sS'falseneg'
p7
I2
sS'unknownyes'
p8
I9
sS'falsepos'
p9
I20
sS'unique'
p10
I460
ssS'none'
p11
(dp12
g5
I490
sg6
I32
sg7
I4
sg8
I9
sg9
I45
sg10
I490
ssS'three'
p13
(dp14
g5
I900
sg6
I30
sg7
I0
sg8
I15
sg9
I11
sg10
I410
sssS'Wahono.csv'
p15
(dp16
g3
(dp17
g5
I3211
sg6
I59
sg7
I3
sg8
I0
sg9
I108
sg10
I2480
ssg11
(dp18
g5
I2390
sg6
I55
sg7
I4
sg8
I3
sg9
I212
sg10
I2390
ssg13
(dp19
g5
I3976
sg6
I59
sg7
I1
sg8
I2
sg9
I40
sg10
I1830
sssS'Hall.csv'
p20
(dp21
g3
(dp22
g5
I490
sg6
I93
sg7
I4
sg8
I9
sg9
I24
sg10
I370
ssg11
(dp23
g5
I2490
sg6
I95
sg7
I8
sg8
I3
sg9
I267
sg10
I2490
ssg13
(dp24
g5
I2006
sg6
I99
sg7
I3
sg8
I4
sg9
I29
sg10
I920
sssS'Danijel.csv'
p25
(dp26
g3
(dp27
g5
I3945
sg6
I43
sg7
I3
sg8
I2
sg9
I142
sg10
I3060
ssg11
(dp28
g5
I2650
sg6
I44
sg7
I3
sg8
I1
sg9
I275
sg10
I2650
ssg13
(dp29
g5
I2055
sg6
I44
sg7
I0
sg8
I4
sg9
I32
sg10
I940
sss.(dp0
S'K_all3.csv'
p1
(dp2
S'machine'
p3
(dp4
S'count'
p5
I689
sS'truepos'
p6
I34
sS'falseneg'
p7
I4
sS'unknownyes'
p8
I7
sS'falsepos'
p9
I22
sS'unique'
p10
I560
ssS'none'
p11
(dp12
g5
I680
sg6
I34
sg7
I7
sg8
I4
sg9
I57
sg10
I680
ssS'three'
p13
(dp14
g5
I951
sg6
I34
sg7
I1
sg8
I10
sg9
I13
sg10
I440
sssS'Wahono.csv'
p15
(dp16
g3
(dp17
g5
I2516
sg6
I55
sg7
I4
sg8
I3
sg9
I91
sg10
I1940
ssg11
(dp18
g5
I2220
sg6
I53
sg7
I4
sg8
I5
sg9
I214
sg10
I2220
ssg13
(dp19
g5
I3443
sg6
I58
sg7
I1
sg8
I3
sg9
I45
sg10
I1580
sssS'Hall.csv'
p20
(dp21
g3
(dp22
g5
I490
sg6
I97
sg7
I4
sg8
I5
sg9
I17
sg10
I370
ssg11
(dp23
g5
I3130
sg6
I97
sg7
I7
sg8
I2
sg9
I308
sg10
I3130
ssg13
(dp24
g5
I1228
sg6
I97
sg7
I5
sg8
I4
sg9
I7
sg10
I560
sssS'Danijel.csv'
p25
(dp26
g3
(dp27
g5
I2625
sg6
I42
sg7
I3
sg8
I3
sg9
I84
sg10
I2040
ssg11
(dp28
g5
I3220
sg6
I46
sg7
I2
sg8
I0
sg9
I340
sg10
I3220
ssg13
(dp29
g5
I3184
sg6
I46
sg7
I0
sg8
I2
sg9
I50
sg10
I1450
sss.(dp0
S'K_all3.csv'
p1
(dp2
S'machine'
p3
(dp4
S'count'
p5
I1050
sS'truepos'
p6
I33
sS'falseneg'
p7
I6
sS'unknownyes'
p8
I6
sS'falsepos'
p9
I47
sS'unique'
p10
I860
ssS'none'
p11
(dp12
g5
I420
sg6
I33
sg7
I4
sg8
I8
sg9
I46
sg10
I420
ssS'three'
p13
(dp14
g5
I965
sg6
I29
sg7
I3
sg8
I13
sg9
I12
sg10
I440
sssS'Wahono.csv'
p15
(dp16
g3
(dp17
g5
I3176
sg6
I53
sg7
I4
sg8
I5
sg9
I116
sg10
I2460
ssg11
(dp18
g5
I2990
sg6
I56
sg7
I5
sg8
I1
sg9
I301
sg10
I2990
ssg13
(dp19
g5
I2592
sg6
I50
sg7
I3
sg8
I9
sg9
I31
sg10
I1200
sssS'Hall.csv'
p20
(dp21
g3
(dp22
g5
I725
sg6
I96
sg7
I6
sg8
I4
sg9
I24
sg10
I560
ssg11
(dp23
g5
I3730
sg6
I94
sg7
I9
sg8
I3
sg9
I369
sg10
I3730
ssg13
(dp24
g5
I1267
sg6
I101
sg7
I1
sg8
I4
sg9
I14
sg10
I580
sssS'Danijel.csv'
p25
(dp26
g3
(dp27
g5
I2710
sg6
I42
sg7
I4
sg8
I2
sg9
I80
sg10
I2110
ssg11
(dp28
g5
I1050
sg6
I42
sg7
I2
sg8
I4
sg9
I84
sg10
I1050
ssg13
(dp29
g5
I2620
sg6
I42
sg7
I2
sg8
I4
sg9
I34
sg10
I1200
sss.(dp0
S'K_all3.csv'
p1
(dp2
S'machine'
p3
(dp4
S'count'
p5
I446
sS'truepos'
p6
I29
sS'falseneg'
p7
I2
sS'unknownyes'
p8
I14
sS'falsepos'
p9
I25
sS'unique'
p10
I360
ssS'none'
p11
(dp12
g5
I390
sg6
I35
sg7
I1
sg8
I9
sg9
I40
sg10
I390
ssS'three'
p13
(dp14
g5
I1075
sg6
I39
sg7
I1
sg8
I5
sg9
I10
sg10
I500
sssS'Wahono.csv'
p15
(dp16
g3
(dp17
g5
I1215
sg6
I46
sg7
I3
sg8
I13
sg9
I50
sg10
I950
ssg11
(dp18
g5
I3180
sg6
I53
sg7
I5
sg8
I4
sg9
I328
sg10
I3180
ssg13
(dp19
g5
I3040
sg6
I59
sg7
I1
sg8
I2
sg9
I36
sg10
I1400
sssS'Hall.csv'
p20
(dp21
g3
(dp22
g5
I861
sg6
I97
sg7
I5
sg8
I4
sg9
I28
sg10
I660
ssg11
(dp23
g5
I3170
sg6
I95
sg7
I8
sg8
I3
sg9
I306
sg10
I3170
ssg13
(dp24
g5
I1348
sg6
I99
sg7
I3
sg8
I4
sg9
I12
sg10
I620
sssS'Danijel.csv'
p25
(dp26
g3
(dp27
g5
I3870
sg6
I43
sg7
I2
sg8
I3
sg9
I124
sg10
I2980
ssg11
(dp28
g5
I2540
sg6
I40
sg7
I6
sg8
I2
sg9
I240
sg10
I2540
ssg13
(dp29
g5
I3097
sg6
I47
sg7
I0
sg8
I1
sg9
I41
sg10
I1430
sss.(dp0
S'K_all3.csv'
p1
(dp2
S'machine'
p3
(dp4
S'count'
p5
I525
sS'truepos'
p6
I25
sS'falseneg'
p7
I5
sS'unknownyes'
p8
I15
sS'falsepos'
p9
I16
sS'unique'
p10
I440
ssS'none'
p11
(dp12
g5
I480
sg6
I30
sg7
I2
sg8
I13
sg9
I46
sg10
I480
ssS'three'
p13
(dp14
g5
I948
sg6
I34
sg7
I2
sg8
I9
sg9
I4
sg10
I440
sssS'Wahono.csv'
p15
(dp16
g3
(dp17
g5
I3373
sg6
I59
sg7
I3
sg8
I0
sg9
I121
sg10
I2610
ssg11
(dp18
g5
I3010
sg6
I50
sg7
I9
sg8
I3
sg9
I279
sg10
I3010
ssg13
(dp19
g5
I3881
sg6
I61
sg7
I1
sg8
I0
sg9
I38
sg10
I1770
sssS'Hall.csv'
p20
(dp21
g3
(dp22
g5
I2915
sg6
I99
sg7
I5
sg8
I2
sg9
I112
sg10
I2240
ssg11
(dp23
g5
I2260
sg6
I90
sg7
I11
sg8
I5
sg9
I209
sg10
I2260
ssg13
(dp24
g5
I1929
sg6
I99
sg7
I4
sg8
I3
sg9
I28
sg10
I880
sssS'Danijel.csv'
p25
(dp26
g3
(dp27
g5
I3100
sg6
I46
sg7
I0
sg8
I2
sg9
I98
sg10
I2390
ssg11
(dp28
g5
I3160
sg6
I42
sg7
I4
sg8
I2
sg9
I321
sg10
I3160
ssg13
(dp29
g5
I2130
sg6
I42
sg7
I3
sg8
I3
sg9
I15
sg10
I980
sss.(dp0
S'K_all3.csv'
p1
(dp2
S'machine'
p3
(dp4
S'count'
p5
I612
sS'truepos'
p6
I27
sS'falseneg'
p7
I5
sS'unknownyes'
p8
I13
sS'falsepos'
p9
I26
sS'unique'
p10
I490
ssS'none'
p11
(dp12
g5
I660
sg6
I38
sg7
I1
sg8
I6
sg9
I76
sg10
I660
ssS'three'
p13
(dp14
g5
I1049
sg6
I34
sg7
I0
sg8
I11
sg9
I10
sg10
I480
sssS'Wahono.csv'
p15
(dp16
g3
(dp17
g5
I4021
sg6
I56
sg7
I4
sg8
I2
sg9
I128
sg10
I3110
ssg11
(dp18
g5
I2760
sg6
I53
sg7
I7
sg8
I2
sg9
I257
sg10
I2760
ssg13
(dp19
g5
I4030
sg6
I58
sg7
I1
sg8
I3
sg9
I37
sg10
I1850
sssS'Hall.csv'
p20
(dp21
g3
(dp22
g5
I740
sg6
I102
sg7
I0
sg8
I4
sg9
I31
sg10
I560
ssg11
(dp23
g5
I2500
sg6
I95
sg7
I9
sg8
I2
sg9
I251
sg10
I2500
ssg13
(dp24
g5
I1511
sg6
I101
sg7
I1
sg8
I4
sg9
I15
sg10
I700
sssS'Danijel.csv'
p25
(dp26
g3
(dp27
g5
I1705
sg6
I42
sg7
I3
sg8
I3
sg9
I63
sg10
I1320
ssg11
(dp28
g5
I3710
sg6
I43
sg7
I4
sg8
I1
sg9
I399
sg10
I3710
ssg13
(dp29
g5
I2969
sg6
I43
sg7
I2
sg8
I3
sg9
I35
sg10
I1360
sss.(dp0
S'K_all3.csv'
p1
(dp2
S'machine'
p3
(dp4
S'count'
p5
I632
sS'truepos'
p6
I30
sS'falseneg'
p7
I6
sS'unknownyes'
p8
I9
sS'falsepos'
p9
I39
sS'unique'
p10
I510
ssS'none'
p11
(dp12
g5
I480
sg6
I25
sg7
I6
sg8
I14
sg9
I35
sg10
I480
ssS'three'
p13
(dp14
g5
I837
sg6
I34
sg7
I1
sg8
I10
sg9
I10
sg10
I390
sssS'Wahono.csv'
p15
(dp16
g3
(dp17
g5
I1561
sg6
I52
sg7
I5
sg8
I5
sg9
I44
sg10
I1210
ssg11
(dp18
g5
I2690
sg6
I57
sg7
I4
sg8
I1
sg9
I251
sg10
I2690
ssg13
(dp19
g5
I4061
sg6
I57
sg7
I2
sg8
I3
sg9
I49
sg10
I1860
sssS'Hall.csv'
p20
(dp21
g3
(dp22
g5
I650
sg6
I98
sg7
I4
sg8
I4
sg9
I24
sg10
I500
ssg11
(dp23
g5
I4340
sg6
I99
sg7
I6
sg8
I1
sg9
I410
sg10
I4340
ssg13
(dp24
g5
I1041
sg6
I101
sg7
I1
sg8
I4
sg9
I8
sg10
I480
sssS'Danijel.csv'
p25
(dp26
g3
(dp27
g5
I975
sg6
I37
sg7
I6
sg8
I5
sg9
I44
sg10
I760
ssg11
(dp28
g5
I2810
sg6
I43
sg7
I4
sg8
I1
sg9
I267
sg10
I2810
ssg13
(dp29
g5
I2374
sg6
I44
sg7
I1
sg8
I3
sg9
I32
sg10
I1090
sss.(dp0
S'K_all3.csv'
p1
(dp2
S'machine'
p3
(dp4
S'count'
p5
I622
sS'truepos'
p6
I33
sS'falseneg'
p7
I3
sS'unknownyes'
p8
I9
sS'falsepos'
p9
I25
sS'unique'
p10
I490
ssS'none'
p11
(dp12
g5
I420
sg6
I34
sg7
I3
sg8
I8
sg9
I43
sg10
I420
ssS'three'
p13
(dp14
g5
I908
sg6
I33
sg7
I0
sg8
I12
sg9
I8
sg10
I420
sssS'Wahono.csv'
p15
(dp16
g3
(dp17
g5
I2701
sg6
I54
sg7
I5
sg8
I3
sg9
I90
sg10
I2090
ssg11
(dp18
g5
I3190
sg6
I51
sg7
I8
sg8
I3
sg9
I291
sg10
I3190
ssg13
(dp19
g5
I3007
sg6
I57
sg7
I2
sg8
I3
sg9
I33
sg10
I1370
sssS'Hall.csv'
p20
(dp21
g3
(dp22
g5
I1700
sg6
I96
sg7
I7
sg8
I3
sg9
I77
sg10
I1310
ssg11
(dp23
g5
I3780
sg6
I95
sg7
I9
sg8
I2
sg9
I413
sg10
I3780
ssg13
(dp24
g5
I1468
sg6
I99
sg7
I3
sg8
I4
sg9
I14
sg10
I680
sssS'Danijel.csv'
p25
(dp26
g3
(dp27
g5
I575
sg6
I39
sg7
I3
sg8
I6
sg9
I21
sg10
I460
ssg11
(dp28
g5
I2420
sg6
I40
sg7
I6
sg8
I2
sg9
I252
sg10
I2420
ssg13
(dp29
g5
I2000
sg6
I43
sg7
I2
sg8
I3
sg9
I35
sg10
I910
sss.(dp0
S'K_all3.csv'
p1
(dp2
S'machine'
p3
(dp4
S'count'
p5
I557
sS'truepos'
p6
I37
sS'falseneg'
p7
I1
sS'unknownyes'
p8
I7
sS'falsepos'
p9
I22
sS'unique'
p10
I460
ssS'none'
p11
(dp12
g5
I370
sg6
I27
sg7
I2
sg8
I16
sg9
I30
sg10
I370
ssS'three'
p13
(dp14
g5
I1168
sg6
I39
sg7
I1
sg8
I5
sg9
I18
sg10
I540
sssS'Wahono.csv'
p15
(dp16
g3
(dp17
g5
I3306
sg6
I52
sg7
I9
sg8
I1
sg9
I135
sg10
I2550
ssg11
(dp18
g5
I4010
sg6
I57
sg7
I4
sg8
I1
sg9
I398
sg10
I4010
ssg13
(dp19
g5
I4508
sg6
I59
sg7
I1
sg8
I2
sg9
I74
sg10
I2070
sssS'Hall.csv'
p20
(dp21
g3
(dp22
g5
I2285
sg6
I101
sg7
I3
sg8
I2
sg9
I113
sg10
I1760
ssg11
(dp23
g5
I2650
sg6
I95
sg7
I10
sg8
I1
sg9
I254
sg10
I2650
ssg13
(dp24
g5
I1858
sg6
I98
sg7
I4
sg8
I4
sg9
I18
sg10
I850
sssS'Danijel.csv'
p25
(dp26
g3
(dp27
g5
I965
sg6
I43
sg7
I3
sg8
I2
sg9
I36
sg10
I760
ssg11
(dp28
g5
I1000
sg6
I40
sg7
I6
sg8
I2
sg9
I97
sg10
I1000
ssg13
(dp29
g5
I1918
sg6
I44
sg7
I1
sg8
I3
sg9
I26
sg10
I870
sss.(dp0
S'K_all3.csv'
p1
(dp2
S'machine'
p3
(dp4
S'count'
p5
I777
sS'truepos'
p6
I33
sS'falseneg'
p7
I4
sS'unknownyes'
p8
I8
sS'falsepos'
p9
I44
sS'unique'
p10
I610
ssS'none'
p11
(dp12
g5
I420
sg6
I24
sg7
I7
sg8
I14
sg9
I32
sg10
I420
ssS'three'
p13
(dp14
g5
I890
sg6
I33
sg7
I0
sg8
I12
sg9
I7
sg10
I410
sssS'Wahono.csv'
p15
(dp16
g3
(dp17
g5
I2656
sg6
I50
sg7
I6
sg8
I6
sg9
I89
sg10
I2060
ssg11
(dp18
g5
I3060
sg6
I58
sg7
I4
sg8
I0
sg9
I327
sg10
I3060
ssg13
(dp19
g5
I3317
sg6
I55
sg7
I4
sg8
I3
sg9
I41
sg10
I1520
sssS'Hall.csv'
p20
(dp21
g3
(dp22
g5
I666
sg6
I98
sg7
I4
sg8
I4
sg9
I11
sg10
I510
ssg11
(dp23
g5
I3610
sg6
I91
sg7
I14
sg8
I1
sg9
I360
sg10
I3610
ssg13
(dp24
g5
I1839
sg6
I98
sg7
I5
sg8
I3
sg9
I18
sg10
I850
sssS'Danijel.csv'
p25
(dp26
g3
(dp27
g5
I4150
sg6
I45
sg7
I1
sg8
I2
sg9
I137
sg10
I3210
ssg11
(dp28
g5
I2670
sg6
I41
sg7
I6
sg8
I1
sg9
I246
sg10
I2670
ssg13
(dp29
g5
I2523
sg6
I46
sg7
I0
sg8
I2
sg9
I31
sg10
I1150
sss.(dp0
S'K_all3.csv'
p1
(dp2
S'machine'
p3
(dp4
S'count'
p5
I632
sS'truepos'
p6
I33
sS'falseneg'
p7
I3
sS'unknownyes'
p8
I9
sS'falsepos'
p9
I27
sS'unique'
p10
I510
ssS'none'
p11
(dp12
g5
I530
sg6
I33
sg7
I4
sg8
I8
sg9
I46
sg10
I530
ssS'three'
p13
(dp14
g5
I1029
sg6
I32
sg7
I3
sg8
I10
sg9
I8
sg10
I470
sssS'Wahono.csv'
p15
(dp16
g3
(dp17
g5
I2479
sg6
I56
sg7
I2
sg8
I4
sg9
I60
sg10
I1920
ssg11
(dp18
g5
I4300
sg6
I55
sg7
I6
sg8
I1
sg9
I422
sg10
I4300
ssg13
(dp19
g5
I5052
sg6
I62
sg7
I0
sg8
I0
sg9
I67
sg10
I2320
sssS'Hall.csv'
p20
(dp21
g3
(dp22
g5
I1433
sg6
I102
sg7
I0
sg8
I4
sg9
I43
sg10
I1110
ssg11
(dp23
g5
I1570
sg6
I90
sg7
I12
sg8
I4
sg9
I130
sg10
I1570
ssg13
(dp24
g5
I2039
sg6
I101
sg7
I1
sg8
I4
sg9
I24
sg10
I940
sssS'Danijel.csv'
p25
(dp26
g3
(dp27
g5
I1160
sg6
I36
sg7
I4
sg8
I8
sg9
I33
sg10
I910
ssg11
(dp28
g5
I2780
sg6
I42
sg7
I5
sg8
I1
sg9
I262
sg10
I2780
ssg13
(dp29
g5
I1827
sg6
I41
sg7
I1
sg8
I6
sg9
I23
sg10
I840
sss.(dp0
S'K_all3.csv'
p1
(dp2
S'machine'
p3
(dp4
S'count'
p5
I593
sS'truepos'
p6
I33
sS'falseneg'
p7
I2
sS'unknownyes'
p8
I10
sS'falsepos'
p9
I22
sS'unique'
p10
I460
ssS'none'
p11
(dp12
g5
I340
sg6
I30
sg7
I0
sg8
I15
sg9
I28
sg10
I340
ssS'three'
p13
(dp14
g5
I989
sg6
I33
sg7
I1
sg8
I11
sg9
I12
sg10
I450
sssS'Wahono.csv'
p15
(dp16
g3
(dp17
g5
I3535
sg6
I60
sg7
I1
sg8
I1
sg9
I90
sg10
I2730
ssg11
(dp18
g5
I3810
sg6
I55
sg7
I7
sg8
I0
sg9
I363
sg10
I3810
ssg13
(dp19
g5
I4673
sg6
I58
sg7
I2
sg8
I2
sg9
I56
sg10
I2130
sssS'Hall.csv'
p20
(dp21
g3
(dp22
g5
I588
sg6
I100
sg7
I2
sg8
I4
sg9
I18
sg10
I460
ssg11
(dp23
g5
I2620
sg6
I93
sg7
I11
sg8
I2
sg9
I273
sg10
I2620
ssg13
(dp24
g5
I1671
sg6
I98
sg7
I4
sg8
I4
sg9
I18
sg10
I770
sssS'Danijel.csv'
p25
(dp26
g3
(dp27
g5
I1160
sg6
I37
sg7
I5
sg8
I6
sg9
I34
sg10
I910
ssg11
(dp28
g5
I3470
sg6
I44
sg7
I3
sg8
I1
sg9
I360
sg10
I3470
ssg13
(dp29
g5
I2872
sg6
I46
sg7
I0
sg8
I2
sg9
I38
sg10
I1320
sss.(dp0
S'K_all3.csv'
p1
(dp2
S'machine'
p3
(dp4
S'count'
p5
I566
sS'truepos'
p6
I29
sS'falseneg'
p7
I7
sS'unknownyes'
p8
I9
sS'falsepos'
p9
I22
sS'unique'
p10
I460
ssS'none'
p11
(dp12
g5
I490
sg6
I30
sg7
I4
sg8
I11
sg9
I47
sg10
I490
ssS'three'
p13
(dp14
g5
I876
sg6
I29
sg7
I1
sg8
I15
sg9
I13
sg10
I400
sssS'Wahono.csv'
p15
(dp16
g3
(dp17
g5
I2355
sg6
I56
sg7
I4
sg8
I2
sg9
I85
sg10
I1820
ssg11
(dp18
g5
I2990
sg6
I51
sg7
I7
sg8
I4
sg9
I295
sg10
I2990
ssg13
(dp19
g5
I3090
sg6
I59
sg7
I0
sg8
I3
sg9
I41
sg10
I1430
sssS'Hall.csv'
p20
(dp21
g3
(dp22
g5
I458
sg6
I93
sg7
I5
sg8
I8
sg9
I19
sg10
I360
ssg11
(dp23
g5
I3960
sg6
I90
sg7
I14
sg8
I2
sg9
I378
sg10
I3960
ssg13
(dp24
g5
I1197
sg6
I100
sg7
I2
sg8
I4
sg9
I16
sg10
I550
sssS'Danijel.csv'
p25
(dp26
g3
(dp27
g5
I2850
sg6
I39
sg7
I2
sg8
I7
sg9
I85
sg10
I2210
ssg11
(dp28
g5
I3340
sg6
I44
sg7
I2
sg8
I2
sg9
I322
sg10
I3340
ssg13
(dp29
g5
I2400
sg6
I42
sg7
I4
sg8
I2
sg9
I26
sg10
I1110
sss.(dp0
S'K_all3.csv'
p1
(dp2
S'machine'
p3
(dp4
S'count'
p5
I559
sS'truepos'
p6
I32
sS'falseneg'
p7
I4
sS'unknownyes'
p8
I9
sS'falsepos'
p9
I24
sS'unique'
p10
I440
ssS'none'
p11
(dp12
g5
I430
sg6
I34
sg7
I0
sg8
I11
sg9
I45
sg10
I430
ssS'three'
p13
(dp14
g5
I888
sg6
I30
sg7
I1
sg8
I14
sg9
I9
sg10
I410
sssS'Wahono.csv'
p15
(dp16
g3
(dp17
g5
I4671
sg6
I55
sg7
I6
sg8
I1
sg9
I133
sg10
I3610
ssg11
(dp18
g5
I3420
sg6
I54
sg7
I5
sg8
I3
sg9
I364
sg10
I3420
ssg13
(dp19
g5
I3370
sg6
I58
sg7
I2
sg8
I2
sg9
I33
sg10
I1550
sssS'Hall.csv'
p20
(dp21
g3
(dp22
g5
I585
sg6
I97
sg7
I5
sg8
I4
sg9
I20
sg10
I460
ssg11
(dp23
g5
I3060
sg6
I96
sg7
I7
sg8
I3
sg9
I305
sg10
I3060
ssg13
(dp24
g5
I2223
sg6
I97
sg7
I5
sg8
I4
sg9
I39
sg10
I1020
sssS'Danijel.csv'
p25
(dp26
g3
(dp27
g5
I870
sg6
I37
sg7
I2
sg8
I9
sg9
I39
sg10
I670
ssg11
(dp28
g5
I2360
sg6
I44
sg7
I2
sg8
I2
sg9
I227
sg10
I2360
ssg13
(dp29
g5
I1907
sg6
I45
sg7
I1
sg8
I2
sg9
I26
sg10
I880
sss.(dp0
S'K_all3.csv'
p1
(dp2
S'machine'
p3
(dp4
S'count'
p5
I445
sS'truepos'
p6
I31
sS'falseneg'
p7
I1
sS'unknownyes'
p8
I13
sS'falsepos'
p9
I28
sS'unique'
p10
I360
ssS'none'
p11
(dp12
g5
I620
sg6
I34
sg7
I4
sg8
I7
sg9
I71
sg10
I620
ssS'three'
p13
(dp14
g5
I992
sg6
I37
sg7
I0
sg8
I8
sg9
I15
sg10
I460
sssS'Wahono.csv'
p15
(dp16
g3
(dp17
g5
I1746
sg6
I49
sg7
I5
sg8
I8
sg9
I84
sg10
I1360
ssg11
(dp18
g5
I3240
sg6
I54
sg7
I5
sg8
I3
sg9
I323
sg10
I3240
ssg13
(dp19
g5
I3934
sg6
I59
sg7
I0
sg8
I3
sg9
I56
sg10
I1790
sssS'Hall.csv'
p20
(dp21
g3
(dp22
g5
I2050
sg6
I99
sg7
I5
sg8
I2
sg9
I68
sg10
I1570
ssg11
(dp23
g5
I4300
sg6
I99
sg7
I5
sg8
I2
sg9
I416
sg10
I4300
ssg13
(dp24
g5
I1408
sg6
I99
sg7
I3
sg8
I4
sg9
I16
sg10
I650
sssS'Danijel.csv'
p25
(dp26
g3
(dp27
g5
I1420
sg6
I40
sg7
I5
sg8
I3
sg9
I40
sg10
I1110
ssg11
(dp28
g5
I2530
sg6
I41
sg7
I4
sg8
I3
sg9
I236
sg10
I2530
ssg13
(dp29
g5
I2254
sg6
I46
sg7
I0
sg8
I2
sg9
I30
sg10
I1030
sss.(dp0
S'K_all3.csv'
p1
(dp2
S'machine'
p3
(dp4
S'count'
p5
I675
sS'truepos'
p6
I22
sS'falseneg'
p7
I8
sS'unknownyes'
p8
I15
sS'falsepos'
p9
I29
sS'unique'
p10
I560
ssS'none'
p11
(dp12
g5
I470
sg6
I32
sg7
I5
sg8
I8
sg9
I44
sg10
I470
ssS'three'
p13
(dp14
g5
I965
sg6
I33
sg7
I1
sg8
I11
sg9
I18
sg10
I440
sssS'Wahono.csv'
p15
(dp16
g3
(dp17
g5
I1922
sg6
I52
sg7
I3
sg8
I7
sg9
I80
sg10
I1490
ssg11
(dp18
g5
I3610
sg6
I52
sg7
I9
sg8
I1
sg9
I366
sg10
I3610
ssg13
(dp19
g5
I2741
sg6
I56
sg7
I2
sg8
I4
sg9
I27
sg10
I1260
sssS'Hall.csv'
p20
(dp21
g3
(dp22
g5
I1626
sg6
I100
sg7
I3
sg8
I3
sg9
I48
sg10
I1260
ssg11
(dp23
g5
I3730
sg6
I96
sg7
I8
sg8
I2
sg9
I379
sg10
I3730
ssg13
(dp24
g5
I1603
sg6
I99
sg7
I3
sg8
I4
sg9
I15
sg10
I730
sssS'Danijel.csv'
p25
(dp26
g3
(dp27
g5
I2375
sg6
I44
sg7
I1
sg8
I3
sg9
I68
sg10
I1850
ssg11
(dp28
g5
I3270
sg6
I45
sg7
I2
sg8
I1
sg9
I317
sg10
I3270
ssg13
(dp29
g5
I1555
sg6
I44
sg7
I1
sg8
I3
sg9
I13
sg10
I720
sss.(dp0
S'K_all3.csv'
p1
(dp2
S'machine'
p3
(dp4
S'count'
p5
I827
sS'truepos'
p6
I34
sS'falseneg'
p7
I6
sS'unknownyes'
p8
I5
sS'falsepos'
p9
I35
sS'unique'
p10
I660
ssS'none'
p11
(dp12
g5
I420
sg6
I26
sg7
I3
sg8
I16
sg9
I35
sg10
I420
ssS'three'
p13
(dp14
g5
I969
sg6
I35
sg7
I2
sg8
I8
sg9
I4
sg10
I450
sssS'Wahono.csv'
p15
(dp16
g3
(dp17
g5
I2720
sg6
I56
sg7
I4
sg8
I2
sg9
I88
sg10
I2110
ssg11
(dp18
g5
I3700
sg6
I58
sg7
I3
sg8
I1
sg9
I388
sg10
I3700
ssg13
(dp19
g5
I3329
sg6
I61
sg7
I0
sg8
I1
sg9
I43
sg10
I1520
sssS'Hall.csv'
p20
(dp21
g3
(dp22
g5
I1561
sg6
I97
sg7
I5
sg8
I4
sg9
I58
sg10
I1210
ssg11
(dp23
g5
I3890
sg6
I91
sg7
I12
sg8
I3
sg9
I389
sg10
I3890
ssg13
(dp24
g5
I1526
sg6
I102
sg7
I0
sg8
I4
sg9
I18
sg10
I710
sssS'Danijel.csv'
p25
(dp26
g3
(dp27
g5
I1325
sg6
I42
sg7
I3
sg8
I3
sg9
I44
sg10
I1030
ssg11
(dp28
g5
I2710
sg6
I46
sg7
I2
sg8
I0
sg9
I257
sg10
I2710
ssg13
(dp29
g5
I2155
sg6
I45
sg7
I1
sg8
I2
sg9
I19
sg10
I980
sss.(dp0
S'K_all3.csv'
p1
(dp2
S'machine'
p3
(dp4
S'count'
p5
I438
sS'truepos'
p6
I24
sS'falseneg'
p7
I3
sS'unknownyes'
p8
I18
sS'falsepos'
p9
I17
sS'unique'
p10
I360
ssS'none'
p11
(dp12
g5
I570
sg6
I35
sg7
I5
sg8
I5
sg9
I42
sg10
I570
ssS'three'
p13
(dp14
g5
I779
sg6
I30
sg7
I3
sg8
I12
sg9
I8
sg10
I360
sssS'Wahono.csv'
p15
(dp16
g3
(dp17
g5
I3435
sg6
I55
sg7
I5
sg8
I2
sg9
I112
sg10
I2660
ssg11
(dp18
g5
I3820
sg6
I56
sg7
I5
sg8
I1
sg9
I352
sg10
I3820
ssg13
(dp19
g5
I3427
sg6
I54
sg7
I4
sg8
I4
sg9
I32
sg10
I1570
sssS'Hall.csv'
p20
(dp21
g3
(dp22
g5
I1050
sg6
I101
sg7
I2
sg8
I3
sg9
I30
sg10
I810
ssg11
(dp23
g5
I2540
sg6
I86
sg7
I16
sg8
I4
sg9
I237
sg10
I2540
ssg13
(dp24
g5
I2201
sg6
I98
sg7
I4
sg8
I4
sg9
I35
sg10
I1010
sssS'Danijel.csv'
p25
(dp26
g3
(dp27
g5
I4215
sg6
I43
sg7
I3
sg8
I2
sg9
I171
sg10
I3260
ssg11
(dp28
g5
I2990
sg6
I43
sg7
I3
sg8
I2
sg9
I305
sg10
I2990
ssg13
(dp29
g5
I3335
sg6
I45
sg7
I1
sg8
I2
sg9
I53
sg10
I1530
sss.(dp0
S'K_all3.csv'
p1
(dp2
S'machine'
p3
(dp4
S'count'
p5
I382
sS'truepos'
p6
I30
sS'falseneg'
p7
I2
sS'unknownyes'
p8
I13
sS'falsepos'
p9
I25
sS'unique'
p10
I310
ssS'none'
p11
(dp12
g5
I480
sg6
I34
sg7
I4
sg8
I7
sg9
I35
sg10
I480
ssS'three'
p13
(dp14
g5
I1002
sg6
I34
sg7
I0
sg8
I11
sg9
I11
sg10
I460
sssS'Wahono.csv'
p15
(dp16
g3
(dp17
g5
I1172
sg6
I48
sg7
I4
sg8
I10
sg9
I44
sg10
I910
ssg11
(dp18
g5
I3840
sg6
I53
sg7
I6
sg8
I3
sg9
I393
sg10
I3840
ssg13
(dp19
g5
I2791
sg6
I58
sg7
I2
sg8
I2
sg9
I23
sg10
I1280
sssS'Hall.csv'
p20
(dp21
g3
(dp22
g5
I913
sg6
I99
sg7
I3
sg8
I4
sg9
I44
sg10
I710
ssg11
(dp23
g5
I4060
sg6
I89
sg7
I14
sg8
I3
sg9
I383
sg10
I4060
ssg13
(dp24
g5
I3012
sg6
I99
sg7
I4
sg8
I3
sg9
I34
sg10
I1380
sssS'Danijel.csv'
p25
(dp26
g3
(dp27
g5
I760
sg6
I38
sg7
I5
sg8
I5
sg9
I25
sg10
I600
ssg11
(dp28
g5
I3080
sg6
I42
sg7
I5
sg8
I1
sg9
I320
sg10
I3080
ssg13
(dp29
g5
I1732
sg6
I45
sg7
I1
sg8
I2
sg9
I16
sg10
I800
sss.(dp0
S'K_all3.csv'
p1
(dp2
S'machine'
p3
(dp4
S'count'
p5
I622
sS'truepos'
p6
I34
sS'falseneg'
p7
I2
sS'unknownyes'
p8
I9
sS'falsepos'
p9
I28
sS'unique'
p10
I490
ssS'none'
p11
(dp12
g5
I520
sg6
I37
sg7
I2
sg8
I6
sg9
I51
sg10
I520
ssS'three'
p13
(dp14
g5
I991
sg6
I36
sg7
I0
sg8
I9
sg9
I6
sg10
I450
sssS'Wahono.csv'
p15
(dp16
g3
(dp17
g5
I1226
sg6
I45
sg7
I5
sg8
I12
sg9
I39
sg10
I960
ssg11
(dp18
g5
I3630
sg6
I55
sg7
I6
sg8
I1
sg9
I365
sg10
I3630
ssg13
(dp19
g5
I3095
sg6
I61
sg7
I0
sg8
I1
sg9
I36
sg10
I1430
sssS'Hall.csv'
p20
(dp21
g3
(dp22
g5
I630
sg6
I97
sg7
I4
sg8
I5
sg9
I16
sg10
I480
ssg11
(dp23
g5
I4060
sg6
I86
sg7
I15
sg8
I5
sg9
I400
sg10
I4060
ssg13
(dp24
g5
I1466
sg6
I99
sg7
I3
sg8
I4
sg9
I18
sg10
I670
sssS'Danijel.csv'
p25
(dp26
g3
(dp27
g5
I805
sg6
I37
sg7
I5
sg8
I6
sg9
I31
sg10
I620
ssg11
(dp28
g5
I3010
sg6
I38
sg7
I8
sg8
I2
sg9
I307
sg10
I3010
ssg13
(dp29
g5
I2661
sg6
I45
sg7
I0
sg8
I3
sg9
I44
sg10
I1220
sss.(dp0
S'K_all3.csv'
p1
(dp2
S'machine'
p3
(dp4
S'count'
p5
I436
sS'truepos'
p6
I26
sS'falseneg'
p7
I4
sS'unknownyes'
p8
I15
sS'falsepos'
p9
I16
sS'unique'
p10
I360
ssS'none'
p11
(dp12
g5
I470
sg6
I33
sg7
I2
sg8
I10
sg9
I45
sg10
I470
ssS'three'
p13
(dp14
g5
I937
sg6
I33
sg7
I1
sg8
I11
sg9
I12
sg10
I430
sssS'Wahono.csv'
p15
(dp16
g3
(dp17
g5
I4150
sg6
I55
sg7
I5
sg8
I2
sg9
I120
sg10
I3210
ssg11
(dp18
g5
I3530
sg6
I52
sg7
I6
sg8
I4
sg9
I391
sg10
I3530
ssg13
(dp19
g5
I4431
sg6
I59
sg7
I1
sg8
I2
sg9
I59
sg10
I2030
sssS'Hall.csv'
p20
(dp21
g3
(dp22
g5
I1245
sg6
I102
sg7
I1
sg8
I3
sg9
I64
sg10
I960
ssg11
(dp23
g5
I3390
sg6
I93
sg7
I11
sg8
I2
sg9
I320
sg10
I3390
ssg13
(dp24
g5
I1475
sg6
I99
sg7
I3
sg8
I4
sg9
I15
sg10
I680
sssS'Danijel.csv'
p25
(dp26
g3
(dp27
g5
I1575
sg6
I42
sg7
I2
sg8
I4
sg9
I74
sg10
I1210
ssg11
(dp28
g5
I3380
sg6
I41
sg7
I6
sg8
I1
sg9
I324
sg10
I3380
ssg13
(dp29
g5
I3399
sg6
I46
sg7
I1
sg8
I1
sg9
I45
sg10
I1560
sss.(dp0
S'K_all3.csv'
p1
(dp2
S'machine'
p3
(dp4
S'count'
p5
I591
sS'truepos'
p6
I31
sS'falseneg'
p7
I5
sS'unknownyes'
p8
I9
sS'falsepos'
p9
I18
sS'unique'
p10
I470
ssS'none'
p11
(dp12
g5
I630
sg6
I35
sg7
I4
sg8
I6
sg9
I58
sg10
I630
ssS'three'
p13
(dp14
g5
I920
sg6
I33
sg7
I1
sg8
I11
sg9
I6
sg10
I420
sssS'Wahono.csv'
p15
(dp16
g3
(dp17
g5
I2656
sg6
I53
sg7
I7
sg8
I2
sg9
I90
sg10
I2060
ssg11
(dp18
g5
I3530
sg6
I56
sg7
I4
sg8
I2
sg9
I351
sg10
I3530
ssg13
(dp19
g5
I3847
sg6
I58
sg7
I1
sg8
I3
sg9
I45
sg10
I1750
sssS'Hall.csv'
p20
(dp21
g3
(dp22
g5
I595
sg6
I94
sg7
I7
sg8
I5
sg9
I17
sg10
I460
ssg11
(dp23
g5
I4250
sg6
I93
sg7
I10
sg8
I3
sg9
I474
sg10
I4250
ssg13
(dp24
g5
I1581
sg6
I101
sg7
I1
sg8
I4
sg9
I19
sg10
I730
sssS'Danijel.csv'
p25
(dp26
g3
(dp27
g5
I2385
sg6
I45
sg7
I1
sg8
I2
sg9
I69
sg10
I1860
ssg11
(dp28
g5
I3170
sg6
I40
sg7
I6
sg8
I2
sg9
I322
sg10
I3170
ssg13
(dp29
g5
I2967
sg6
I44
sg7
I2
sg8
I2
sg9
I38
sg10
I1360
sss.(dp0
S'K_all3.csv'
p1
(dp2
S'machine'
p3
(dp4
S'count'
p5
I511
sS'truepos'
p6
I30
sS'falseneg'
p7
I3
sS'unknownyes'
p8
I12
sS'falsepos'
p9
I20
sS'unique'
p10
I410
ssS'none'
p11
(dp12
g5
I470
sg6
I26
sg7
I4
sg8
I15
sg9
I51
sg10
I470
ssS'three'
p13
(dp14
g5
I856
sg6
I32
sg7
I2
sg8
I11
sg9
I14
sg10
I390
sssS'Wahono.csv'
p15
(dp16
g3
(dp17
g5
I2998
sg6
I55
sg7
I3
sg8
I4
sg9
I67
sg10
I2310
ssg11
(dp18
g5
I3900
sg6
I56
sg7
I4
sg8
I2
sg9
I375
sg10
I3900
ssg13
(dp19
g5
I3189
sg6
I57
sg7
I1
sg8
I4
sg9
I27
sg10
I1470
sssS'Hall.csv'
p20
(dp21
g3
(dp22
g5
I1121
sg6
I95
sg7
I8
sg8
I3
sg9
I43
sg10
I860
ssg11
(dp23
g5
I4360
sg6
I96
sg7
I7
sg8
I3
sg9
I421
sg10
I4360
ssg13
(dp24
g5
I1738
sg6
I101
sg7
I1
sg8
I4
sg9
I21
sg10
I800
sssS'Danijel.csv'
p25
(dp26
g3
(dp27
g5
I2485
sg6
I43
sg7
I3
sg8
I2
sg9
I96
sg10
I1920
ssg11
(dp28
g5
I2600
sg6
I41
sg7
I5
sg8
I2
sg9
I267
sg10
I2600
ssg13
(dp29
g5
I2166
sg6
I43
sg7
I3
sg8
I2
sg9
I30
sg10
I990
sss.(dp0
S'K_all3.csv'
p1
(dp2
S'machine'
p3
(dp4
S'count'
p5
I711
sS'truepos'
p6
I33
sS'falseneg'
p7
I6
sS'unknownyes'
p8
I6
sS'falsepos'
p9
I27
sS'unique'
p10
I580
ssS'none'
p11
(dp12
g5
I360
sg6
I31
sg7
I1
sg8
I13
sg9
I28
sg10
I360
ssS'three'
p13
(dp14
g5
I1083
sg6
I37
sg7
I1
sg8
I7
sg9
I10
sg10
I490
sssS'Wahono.csv'
p15
(dp16
g3
(dp17
g5
I2785
sg6
I53
sg7
I7
sg8
I2
sg9
I63
sg10
I2160
ssg11
(dp18
g5
I4000
sg6
I52
sg7
I8
sg8
I2
sg9
I420
sg10
I4000
ssg13
(dp19
g5
I3251
sg6
I59
sg7
I0
sg8
I3
sg9
I36
sg10
I1500
sssS'Hall.csv'
p20
(dp21
g3
(dp22
g5
I1065
sg6
I101
sg7
I1
sg8
I4
sg9
I34
sg10
I810
ssg11
(dp23
g5
I4370
sg6
I98
sg7
I6
sg8
I2
sg9
I426
sg10
I4370
ssg13
(dp24
g5
I1982
sg6
I100
sg7
I2
sg8
I4
sg9
I22
sg10
I910
sssS'Danijel.csv'
p25
(dp26
g3
(dp27
g5
I3825
sg6
I38
sg7
I7
sg8
I3
sg9
I109
sg10
I2960
ssg11
(dp28
g5
I2870
sg6
I44
sg7
I3
sg8
I1
sg9
I298
sg10
I2870
ssg13
(dp29
g5
I2864
sg6
I42
sg7
I4
sg8
I2
sg9
I40
sg10
I1310
sss.(dp0
S'K_all3.csv'
p1
(dp2
S'machine'
p3
(dp4
S'count'
p5
I567
sS'truepos'
p6
I28
sS'falseneg'
p7
I4
sS'unknownyes'
p8
I13
sS'falsepos'
p9
I29
sS'unique'
p10
I450
ssS'none'
p11
(dp12
g5
I560
sg6
I35
sg7
I4
sg8
I6
sg9
I61
sg10
I560
ssS'three'
p13
(dp14
g5
I1120
sg6
I38
sg7
I1
sg8
I6
sg9
I23
sg10
I510
sssS'Wahono.csv'
p15
(dp16
g3
(dp17
g5
I3501
sg6
I55
sg7
I4
sg8
I3
sg9
I116
sg10
I2710
ssg11
(dp18
g5
I3420
sg6
I50
sg7
I9
sg8
I3
sg9
I310
sg10
I3420
ssg13
(dp19
g5
I2982
sg6
I57
sg7
I1
sg8
I4
sg9
I30
sg10
I1370
sssS'Hall.csv'
p20
(dp21
g3
(dp22
g5
I1020
sg6
I101
sg7
I2
sg8
I3
sg9
I27
sg10
I780
ssg11
(dp23
g5
I5260
sg6
I95
sg7
I10
sg8
I1
sg9
I508
sg10
I5260
ssg13
(dp24
g5
I2533
sg6
I99
sg7
I3
sg8
I4
sg9
I34
sg10
I1160
sssS'Danijel.csv'
p25
(dp26
g3
(dp27
g5
I4280
sg6
I45
sg7
I2
sg8
I1
sg9
I133
sg10
I3310
ssg11
(dp28
g5
I2280
sg6
I42
sg7
I3
sg8
I3
sg9
I201
sg10
I2280
ssg13
(dp29
g5
I2196
sg6
I43
sg7
I2
sg8
I3
sg9
I21
sg10
I1010
sss.(dp0
S'K_all3.csv'
p1
(dp2
S'machine'
p3
(dp4
S'count'
p5
I562
sS'truepos'
p6
I32
sS'falseneg'
p7
I2
sS'unknownyes'
p8
I11
sS'falsepos'
p9
I3
sS'unique'
p10
I460
ssS'none'
p11
(dp12
g5
I440
sg6
I35
sg7
I4
sg8
I6
sg9
I16
sg10
I440
ssS'three'
p13
(dp14
g5
I999
sg6
I38
sg7
I0
sg8
I7
sg9
I0
sg10
I480
sssS'Wahono.csv'
p15
(dp16
g3
(dp17
g5
I1460
sg6
I59
sg7
I1
sg8
I2
sg9
I3
sg10
I1140
ssg11
(dp18
g5
I2100
sg6
I55
sg7
I4
sg8
I3
sg9
I116
sg10
I2100
ssg13
(dp19
g5
I3087
sg6
I60
sg7
I0
sg8
I2
sg9
I10
sg10
I1470
sssS'Hall.csv'
p20
(dp21
g3
(dp22
g5
I590
sg6
I99
sg7
I2
sg8
I5
sg9
I6
sg10
I410
ssg11
(dp23
g5
I880
sg6
I98
sg7
I4
sg8
I4
sg9
I39
sg10
I880
ssg13
(dp24
g5
I1134
sg6
I102
sg7
I0
sg8
I4
sg9
I3
sg10
I530
sssS'Danijel.csv'
p25
(dp26
g3
(dp27
g5
I967
sg6
I44
sg7
I2
sg8
I2
sg9
I2
sg10
I760
ssg11
(dp28
g5
I990
sg6
I40
sg7
I5
sg8
I3
sg9
I55
sg10
I990
ssg13
(dp29
g5
I2296
sg6
I46
sg7
I0
sg8
I2
sg9
I8
sg10
I1100
sss.(dp0
S'K_all3.csv'
p1
(dp2
S'machine'
p3
(dp4
S'count'
p5
I566
sS'truepos'
p6
I35
sS'falseneg'
p7
I0
sS'unknownyes'
p8
I10
sS'falsepos'
p9
I0
sS'unique'
p10
I460
ssS'none'
p11
(dp12
g5
I520
sg6
I29
sg7
I3
sg8
I13
sg9
I29
sg10
I520
ssS'three'
p13
(dp14
g5
I1070
sg6
I35
sg7
I0
sg8
I10
sg9
I2
sg10
I510
sssS'Wahono.csv'
p15
(dp16
g3
(dp17
g5
I1442
sg6
I58
sg7
I1
sg8
I3
sg9
I2
sg10
I1130
ssg11
(dp18
g5
I1550
sg6
I57
sg7
I4
sg8
I1
sg9
I68
sg10
I1550
ssg13
(dp19
g5
I3172
sg6
I61
sg7
I0
sg8
I1
sg9
I11
sg10
I1510
sssS'Hall.csv'
p20
(dp21
g3
(dp22
g5
I631
sg6
I97
sg7
I4
sg8
I5
sg9
I3
sg10
I460
ssg11
(dp23
g5
I960
sg6
I96
sg7
I6
sg8
I4
sg9
I37
sg10
I960
ssg13
(dp24
g5
I1165
sg6
I102
sg7
I0
sg8
I4
sg9
I5
sg10
I560
sssS'Danijel.csv'
p25
(dp26
g3
(dp27
g5
I1037
sg6
I44
sg7
I1
sg8
I3
sg9
I4
sg10
I810
ssg11
(dp28
g5
I2060
sg6
I44
sg7
I2
sg8
I2
sg9
I98
sg10
I2060
ssg13
(dp29
g5
I1871
sg6
I45
sg7
I0
sg8
I3
sg9
I10
sg10
I890
sss.(dp0
S'K_all3.csv'
p1
(dp2
S'machine'
p3
(dp4
S'count'
p5
I496
sS'truepos'
p6
I36
sS'falseneg'
p7
I0
sS'unknownyes'
p8
I9
sS'falsepos'
p9
I1
sS'unique'
p10
I410
ssS'none'
p11
(dp12
g5
I520
sg6
I36
sg7
I0
sg8
I9
sg9
I24
sg10
I520
ssS'three'
p13
(dp14
g5
I1020
sg6
I34
sg7
I1
sg8
I10
sg9
I4
sg10
I490
sssS'Wahono.csv'
p15
(dp16
g3
(dp17
g5
I1369
sg6
I55
sg7
I5
sg8
I2
sg9
I2
sg10
I1060
ssg11
(dp18
g5
I2080
sg6
I57
sg7
I3
sg8
I2
sg9
I97
sg10
I2080
ssg13
(dp19
g5
I2579
sg6
I60
sg7
I0
sg8
I2
sg9
I6
sg10
I1220
sssS'Hall.csv'
p20
(dp21
g3
(dp22
g5
I672
sg6
I100
sg7
I2
sg8
I4
sg9
I1
sg10
I480
ssg11
(dp23
g5
I1610
sg6
I99
sg7
I4
sg8
I3
sg9
I66
sg10
I1610
ssg13
(dp24
g5
I1071
sg6
I101
sg7
I1
sg8
I4
sg9
I5
sg10
I510
sssS'Danijel.csv'
p25
(dp26
g3
(dp27
g5
I924
sg6
I44
sg7
I0
sg8
I4
sg9
I2
sg10
I710
ssg11
(dp28
g5
I900
sg6
I42
sg7
I3
sg8
I3
sg9
I53
sg10
I900
ssg13
(dp29
g5
I1393
sg6
I45
sg7
I0
sg8
I3
sg9
I8
sg10
I660
sss.(dp0
S'K_all3.csv'
p1
(dp2
S'machine'
p3
(dp4
S'count'
p5
I590
sS'truepos'
p6
I37
sS'falseneg'
p7
I1
sS'unknownyes'
p8
I7
sS'falsepos'
p9
I1
sS'unique'
p10
I470
ssS'none'
p11
(dp12
g5
I410
sg6
I33
sg7
I3
sg8
I9
sg9
I21
sg10
I410
ssS'three'
p13
(dp14
g5
I987
sg6
I30
sg7
I0
sg8
I15
sg9
I4
sg10
I470
sssS'Wahono.csv'
p15
(dp16
g3
(dp17
g5
I1347
sg6
I58
sg7
I1
sg8
I3
sg9
I1
sg10
I1060
ssg11
(dp18
g5
I2240
sg6
I55
sg7
I4
sg8
I3
sg9
I117
sg10
I2240
ssg13
(dp19
g5
I2541
sg6
I60
sg7
I0
sg8
I2
sg9
I8
sg10
I1210
sssS'Hall.csv'
p20
(dp21
g3
(dp22
g5
I610
sg6
I100
sg7
I2
sg8
I4
sg9
I2
sg10
I430
ssg11
(dp23
g5
I1080
sg6
I100
sg7
I3
sg8
I3
sg9
I42
sg10
I1080
ssg13
(dp24
g5
I1306
sg6
I102
sg7
I0
sg8
I4
sg9
I6
sg10
I620
sssS'Danijel.csv'
p25
(dp26
g3
(dp27
g5
I1108
sg6
I43
sg7
I1
sg8
I4
sg9
I1
sg10
I860
ssg11
(dp28
g5
I1840
sg6
I42
sg7
I4
sg8
I2
sg9
I89
sg10
I1840
ssg13
(dp29
g5
I1765
sg6
I46
sg7
I0
sg8
I2
sg9
I7
sg10
I850
sss.(dp0
S'K_all3.csv'
p1
(dp2
S'machine'
p3
(dp4
S'count'
p5
I663
sS'truepos'
p6
I35
sS'falseneg'
p7
I3
sS'unknownyes'
p8
I7
sS'falsepos'
p9
I1
sS'unique'
p10
I530
ssS'none'
p11
(dp12
g5
I440
sg6
I32
sg7
I1
sg8
I12
sg9
I26
sg10
I440
ssS'three'
p13
(dp14
g5
I1092
sg6
I35
sg7
I2
sg8
I8
sg9
I3
sg10
I520
sssS'Wahono.csv'
p15
(dp16
g3
(dp17
g5
I1487
sg6
I58
sg7
I1
sg8
I3
sg9
I5
sg10
I1160
ssg11
(dp18
g5
I2650
sg6
I56
sg7
I3
sg8
I3
sg9
I133
sg10
I2650
ssg13
(dp19
g5
I3014
sg6
I59
sg7
I1
sg8
I2
sg9
I15
sg10
I1430
sssS'Hall.csv'
p20
(dp21
g3
(dp22
g5
I730
sg6
I101
sg7
I0
sg8
I5
sg9
I4
sg10
I510
ssg11
(dp23
g5
I1360
sg6
I97
sg7
I6
sg8
I3
sg9
I55
sg10
I1360
ssg13
(dp24
g5
I1111
sg6
I101
sg7
I1
sg8
I4
sg9
I5
sg10
I530
sssS'Danijel.csv'
p25
(dp26
g3
(dp27
g5
I1044
sg6
I41
sg7
I4
sg8
I3
sg9
I7
sg10
I810
ssg11
(dp28
g5
I1260
sg6
I45
sg7
I1
sg8
I2
sg9
I73
sg10
I1260
ssg13
(dp29
g5
I1294
sg6
I46
sg7
I0
sg8
I2
sg9
I1
sg10
I620
sss.(dp0
S'K_all3.csv'
p1
(dp2
S'machine'
p3
(dp4
S'count'
p5
I703
sS'truepos'
p6
I35
sS'falseneg'
p7
I2
sS'unknownyes'
p8
I8
sS'falsepos'
p9
I1
sS'unique'
p10
I590
ssS'none'
p11
(dp12
g5
I450
sg6
I33
sg7
I2
sg8
I10
sg9
I21
sg10
I450
ssS'three'
p13
(dp14
g5
I979
sg6
I34
sg7
I0
sg8
I11
sg9
I4
sg10
I460
sssS'Wahono.csv'
p15
(dp16
g3
(dp17
g5
I1422
sg6
I59
sg7
I0
sg8
I3
sg9
I5
sg10
I1110
ssg11
(dp18
g5
I2190
sg6
I59
sg7
I2
sg8
I1
sg9
I98
sg10
I2190
ssg13
(dp19
g5
I3529
sg6
I58
sg7
I2
sg8
I2
sg9
I14
sg10
I1690
sssS'Hall.csv'
p20
(dp21
g3
(dp22
g5
I593
sg6
I99
sg7
I3
sg8
I4
sg9
I4
sg10
I420
ssg11
(dp23
g5
I1060
sg6
I100
sg7
I2
sg8
I4
sg9
I55
sg10
I1060
ssg13
(dp24
g5
I1193
sg6
I102
sg7
I0
sg8
I4
sg9
I4
sg10
I570
sssS'Danijel.csv'
p25
(dp26
g3
(dp27
g5
I903
sg6
I41
sg7
I3
sg8
I4
sg9
I2
sg10
I710
ssg11
(dp28
g5
I2370
sg6
I47
sg7
I0
sg8
I1
sg9
I119
sg10
I2370
ssg13
(dp29
g5
I1776
sg6
I44
sg7
I1
sg8
I3
sg9
I7
sg10
I850
sss.(dp0
S'K_all3.csv'
p1
(dp2
S'machine'
p3
(dp4
S'count'
p5
I516
sS'truepos'
p6
I34
sS'falseneg'
p7
I0
sS'unknownyes'
p8
I11
sS'falsepos'
p9
I1
sS'unique'
p10
I400
ssS'none'
p11
(dp12
g5
I380
sg6
I33
sg7
I2
sg8
I10
sg9
I24
sg10
I380
ssS'three'
p13
(dp14
g5
I842
sg6
I35
sg7
I2
sg8
I8
sg9
I4
sg10
I400
sssS'Wahono.csv'
p15
(dp16
g3
(dp17
g5
I1446
sg6
I58
sg7
I1
sg8
I3
sg9
I3
sg10
I1110
ssg11
(dp18
g5
I2670
sg6
I57
sg7
I2
sg8
I3
sg9
I153
sg10
I2670
ssg13
(dp19
g5
I2707
sg6
I59
sg7
I0
sg8
I3
sg9
I13
sg10
I1290
sssS'Hall.csv'
p20
(dp21
g3
(dp22
g5
I654
sg6
I100
sg7
I2
sg8
I4
sg9
I2
sg10
I460
ssg11
(dp23
g5
I720
sg6
I98
sg7
I4
sg8
I4
sg9
I24
sg10
I720
ssg13
(dp24
g5
I1027
sg6
I101
sg7
I1
sg8
I4
sg9
I5
sg10
I490
sssS'Danijel.csv'
p25
(dp26
g3
(dp27
g5
I1034
sg6
I45
sg7
I0
sg8
I3
sg9
I2
sg10
I810
ssg11
(dp28
g5
I1680
sg6
I44
sg7
I2
sg8
I2
sg9
I84
sg10
I1680
ssg13
(dp29
g5
I1819
sg6
I45
sg7
I0
sg8
I3
sg9
I9
sg10
I870
sss.(dp0
S'K_all3.csv'
p1
(dp2
S'machine'
p3
(dp4
S'count'
p5
I561
sS'truepos'
p6
I31
sS'falseneg'
p7
I0
sS'unknownyes'
p8
I14
sS'falsepos'
p9
I2
sS'unique'
p10
I460
ssS'none'
p11
(dp12
g5
I490
sg6
I31
sg7
I4
sg8
I10
sg9
I23
sg10
I490
ssS'three'
p13
(dp14
g5
I915
sg6
I36
sg7
I2
sg8
I7
sg9
I2
sg10
I440
sssS'Wahono.csv'
p15
(dp16
g3
(dp17
g5
I1298
sg6
I56
sg7
I3
sg8
I3
sg9
I3
sg10
I1010
ssg11
(dp18
g5
I3170
sg6
I60
sg7
I0
sg8
I2
sg9
I170
sg10
I3170
ssg13
(dp19
g5
I3212
sg6
I61
sg7
I0
sg8
I1
sg9
I7
sg10
I1530
sssS'Hall.csv'
p20
(dp21
g3
(dp22
g5
I703
sg6
I100
sg7
I2
sg8
I4
sg9
I1
sg10
I510
ssg11
(dp23
g5
I930
sg6
I101
sg7
I1
sg8
I4
sg9
I35
sg10
I930
ssg13
(dp24
g5
I1167
sg6
I102
sg7
I0
sg8
I4
sg9
I6
sg10
I560
sssS'Danijel.csv'
p25
(dp26
g3
(dp27
g5
I973
sg6
I42
sg7
I3
sg8
I3
sg9
I0
sg10
I760
ssg11
(dp28
g5
I980
sg6
I42
sg7
I4
sg8
I2
sg9
I41
sg10
I980
ssg13
(dp29
g5
I2655
sg6
I43
sg7
I1
sg8
I4
sg9
I7
sg10
I1260
sss.