(dp0
S'K_all3.csv'
p1
(dp2
S'machine'
p3
(dp4
S'count'
p5
I712
sS'truepos'
p6
I25
sS'falseneg'
p7
I10
sS'unknownyes'
p8
I10
sS'falsepos'
p9
I8
sS'unique'
p10
I560
ssS'none'
p11
(dp12
g5
I380
sg6
I29
sg7
I3
sg8
I13
sg9
I32
sg10
I380
ssS'three'
p13
(dp14
g5
I1217
sg6
I35
sg7
I2
sg8
I8
sg9
I21
sg10
I560
ssS'machine3'
p15
(dp16
g5
I591
sg6
I29
sg7
I6
sg8
I10
sg9
I9
sg10
I470
ssS'machine2'
p17
(dp18
g5
I558
sg6
I31
sg7
I3
sg8
I11
sg9
I4
sg10
I410
sssS'Wahono.csv'
p19
(dp20
g3
(dp21
g5
I2103
sg6
I56
sg7
I6
sg8
I0
sg9
I18
sg10
I1610
ssg11
(dp22
g5
I2410
sg6
I57
sg7
I2
sg8
I3
sg9
I209
sg10
I2410
ssg13
(dp23
g5
I3353
sg6
I61
sg7
I0
sg8
I1
sg9
I44
sg10
I1530
ssg15
(dp24
g5
I1993
sg6
I58
sg7
I2
sg8
I2
sg9
I20
sg10
I1490
ssg17
(dp25
g5
I1583
sg6
I53
sg7
I5
sg8
I4
sg9
I18
sg10
I1110
sssS'Hall.csv'
p26
(dp27
g3
(dp28
g5
I792
sg6
I92
sg7
I9
sg8
I5
sg9
I13
sg10
I560
ssg11
(dp29
g5
I1990
sg6
I97
sg7
I6
sg8
I3
sg9
I167
sg10
I1990
ssg13
(dp30
g5
I1088
sg6
I101
sg7
I1
sg8
I4
sg9
I6
sg10
I500
ssg15
(dp31
g5
I786
sg6
I95
sg7
I7
sg8
I4
sg9
I5
sg10
I540
ssg17
(dp32
g5
I1282
sg6
I99
sg7
I3
sg8
I4
sg9
I27
sg10
I860
sssS'Danijel.csv'
p33
(dp34
g3
(dp35
g5
I1102
sg6
I41
sg7
I5
sg8
I2
sg9
I11
sg10
I840
ssg11
(dp36
g5
I1240
sg6
I40
sg7
I4
sg8
I4
sg9
I132
sg10
I1240
ssg13
(dp37
g5
I2129
sg6
I44
sg7
I2
sg8
I2
sg9
I24
sg10
I980
ssg15
(dp38
g5
I1149
sg6
I44
sg7
I1
sg8
I3
sg9
I12
sg10
I870
ssg17
(dp39
g5
I1358
sg6
I42
sg7
I3
sg8
I3
sg9
I17
sg10
I960
sss.(dp0
S'K_all3.csv'
p1
(dp2
S'machine'
p3
(dp4
S'count'
p5
I632
sS'truepos'
p6
I25
sS'falseneg'
p7
I6
sS'unknownyes'
p8
I14
sS'falsepos'
p9
I9
sS'unique'
p10
I510
ssS'none'
p11
(dp12
g5
I420
sg6
I32
sg7
I1
sg8
I12
sg9
I31
sg10
I420
ssS'three'
p13
(dp14
g5
I866
sg6
I29
sg7
I1
sg8
I15
sg9
I9
sg10
I400
ssS'machine3'
p15
(dp16
g5
I562
sg6
I31
sg7
I4
sg8
I10
sg9
I3
sg10
I450
ssS'machine2'
p17
(dp18
g5
I592
sg6
I29
sg7
I4
sg8
I12
sg9
I5
sg10
I460
sssS'Wahono.csv'
p19
(dp20
g3
(dp21
g5
I1796
sg6
I54
sg7
I5
sg8
I3
sg9
I14
sg10
I1360
ssg11
(dp22
g5
I2080
sg6
I53
sg7
I6
sg8
I3
sg9
I201
sg10
I2080
ssg13
(dp23
g5
I3037
sg6
I57
sg7
I0
sg8
I5
sg9
I42
sg10
I1390
ssg15
(dp24
g5
I1853
sg6
I56
sg7
I3
sg8
I3
sg9
I22
sg10
I1380
ssg17
(dp25
g5
I2590
sg6
I57
sg7
I3
sg8
I2
sg9
I42
sg10
I1810
sssS'Hall.csv'
p26
(dp27
g3
(dp28
g5
I724
sg6
I95
sg7
I6
sg8
I5
sg9
I13
sg10
I510
ssg11
(dp29
g5
I1940
sg6
I94
sg7
I8
sg8
I4
sg9
I160
sg10
I1940
ssg13
(dp30
g5
I1355
sg6
I98
sg7
I4
sg8
I4
sg9
I16
sg10
I620
ssg15
(dp31
g5
I965
sg6
I98
sg7
I4
sg8
I4
sg9
I9
sg10
I660
ssg17
(dp32
g5
I899
sg6
I99
sg7
I3
sg8
I4
sg9
I13
sg10
I610
sssS'Danijel.csv'
p33
(dp34
g3
(dp35
g5
I1170
sg6
I43
sg7
I2
sg8
I3
sg9
I16
sg10
I870
ssg11
(dp36
g5
I3410
sg6
I43
sg7
I4
sg8
I1
sg9
I337
sg10
I3410
ssg13
(dp37
g5
I2294
sg6
I45
sg7
I1
sg8
I2
sg9
I28
sg10
I1050
ssg15
(dp38
g5
I1120
sg6
I44
sg7
I1
sg8
I3
sg9
I8
sg10
I830
ssg17
(dp39
g5
I981
sg6
I40
sg7
I4
sg8
I4
sg9
I11
sg10
I710
sss.(dp0
S'K_all3.csv'
p1
(dp2
S'machine'
p3
(dp4
S'count'
p5
I734
sS'truepos'
p6
I31
sS'falseneg'
p7
I10
sS'unknownyes'
p8
I4
sS'falsepos'
p9
I5
sS'unique'
p10
I570
ssS'none'
p11
(dp12
g5
I470
sg6
I29
sg7
I3
sg8
I13
sg9
I42
sg10
I470
ssS'three'
p13
(dp14
g5
I1011
sg6
I31
sg7
I2
sg8
I12
sg9
I9
sg10
I460
ssS'machine3'
p15
(dp16
g5
I491
sg6
I30
sg7
I3
sg8
I12
sg9
I2
sg10
I400
ssS'machine2'
p17
(dp18
g5
I518
sg6
I31
sg7
I1
sg8
I13
sg9
I6
sg10
I360
sssS'Wahono.csv'
p19
(dp20
g3
(dp21
g5
I1677
sg6
I55
sg7
I5
sg8
I2
sg9
I14
sg10
I1260
ssg11
(dp22
g5
I2410
sg6
I56
sg7
I5
sg8
I1
sg9
I210
sg10
I2410
ssg13
(dp23
g5
I3311
sg6
I58
sg7
I2
sg8
I2
sg9
I38
sg10
I1510
ssg15
(dp24
g5
I1845
sg6
I58
sg7
I2
sg8
I2
sg9
I18
sg10
I1390
ssg17
(dp25
g5
I1785
sg6
I56
sg7
I3
sg8
I3
sg9
I23
sg10
I1260
sssS'Hall.csv'
p26
(dp27
g3
(dp28
g5
I660
sg6
I92
sg7
I7
sg8
I7
sg9
I10
sg10
I460
ssg11
(dp29
g5
I3270
sg6
I97
sg7
I6
sg8
I3
sg9
I283
sg10
I3270
ssg13
(dp30
g5
I2177
sg6
I97
sg7
I5
sg8
I4
sg9
I28
sg10
I1000
ssg15
(dp31
g5
I1060
sg6
I95
sg7
I7
sg8
I4
sg9
I11
sg10
I750
ssg17
(dp32
g5
I1056
sg6
I101
sg7
I2
sg8
I3
sg9
I18
sg10
I710
sssS'Danijel.csv'
p33
(dp34
g3
(dp35
g5
I1106
sg6
I44
sg7
I2
sg8
I2
sg9
I8
sg10
I830
ssg11
(dp36
g5
I1770
sg6
I41
sg7
I4
sg8
I3
sg9
I159
sg10
I1770
ssg13
(dp37
g5
I2523
sg6
I42
sg7
I3
sg8
I3
sg9
I31
sg10
I1150
ssg15
(dp38
g5
I1057
sg6
I43
sg7
I3
sg8
I2
sg9
I3
sg10
I830
ssg17
(dp39
g5
I1009
sg6
I44
sg7
I1
sg8
I3
sg9
I15
sg10
I710
sss.(dp0
S'K_all3.csv'
p1
(dp2
S'machine'
p3
(dp4
S'count'
p5
I582
sS'truepos'
p6
I29
sS'falseneg'
p7
I4
sS'unknownyes'
p8
I12
sS'falsepos'
p9
I9
sS'unique'
p10
I460
ssS'none'
p11
(dp12
g5
I490
sg6
I7
sg7
I1
sg8
I37
sg9
I52
sg10
I490
ssS'three'
p13
(dp14
g5
I949
sg6
I33
sg7
I1
sg8
I11
sg9
I7
sg10
I440
ssS'machine3'
p15
(dp16
g5
I1074
sg6
I27
sg7
I12
sg8
I6
sg9
I4
sg10
I940
ssS'machine2'
p17
(dp18
g5
I575
sg6
I36
sg7
I1
sg8
I8
sg9
I8
sg10
I410
sssS'Wahono.csv'
p19
(dp20
g3
(dp21
g5
I1351
sg6
I54
sg7
I4
sg8
I4
sg9
I15
sg10
I1010
ssg11
(dp22
g5
I2050
sg6
I52
sg7
I7
sg8
I3
sg9
I180
sg10
I2050
ssg13
(dp23
g5
I3738
sg6
I60
sg7
I1
sg8
I1
sg9
I42
sg10
I1730
ssg15
(dp24
g5
I1621
sg6
I54
sg7
I4
sg8
I4
sg9
I13
sg10
I1230
ssg17
(dp25
g5
I2150
sg6
I55
sg7
I4
sg8
I3
sg9
I24
sg10
I1520
sssS'Hall.csv'
p26
(dp27
g3
(dp28
g5
I672
sg6
I94
sg7
I7
sg8
I5
sg9
I7
sg10
I480
ssg11
(dp29
g5
I3210
sg6
I96
sg7
I8
sg8
I2
sg9
I321
sg10
I3210
ssg13
(dp30
g5
I2536
sg6
I101
sg7
I2
sg8
I3
sg9
I38
sg10
I1160
ssg15
(dp31
g5
I606
sg6
I96
sg7
I5
sg8
I5
sg9
I2
sg10
I410
ssg17
(dp32
g5
I848
sg6
I101
sg7
I1
sg8
I4
sg9
I14
sg10
I560
sssS'Danijel.csv'
p33
(dp34
g3
(dp35
g5
I1430
sg6
I43
sg7
I3
sg8
I2
sg9
I12
sg10
I1080
ssg11
(dp36
g5
I2390
sg6
I42
sg7
I4
sg8
I2
sg9
I242
sg10
I2390
ssg13
(dp37
g5
I2036
sg6
I43
sg7
I2
sg8
I3
sg9
I26
sg10
I930
ssg15
(dp38
g5
I1471
sg6
I43
sg7
I2
sg8
I3
sg9
I9
sg10
I1120
ssg17
(dp39
g5
I1161
sg6
I40
sg7
I2
sg8
I6
sg9
I17
sg10
I820
sss.(dp0
S'K_all3.csv'
p1
(dp2
S'machine'
p3
(dp4
S'count'
p5
I709
sS'truepos'
p6
I36
sS'falseneg'
p7
I2
sS'unknownyes'
p8
I7
sS'falsepos'
p9
I3
sS'unique'
p10
I560
ssS'none'
p11
(dp12
g5
I770
sg6
I38
sg7
I4
sg8
I3
sg9
I80
sg10
I770
ssS'three'
p13
(dp14
g5
I834
sg6
I30
sg7
I0
sg8
I15
sg9
I11
sg10
I390
ssS'machine3'
p15
(dp16
g5
I573
sg6
I31
sg7
I5
sg8
I9
sg9
I9
sg10
I450
ssS'machine2'
p17
(dp18
g5
I543
sg6
I33
sg7
I0
sg8
I12
sg9
I13
sg10
I410
sssS'Wahono.csv'
p19
(dp20
g3
(dp21
g5
I1160
sg6
I55
sg7
I4
sg8
I3
sg9
I10
sg10
I860
ssg11
(dp22
g5
I2830
sg6
I51
sg7
I9
sg8
I2
sg9
I258
sg10
I2830
ssg13
(dp23
g5
I3969
sg6
I58
sg7
I1
sg8
I3
sg9
I43
sg10
I1820
ssg15
(dp24
g5
I1562
sg6
I58
sg7
I2
sg8
I2
sg9
I18
sg10
I1180
ssg17
(dp25
g5
I2106
sg6
I55
sg7
I3
sg8
I4
sg9
I34
sg10
I1460
sssS'Hall.csv'
p26
(dp27
g3
(dp28
g5
I550
sg6
I91
sg7
I7
sg8
I8
sg9
I10
sg10
I390
ssg11
(dp29
g5
I2650
sg6
I97
sg7
I7
sg8
I2
sg9
I255
sg10
I2650
ssg13
(dp30
g5
I2962
sg6
I100
sg7
I3
sg8
I3
sg9
I30
sg10
I1350
ssg15
(dp31
g5
I679
sg6
I93
sg7
I8
sg8
I5
sg9
I4
sg10
I460
ssg17
(dp32
g5
I593
sg6
I99
sg7
I2
sg8
I5
sg9
I17
sg10
I410
sssS'Danijel.csv'
p33
(dp34
g3
(dp35
g5
I1227
sg6
I41
sg7
I4
sg8
I3
sg9
I11
sg10
I910
ssg11
(dp36
g5
I2920
sg6
I40
sg7
I6
sg8
I2
sg9
I258
sg10
I2920
ssg13
(dp37
g5
I1564
sg6
I44
sg7
I1
sg8
I3
sg9
I18
sg10
I720
ssg15
(dp38
g5
I1106
sg6
I41
sg7
I4
sg8
I3
sg9
I10
sg10
I840
ssg17
(dp39
g5
I643
sg6
I39
sg7
I3
sg8
I6
sg9
I12
sg10
I460
sss.(dp0
S'K_all3.csv'
p1
(dp2
S'machine'
p3
(dp4
S'count'
p5
I714
sS'truepos'
p6
I33
sS'falseneg'
p7
I4
sS'unknownyes'
p8
I8
sS'falsepos'
p9
I6
sS'unique'
p10
I570
ssS'none'
p11
(dp12
g5
I460
sg6
I27
sg7
I7
sg8
I11
sg9
I25
sg10
I460
ssS'three'
p13
(dp14
g5
I815
sg6
I36
sg7
I0
sg8
I9
sg9
I8
sg10
I380
ssS'machine3'
p15
(dp16
g5
I653
sg6
I36
sg7
I3
sg8
I6
sg9
I1
sg10
I520
ssS'machine2'
p17
(dp18
g5
I786
sg6
I34
sg7
I3
sg8
I8
sg9
I14
sg10
I560
sssS'Wahono.csv'
p19
(dp20
g3
(dp21
g5
I1426
sg6
I48
sg7
I6
sg8
I8
sg9
I11
sg10
I1060
ssg11
(dp22
g5
I1910
sg6
I48
sg7
I9
sg8
I5
sg9
I165
sg10
I1910
ssg13
(dp23
g5
I3110
sg6
I59
sg7
I0
sg8
I3
sg9
I37
sg10
I1430
ssg15
(dp24
g5
I1582
sg6
I54
sg7
I5
sg8
I3
sg9
I17
sg10
I1160
ssg17
(dp25
g5
I2046
sg6
I57
sg7
I3
sg8
I2
sg9
I31
sg10
I1460
sssS'Hall.csv'
p26
(dp27
g3
(dp28
g5
I590
sg6
I95
sg7
I4
sg8
I7
sg9
I7
sg10
I410
ssg11
(dp29
g5
I3660
sg6
I96
sg7
I7
sg8
I3
sg9
I343
sg10
I3660
ssg13
(dp30
g5
I1523
sg6
I100
sg7
I2
sg8
I4
sg9
I12
sg10
I700
ssg15
(dp31
g5
I849
sg6
I100
sg7
I2
sg8
I4
sg9
I7
sg10
I570
ssg17
(dp32
g5
I654
sg6
I95
sg7
I4
sg8
I7
sg9
I17
sg10
I440
sssS'Danijel.csv'
p33
(dp34
g3
(dp35
g5
I1154
sg6
I42
sg7
I2
sg8
I4
sg9
I7
sg10
I870
ssg11
(dp36
g5
I2520
sg6
I41
sg7
I6
sg8
I1
sg9
I248
sg10
I2520
ssg13
(dp37
g5
I2167
sg6
I45
sg7
I0
sg8
I3
sg9
I25
sg10
I1000
ssg15
(dp38
g5
I1148
sg6
I44
sg7
I1
sg8
I3
sg9
I7
sg10
I870
ssg17
(dp39
g5
I956
sg6
I41
sg7
I4
sg8
I3
sg9
I16
sg10
I660
sss.(dp0
S'K_all3.csv'
p1
(dp2
S'machine'
p3
(dp4
S'count'
p5
I403
sS'truepos'
p6
I25
sS'falseneg'
p7
I4
sS'unknownyes'
p8
I16
sS'falsepos'
p9
I10
sS'unique'
p10
I310
ssS'none'
p11
(dp12
g5
I450
sg6
I28
sg7
I3
sg8
I14
sg9
I34
sg10
I450
ssS'three'
p13
(dp14
g5
I996
sg6
I31
sg7
I0
sg8
I14
sg9
I7
sg10
I460
ssS'machine3'
p15
(dp16
g5
I603
sg6
I35
sg7
I2
sg8
I8
sg9
I3
sg10
I480
ssS'machine2'
p17
(dp18
g5
I523
sg6
I30
sg7
I2
sg8
I13
sg9
I6
sg10
I360
sssS'Wahono.csv'
p19
(dp20
g3
(dp21
g5
I1307
sg6
I54
sg7
I5
sg8
I3
sg9
I5
sg10
I960
ssg11
(dp22
g5
I2300
sg6
I54
sg7
I6
sg8
I2
sg9
I212
sg10
I2300
ssg13
(dp23
g5
I4738
sg6
I58
sg7
I2
sg8
I2
sg9
I60
sg10
I2180
ssg15
(dp24
g5
I2037
sg6
I59
sg7
I2
sg8
I1
sg9
I24
sg10
I1540
ssg17
(dp25
g5
I1840
sg6
I53
sg7
I2
sg8
I7
sg9
I30
sg10
I1260
sssS'Hall.csv'
p26
(dp27
g3
(dp28
g5
I491
sg6
I90
sg7
I8
sg8
I8
sg9
I10
sg10
I360
ssg11
(dp29
g5
I4030
sg6
I92
sg7
I11
sg8
I3
sg9
I351
sg10
I4030
ssg13
(dp30
g5
I2970
sg6
I97
sg7
I6
sg8
I3
sg9
I35
sg10
I1360
ssg15
(dp31
g5
I673
sg6
I95
sg7
I7
sg8
I4
sg9
I6
sg10
I460
ssg17
(dp32
g5
I594
sg6
I96
sg7
I6
sg8
I4
sg9
I14
sg10
I410
sssS'Danijel.csv'
p33
(dp34
g3
(dp35
g5
I1109
sg6
I41
sg7
I4
sg8
I3
sg9
I11
sg10
I830
ssg11
(dp36
g5
I2140
sg6
I42
sg7
I5
sg8
I1
sg9
I191
sg10
I2140
ssg13
(dp37
g5
I2047
sg6
I46
sg7
I0
sg8
I2
sg9
I30
sg10
I940
ssg15
(dp38
g5
I994
sg6
I43
sg7
I3
sg8
I2
sg9
I6
sg10
I750
ssg17
(dp39
g5
I1296
sg6
I41
sg7
I3
sg8
I4
sg9
I19
sg10
I910
sss.(dp0
S'K_all3.csv'
p1
(dp2
S'machine'
p3
(dp4
S'count'
p5
I529
sS'truepos'
p6
I31
sS'falseneg'
p7
I4
sS'unknownyes'
p8
I10
sS'falsepos'
p9
I6
sS'unique'
p10
I410
ssS'none'
p11
(dp12
g5
I650
sg6
I34
sg7
I6
sg8
I5
sg9
I63
sg10
I650
ssS'three'
p13
(dp14
g5
I889
sg6
I32
sg7
I2
sg8
I11
sg9
I10
sg10
I410
ssS'machine3'
p15
(dp16
g5
I611
sg6
I33
sg7
I6
sg8
I6
sg9
I10
sg10
I480
ssS'machine2'
p17
(dp18
g5
I433
sg6
I28
sg7
I2
sg8
I15
sg9
I5
sg10
I310
sssS'Wahono.csv'
p19
(dp20
g3
(dp21
g5
I1476
sg6
I55
sg7
I3
sg8
I4
sg9
I10
sg10
I1110
ssg11
(dp22
g5
I3270
sg6
I55
sg7
I6
sg8
I1
sg9
I269
sg10
I3270
ssg13
(dp23
g5
I3710
sg6
I56
sg7
I2
sg8
I4
sg9
I39
sg10
I1710
ssg15
(dp24
g5
I1533
sg6
I53
sg7
I6
sg8
I3
sg9
I12
sg10
I1140
ssg17
(dp25
g5
I2313
sg6
I56
sg7
I4
sg8
I2
sg9
I28
sg10
I1610
sssS'Hall.csv'
p26
(dp27
g3
(dp28
g5
I791
sg6
I98
sg7
I4
sg8
I4
sg9
I15
sg10
I560
ssg11
(dp29
g5
I3630
sg6
I93
sg7
I11
sg8
I2
sg9
I356
sg10
I3630
ssg13
(dp30
g5
I1234
sg6
I101
sg7
I1
sg8
I4
sg9
I14
sg10
I570
ssg15
(dp31
g5
I748
sg6
I98
sg7
I4
sg8
I4
sg9
I12
sg10
I500
ssg17
(dp32
g5
I846
sg6
I101
sg7
I1
sg8
I4
sg9
I13
sg10
I570
sssS'Danijel.csv'
p33
(dp34
g3
(dp35
g5
I1017
sg6
I42
sg7
I2
sg8
I4
sg9
I9
sg10
I760
ssg11
(dp36
g5
I2270
sg6
I41
sg7
I6
sg8
I1
sg9
I209
sg10
I2270
ssg13
(dp37
g5
I2351
sg6
I44
sg7
I2
sg8
I2
sg9
I32
sg10
I1070
ssg15
(dp38
g5
I1233
sg6
I44
sg7
I2
sg8
I2
sg9
I14
sg10
I940
ssg17
(dp39
g5
I1420
sg6
I43
sg7
I3
sg8
I2
sg9
I14
sg10
I1000
sss.(dp0
S'K_all3.csv'
p1
(dp2
S'machine'
p3
(dp4
S'count'
p5
I547
sS'truepos'
p6
I29
sS'falseneg'
p7
I1
sS'unknownyes'
p8
I15
sS'falsepos'
p9
I9
sS'unique'
p10
I410
ssS'none'
p11
(dp12
g5
I790
sg6
I37
sg7
I5
sg8
I3
sg9
I84
sg10
I790
ssS'three'
p13
(dp14
g5
I993
sg6
I35
sg7
I1
sg8
I9
sg9
I17
sg10
I450
ssS'machine3'
p15
(dp16
g5
I768
sg6
I35
sg7
I6
sg8
I4
sg9
I4
sg10
I600
ssS'machine2'
p17
(dp18
g5
I503
sg6
I29
sg7
I5
sg8
I11
sg9
I10
sg10
I360
sssS'Wahono.csv'
p19
(dp20
g3
(dp21
g5
I1640
sg6
I56
sg7
I2
sg8
I4
sg9
I20
sg10
I1210
ssg11
(dp22
g5
I3620
sg6
I57
sg7
I4
sg8
I1
sg9
I343
sg10
I3620
ssg13
(dp23
g5
I2947
sg6
I58
sg7
I1
sg8
I3
sg9
I29
sg10
I1360
ssg15
(dp24
g5
I1601
sg6
I57
sg7
I2
sg8
I3
sg9
I11
sg10
I1190
ssg17
(dp25
g5
I2115
sg6
I58
sg7
I1
sg8
I3
sg9
I37
sg10
I1460
sssS'Hall.csv'
p26
(dp27
g3
(dp28
g5
I932
sg6
I99
sg7
I3
sg8
I4
sg9
I12
sg10
I660
ssg11
(dp29
g5
I2870
sg6
I96
sg7
I7
sg8
I3
sg9
I278
sg10
I2870
ssg13
(dp30
g5
I1164
sg6
I100
sg7
I2
sg8
I4
sg9
I8
sg10
I530
ssg15
(dp31
g5
I780
sg6
I100
sg7
I2
sg8
I4
sg9
I4
sg10
I530
ssg17
(dp32
g5
I1485
sg6
I97
sg7
I5
sg8
I4
sg9
I31
sg10
I990
sssS'Danijel.csv'
p33
(dp34
g3
(dp35
g5
I943
sg6
I38
sg7
I8
sg8
I2
sg9
I12
sg10
I710
ssg11
(dp36
g5
I2650
sg6
I43
sg7
I4
sg8
I1
sg9
I247
sg10
I2650
ssg13
(dp37
g5
I2506
sg6
I45
sg7
I1
sg8
I2
sg9
I30
sg10
I1150
ssg15
(dp38
g5
I1787
sg6
I45
sg7
I1
sg8
I2
sg9
I15
sg10
I1360
ssg17
(dp39
g5
I1366
sg6
I43
sg7
I2
sg8
I3
sg9
I26
sg10
I960
sss.(dp0
S'K_all3.csv'
p1
(dp2
S'machine'
p3
(dp4
S'count'
p5
I575
sS'truepos'
p6
I30
sS'falseneg'
p7
I4
sS'unknownyes'
p8
I11
sS'falsepos'
p9
I5
sS'unique'
p10
I460
ssS'none'
p11
(dp12
g5
I550
sg6
I35
sg7
I3
sg8
I7
sg9
I49
sg10
I550
ssS'three'
p13
(dp14
g5
I950
sg6
I32
sg7
I1
sg8
I12
sg9
I6
sg10
I440
ssS'machine3'
p15
(dp16
g5
I643
sg6
I34
sg7
I2
sg8
I9
sg9
I7
sg10
I510
ssS'machine2'
p17
(dp18
g5
I620
sg6
I30
sg7
I2
sg8
I13
sg9
I9
sg10
I430
sssS'Wahono.csv'
p19
(dp20
g3
(dp21
g5
I2168
sg6
I58
sg7
I2
sg8
I2
sg9
I16
sg10
I1640
ssg11
(dp22
g5
I3440
sg6
I54
sg7
I7
sg8
I1
sg9
I319
sg10
I3440
ssg13
(dp23
g5
I3201
sg6
I56
sg7
I2
sg8
I4
sg9
I40
sg10
I1470
ssg15
(dp24
g5
I1693
sg6
I59
sg7
I1
sg8
I2
sg9
I17
sg10
I1270
ssg17
(dp25
g5
I2090
sg6
I55
sg7
I3
sg8
I4
sg9
I27
sg10
I1460
sssS'Hall.csv'
p26
(dp27
g3
(dp28
g5
I681
sg6
I96
sg7
I5
sg8
I5
sg9
I11
sg10
I490
ssg11
(dp29
g5
I3770
sg6
I92
sg7
I12
sg8
I2
sg9
I359
sg10
I3770
ssg13
(dp30
g5
I1248
sg6
I97
sg7
I4
sg8
I5
sg9
I12
sg10
I570
ssg15
(dp31
g5
I767
sg6
I96
sg7
I6
sg8
I4
sg9
I5
sg10
I520
ssg17
(dp32
g5
I595
sg6
I98
sg7
I3
sg8
I5
sg9
I17
sg10
I410
sssS'Danijel.csv'
p33
(dp34
g3
(dp35
g5
I1471
sg6
I45
sg7
I0
sg8
I3
sg9
I12
sg10
I1110
ssg11
(dp36
g5
I1180
sg6
I39
sg7
I3
sg8
I6
sg9
I113
sg10
I1180
ssg13
(dp37
g5
I3761
sg6
I46
sg7
I0
sg8
I2
sg9
I46
sg10
I1720
ssg15
(dp38
g5
I1237
sg6
I43
sg7
I3
sg8
I2
sg9
I10
sg10
I950
ssg17
(dp39
g5
I1844
sg6
I40
sg7
I4
sg8
I4
sg9
I34
sg10
I1290
sss.(dp0
S'K_all3.csv'
p1
(dp2
S'machine'
p3
(dp4
S'count'
p5
I631
sS'truepos'
p6
I31
sS'falseneg'
p7
I1
sS'unknownyes'
p8
I13
sS'falsepos'
p9
I8
sS'unique'
p10
I510
ssS'none'
p11
(dp12
g5
I500
sg6
I31
sg7
I7
sg8
I7
sg9
I45
sg10
I500
ssS'three'
p13
(dp14
g5
I898
sg6
I31
sg7
I2
sg8
I12
sg9
I10
sg10
I410
ssS'machine3'
p15
(dp16
g5
I547
sg6
I32
sg7
I2
sg8
I11
sg9
I7
sg10
I420
ssS'machine2'
p17
(dp18
g5
I903
sg6
I30
sg7
I2
sg8
I13
sg9
I12
sg10
I710
sssS'Wahono.csv'
p19
(dp20
g3
(dp21
g5
I1877
sg6
I57
sg7
I2
sg8
I3
sg9
I22
sg10
I1400
ssg11
(dp22
g5
I2830
sg6
I58
sg7
I2
sg8
I2
sg9
I300
sg10
I2830
ssg13
(dp23
g5
I3208
sg6
I55
sg7
I2
sg8
I5
sg9
I36
sg10
I1470
ssg15
(dp24
g5
I1970
sg6
I56
sg7
I2
sg8
I4
sg9
I20
sg10
I1470
ssg17
(dp25
g5
I2024
sg6
I58
sg7
I1
sg8
I3
sg9
I32
sg10
I1410
sssS'Hall.csv'
p26
(dp27
g3
(dp28
g5
I561
sg6
I96
sg7
I2
sg8
I8
sg9
I14
sg10
I410
ssg11
(dp29
g5
I3400
sg6
I92
sg7
I13
sg8
I1
sg9
I326
sg10
I3400
ssg13
(dp30
g5
I1093
sg6
I99
sg7
I3
sg8
I4
sg9
I13
sg10
I500
ssg15
(dp31
g5
I739
sg6
I94
sg7
I8
sg8
I4
sg9
I9
sg10
I500
ssg17
(dp32
g5
I798
sg6
I100
sg7
I2
sg8
I4
sg9
I12
sg10
I540
sssS'Danijel.csv'
p33
(dp34
g3
(dp35
g5
I1208
sg6
I42
sg7
I2
sg8
I4
sg9
I8
sg10
I910
ssg11
(dp36
g5
I3330
sg6
I42
sg7
I5
sg8
I1
sg9
I309
sg10
I3330
ssg13
(dp37
g5
I2316
sg6
I42
sg7
I2
sg8
I4
sg9
I31
sg10
I1060
ssg15
(dp38
g5
I1115
sg6
I42
sg7
I4
sg8
I2
sg9
I11
sg10
I840
ssg17
(dp39
g5
I1798
sg6
I44
sg7
I1
sg8
I3
sg9
I30
sg10
I1260
sss.(dp0
S'K_all3.csv'
p1
(dp2
S'machine'
p3
(dp4
S'count'
p5
I557
sS'truepos'
p6
I27
sS'falseneg'
p7
I3
sS'unknownyes'
p8
I15
sS'falsepos'
p9
I9
sS'unique'
p10
I430
ssS'none'
p11
(dp12
g5
I410
sg6
I36
sg7
I1
sg8
I8
sg9
I40
sg10
I410
ssS'three'
p13
(dp14
g5
I1014
sg6
I32
sg7
I2
sg8
I11
sg9
I8
sg10
I470
ssS'machine3'
p15
(dp16
g5
I690
sg6
I31
sg7
I6
sg8
I8
sg9
I8
sg10
I560
ssS'machine2'
p17
(dp18
g5
I564
sg6
I32
sg7
I2
sg8
I11
sg9
I8
sg10
I400
sssS'Wahono.csv'
p19
(dp20
g3
(dp21
g5
I1891
sg6
I58
sg7
I3
sg8
I1
sg9
I18
sg10
I1400
ssg11
(dp22
g5
I3710
sg6
I52
sg7
I9
sg8
I1
sg9
I340
sg10
I3710
ssg13
(dp23
g5
I3639
sg6
I58
sg7
I1
sg8
I3
sg9
I47
sg10
I1670
ssg15
(dp24
g5
I1567
sg6
I57
sg7
I2
sg8
I3
sg9
I18
sg10
I1180
ssg17
(dp25
g5
I1925
sg6
I53
sg7
I5
sg8
I4
sg9
I25
sg10
I1360
sssS'Hall.csv'
p26
(dp27
g3
(dp28
g5
I821
sg6
I97
sg7
I4
sg8
I5
sg9
I17
sg10
I590
ssg11
(dp29
g5
I3200
sg6
I88
sg7
I14
sg8
I4
sg9
I311
sg10
I3200
ssg13
(dp30
g5
I1119
sg6
I101
sg7
I1
sg8
I4
sg9
I16
sg10
I520
ssg15
(dp31
g5
I973
sg6
I95
sg7
I7
sg8
I4
sg9
I6
sg10
I680
ssg17
(dp32
g5
I785
sg6
I97
sg7
I5
sg8
I4
sg9
I18
sg10
I520
sssS'Danijel.csv'
p33
(dp34
g3
(dp35
g5
I884
sg6
I40
sg7
I5
sg8
I3
sg9
I7
sg10
I660
ssg11
(dp36
g5
I2020
sg6
I41
sg7
I4
sg8
I3
sg9
I193
sg10
I2020
ssg13
(dp37
g5
I1607
sg6
I45
sg7
I0
sg8
I3
sg9
I23
sg10
I740
ssg15
(dp38
g5
I896
sg6
I38
sg7
I7
sg8
I3
sg9
I4
sg10
I700
ssg17
(dp39
g5
I1317
sg6
I41
sg7
I1
sg8
I6
sg9
I27
sg10
I930
sss.(dp0
S'K_all3.csv'
p1
(dp2
S'machine'
p3
(dp4
S'count'
p5
I553
sS'truepos'
p6
I35
sS'falseneg'
p7
I2
sS'unknownyes'
p8
I8
sS'falsepos'
p9
I8
sS'unique'
p10
I410
ssS'none'
p11
(dp12
g5
I420
sg6
I24
sg7
I7
sg8
I14
sg9
I27
sg10
I420
ssS'three'
p13
(dp14
g5
I972
sg6
I38
sg7
I0
sg8
I7
sg9
I13
sg10
I450
ssS'machine3'
p15
(dp16
g5
I667
sg6
I33
sg7
I7
sg8
I5
sg9
I7
sg10
I530
ssS'machine2'
p17
(dp18
g5
I516
sg6
I34
sg7
I0
sg8
I11
sg9
I5
sg10
I360
sssS'Wahono.csv'
p19
(dp20
g3
(dp21
g5
I1696
sg6
I58
sg7
I1
sg8
I3
sg9
I14
sg10
I1260
ssg11
(dp22
g5
I4030
sg6
I57
sg7
I5
sg8
I0
sg9
I416
sg10
I4030
ssg13
(dp23
g5
I4756
sg6
I60
sg7
I1
sg8
I1
sg9
I54
sg10
I2180
ssg15
(dp24
g5
I1684
sg6
I53
sg7
I7
sg8
I2
sg9
I16
sg10
I1270
ssg17
(dp25
g5
I2110
sg6
I54
sg7
I4
sg8
I4
sg9
I35
sg10
I1480
sssS'Hall.csv'
p26
(dp27
g3
(dp28
g5
I691
sg6
I95
sg7
I6
sg8
I5
sg9
I14
sg10
I500
ssg11
(dp29
g5
I3140
sg6
I90
sg7
I13
sg8
I3
sg9
I309
sg10
I3140
ssg13
(dp30
g5
I1700
sg6
I99
sg7
I3
sg8
I4
sg9
I24
sg10
I780
ssg15
(dp31
g5
I633
sg6
I88
sg7
I12
sg8
I6
sg9
I9
sg10
I420
ssg17
(dp32
g5
I998
sg6
I98
sg7
I4
sg8
I4
sg9
I23
sg10
I660
sssS'Danijel.csv'
p33
(dp34
g3
(dp35
g5
I1226
sg6
I41
sg7
I3
sg8
I4
sg9
I8
sg10
I930
ssg11
(dp36
g5
I2380
sg6
I41
sg7
I6
sg8
I1
sg9
I212
sg10
I2380
ssg13
(dp37
g5
I1743
sg6
I45
sg7
I0
sg8
I3
sg9
I17
sg10
I790
ssg15
(dp38
g5
I844
sg6
I42
sg7
I4
sg8
I2
sg9
I4
sg10
I640
ssg17
(dp39
g5
I2089
sg6
I44
sg7
I2
sg8
I2
sg9
I42
sg10
I1460
sss.(dp0
S'K_all3.csv'
p1
(dp2
S'machine'
p3
(dp4
S'count'
p5
I715
sS'truepos'
p6
I33
sS'falseneg'
p7
I4
sS'unknownyes'
p8
I8
sS'falsepos'
p9
I9
sS'unique'
p10
I560
ssS'none'
p11
(dp12
g5
I450
sg6
I33
sg7
I5
sg8
I7
sg9
I54
sg10
I450
ssS'three'
p13
(dp14
g5
I789
sg6
I33
sg7
I2
sg8
I10
sg9
I5
sg10
I360
ssS'machine3'
p15
(dp16
g5
I650
sg6
I30
sg7
I6
sg8
I9
sg9
I10
sg10
I500
ssS'machine2'
p17
(dp18
g5
I586
sg6
I26
sg7
I4
sg8
I15
sg9
I11
sg10
I420
sssS'Wahono.csv'
p19
(dp20
g3
(dp21
g5
I1096
sg6
I45
sg7
I7
sg8
I10
sg9
I9
sg10
I810
ssg11
(dp22
g5
I3380
sg6
I56
sg7
I5
sg8
I1
sg9
I346
sg10
I3380
ssg13
(dp23
g5
I4118
sg6
I57
sg7
I3
sg8
I2
sg9
I50
sg10
I1890
ssg15
(dp24
g5
I1779
sg6
I57
sg7
I3
sg8
I2
sg9
I14
sg10
I1320
ssg17
(dp25
g5
I2457
sg6
I57
sg7
I3
sg8
I2
sg9
I36
sg10
I1760
sssS'Hall.csv'
p26
(dp27
g3
(dp28
g5
I911
sg6
I95
sg7
I7
sg8
I4
sg9
I14
sg10
I660
ssg11
(dp29
g5
I3490
sg6
I94
sg7
I10
sg8
I2
sg9
I346
sg10
I3490
ssg13
(dp30
g5
I1437
sg6
I102
sg7
I0
sg8
I4
sg9
I12
sg10
I660
ssg15
(dp31
g5
I646
sg6
I94
sg7
I8
sg8
I4
sg9
I5
sg10
I430
ssg17
(dp32
g5
I747
sg6
I94
sg7
I7
sg8
I5
sg9
I20
sg10
I510
sssS'Danijel.csv'
p33
(dp34
g3
(dp35
g5
I1303
sg6
I43
sg7
I2
sg8
I3
sg9
I14
sg10
I960
ssg11
(dp36
g5
I2780
sg6
I41
sg7
I6
sg8
I1
sg9
I287
sg10
I2780
ssg13
(dp37
g5
I3237
sg6
I44
sg7
I1
sg8
I3
sg9
I35
sg10
I1490
ssg15
(dp38
g5
I1321
sg6
I39
sg7
I6
sg8
I3
sg9
I16
sg10
I1020
ssg17
(dp39
g5
I514
sg6
I40
sg7
I2
sg8
I6
sg9
I5
sg10
I360
sss.(dp0
S'K_all3.csv'
p1
(dp2
S'machine'
p3
(dp4
S'count'
p5
I496
sS'truepos'
p6
I28
sS'falseneg'
p7
I3
sS'unknownyes'
p8
I14
sS'falsepos'
p9
I9
sS'unique'
p10
I360
ssS'none'
p11
(dp12
g5
I430
sg6
I30
sg7
I6
sg8
I9
sg9
I31
sg10
I430
ssS'three'
p13
(dp14
g5
I786
sg6
I31
sg7
I0
sg8
I14
sg9
I9
sg10
I360
ssS'machine3'
p15
(dp16
g5
I625
sg6
I28
sg7
I7
sg8
I10
sg9
I9
sg10
I510
ssS'machine2'
p17
(dp18
g5
I543
sg6
I30
sg7
I3
sg8
I12
sg9
I6
sg10
I410
sssS'Wahono.csv'
p19
(dp20
g3
(dp21
g5
I1884
sg6
I57
sg7
I4
sg8
I1
sg9
I19
sg10
I1410
ssg11
(dp22
g5
I3960
sg6
I57
sg7
I4
sg8
I1
sg9
I392
sg10
I3960
ssg13
(dp23
g5
I4390
sg6
I57
sg7
I3
sg8
I2
sg9
I60
sg10
I2010
ssg15
(dp24
g5
I1442
sg6
I49
sg7
I9
sg8
I4
sg9
I10
sg10
I1080
ssg17
(dp25
g5
I1924
sg6
I56
sg7
I3
sg8
I3
sg9
I24
sg10
I1360
sssS'Hall.csv'
p26
(dp27
g3
(dp28
g5
I894
sg6
I100
sg7
I2
sg8
I4
sg9
I11
sg10
I640
ssg11
(dp29
g5
I2790
sg6
I97
sg7
I7
sg8
I2
sg9
I267
sg10
I2790
ssg13
(dp30
g5
I1261
sg6
I96
sg7
I6
sg8
I4
sg9
I10
sg10
I580
ssg15
(dp31
g5
I770
sg6
I92
sg7
I10
sg8
I4
sg9
I6
sg10
I520
ssg17
(dp32
g5
I1068
sg6
I100
sg7
I2
sg8
I4
sg9
I14
sg10
I720
sssS'Danijel.csv'
p33
(dp34
g3
(dp35
g5
I1145
sg6
I42
sg7
I3
sg8
I3
sg9
I12
sg10
I860
ssg11
(dp36
g5
I3170
sg6
I39
sg7
I7
sg8
I2
sg9
I318
sg10
I3170
ssg13
(dp37
g5
I2578
sg6
I43
sg7
I1
sg8
I4
sg9
I38
sg10
I1190
ssg15
(dp38
g5
I839
sg6
I43
sg7
I3
sg8
I2
sg9
I6
sg10
I650
ssg17
(dp39
g5
I1281
sg6
I44
sg7
I1
sg8
I3
sg9
I17
sg10
I910
sss.(dp0
S'K_all3.csv'
p1
(dp2
S'machine'
p3
(dp4
S'count'
p5
I637
sS'truepos'
p6
I33
sS'falseneg'
p7
I2
sS'unknownyes'
p8
I10
sS'falsepos'
p9
I7
sS'unique'
p10
I510
ssS'none'
p11
(dp12
g5
I610
sg6
I31
sg7
I3
sg8
I11
sg9
I54
sg10
I610
ssS'three'
p13
(dp14
g5
I846
sg6
I29
sg7
I1
sg8
I15
sg9
I10
sg10
I390
ssS'machine3'
p15
(dp16
g5
I600
sg6
I29
sg7
I7
sg8
I9
sg9
I5
sg10
I480
ssS'machine2'
p17
(dp18
g5
I514
sg6
I26
sg7
I3
sg8
I16
sg9
I10
sg10
I360
sssS'Wahono.csv'
p19
(dp20
g3
(dp21
g5
I1417
sg6
I55
sg7
I4
sg8
I3
sg9
I8
sg10
I1060
ssg11
(dp22
g5
I3060
sg6
I56
sg7
I5
sg8
I1
sg9
I280
sg10
I3060
ssg13
(dp23
g5
I3419
sg6
I56
sg7
I3
sg8
I3
sg9
I37
sg10
I1580
ssg15
(dp24
g5
I1570
sg6
I51
sg7
I8
sg8
I3
sg9
I14
sg10
I1210
ssg17
(dp25
g5
I2817
sg6
I59
sg7
I1
sg8
I2
sg9
I51
sg10
I1960
sssS'Hall.csv'
p26
(dp27
g3
(dp28
g5
I1002
sg6
I97
sg7
I5
sg8
I4
sg9
I10
sg10
I710
ssg11
(dp29
g5
I4200
sg6
I98
sg7
I6
sg8
I2
sg9
I395
sg10
I4200
ssg13
(dp30
g5
I2214
sg6
I101
sg7
I1
sg8
I4
sg9
I36
sg10
I1010
ssg15
(dp31
g5
I793
sg6
I96
sg7
I6
sg8
I4
sg9
I6
sg10
I550
ssg17
(dp32
g5
I595
sg6
I100
sg7
I1
sg8
I5
sg9
I15
sg10
I410
sssS'Danijel.csv'
p33
(dp34
g3
(dp35
g5
I1550
sg6
I40
sg7
I6
sg8
I2
sg9
I17
sg10
I1160
ssg11
(dp36
g5
I2710
sg6
I41
sg7
I5
sg8
I2
sg9
I263
sg10
I2710
ssg13
(dp37
g5
I1936
sg6
I43
sg7
I2
sg8
I3
sg9
I26
sg10
I880
ssg15
(dp38
g5
I825
sg6
I41
sg7
I4
sg8
I3
sg9
I7
sg10
I630
ssg17
(dp39
g5
I1015
sg6
I42
sg7
I1
sg8
I5
sg9
I20
sg10
I710
sss.(dp0
S'K_all3.csv'
p1
(dp2
S'machine'
p3
(dp4
S'count'
p5
I724
sS'truepos'
p6
I29
sS'falseneg'
p7
I6
sS'unknownyes'
p8
I10
sS'falsepos'
p9
I4
sS'unique'
p10
I610
ssS'none'
p11
(dp12
g5
I420
sg6
I26
sg7
I5
sg8
I14
sg9
I43
sg10
I420
ssS'three'
p13
(dp14
g5
I904
sg6
I29
sg7
I1
sg8
I15
sg9
I10
sg10
I420
ssS'machine3'
p15
(dp16
g5
I687
sg6
I35
sg7
I3
sg8
I7
sg9
I3
sg10
I560
ssS'machine2'
p17
(dp18
g5
I780
sg6
I31
sg7
I3
sg8
I11
sg9
I6
sg10
I560
sssS'Wahono.csv'
p19
(dp20
g3
(dp21
g5
I1774
sg6
I52
sg7
I6
sg8
I4
sg9
I21
sg10
I1320
ssg11
(dp22
g5
I3720
sg6
I57
sg7
I5
sg8
I0
sg9
I345
sg10
I3720
ssg13
(dp23
g5
I3977
sg6
I59
sg7
I1
sg8
I2
sg9
I51
sg10
I1810
ssg15
(dp24
g5
I1726
sg6
I51
sg7
I8
sg8
I3
sg9
I24
sg10
I1300
ssg17
(dp25
g5
I2122
sg6
I57
sg7
I3
sg8
I2
sg9
I26
sg10
I1510
sssS'Hall.csv'
p26
(dp27
g3
(dp28
g5
I660
sg6
I92
sg7
I8
sg8
I6
sg9
I4
sg10
I460
ssg11
(dp29
g5
I3620
sg6
I95
sg7
I8
sg8
I3
sg9
I352
sg10
I3620
ssg13
(dp30
g5
I1334
sg6
I101
sg7
I1
sg8
I4
sg9
I18
sg10
I610
ssg15
(dp31
g5
I926
sg6
I98
sg7
I4
sg8
I4
sg9
I9
sg10
I640
ssg17
(dp32
g5
I515
sg6
I90
sg7
I6
sg8
I10
sg9
I18
sg10
I360
sssS'Danijel.csv'
p33
(dp34
g3
(dp35
g5
I933
sg6
I42
sg7
I3
sg8
I3
sg9
I12
sg10
I710
ssg11
(dp36
g5
I2390
sg6
I38
sg7
I8
sg8
I2
sg9
I251
sg10
I2390
ssg13
(dp37
g5
I1805
sg6
I45
sg7
I1
sg8
I2
sg9
I18
sg10
I830
ssg15
(dp38
g5
I1308
sg6
I39
sg7
I7
sg8
I2
sg9
I13
sg10
I1070
ssg17
(dp39
g5
I1296
sg6
I44
sg7
I1
sg8
I3
sg9
I18
sg10
I910
sss.(dp0
S'K_all3.csv'
p1
(dp2
S'machine'
p3
(dp4
S'count'
p5
I542
sS'truepos'
p6
I30
sS'falseneg'
p7
I1
sS'unknownyes'
p8
I14
sS'falsepos'
p9
I13
sS'unique'
p10
I400
ssS'none'
p11
(dp12
g5
I540
sg6
I34
sg7
I2
sg8
I9
sg9
I53
sg10
I540
ssS'three'
p13
(dp14
g5
I919
sg6
I32
sg7
I3
sg8
I10
sg9
I14
sg10
I420
ssS'machine3'
p15
(dp16
g5
I720
sg6
I35
sg7
I4
sg8
I6
sg9
I3
sg10
I570
ssS'machine2'
p17
(dp18
g5
I561
sg6
I28
sg7
I3
sg8
I14
sg9
I9
sg10
I410
sssS'Wahono.csv'
p19
(dp20
g3
(dp21
g5
I1333
sg6
I50
sg7
I2
sg8
I10
sg9
I9
sg10
I1010
ssg11
(dp22
g5
I3820
sg6
I56
sg7
I5
sg8
I1
sg9
I381
sg10
I3820
ssg13
(dp23
g5
I4368
sg6
I59
sg7
I2
sg8
I1
sg9
I61
sg10
I2000
ssg15
(dp24
g5
I2062
sg6
I55
sg7
I4
sg8
I3
sg9
I23
sg10
I1550
ssg17
(dp25
g5
I1587
sg6
I51
sg7
I2
sg8
I9
sg9
I19
sg10
I1110
sssS'Hall.csv'
p26
(dp27
g3
(dp28
g5
I422
sg6
I87
sg7
I8
sg8
I11
sg9
I12
sg10
I310
ssg11
(dp29
g5
I3560
sg6
I90
sg7
I12
sg8
I4
sg9
I328
sg10
I3560
ssg13
(dp30
g5
I2479
sg6
I100
sg7
I2
sg8
I4
sg9
I35
sg10
I1140
ssg15
(dp31
g5
I522
sg6
I87
sg7
I14
sg8
I5
sg9
I6
sg10
I340
ssg17
(dp32
g5
I1036
sg6
I100
sg7
I2
sg8
I4
sg9
I15
sg10
I710
sssS'Danijel.csv'
p33
(dp34
g3
(dp35
g5
I951
sg6
I41
sg7
I2
sg8
I5
sg9
I9
sg10
I710
ssg11
(dp36
g5
I2890
sg6
I43
sg7
I4
sg8
I1
sg9
I294
sg10
I2890
ssg13
(dp37
g5
I2067
sg6
I43
sg7
I2
sg8
I3
sg9
I26
sg10
I950
ssg15
(dp38
g5
I1197
sg6
I42
sg7
I3
sg8
I3
sg9
I15
sg10
I890
ssg17
(dp39
g5
I1272
sg6
I44
sg7
I1
sg8
I3
sg9
I29
sg10
I860
sss.(dp0
S'K_all3.csv'
p1
(dp2
S'machine'
p3
(dp4
S'count'
p5
I471
sS'truepos'
p6
I29
sS'falseneg'
p7
I6
sS'unknownyes'
p8
I10
sS'falsepos'
p9
I5
sS'unique'
p10
I360
ssS'none'
p11
(dp12
g5
I560
sg6
I32
sg7
I4
sg8
I9
sg9
I50
sg10
I560
ssS'three'
p13
(dp14
g5
I1103
sg6
I32
sg7
I2
sg8
I11
sg9
I15
sg10
I500
ssS'machine3'
p15
(dp16
g5
I713
sg6
I29
sg7
I3
sg8
I13
sg9
I8
sg10
I570
ssS'machine2'
p17
(dp18
g5
I627
sg6
I29
sg7
I1
sg8
I15
sg9
I6
sg10
I460
sssS'Wahono.csv'
p19
(dp20
g3
(dp21
g5
I1826
sg6
I55
sg7
I4
sg8
I3
sg9
I18
sg10
I1360
ssg11
(dp22
g5
I3320
sg6
I51
sg7
I9
sg8
I2
sg9
I316
sg10
I3320
ssg13
(dp23
g5
I4038
sg6
I57
sg7
I2
sg8
I3
sg9
I38
sg10
I1870
ssg15
(dp24
g5
I1733
sg6
I53
sg7
I6
sg8
I3
sg9
I13
sg10
I1300
ssg17
(dp25
g5
I3059
sg6
I56
sg7
I5
sg8
I1
sg9
I41
sg10
I2110
sssS'Hall.csv'
p26
(dp27
g3
(dp28
g5
I710
sg6
I95
sg7
I6
sg8
I5
sg9
I15
sg10
I510
ssg11
(dp29
g5
I4380
sg6
I98
sg7
I5
sg8
I3
sg9
I437
sg10
I4380
ssg13
(dp30
g5
I2486
sg6
I101
sg7
I1
sg8
I4
sg9
I35
sg10
I1150
ssg15
(dp31
g5
I645
sg6
I90
sg7
I11
sg8
I5
sg9
I6
sg10
I430
ssg17
(dp32
g5
I991
sg6
I98
sg7
I4
sg8
I4
sg9
I21
sg10
I660
sssS'Danijel.csv'
p33
(dp34
g3
(dp35
g5
I1601
sg6
I44
sg7
I2
sg8
I2
sg9
I22
sg10
I1200
ssg11
(dp36
g5
I1040
sg6
I38
sg7
I7
sg8
I3
sg9
I81
sg10
I1040
ssg13
(dp37
g5
I2523
sg6
I46
sg7
I0
sg8
I2
sg9
I55
sg10
I1150
ssg15
(dp38
g5
I1144
sg6
I43
sg7
I3
sg8
I2
sg9
I16
sg10
I840
ssg17
(dp39
g5
I1626
sg6
I46
sg7
I0
sg8
I2
sg9
I19
sg10
I1140
sss.(dp0
S'K_all3.csv'
p1
(dp2
S'machine'
p3
(dp4
S'count'
p5
I661
sS'truepos'
p6
I30
sS'falseneg'
p7
I7
sS'unknownyes'
p8
I8
sS'falsepos'
p9
I7
sS'unique'
p10
I520
ssS'none'
p11
(dp12
g5
I460
sg6
I29
sg7
I3
sg8
I13
sg9
I40
sg10
I460
ssS'three'
p13
(dp14
g5
I1150
sg6
I35
sg7
I3
sg8
I7
sg9
I12
sg10
I530
ssS'machine3'
p15
(dp16
g5
I611
sg6
I30
sg7
I6
sg8
I9
sg9
I4
sg10
I490
ssS'machine2'
p17
(dp18
g5
I603
sg6
I38
sg7
I0
sg8
I7
sg9
I7
sg10
I420
sssS'Wahono.csv'
p19
(dp20
g3
(dp21
g5
I1542
sg6
I55
sg7
I3
sg8
I4
sg9
I17
sg10
I1160
ssg11
(dp22
g5
I3910
sg6
I52
sg7
I7
sg8
I3
sg9
I413
sg10
I3910
ssg13
(dp23
g5
I3299
sg6
I56
sg7
I3
sg8
I3
sg9
I34
sg10
I1520
ssg15
(dp24
g5
I1436
sg6
I50
sg7
I5
sg8
I7
sg9
I13
sg10
I1080
ssg17
(dp25
g5
I2224
sg6
I60
sg7
I1
sg8
I1
sg9
I29
sg10
I1530
sssS'Hall.csv'
p26
(dp27
g3
(dp28
g5
I584
sg6
I94
sg7
I5
sg8
I7
sg9
I6
sg10
I410
ssg11
(dp29
g5
I3840
sg6
I90
sg7
I13
sg8
I3
sg9
I350
sg10
I3840
ssg13
(dp30
g5
I1651
sg6
I98
sg7
I4
sg8
I4
sg9
I22
sg10
I760
ssg15
(dp31
g5
I556
sg6
I88
sg7
I12
sg8
I6
sg9
I3
sg10
I370
ssg17
(dp32
g5
I770
sg6
I97
sg7
I4
sg8
I5
sg9
I8
sg10
I520
sssS'Danijel.csv'
p33
(dp34
g3
(dp35
g5
I1013
sg6
I40
sg7
I5
sg8
I3
sg9
I6
sg10
I760
ssg11
(dp36
g5
I2510
sg6
I41
sg7
I4
sg8
I3
sg9
I230
sg10
I2510
ssg13
(dp37
g5
I2243
sg6
I43
sg7
I2
sg8
I3
sg9
I26
sg10
I1040
ssg15
(dp38
g5
I1479
sg6
I43
sg7
I3
sg8
I2
sg9
I8
sg10
I1130
ssg17
(dp39
g5
I1211
sg6
I42
sg7
I2
sg8
I4
sg9
I15
sg10
I840
sss.(dp0
S'K_all3.csv'
p1
(dp2
S'machine'
p3
(dp4
S'count'
p5
I656
sS'truepos'
p6
I29
sS'falseneg'
p7
I6
sS'unknownyes'
p8
I10
sS'falsepos'
p9
I12
sS'unique'
p10
I510
ssS'none'
p11
(dp12
g5
I350
sg6
I29
sg7
I1
sg8
I15
sg9
I28
sg10
I350
ssS'three'
p13
(dp14
g5
I864
sg6
I32
sg7
I1
sg8
I12
sg9
I7
sg10
I400
ssS'machine3'
p15
(dp16
g5
I691
sg6
I33
sg7
I5
sg8
I7
sg9
I2
sg10
I570
ssS'machine2'
p17
(dp18
g5
I661
sg6
I33
sg7
I4
sg8
I8
sg9
I15
sg10
I470
sssS'Wahono.csv'
p19
(dp20
g3
(dp21
g5
I1407
sg6
I54
sg7
I4
sg8
I4
sg9
I17
sg10
I1060
ssg11
(dp22
g5
I4230
sg6
I51
sg7
I9
sg8
I2
sg9
I397
sg10
I4230
ssg13
(dp23
g5
I2708
sg6
I57
sg7
I2
sg8
I3
sg9
I34
sg10
I1240
ssg15
(dp24
g5
I2246
sg6
I55
sg7
I5
sg8
I2
sg9
I22
sg10
I1700
ssg17
(dp25
g5
I2025
sg6
I58
sg7
I1
sg8
I3
sg9
I25
sg10
I1410
sssS'Hall.csv'
p26
(dp27
g3
(dp28
g5
I722
sg6
I100
sg7
I2
sg8
I4
sg9
I10
sg10
I510
ssg11
(dp29
g5
I2630
sg6
I94
sg7
I9
sg8
I3
sg9
I250
sg10
I2630
ssg13
(dp30
g5
I1726
sg6
I99
sg7
I3
sg8
I4
sg9
I16
sg10
I790
ssg15
(dp31
g5
I622
sg6
I91
sg7
I10
sg8
I5
sg9
I5
sg10
I410
ssg17
(dp32
g5
I1042
sg6
I99
sg7
I3
sg8
I4
sg9
I17
sg10
I710
sssS'Danijel.csv'
p33
(dp34
g3
(dp35
g5
I1185
sg6
I42
sg7
I4
sg8
I2
sg9
I16
sg10
I880
ssg11
(dp36
g5
I3250
sg6
I39
sg7
I9
sg8
I0
sg9
I315
sg10
I3250
ssg13
(dp37
g5
I2395
sg6
I44
sg7
I2
sg8
I2
sg9
I34
sg10
I1100
ssg15
(dp38
g5
I1218
sg6
I45
sg7
I0
sg8
I3
sg9
I12
sg10
I910
ssg17
(dp39
g5
I1097
sg6
I44
sg7
I1
sg8
I3
sg9
I19
sg10
I760
sss.(dp0
S'K_all3.csv'
p1
(dp2
S'machine'
p3
(dp4
S'count'
p5
I678
sS'truepos'
p6
I34
sS'falseneg'
p7
I5
sS'unknownyes'
p8
I6
sS'falsepos'
p9
I7
sS'unique'
p10
I530
ssS'none'
p11
(dp12
g5
I430
sg6
I31
sg7
I4
sg8
I10
sg9
I36
sg10
I430
ssS'three'
p13
(dp14
g5
I1074
sg6
I35
sg7
I1
sg8
I9
sg9
I6
sg10
I500
ssS'machine3'
p15
(dp16
g5
I721
sg6
I28
sg7
I6
sg8
I11
sg9
I10
sg10
I580
ssS'machine2'
p17
(dp18
g5
I507
sg6
I31
sg7
I4
sg8
I10
sg9
I11
sg10
I360
sssS'Wahono.csv'
p19
(dp20
g3
(dp21
g5
I1681
sg6
I54
sg7
I5
sg8
I3
sg9
I17
sg10
I1260
ssg11
(dp22
g5
I4390
sg6
I57
sg7
I4
sg8
I1
sg9
I450
sg10
I4390
ssg13
(dp23
g5
I3195
sg6
I59
sg7
I1
sg8
I2
sg9
I29
sg10
I1470
ssg15
(dp24
g5
I1820
sg6
I56
sg7
I4
sg8
I2
sg9
I22
sg10
I1370
ssg17
(dp25
g5
I1855
sg6
I57
sg7
I2
sg8
I3
sg9
I22
sg10
I1310
sssS'Hall.csv'
p26
(dp27
g3
(dp28
g5
I670
sg6
I97
sg7
I4
sg8
I5
sg9
I11
sg10
I480
ssg11
(dp29
g5
I3530
sg6
I95
sg7
I8
sg8
I3
sg9
I351
sg10
I3530
ssg13
(dp30
g5
I1337
sg6
I99
sg7
I3
sg8
I4
sg9
I13
sg10
I610
ssg15
(dp31
g5
I735
sg6
I98
sg7
I4
sg8
I4
sg9
I3
sg10
I490
ssg17
(dp32
g5
I658
sg6
I94
sg7
I7
sg8
I5
sg9
I26
sg10
I460
sssS'Danijel.csv'
p33
(dp34
g3
(dp35
g5
I1012
sg6
I43
sg7
I3
sg8
I2
sg9
I8
sg10
I760
ssg11
(dp36
g5
I2370
sg6
I39
sg7
I5
sg8
I4
sg9
I229
sg10
I2370
ssg13
(dp37
g5
I2195
sg6
I45
sg7
I0
sg8
I3
sg9
I31
sg10
I1010
ssg15
(dp38
g5
I1120
sg6
I45
sg7
I0
sg8
I3
sg9
I14
sg10
I830
ssg17
(dp39
g5
I954
sg6
I44
sg7
I1
sg8
I3
sg9
I10
sg10
I660
sss.(dp0
S'K_all3.csv'
p1
(dp2
S'machine'
p3
(dp4
S'count'
p5
I552
sS'truepos'
p6
I27
sS'falseneg'
p7
I4
sS'unknownyes'
p8
I14
sS'falsepos'
p9
I11
sS'unique'
p10
I410
ssS'none'
p11
(dp12
g5
I370
sg6
I28
sg7
I4
sg8
I13
sg9
I29
sg10
I370
ssS'three'
p13
(dp14
g5
I1044
sg6
I34
sg7
I2
sg8
I9
sg9
I11
sg10
I480
ssS'machine3'
p15
(dp16
g5
I643
sg6
I32
sg7
I7
sg8
I6
sg9
I7
sg10
I510
ssS'machine2'
p17
(dp18
g5
I515
sg6
I33
sg7
I0
sg8
I12
sg9
I12
sg10
I360
sssS'Wahono.csv'
p19
(dp20
g3
(dp21
g5
I1051
sg6
I46
sg7
I8
sg8
I8
sg9
I19
sg10
I760
ssg11
(dp22
g5
I4200
sg6
I53
sg7
I9
sg8
I0
sg9
I445
sg10
I4200
ssg13
(dp23
g5
I2665
sg6
I57
sg7
I2
sg8
I3
sg9
I43
sg10
I1220
ssg15
(dp24
g5
I1964
sg6
I58
sg7
I2
sg8
I2
sg9
I19
sg10
I1480
ssg17
(dp25
g5
I1945
sg6
I59
sg7
I1
sg8
I2
sg9
I28
sg10
I1360
sssS'Hall.csv'
p26
(dp27
g3
(dp28
g5
I931
sg6
I96
sg7
I5
sg8
I5
sg9
I8
sg10
I660
ssg11
(dp29
g5
I3690
sg6
I96
sg7
I7
sg8
I3
sg9
I364
sg10
I3690
ssg13
(dp30
g5
I1214
sg6
I99
sg7
I3
sg8
I4
sg9
I15
sg10
I550
ssg15
(dp31
g5
I735
sg6
I94
sg7
I8
sg8
I4
sg9
I3
sg10
I510
ssg17
(dp32
g5
I852
sg6
I97
sg7
I5
sg8
I4
sg9
I8
sg10
I570
sssS'Danijel.csv'
p33
(dp34
g3
(dp35
g5
I945
sg6
I38
sg7
I6
sg8
I4
sg9
I7
sg10
I760
ssg11
(dp36
g5
I2770
sg6
I41
sg7
I5
sg8
I2
sg9
I284
sg10
I2770
ssg13
(dp37
g5
I1649
sg6
I43
sg7
I2
sg8
I3
sg9
I15
sg10
I760
ssg15
(dp38
g5
I951
sg6
I43
sg7
I1
sg8
I4
sg9
I6
sg10
I730
ssg17
(dp39
g5
I1819
sg6
I45
sg7
I1
sg8
I2
sg9
I24
sg10
I1310
sss.(dp0
S'K_all3.csv'
p1
(dp2
S'machine'
p3
(dp4
S'count'
p5
I458
sS'truepos'
p6
I24
sS'falseneg'
p7
I6
sS'unknownyes'
p8
I15
sS'falsepos'
p9
I7
sS'unique'
p10
I360
ssS'none'
p11
(dp12
g5
I490
sg6
I30
sg7
I2
sg8
I13
sg9
I47
sg10
I490
ssS'three'
p13
(dp14
g5
I959
sg6
I33
sg7
I1
sg8
I11
sg9
I16
sg10
I440
ssS'machine3'
p15
(dp16
g5
I780
sg6
I29
sg7
I8
sg8
I8
sg9
I5
sg10
I660
ssS'machine2'
p17
(dp18
g5
I567
sg6
I32
sg7
I4
sg8
I9
sg9
I10
sg10
I410
sssS'Wahono.csv'
p19
(dp20
g3
(dp21
g5
I2356
sg6
I56
sg7
I5
sg8
I1
sg9
I29
sg10
I1760
ssg11
(dp22
g5
I3820
sg6
I54
sg7
I7
sg8
I1
sg9
I383
sg10
I3820
ssg13
(dp23
g5
I4418
sg6
I60
sg7
I0
sg8
I2
sg9
I67
sg10
I2030
ssg15
(dp24
g5
I1876
sg6
I58
sg7
I3
sg8
I1
sg9
I19
sg10
I1380
ssg17
(dp25
g5
I1926
sg6
I56
sg7
I3
sg8
I3
sg9
I25
sg10
I1360
sssS'Hall.csv'
p26
(dp27
g3
(dp28
g5
I702
sg6
I91
sg7
I9
sg8
I6
sg9
I18
sg10
I510
ssg11
(dp29
g5
I3900
sg6
I90
sg7
I14
sg8
I2
sg9
I370
sg10
I3900
ssg13
(dp30
g5
I2030
sg6
I102
sg7
I0
sg8
I4
sg9
I28
sg10
I930
ssg15
(dp31
g5
I1021
sg6
I96
sg7
I6
sg8
I4
sg9
I12
sg10
I710
ssg17
(dp32
g5
I1054
sg6
I99
sg7
I3
sg8
I4
sg9
I14
sg10
I710
sssS'Danijel.csv'
p33
(dp34
g3
(dp35
g5
I746
sg6
I43
sg7
I1
sg8
I4
sg9
I8
sg10
I560
ssg11
(dp36
g5
I2490
sg6
I44
sg7
I1
sg8
I3
sg9
I226
sg10
I2490
ssg13
(dp37
g5
I2580
sg6
I43
sg7
I3
sg8
I2
sg9
I30
sg10
I1180
ssg15
(dp38
g5
I1199
sg6
I39
sg7
I5
sg8
I4
sg9
I15
sg10
I900
ssg17
(dp39
g5
I719
sg6
I38
sg7
I5
sg8
I5
sg9
I8
sg10
I510
sss.(dp0
S'K_all3.csv'
p1
(dp2
S'machine'
p3
(dp4
S'count'
p5
I562
sS'truepos'
p6
I32
sS'falseneg'
p7
I7
sS'unknownyes'
p8
I6
sS'falsepos'
p9
I4
sS'unique'
p10
I460
ssS'none'
p11
(dp12
g5
I910
sg6
I37
sg7
I5
sg8
I3
sg9
I96
sg10
I910
ssS'three'
p13
(dp14
g5
I1015
sg6
I35
sg7
I2
sg8
I8
sg9
I14
sg10
I470
ssS'machine3'
p15
(dp16
g5
I739
sg6
I27
sg7
I11
sg8
I7
sg9
I9
sg10
I600
ssS'machine2'
p17
(dp18
g5
I619
sg6
I34
sg7
I2
sg8
I9
sg9
I7
sg10
I450
sssS'Wahono.csv'
p19
(dp20
g3
(dp21
g5
I1270
sg6
I51
sg7
I4
sg8
I7
sg9
I12
sg10
I960
ssg11
(dp22
g5
I3490
sg6
I55
sg7
I6
sg8
I1
sg9
I316
sg10
I3490
ssg13
(dp23
g5
I4165
sg6
I60
sg7
I0
sg8
I2
sg9
I47
sg10
I1910
ssg15
(dp24
g5
I2283
sg6
I57
sg7
I3
sg8
I2
sg9
I19
sg10
I1740
ssg17
(dp25
g5
I2577
sg6
I59
sg7
I0
sg8
I3
sg9
I46
sg10
I1810
sssS'Hall.csv'
p26
(dp27
g3
(dp28
g5
I640
sg6
I95
sg7
I7
sg8
I4
sg9
I19
sg10
I460
ssg11
(dp29
g5
I4470
sg6
I94
sg7
I10
sg8
I2
sg9
I440
sg10
I4470
ssg13
(dp30
g5
I1620
sg6
I100
sg7
I2
sg8
I4
sg9
I18
sg10
I740
ssg15
(dp31
g5
I599
sg6
I91
sg7
I9
sg8
I6
sg9
I5
sg10
I400
ssg17
(dp32
g5
I751
sg6
I97
sg7
I4
sg8
I5
sg9
I20
sg10
I510
sssS'Danijel.csv'
p33
(dp34
g3
(dp35
g5
I885
sg6
I39
sg7
I5
sg8
I4
sg9
I12
sg10
I660
ssg11
(dp36
g5
I2210
sg6
I41
sg7
I6
sg8
I1
sg9
I219
sg10
I2210
ssg13
(dp37
g5
I2343
sg6
I46
sg7
I0
sg8
I2
sg9
I30
sg10
I1080
ssg15
(dp38
g5
I1132
sg6
I43
sg7
I2
sg8
I3
sg9
I15
sg10
I850
ssg17
(dp39
g5
I1251
sg6
I41
sg7
I3
sg8
I4
sg9
I11
sg10
I860
sss.(dp0
S'K_all3.csv'
p1
(dp2
S'machine'
p3
(dp4
S'count'
p5
I606
sS'truepos'
p6
I32
sS'falseneg'
p7
I3
sS'unknownyes'
p8
I10
sS'falsepos'
p9
I2
sS'unique'
p10
I460
ssS'none'
p11
(dp12
g5
I490
sg6
I31
sg7
I4
sg8
I10
sg9
I46
sg10
I490
ssS'three'
p13
(dp14
g5
I941
sg6
I32
sg7
I0
sg8
I13
sg9
I6
sg10
I440
ssS'machine3'
p15
(dp16
g5
I673
sg6
I33
sg7
I5
sg8
I7
sg9
I3
sg10
I530
ssS'machine2'
p17
(dp18
g5
I657
sg6
I32
sg7
I4
sg8
I9
sg9
I11
sg10
I460
sssS'Wahono.csv'
p19
(dp20
g3
(dp21
g5
I2482
sg6
I56
sg7
I3
sg8
I3
sg9
I26
sg10
I1860
ssg11
(dp22
g5
I3890
sg6
I53
sg7
I7
sg8
I2
sg9
I370
sg10
I3890
ssg13
(dp23
g5
I3674
sg6
I58
sg7
I0
sg8
I4
sg9
I38
sg10
I1700
ssg15
(dp24
g5
I1884
sg6
I58
sg7
I1
sg8
I3
sg9
I18
sg10
I1400
ssg17
(dp25
g5
I2035
sg6
I54
sg7
I4
sg8
I4
sg9
I41
sg10
I1410
sssS'Hall.csv'
p26
(dp27
g3
(dp28
g5
I600
sg6
I94
sg7
I6
sg8
I6
sg9
I4
sg10
I420
ssg11
(dp29
g5
I3860
sg6
I96
sg7
I9
sg8
I1
sg9
I391
sg10
I3860
ssg13
(dp30
g5
I1666
sg6
I100
sg7
I2
sg8
I4
sg9
I17
sg10
I770
ssg15
(dp31
g5
I615
sg6
I96
sg7
I6
sg8
I4
sg9
I2
sg10
I410
ssg17
(dp32
g5
I589
sg6
I94
sg7
I6
sg8
I6
sg9
I12
sg10
I410
sssS'Danijel.csv'
p33
(dp34
g3
(dp35
g5
I1222
sg6
I42
sg7
I3
sg8
I3
sg9
I20
sg10
I910
ssg11
(dp36
g5
I2910
sg6
I41
sg7
I6
sg8
I1
sg9
I272
sg10
I2910
ssg13
(dp37
g5
I2206
sg6
I44
sg7
I0
sg8
I4
sg9
I21
sg10
I1030
ssg15
(dp38
g5
I954
sg6
I39
sg7
I6
sg8
I3
sg9
I1
sg10
I740
ssg17
(dp39
g5
I1562
sg6
I44
sg7
I1
sg8
I3
sg9
I16
sg10
I1110
sss.(dp0
S'K_all3.csv'
p1
(dp2
S'machine'
p3
(dp4
S'count'
p5
I540
sS'truepos'
p6
I32
sS'falseneg'
p7
I3
sS'unknownyes'
p8
I10
sS'falsepos'
p9
I5
sS'unique'
p10
I410
ssS'none'
p11
(dp12
g5
I530
sg6
I33
sg7
I3
sg8
I9
sg9
I45
sg10
I530
ssS'three'
p13
(dp14
g5
I1053
sg6
I31
sg7
I0
sg8
I14
sg9
I9
sg10
I480
ssS'machine3'
p15
(dp16
g5
I677
sg6
I28
sg7
I8
sg8
I9
sg9
I10
sg10
I540
ssS'machine2'
p17
(dp18
g5
I646
sg6
I31
sg7
I1
sg8
I13
sg9
I9
sg10
I460
sssS'Wahono.csv'
p19
(dp20
g3
(dp21
g5
I1738
sg6
I53
sg7
I7
sg8
I2
sg9
I17
sg10
I1310
ssg11
(dp22
g5
I3290
sg6
I55
sg7
I5
sg8
I2
sg9
I325
sg10
I3290
ssg13
(dp23
g5
I3839
sg6
I59
sg7
I3
sg8
I0
sg9
I36
sg10
I1770
ssg15
(dp24
g5
I2200
sg6
I56
sg7
I5
sg8
I1
sg9
I20
sg10
I1660
ssg17
(dp25
g5
I2140
sg6
I56
sg7
I3
sg8
I3
sg9
I39
sg10
I1480
sssS'Hall.csv'
p26
(dp27
g3
(dp28
g5
I561
sg6
I94
sg7
I7
sg8
I5
sg9
I13
sg10
I410
ssg11
(dp29
g5
I4450
sg6
I92
sg7
I13
sg8
I1
sg9
I449
sg10
I4450
ssg13
(dp30
g5
I1144
sg6
I99
sg7
I3
sg8
I4
sg9
I11
sg10
I530
ssg15
(dp31
g5
I660
sg6
I90
sg7
I10
sg8
I6
sg9
I8
sg10
I450
ssg17
(dp32
g5
I842
sg6
I99
sg7
I2
sg8
I5
sg9
I10
sg10
I560
sssS'Danijel.csv'
p33
(dp34
g3
(dp35
g5
I1078
sg6
I40
sg7
I3
sg8
I5
sg9
I9
sg10
I810
ssg11
(dp36
g5
I3400
sg6
I45
sg7
I3
sg8
I0
sg9
I346
sg10
I3400
ssg13
(dp37
g5
I2770
sg6
I45
sg7
I2
sg8
I1
sg9
I24
sg10
I1270
ssg15
(dp38
g5
I1175
sg6
I44
sg7
I2
sg8
I2
sg9
I13
sg10
I880
ssg17
(dp39
g5
I1809
sg6
I44
sg7
I2
sg8
I2
sg9
I28
sg10
I1260
sss.(dp0
S'K_all3.csv'
p1
(dp2
S'machine'
p3
(dp4
S'count'
p5
I385
sS'truepos'
p6
I29
sS'falseneg'
p7
I2
sS'unknownyes'
p8
I14
sS'falsepos'
p9
I4
sS'unique'
p10
I310
ssS'none'
p11
(dp12
g5
I370
sg6
I29
sg7
I3
sg8
I13
sg9
I31
sg10
I370
ssS'three'
p13
(dp14
g5
I903
sg6
I34
sg7
I1
sg8
I10
sg9
I11
sg10
I410
ssS'machine3'
p15
(dp16
g5
I690
sg6
I34
sg7
I4
sg8
I7
sg9
I6
sg10
I560
ssS'machine2'
p17
(dp18
g5
I727
sg6
I31
sg7
I4
sg8
I10
sg9
I13
sg10
I510
sssS'Wahono.csv'
p19
(dp20
g3
(dp21
g5
I1425
sg6
I38
sg7
I13
sg8
I11
sg9
I15
sg10
I1060
ssg11
(dp22
g5
I3910
sg6
I58
sg7
I4
sg8
I0
sg9
I378
sg10
I3910
ssg13
(dp23
g5
I2413
sg6
I59
sg7
I0
sg8
I3
sg9
I37
sg10
I1110
ssg15
(dp24
g5
I2402
sg6
I53
sg7
I6
sg8
I3
sg9
I24
sg10
I1820
ssg17
(dp25
g5
I1667
sg6
I56
sg7
I3
sg8
I3
sg9
I26
sg10
I1160
sssS'Hall.csv'
p26
(dp27
g3
(dp28
g5
I932
sg6
I97
sg7
I5
sg8
I4
sg9
I15
sg10
I660
ssg11
(dp29
g5
I3820
sg6
I92
sg7
I11
sg8
I3
sg9
I382
sg10
I3820
ssg13
(dp30
g5
I2171
sg6
I101
sg7
I2
sg8
I3
sg9
I25
sg10
I990
ssg15
(dp31
g5
I777
sg6
I96
sg7
I6
sg8
I4
sg9
I4
sg10
I520
ssg17
(dp32
g5
I589
sg6
I96
sg7
I4
sg8
I6
sg9
I16
sg10
I410
sssS'Danijel.csv'
p33
(dp34
g3
(dp35
g5
I1192
sg6
I43
sg7
I2
sg8
I3
sg9
I11
sg10
I900
ssg11
(dp36
g5
I3580
sg6
I40
sg7
I6
sg8
I2
sg9
I326
sg10
I3580
ssg13
(dp37
g5
I1486
sg6
I44
sg7
I1
sg8
I3
sg9
I17
sg10
I680
ssg15
(dp38
g5
I1490
sg6
I45
sg7
I1
sg8
I2
sg9
I22
sg10
I1120
ssg17
(dp39
g5
I806
sg6
I44
sg7
I1
sg8
I3
sg9
I12
sg10
I560
sss.(dp0
S'K_all3.csv'
p1
(dp2
S'machine'
p3
(dp4
S'count'
p5
I733
sS'truepos'
p6
I29
sS'falseneg'
p7
I11
sS'unknownyes'
p8
I5
sS'falsepos'
p9
I5
sS'unique'
p10
I560
ssS'none'
p11
(dp12
g5
I470
sg6
I30
sg7
I3
sg8
I12
sg9
I43
sg10
I470
ssS'three'
p13
(dp14
g5
I925
sg6
I32
sg7
I3
sg8
I10
sg9
I9
sg10
I420
ssS'machine3'
p15
(dp16
g5
I626
sg6
I32
sg7
I4
sg8
I9
sg9
I5
sg10
I510
ssS'machine2'
p17
(dp18
g5
I430
sg6
I27
sg7
I0
sg8
I18
sg9
I12
sg10
I310
sssS'Wahono.csv'
p19
(dp20
g3
(dp21
g5
I1886
sg6
I46
sg7
I11
sg8
I5
sg9
I15
sg10
I1410
ssg11
(dp22
g5
I4140
sg6
I57
sg7
I5
sg8
I0
sg9
I413
sg10
I4140
ssg13
(dp23
g5
I3704
sg6
I57
sg7
I4
sg8
I1
sg9
I40
sg10
I1700
ssg15
(dp24
g5
I1536
sg6
I49
sg7
I10
sg8
I3
sg9
I15
sg10
I1190
ssg17
(dp25
g5
I1691
sg6
I58
sg7
I1
sg8
I3
sg9
I22
sg10
I1160
sssS'Hall.csv'
p26
(dp27
g3
(dp28
g5
I630
sg6
I97
sg7
I4
sg8
I5
sg9
I11
sg10
I450
ssg11
(dp29
g5
I4590
sg6
I89
sg7
I14
sg8
I3
sg9
I457
sg10
I4590
ssg13
(dp30
g5
I1264
sg6
I98
sg7
I4
sg8
I4
sg9
I14
sg10
I570
ssg15
(dp31
g5
I784
sg6
I92
sg7
I10
sg8
I4
sg9
I5
sg10
I540
ssg17
(dp32
g5
I674
sg6
I98
sg7
I3
sg8
I5
sg9
I11
sg10
I460
sssS'Danijel.csv'
p33
(dp34
g3
(dp35
g5
I1272
sg6
I42
sg7
I3
sg8
I3
sg9
I8
sg10
I960
ssg11
(dp36
g5
I1660
sg6
I43
sg7
I3
sg8
I2
sg9
I143
sg10
I1660
ssg13
(dp37
g5
I1867
sg6
I45
sg7
I1
sg8
I2
sg9
I31
sg10
I850
ssg15
(dp38
g5
I971
sg6
I41
sg7
I5
sg8
I2
sg9
I1
sg10
I750
ssg17
(dp39
g5
I1086
sg6
I40
sg7
I3
sg8
I5
sg9
I19
sg10
I760
sss.(dp0
S'K_all3.csv'
p1
(dp2
S'machine'
p3
(dp4
S'count'
p5
I619
sS'truepos'
p6
I30
sS'falseneg'
p7
I5
sS'unknownyes'
p8
I10
sS'falsepos'
p9
I6
sS'unique'
p10
I500
ssS'none'
p11
(dp12
g5
I470
sg6
I33
sg7
I3
sg8
I9
sg9
I46
sg10
I470
ssS'three'
p13
(dp14
g5
I1084
sg6
I36
sg7
I0
sg8
I9
sg9
I11
sg10
I490
ssS'machine3'
p15
(dp16
g5
I678
sg6
I35
sg7
I1
sg8
I9
sg9
I3
sg10
I540
ssS'machine2'
p17
(dp18
g5
I764
sg6
I30
sg7
I5
sg8
I10
sg9
I13
sg10
I560
sssS'Wahono.csv'
p19
(dp20
g3
(dp21
g5
I1931
sg6
I56
sg7
I5
sg8
I1
sg9
I27
sg10
I1460
ssg11
(dp22
g5
I3400
sg6
I53
sg7
I8
sg8
I1
sg9
I328
sg10
I3400
ssg13
(dp23
g5
I3326
sg6
I57
sg7
I2
sg8
I3
sg9
I32
sg10
I1540
ssg15
(dp24
g5
I1586
sg6
I48
sg7
I5
sg8
I9
sg9
I16
sg10
I1220
ssg17
(dp25
g5
I1918
sg6
I58
sg7
I2
sg8
I2
sg9
I23
sg10
I1340
sssS'Hall.csv'
p26
(dp27
g3
(dp28
g5
I1001
sg6
I95
sg7
I7
sg8
I4
sg9
I16
sg10
I710
ssg11
(dp29
g5
I5330
sg6
I83
sg7
I21
sg8
I2
sg9
I510
sg10
I5330
ssg13
(dp30
g5
I1300
sg6
I99
sg7
I3
sg8
I4
sg9
I15
sg10
I600
ssg15
(dp31
g5
I810
sg6
I94
sg7
I8
sg8
I4
sg9
I5
sg10
I550
ssg17
(dp32
g5
I2176
sg6
I94
sg7
I9
sg8
I3
sg9
I37
sg10
I1450
sssS'Danijel.csv'
p33
(dp34
g3
(dp35
g5
I2559
sg6
I46
sg7
I1
sg8
I1
sg9
I19
sg10
I1920
ssg11
(dp36
g5
I2800
sg6
I41
sg7
I6
sg8
I1
sg9
I246
sg10
I2800
ssg13
(dp37
g5
I2600
sg6
I42
sg7
I3
sg8
I3
sg9
I38
sg10
I1190
ssg15
(dp38
g5
I1370
sg6
I41
sg7
I4
sg8
I3
sg9
I16
sg10
I1030
ssg17
(dp39
g5
I1383
sg6
I45
sg7
I1
sg8
I2
sg9
I30
sg10
I950
sss.(dp0
S'K_all3.csv'
p1
(dp2
S'machine'
p3
(dp4
S'count'
p5
I528
sS'truepos'
p6
I32
sS'falseneg'
p7
I2
sS'unknownyes'
p8
I11
sS'falsepos'
p9
I6
sS'unique'
p10
I410
ssS'none'
p11
(dp12
g5
I480
sg6
I29
sg7
I4
sg8
I12
sg9
I37
sg10
I480
ssS'three'
p13
(dp14
g5
I995
sg6
I36
sg7
I0
sg8
I9
sg9
I12
sg10
I460
ssS'machine3'
p15
(dp16
g5
I659
sg6
I29
sg7
I6
sg8
I10
sg9
I10
sg10
I530
ssS'machine2'
p17
(dp18
g5
I796
sg6
I36
sg7
I4
sg8
I5
sg9
I7
sg10
I600
sssS'Wahono.csv'
p19
(dp20
g3
(dp21
g5
I2171
sg6
I55
sg7
I5
sg8
I2
sg9
I22
sg10
I1610
ssg11
(dp22
g5
I3950
sg6
I57
sg7
I2
sg8
I3
sg9
I414
sg10
I3950
ssg13
(dp23
g5
I3236
sg6
I57
sg7
I1
sg8
I4
sg9
I41
sg10
I1500
ssg15
(dp24
g5
I1656
sg6
I51
sg7
I8
sg8
I3
sg9
I23
sg10
I1240
ssg17
(dp25
g5
I1777
sg6
I55
sg7
I3
sg8
I4
sg9
I15
sg10
I1250
sssS'Hall.csv'
p26
(dp27
g3
(dp28
g5
I560
sg6
I92
sg7
I6
sg8
I8
sg9
I13
sg10
I400
ssg11
(dp29
g5
I5170
sg6
I90
sg7
I13
sg8
I3
sg9
I544
sg10
I5170
ssg13
(dp30
g5
I872
sg6
I97
sg7
I2
sg8
I7
sg9
I9
sg10
I400
ssg15
(dp31
g5
I978
sg6
I96
sg7
I6
sg8
I4
sg9
I11
sg10
I670
ssg17
(dp32
g5
I930
sg6
I99
sg7
I3
sg8
I4
sg9
I21
sg10
I610
sssS'Danijel.csv'
p33
(dp34
g3
(dp35
g5
I1422
sg6
I43
sg7
I1
sg8
I4
sg9
I15
sg10
I1060
ssg11
(dp36
g5
I3180
sg6
I40
sg7
I2
sg8
I6
sg9
I329
sg10
I3180
ssg13
(dp37
g5
I1797
sg6
I45
sg7
I0
sg8
I3
sg9
I22
sg10
I820
ssg15
(dp38
g5
I1533
sg6
I41
sg7
I3
sg8
I4
sg9
I17
sg10
I1150
ssg17
(dp39
g5
I1224
sg6
I43
sg7
I3
sg8
I2
sg9
I9
sg10
I880
sss.