(dp0
S'K_all3.csv'
p1
(dp2
S'machine'
p3
(dp4
S'count'
p5
I640
sS'truepos'
p6
I27
sS'falseneg'
p7
I11
sS'correction'
p8
I3
sS'unknownyes'
p9
I7
sS'falsepos'
p10
I2
sS'unique'
p11
I490
ssS'knee'
p12
(dp13
g5
I1331
sg6
I38
sg7
I5
sg8
I13
sg9
I2
sg10
I6
sg11
I990
ssS'none'
p14
(dp15
g5
I430
sg6
I32
sg7
I8
sg8
I0
sg9
I5
sg10
I6
sg11
I430
ssS'three'
p16
(dp17
g5
I1062
sg6
I32
sg7
I7
sg8
I19
sg9
I6
sg10
I0
sg11
I520
sssS'Wahono.csv'
p18
(dp19
g3
(dp20
g5
I1790
sg6
I55
sg7
I4
sg8
I14
sg9
I3
sg10
I4
sg11
I1210
ssg12
(dp21
g5
I24
sg6
I6
sg7
I0
sg8
I0
sg9
I56
sg10
I0
sg11
I20
ssg14
(dp22
g5
I1620
sg6
I46
sg7
I13
sg8
I0
sg9
I3
sg10
I3
sg11
I1620
ssg16
(dp23
g5
I2274
sg6
I45
sg7
I14
sg8
I30
sg9
I3
sg10
I0
sg11
I1120
sssS'Hall.csv'
p24
(dp25
g3
(dp26
g5
I707
sg6
I94
sg7
I8
sg8
I19
sg9
I2
sg10
I1
sg11
I510
ssg12
(dp27
g5
I638
sg6
I82
sg7
I19
sg8
I20
sg9
I3
sg10
I0
sg11
I470
ssg14
(dp28
g5
I1120
sg6
I75
sg7
I28
sg8
I0
sg9
I1
sg10
I1
sg11
I1120
ssg16
(dp29
g5
I1245
sg6
I86
sg7
I16
sg8
I43
sg9
I2
sg10
I0
sg11
I600
sssS'Danijel.csv'
p30
(dp31
g3
(dp32
g5
I1640
sg6
I41
sg7
I5
sg8
I9
sg9
I2
sg10
I3
sg11
I1030
ssg12
(dp33
g5
I1050
sg6
I43
sg7
I3
sg8
I9
sg9
I2
sg10
I1
sg11
I680
ssg14
(dp34
g5
I1140
sg6
I31
sg7
I14
sg8
I0
sg9
I3
sg10
I2
sg11
I1140
ssg16
(dp35
g5
I1484
sg6
I40
sg7
I6
sg8
I23
sg9
I2
sg10
I0
sg11
I730
sss.(dp0
S'K_all3.csv'
p1
(dp2
S'machine'
p3
(dp4
S'count'
p5
I820
sS'truepos'
p6
I32
sS'falseneg'
p7
I10
sS'correction'
p8
I5
sS'unknownyes'
p9
I3
sS'falsepos'
p10
I5
sS'unique'
p11
I550
ssS'knee'
p12
(dp13
g5
I180
sg6
I12
sg7
I7
sg8
I3
sg9
I26
sg10
I1
sg11
I120
ssS'none'
p14
(dp15
g5
I480
sg6
I31
sg7
I9
sg8
I0
sg9
I5
sg10
I6
sg11
I480
ssS'three'
p16
(dp17
g5
I992
sg6
I34
sg7
I8
sg8
I29
sg9
I3
sg10
I0
sg11
I480
sssS'Wahono.csv'
p18
(dp19
g3
(dp20
g5
I1656
sg6
I58
sg7
I1
sg8
I13
sg9
I3
sg10
I2
sg11
I1120
ssg12
(dp21
g5
I1179
sg6
I51
sg7
I7
sg8
I9
sg9
I4
sg10
I4
sg11
I910
ssg14
(dp22
g5
I1560
sg6
I40
sg7
I20
sg8
I0
sg9
I2
sg10
I6
sg11
I1560
ssg16
(dp23
g5
I2536
sg6
I42
sg7
I17
sg8
I28
sg9
I3
sg10
I0
sg11
I1250
sssS'Hall.csv'
p24
(dp25
g3
(dp26
g5
I718
sg6
I91
sg7
I12
sg8
I21
sg9
I1
sg10
I4
sg11
I510
ssg12
(dp27
g5
I585
sg6
I90
sg7
I11
sg8
I21
sg9
I3
sg10
I1
sg11
I410
ssg14
(dp28
g5
I550
sg6
I79
sg7
I22
sg8
I0
sg9
I3
sg10
I2
sg11
I550
ssg16
(dp29
g5
I1397
sg6
I84
sg7
I18
sg8
I50
sg9
I2
sg10
I0
sg11
I670
sssS'Danijel.csv'
p30
(dp31
g3
(dp32
g5
I1265
sg6
I41
sg7
I4
sg8
I8
sg9
I3
sg10
I4
sg11
I740
ssg12
(dp33
g5
I330
sg6
I23
sg7
I3
sg8
I4
sg9
I22
sg10
I3
sg11
I200
ssg14
(dp34
g5
I1540
sg6
I25
sg7
I20
sg8
I0
sg9
I3
sg10
I2
sg11
I1540
ssg16
(dp35
g5
I2964
sg6
I31
sg7
I16
sg8
I19
sg9
I1
sg10
I0
sg11
I1470
sss.(dp0
S'K_all3.csv'
p1
(dp2
S'machine'
p3
(dp4
S'count'
p5
I529
sS'truepos'
p6
I32
sS'falseneg'
p7
I4
sS'correction'
p8
I5
sS'unknownyes'
p9
I9
sS'falsepos'
p10
I8
sS'unique'
p11
I360
ssS'knee'
p12
(dp13
g5
I184
sg6
I17
sg7
I4
sg8
I3
sg9
I24
sg10
I3
sg11
I120
ssS'none'
p14
(dp15
g5
I510
sg6
I28
sg7
I14
sg8
I0
sg9
I3
sg10
I3
sg11
I510
ssS'three'
p16
(dp17
g5
I944
sg6
I36
sg7
I4
sg8
I23
sg9
I5
sg10
I0
sg11
I460
sssS'Wahono.csv'
p18
(dp19
g3
(dp20
g5
I1728
sg6
I56
sg7
I3
sg8
I12
sg9
I3
sg10
I4
sg11
I1170
ssg12
(dp21
g5
I720
sg6
I41
sg7
I10
sg8
I6
sg9
I11
sg10
I1
sg11
I480
ssg14
(dp22
g5
I1510
sg6
I42
sg7
I17
sg8
I0
sg9
I3
sg10
I1
sg11
I1510
ssg16
(dp23
g5
I3157
sg6
I49
sg7
I12
sg8
I32
sg9
I1
sg10
I0
sg11
I1560
sssS'Hall.csv'
p24
(dp25
g3
(dp26
g5
I656
sg6
I95
sg7
I6
sg8
I17
sg9
I3
sg10
I2
sg11
I460
ssg12
(dp27
g5
I556
sg6
I90
sg7
I10
sg8
I23
sg9
I4
sg10
I1
sg11
I350
ssg14
(dp28
g5
I890
sg6
I71
sg7
I32
sg8
I0
sg9
I1
sg10
I4
sg11
I890
ssg16
(dp29
g5
I1889
sg6
I78
sg7
I25
sg8
I40
sg9
I1
sg10
I0
sg11
I920
sssS'Danijel.csv'
p30
(dp31
g3
(dp32
g5
I1397
sg6
I40
sg7
I6
sg8
I9
sg9
I2
sg10
I3
sg11
I840
ssg12
(dp33
g5
I223
sg6
I29
sg7
I1
sg8
I3
sg9
I18
sg10
I1
sg11
I140
ssg14
(dp34
g5
I1180
sg6
I36
sg7
I10
sg8
I0
sg9
I2
sg10
I1
sg11
I1180
ssg16
(dp35
g5
I2524
sg6
I35
sg7
I11
sg8
I21
sg9
I2
sg10
I0
sg11
I1250
sss.(dp0
S'K_all3.csv'
p1
(dp2
S'machine'
p3
(dp4
S'count'
p5
I714
sS'truepos'
p6
I30
sS'falseneg'
p7
I11
sS'correction'
p8
I4
sS'unknownyes'
p9
I4
sS'falsepos'
p10
I2
sS'unique'
p11
I610
ssS'knee'
p12
(dp13
g5
I1532
sg6
I36
sg7
I8
sg8
I11
sg9
I1
sg10
I13
sg11
I1010
ssS'none'
p14
(dp15
g5
I560
sg6
I31
sg7
I10
sg8
I0
sg9
I4
sg10
I3
sg11
I560
ssS'three'
p16
(dp17
g5
I1068
sg6
I35
sg7
I6
sg8
I27
sg9
I4
sg10
I0
sg11
I520
sssS'Wahono.csv'
p18
(dp19
g3
(dp20
g5
I2048
sg6
I54
sg7
I5
sg8
I18
sg9
I3
sg10
I8
sg11
I1350
ssg12
(dp21
g5
I659
sg6
I44
sg7
I4
sg8
I10
sg9
I14
sg10
I1
sg11
I420
ssg14
(dp22
g5
I1560
sg6
I45
sg7
I15
sg8
I0
sg9
I2
sg10
I5
sg11
I1560
ssg16
(dp23
g5
I3011
sg6
I44
sg7
I17
sg8
I26
sg9
I1
sg10
I0
sg11
I1490
sssS'Hall.csv'
p24
(dp25
g3
(dp26
g5
I672
sg6
I94
sg7
I8
sg8
I21
sg9
I2
sg10
I1
sg11
I470
ssg12
(dp27
g5
I543
sg6
I87
sg7
I14
sg8
I14
sg9
I3
sg10
I0
sg11
I370
ssg14
(dp28
g5
I700
sg6
I68
sg7
I34
sg8
I0
sg9
I2
sg10
I0
sg11
I700
ssg16
(dp29
g5
I956
sg6
I79
sg7
I21
sg8
I48
sg9
I4
sg10
I0
sg11
I450
sssS'Danijel.csv'
p30
(dp31
g3
(dp32
g5
I1252
sg6
I44
sg7
I2
sg8
I15
sg9
I2
sg10
I4
sg11
I720
ssg12
(dp33
g5
I273
sg6
I23
sg7
I3
sg8
I4
sg9
I22
sg10
I0
sg11
I190
ssg14
(dp34
g5
I2120
sg6
I22
sg7
I25
sg8
I0
sg9
I1
sg10
I7
sg11
I2120
ssg16
(dp35
g5
I2272
sg6
I35
sg7
I11
sg8
I29
sg9
I2
sg10
I0
sg11
I1120
sss.(dp0
S'K_all3.csv'
p1
(dp2
S'machine'
p3
(dp4
S'count'
p5
I680
sS'truepos'
p6
I30
sS'falseneg'
p7
I6
sS'correction'
p8
I7
sS'unknownyes'
p9
I9
sS'falsepos'
p10
I2
sS'unique'
p11
I580
ssS'knee'
p12
(dp13
g5
I1018
sg6
I34
sg7
I8
sg8
I5
sg9
I3
sg10
I6
sg11
I730
ssS'none'
p14
(dp15
g5
I640
sg6
I26
sg7
I17
sg8
I0
sg9
I2
sg10
I6
sg11
I640
ssS'three'
p16
(dp17
g5
I984
sg6
I31
sg7
I7
sg8
I24
sg9
I7
sg10
I0
sg11
I480
sssS'Wahono.csv'
p18
(dp19
g3
(dp20
g5
I1688
sg6
I53
sg7
I7
sg8
I16
sg9
I2
sg10
I6
sg11
I1110
ssg12
(dp21
g5
I35
sg6
I6
sg7
I1
sg8
I1
sg9
I55
sg10
I0
sg11
I30
ssg14
(dp22
g5
I1690
sg6
I40
sg7
I21
sg8
I0
sg9
I1
sg10
I2
sg11
I1690
ssg16
(dp23
g5
I2981
sg6
I44
sg7
I15
sg8
I35
sg9
I3
sg10
I0
sg11
I1470
sssS'Hall.csv'
p24
(dp25
g3
(dp26
g5
I778
sg6
I91
sg7
I11
sg8
I20
sg9
I2
sg10
I1
sg11
I530
ssg12
(dp27
g5
I764
sg6
I81
sg7
I20
sg8
I22
sg9
I3
sg10
I0
sg11
I570
ssg14
(dp28
g5
I1060
sg6
I72
sg7
I31
sg8
I0
sg9
I1
sg10
I7
sg11
I1060
ssg16
(dp29
g5
I1505
sg6
I81
sg7
I21
sg8
I40
sg9
I2
sg10
I0
sg11
I730
sssS'Danijel.csv'
p30
(dp31
g3
(dp32
g5
I1400
sg6
I43
sg7
I4
sg8
I11
sg9
I1
sg10
I5
sg11
I900
ssg12
(dp33
g5
I398
sg6
I33
sg7
I4
sg8
I8
sg9
I11
sg10
I1
sg11
I270
ssg14
(dp34
g5
I1510
sg6
I32
sg7
I16
sg8
I0
sg9
I0
sg10
I2
sg11
I1510
ssg16
(dp35
g5
I2206
sg6
I34
sg7
I12
sg8
I22
sg9
I2
sg10
I0
sg11
I1090
sss.(dp0
S'K_all3.csv'
p1
(dp2
S'machine'
p3
(dp4
S'count'
p5
I617
sS'truepos'
p6
I33
sS'falseneg'
p7
I2
sS'correction'
p8
I5
sS'unknownyes'
p9
I10
sS'falsepos'
p10
I5
sS'unique'
p11
I430
ssS'knee'
p12
(dp13
g5
I701
sg6
I31
sg7
I6
sg8
I10
sg9
I8
sg10
I6
sg11
I470
ssS'none'
p14
(dp15
g5
I490
sg6
I27
sg7
I12
sg8
I0
sg9
I6
sg10
I4
sg11
I490
ssS'three'
p16
(dp17
g5
I1001
sg6
I33
sg7
I7
sg8
I18
sg9
I5
sg10
I1
sg11
I490
sssS'Wahono.csv'
p18
(dp19
g3
(dp20
g5
I2142
sg6
I52
sg7
I7
sg8
I19
sg9
I3
sg10
I8
sg11
I1360
ssg12
(dp21
g5
I434
sg6
I33
sg7
I9
sg8
I5
sg9
I20
sg10
I1
sg11
I280
ssg14
(dp22
g5
I1550
sg6
I38
sg7
I21
sg8
I0
sg9
I3
sg10
I8
sg11
I1550
ssg16
(dp23
g5
I2432
sg6
I51
sg7
I8
sg8
I29
sg9
I3
sg10
I0
sg11
I1200
sssS'Hall.csv'
p24
(dp25
g3
(dp26
g5
I850
sg6
I91
sg7
I11
sg8
I20
sg9
I2
sg10
I1
sg11
I620
ssg12
(dp27
g5
I519
sg6
I89
sg7
I10
sg8
I22
sg9
I5
sg10
I1
sg11
I340
ssg14
(dp28
g5
I1560
sg6
I70
sg7
I33
sg8
I0
sg9
I1
sg10
I3
sg11
I1560
ssg16
(dp29
g5
I1463
sg6
I77
sg7
I25
sg8
I39
sg9
I2
sg10
I0
sg11
I710
sssS'Danijel.csv'
p30
(dp31
g3
(dp32
g5
I1590
sg6
I44
sg7
I2
sg8
I12
sg9
I2
sg10
I7
sg11
I970
ssg12
(dp33
g5
I1009
sg6
I38
sg7
I7
sg8
I11
sg9
I3
sg10
I1
sg11
I700
ssg14
(dp34
g5
I1340
sg6
I35
sg7
I11
sg8
I0
sg9
I2
sg10
I2
sg11
I1340
ssg16
(dp35
g5
I1764
sg6
I40
sg7
I6
sg8
I23
sg9
I2
sg10
I0
sg11
I870
sss.(dp0
S'K_all3.csv'
p1
(dp2
S'machine'
p3
(dp4
S'count'
p5
I540
sS'truepos'
p6
I31
sS'falseneg'
p7
I6
sS'correction'
p8
I5
sS'unknownyes'
p9
I8
sS'falsepos'
p10
I6
sS'unique'
p11
I390
ssS'knee'
p12
(dp13
g5
I223
sg6
I18
sg7
I3
sg8
I1
sg9
I24
sg10
I3
sg11
I140
ssS'none'
p14
(dp15
g5
I500
sg6
I23
sg7
I18
sg8
I0
sg9
I4
sg10
I5
sg11
I500
ssS'three'
p16
(dp17
g5
I1007
sg6
I37
sg7
I4
sg8
I24
sg9
I4
sg10
I0
sg11
I490
sssS'Wahono.csv'
p18
(dp19
g3
(dp20
g5
I1722
sg6
I58
sg7
I2
sg8
I9
sg9
I2
sg10
I3
sg11
I1150
ssg12
(dp21
g5
I521
sg6
I42
sg7
I5
sg8
I9
sg9
I15
sg10
I1
sg11
I350
ssg14
(dp22
g5
I1920
sg6
I45
sg7
I15
sg8
I0
sg9
I2
sg10
I8
sg11
I1920
ssg16
(dp23
g5
I2643
sg6
I43
sg7
I16
sg8
I19
sg9
I3
sg10
I0
sg11
I1310
sssS'Hall.csv'
p24
(dp25
g3
(dp26
g5
I732
sg6
I94
sg7
I8
sg8
I14
sg9
I2
sg10
I2
sg11
I530
ssg12
(dp27
g5
I574
sg6
I91
sg7
I9
sg8
I18
sg9
I4
sg10
I1
sg11
I380
ssg14
(dp28
g5
I950
sg6
I75
sg7
I27
sg8
I0
sg9
I2
sg10
I4
sg11
I950
ssg16
(dp29
g5
I1247
sg6
I79
sg7
I23
sg8
I41
sg9
I2
sg10
I0
sg11
I600
sssS'Danijel.csv'
p30
(dp31
g3
(dp32
g5
I1442
sg6
I42
sg7
I3
sg8
I9
sg9
I3
sg10
I3
sg11
I920
ssg12
(dp33
g5
I1115
sg6
I41
sg7
I5
sg8
I10
sg9
I2
sg10
I1
sg11
I760
ssg14
(dp34
g5
I1170
sg6
I31
sg7
I15
sg8
I0
sg9
I2
sg10
I5
sg11
I1170
ssg16
(dp35
g5
I1761
sg6
I38
sg7
I7
sg8
I19
sg9
I3
sg10
I0
sg11
I870
sss.(dp0
S'K_all3.csv'
p1
(dp2
S'machine'
p3
(dp4
S'count'
p5
I582
sS'truepos'
p6
I34
sS'falseneg'
p7
I3
sS'correction'
p8
I4
sS'unknownyes'
p9
I8
sS'falsepos'
p10
I4
sS'unique'
p11
I380
ssS'knee'
p12
(dp13
g5
I1390
sg6
I37
sg7
I6
sg8
I17
sg9
I2
sg10
I1
sg11
I1140
ssS'none'
p14
(dp15
g5
I460
sg6
I35
sg7
I6
sg8
I0
sg9
I4
sg10
I4
sg11
I460
ssS'three'
p16
(dp17
g5
I986
sg6
I24
sg7
I14
sg8
I19
sg9
I7
sg10
I0
sg11
I480
sssS'Wahono.csv'
p18
(dp19
g3
(dp20
g5
I2071
sg6
I52
sg7
I9
sg8
I10
sg9
I1
sg10
I7
sg11
I1390
ssg12
(dp21
g5
I35
sg6
I6
sg7
I1
sg8
I1
sg9
I55
sg10
I0
sg11
I30
ssg14
(dp22
g5
I1430
sg6
I43
sg7
I16
sg8
I0
sg9
I3
sg10
I5
sg11
I1430
ssg16
(dp23
g5
I2957
sg6
I56
sg7
I4
sg8
I36
sg9
I2
sg10
I0
sg11
I1460
sssS'Hall.csv'
p24
(dp25
g3
(dp26
g5
I766
sg6
I95
sg7
I7
sg8
I24
sg9
I2
sg10
I3
sg11
I550
ssg12
(dp27
g5
I699
sg6
I96
sg7
I5
sg8
I19
sg9
I3
sg10
I0
sg11
I470
ssg14
(dp28
g5
I1270
sg6
I65
sg7
I37
sg8
I0
sg9
I2
sg10
I9
sg11
I1270
ssg16
(dp29
g5
I1876
sg6
I75
sg7
I27
sg8
I44
sg9
I2
sg10
I0
sg11
I910
sssS'Danijel.csv'
p30
(dp31
g3
(dp32
g5
I1289
sg6
I41
sg7
I4
sg8
I5
sg9
I3
sg10
I3
sg11
I810
ssg12
(dp33
g5
I597
sg6
I35
sg7
I7
sg8
I10
sg9
I6
sg10
I0
sg11
I380
ssg14
(dp34
g5
I1170
sg6
I33
sg7
I12
sg8
I0
sg9
I3
sg10
I3
sg11
I1170
ssg16
(dp35
g5
I2797
sg6
I36
sg7
I9
sg8
I15
sg9
I3
sg10
I0
sg11
I1390
sss.(dp0
S'K_all3.csv'
p1
(dp2
S'machine'
p3
(dp4
S'count'
p5
I733
sS'truepos'
p6
I32
sS'falseneg'
p7
I7
sS'correction'
p8
I4
sS'unknownyes'
p9
I6
sS'falsepos'
p10
I6
sS'unique'
p11
I450
ssS'knee'
p12
(dp13
g5
I1322
sg6
I39
sg7
I5
sg8
I12
sg9
I1
sg10
I9
sg11
I980
ssS'none'
p14
(dp15
g5
I610
sg6
I19
sg7
I19
sg8
I0
sg9
I7
sg10
I4
sg11
I610
ssS'three'
p16
(dp17
g5
I1071
sg6
I27
sg7
I11
sg8
I26
sg9
I7
sg10
I0
sg11
I520
sssS'Wahono.csv'
p18
(dp19
g3
(dp20
g5
I2128
sg6
I56
sg7
I4
sg8
I17
sg9
I2
sg10
I5
sg11
I1450
ssg12
(dp21
g5
I987
sg6
I46
sg7
I8
sg8
I11
sg9
I8
sg10
I0
sg11
I710
ssg14
(dp22
g5
I1950
sg6
I39
sg7
I21
sg8
I0
sg9
I2
sg10
I5
sg11
I1950
ssg16
(dp23
g5
I2761
sg6
I46
sg7
I14
sg8
I16
sg9
I2
sg10
I0
sg11
I1370
sssS'Hall.csv'
p24
(dp25
g3
(dp26
g5
I739
sg6
I94
sg7
I8
sg8
I18
sg9
I2
sg10
I1
sg11
I530
ssg12
(dp27
g5
I708
sg6
I88
sg7
I14
sg8
I24
sg9
I2
sg10
I0
sg11
I480
ssg14
(dp28
g5
I700
sg6
I75
sg7
I27
sg8
I0
sg9
I2
sg10
I3
sg11
I700
ssg16
(dp29
g5
I1626
sg6
I78
sg7
I25
sg8
I40
sg9
I1
sg10
I0
sg11
I790
sssS'Danijel.csv'
p30
(dp31
g3
(dp32
g5
I1578
sg6
I42
sg7
I4
sg8
I13
sg9
I2
sg10
I6
sg11
I1000
ssg12
(dp33
g5
I37
sg6
I3
sg7
I5
sg8
I0
sg9
I40
sg10
I0
sg11
I30
ssg14
(dp34
g5
I1430
sg6
I30
sg7
I16
sg8
I0
sg9
I2
sg10
I3
sg11
I1430
ssg16
(dp35
g5
I1613
sg6
I43
sg7
I2
sg8
I13
sg9
I3
sg10
I0
sg11
I800
sss.(dp0
S'K_all3.csv'
p1
(dp2
S'machine'
p3
(dp4
S'count'
p5
I650
sS'truepos'
p6
I34
sS'falseneg'
p7
I2
sS'correction'
p8
I7
sS'unknownyes'
p9
I9
sS'falsepos'
p10
I4
sS'unique'
p11
I400
ssS'knee'
p12
(dp13
g5
I1738
sg6
I38
sg7
I7
sg8
I17
sg9
I0
sg10
I5
sg11
I1420
ssS'none'
p14
(dp15
g5
I460
sg6
I32
sg7
I9
sg8
I0
sg9
I4
sg10
I4
sg11
I460
ssS'three'
p16
(dp17
g5
I1067
sg6
I33
sg7
I6
sg8
I24
sg9
I6
sg10
I0
sg11
I520
sssS'Wahono.csv'
p18
(dp19
g3
(dp20
g5
I2066
sg6
I50
sg7
I8
sg8
I18
sg9
I4
sg10
I9
sg11
I1270
ssg12
(dp21
g5
I1497
sg6
I49
sg7
I10
sg8
I14
sg9
I3
sg10
I2
sg11
I1190
ssg14
(dp22
g5
I1570
sg6
I37
sg7
I23
sg8
I0
sg9
I2
sg10
I3
sg11
I1570
ssg16
(dp23
g5
I2792
sg6
I43
sg7
I17
sg8
I24
sg9
I2
sg10
I0
sg11
I1380
sssS'Hall.csv'
p24
(dp25
g3
(dp26
g5
I875
sg6
I95
sg7
I7
sg8
I16
sg9
I2
sg10
I3
sg11
I640
ssg12
(dp27
g5
I697
sg6
I96
sg7
I6
sg8
I27
sg9
I2
sg10
I0
sg11
I490
ssg14
(dp28
g5
I950
sg6
I78
sg7
I24
sg8
I0
sg9
I2
sg10
I6
sg11
I950
ssg16
(dp29
g5
I1519
sg6
I79
sg7
I23
sg8
I32
sg9
I2
sg10
I1
sg11
I740
sssS'Danijel.csv'
p30
(dp31
g3
(dp32
g5
I1298
sg6
I42
sg7
I4
sg8
I10
sg9
I2
sg10
I1
sg11
I840
ssg12
(dp33
g5
I37
sg6
I3
sg7
I3
sg8
I0
sg9
I42
sg10
I0
sg11
I30
ssg14
(dp34
g5
I1420
sg6
I36
sg7
I10
sg8
I0
sg9
I2
sg10
I3
sg11
I1420
ssg16
(dp35
g5
I1663
sg6
I39
sg7
I7
sg8
I20
sg9
I2
sg10
I0
sg11
I820
sss.(dp0
S'K_all3.csv'
p1
(dp2
S'machine'
p3
(dp4
S'count'
p5
I711
sS'truepos'
p6
I30
sS'falseneg'
p7
I7
sS'correction'
p8
I3
sS'unknownyes'
p9
I8
sS'falsepos'
p10
I8
sS'unique'
p11
I430
ssS'knee'
p12
(dp13
g5
I1142
sg6
I35
sg7
I7
sg8
I13
sg9
I3
sg10
I4
sg11
I920
ssS'none'
p14
(dp15
g5
I500
sg6
I24
sg7
I17
sg8
I0
sg9
I4
sg10
I2
sg11
I500
ssS'three'
p16
(dp17
g5
I1121
sg6
I33
sg7
I8
sg8
I18
sg9
I4
sg10
I0
sg11
I550
sssS'Wahono.csv'
p18
(dp19
g3
(dp20
g5
I2041
sg6
I53
sg7
I7
sg8
I11
sg9
I2
sg10
I4
sg11
I1330
ssg12
(dp21
g5
I893
sg6
I43
sg7
I11
sg8
I6
sg9
I8
sg10
I1
sg11
I620
ssg14
(dp22
g5
I1630
sg6
I48
sg7
I12
sg8
I0
sg9
I2
sg10
I5
sg11
I1630
ssg16
(dp23
g5
I3264
sg6
I39
sg7
I20
sg8
I36
sg9
I3
sg10
I0
sg11
I1610
sssS'Hall.csv'
p24
(dp25
g3
(dp26
g5
I719
sg6
I92
sg7
I9
sg8
I13
sg9
I3
sg10
I3
sg11
I500
ssg12
(dp27
g5
I689
sg6
I88
sg7
I11
sg8
I25
sg9
I5
sg10
I3
sg11
I440
ssg14
(dp28
g5
I1070
sg6
I74
sg7
I29
sg8
I0
sg9
I1
sg10
I2
sg11
I1070
ssg16
(dp29
g5
I1559
sg6
I77
sg7
I25
sg8
I50
sg9
I2
sg10
I0
sg11
I750
sssS'Danijel.csv'
p30
(dp31
g3
(dp32
g5
I1394
sg6
I37
sg7
I8
sg8
I4
sg9
I3
sg10
I6
sg11
I870
ssg12
(dp33
g5
I577
sg6
I37
sg7
I4
sg8
I10
sg9
I7
sg10
I0
sg11
I380
ssg14
(dp34
g5
I1640
sg6
I33
sg7
I14
sg8
I0
sg9
I1
sg10
I2
sg11
I1640
ssg16
(dp35
g5
I2200
sg6
I35
sg7
I11
sg8
I15
sg9
I2
sg10
I0
sg11
I1090
sss.(dp0
S'K_all3.csv'
p1
(dp2
S'machine'
p3
(dp4
S'count'
p5
I620
sS'truepos'
p6
I25
sS'falseneg'
p7
I12
sS'correction'
p8
I3
sS'unknownyes'
p9
I8
sS'falsepos'
p10
I2
sS'unique'
p11
I520
ssS'knee'
p12
(dp13
g5
I255
sg6
I19
sg7
I1
sg8
I5
sg9
I25
sg10
I2
sg11
I160
ssS'none'
p14
(dp15
g5
I640
sg6
I27
sg7
I11
sg8
I0
sg9
I7
sg10
I10
sg11
I640
ssS'three'
p16
(dp17
g5
I1005
sg6
I36
sg7
I6
sg8
I24
sg9
I3
sg10
I0
sg11
I490
sssS'Wahono.csv'
p18
(dp19
g3
(dp20
g5
I1993
sg6
I56
sg7
I6
sg8
I17
sg9
I0
sg10
I6
sg11
I1390
ssg12
(dp21
g5
I1227
sg6
I52
sg7
I8
sg8
I12
sg9
I2
sg10
I2
sg11
I930
ssg14
(dp22
g5
I1650
sg6
I39
sg7
I23
sg8
I0
sg9
I0
sg10
I6
sg11
I1650
ssg16
(dp23
g5
I3353
sg6
I50
sg7
I11
sg8
I30
sg9
I1
sg10
I0
sg11
I1660
sssS'Hall.csv'
p24
(dp25
g3
(dp26
g5
I745
sg6
I92
sg7
I10
sg8
I22
sg9
I2
sg10
I1
sg11
I540
ssg12
(dp27
g5
I642
sg6
I86
sg7
I15
sg8
I20
sg9
I3
sg10
I1
sg11
I460
ssg14
(dp28
g5
I780
sg6
I72
sg7
I30
sg8
I0
sg9
I2
sg10
I3
sg11
I780
ssg16
(dp29
g5
I1373
sg6
I81
sg7
I21
sg8
I48
sg9
I2
sg10
I0
sg11
I660
sssS'Danijel.csv'
p30
(dp31
g3
(dp32
g5
I1168
sg6
I40
sg7
I5
sg8
I11
sg9
I3
sg10
I3
sg11
I670
ssg12
(dp33
g5
I37
sg6
I4
sg7
I0
sg8
I1
sg9
I44
sg10
I0
sg11
I30
ssg14
(dp34
g5
I990
sg6
I35
sg7
I11
sg8
I0
sg9
I2
sg10
I3
sg11
I990
ssg16
(dp35
g5
I2739
sg6
I36
sg7
I10
sg8
I16
sg9
I2
sg10
I0
sg11
I1360
sss.(dp0
S'K_all3.csv'
p1
(dp2
S'machine'
p3
(dp4
S'count'
p5
I770
sS'truepos'
p6
I31
sS'falseneg'
p7
I8
sS'correction'
p8
I4
sS'unknownyes'
p9
I6
sS'falsepos'
p10
I2
sS'unique'
p11
I530
ssS'knee'
p12
(dp13
g5
I658
sg6
I30
sg7
I5
sg8
I7
sg9
I10
sg10
I4
sg11
I430
ssS'none'
p14
(dp15
g5
I690
sg6
I22
sg7
I18
sg8
I0
sg9
I5
sg10
I7
sg11
I690
ssS'three'
p16
(dp17
g5
I999
sg6
I30
sg7
I9
sg8
I18
sg9
I6
sg10
I1
sg11
I490
sssS'Wahono.csv'
p18
(dp19
g3
(dp20
g5
I2035
sg6
I52
sg7
I8
sg8
I12
sg9
I2
sg10
I4
sg11
I1440
ssg12
(dp21
g5
I24
sg6
I6
sg7
I0
sg8
I0
sg9
I56
sg10
I0
sg11
I20
ssg14
(dp22
g5
I1540
sg6
I43
sg7
I17
sg8
I0
sg9
I2
sg10
I4
sg11
I1540
ssg16
(dp23
g5
I2708
sg6
I51
sg7
I10
sg8
I26
sg9
I1
sg10
I0
sg11
I1340
sssS'Hall.csv'
p24
(dp25
g3
(dp26
g5
I753
sg6
I90
sg7
I12
sg8
I19
sg9
I2
sg10
I1
sg11
I540
ssg12
(dp27
g5
I786
sg6
I95
sg7
I7
sg8
I26
sg9
I2
sg10
I1
sg11
I590
ssg14
(dp28
g5
I1240
sg6
I69
sg7
I34
sg8
I0
sg9
I1
sg10
I1
sg11
I1240
ssg16
(dp29
g5
I1155
sg6
I83
sg7
I19
sg8
I50
sg9
I2
sg10
I0
sg11
I550
sssS'Danijel.csv'
p30
(dp31
g3
(dp32
g5
I1307
sg6
I39
sg7
I7
sg8
I8
sg9
I2
sg10
I1
sg11
I900
ssg12
(dp33
g5
I1266
sg6
I39
sg7
I7
sg8
I9
sg9
I2
sg10
I0
sg11
I990
ssg14
(dp34
g5
I1290
sg6
I26
sg7
I20
sg8
I0
sg9
I2
sg10
I4
sg11
I1290
ssg16
(dp35
g5
I1642
sg6
I40
sg7
I5
sg8
I19
sg9
I3
sg10
I0
sg11
I810
sss.(dp0
S'K_all3.csv'
p1
(dp2
S'machine'
p3
(dp4
S'count'
p5
I860
sS'truepos'
p6
I33
sS'falseneg'
p7
I8
sS'correction'
p8
I10
sS'unknownyes'
p9
I4
sS'falsepos'
p10
I4
sS'unique'
p11
I610
ssS'knee'
p12
(dp13
g5
I625
sg6
I29
sg7
I10
sg8
I6
sg9
I6
sg10
I2
sg11
I520
ssS'none'
p14
(dp15
g5
I490
sg6
I30
sg7
I11
sg8
I0
sg9
I4
sg10
I3
sg11
I490
ssS'three'
p16
(dp17
g5
I1082
sg6
I36
sg7
I5
sg8
I20
sg9
I4
sg10
I0
sg11
I530
sssS'Wahono.csv'
p18
(dp19
g3
(dp20
g5
I1746
sg6
I49
sg7
I10
sg8
I15
sg9
I3
sg10
I0
sg11
I1210
ssg12
(dp21
g5
I1202
sg6
I44
sg7
I11
sg8
I13
sg9
I7
sg10
I2
sg11
I800
ssg14
(dp22
g5
I1720
sg6
I37
sg7
I24
sg8
I0
sg9
I1
sg10
I1
sg11
I1720
ssg16
(dp23
g5
I2669
sg6
I42
sg7
I17
sg8
I22
sg9
I3
sg10
I0
sg11
I1320
sssS'Hall.csv'
p24
(dp25
g3
(dp26
g5
I874
sg6
I96
sg7
I6
sg8
I16
sg9
I2
sg10
I6
sg11
I650
ssg12
(dp27
g5
I755
sg6
I85
sg7
I17
sg8
I22
sg9
I2
sg10
I1
sg11
I540
ssg14
(dp28
g5
I710
sg6
I74
sg7
I28
sg8
I0
sg9
I2
sg10
I1
sg11
I710
ssg16
(dp29
g5
I1407
sg6
I79
sg7
I23
sg8
I39
sg9
I2
sg10
I0
sg11
I680
sssS'Danijel.csv'
p30
(dp31
g3
(dp32
g5
I1318
sg6
I43
sg7
I3
sg8
I11
sg9
I2
sg10
I4
sg11
I830
ssg12
(dp33
g5
I692
sg6
I37
sg7
I4
sg8
I5
sg9
I7
sg10
I1
sg11
I460
ssg14
(dp34
g5
I1250
sg6
I33
sg7
I13
sg8
I0
sg9
I2
sg10
I3
sg11
I1250
ssg16
(dp35
g5
I2481
sg6
I37
sg7
I9
sg8
I19
sg9
I2
sg10
I0
sg11
I1230
sss.(dp0
S'K_all3.csv'
p1
(dp2
S'machine'
p3
(dp4
S'count'
p5
I628
sS'truepos'
p6
I32
sS'falseneg'
p7
I5
sS'correction'
p8
I5
sS'unknownyes'
p9
I8
sS'falsepos'
p10
I6
sS'unique'
p11
I420
ssS'knee'
p12
(dp13
g5
I756
sg6
I34
sg7
I4
sg8
I10
sg9
I7
sg10
I0
sg11
I630
ssS'none'
p14
(dp15
g5
I520
sg6
I25
sg7
I14
sg8
I0
sg9
I6
sg10
I1
sg11
I520
ssS'three'
p16
(dp17
g5
I1140
sg6
I28
sg7
I12
sg8
I15
sg9
I5
sg10
I1
sg11
I560
sssS'Wahono.csv'
p18
(dp19
g3
(dp20
g5
I1933
sg6
I52
sg7
I7
sg8
I11
sg9
I3
sg10
I5
sg11
I1230
ssg12
(dp21
g5
I957
sg6
I51
sg7
I6
sg8
I9
sg9
I5
sg10
I1
sg11
I730
ssg14
(dp22
g5
I1550
sg6
I50
sg7
I10
sg8
I0
sg9
I2
sg10
I5
sg11
I1550
ssg16
(dp23
g5
I2829
sg6
I46
sg7
I15
sg8
I26
sg9
I1
sg10
I0
sg11
I1400
sssS'Hall.csv'
p24
(dp25
g3
(dp26
g5
I706
sg6
I89
sg7
I13
sg8
I18
sg9
I2
sg10
I1
sg11
I490
ssg12
(dp27
g5
I592
sg6
I82
sg7
I17
sg8
I18
sg9
I5
sg10
I0
sg11
I380
ssg14
(dp28
g5
I920
sg6
I80
sg7
I23
sg8
I0
sg9
I1
sg10
I3
sg11
I920
ssg16
(dp29
g5
I1109
sg6
I86
sg7
I16
sg8
I44
sg9
I2
sg10
I0
sg11
I530
sssS'Danijel.csv'
p30
(dp31
g3
(dp32
g5
I1535
sg6
I43
sg7
I3
sg8
I11
sg9
I2
sg10
I6
sg11
I930
ssg12
(dp33
g5
I301
sg6
I25
sg7
I2
sg8
I6
sg9
I21
sg10
I1
sg11
I190
ssg14
(dp34
g5
I1320
sg6
I33
sg7
I13
sg8
I0
sg9
I2
sg10
I6
sg11
I1320
ssg16
(dp35
g5
I2265
sg6
I33
sg7
I12
sg8
I21
sg9
I3
sg10
I0
sg11
I1120
sss.(dp0
S'K_all3.csv'
p1
(dp2
S'machine'
p3
(dp4
S'count'
p5
I713
sS'truepos'
p6
I36
sS'falseneg'
p7
I3
sS'correction'
p8
I7
sS'unknownyes'
p9
I6
sS'falsepos'
p10
I7
sS'unique'
p11
I450
ssS'knee'
p12
(dp13
g5
I1213
sg6
I39
sg7
I5
sg8
I8
sg9
I1
sg10
I8
sg11
I810
ssS'none'
p14
(dp15
g5
I560
sg6
I31
sg7
I10
sg8
I0
sg9
I4
sg10
I4
sg11
I560
ssS'three'
p16
(dp17
g5
I1185
sg6
I30
sg7
I12
sg8
I22
sg9
I3
sg10
I0
sg11
I580
sssS'Wahono.csv'
p18
(dp19
g3
(dp20
g5
I2391
sg6
I56
sg7
I5
sg8
I12
sg9
I1
sg10
I12
sg11
I1580
ssg12
(dp21
g5
I847
sg6
I47
sg7
I7
sg8
I13
sg9
I8
sg10
I1
sg11
I510
ssg14
(dp22
g5
I1750
sg6
I39
sg7
I21
sg8
I0
sg9
I2
sg10
I5
sg11
I1750
ssg16
(dp23
g5
I2679
sg6
I45
sg7
I15
sg8
I32
sg9
I2
sg10
I0
sg11
I1320
sssS'Hall.csv'
p24
(dp25
g3
(dp26
g5
I709
sg6
I95
sg7
I7
sg8
I18
sg9
I2
sg10
I1
sg11
I520
ssg12
(dp27
g5
I730
sg6
I82
sg7
I19
sg8
I18
sg9
I3
sg10
I0
sg11
I570
ssg14
(dp28
g5
I1180
sg6
I74
sg7
I29
sg8
I0
sg9
I1
sg10
I3
sg11
I1180
ssg16
(dp29
g5
I1139
sg6
I77
sg7
I25
sg8
I32
sg9
I2
sg10
I0
sg11
I550
sssS'Danijel.csv'
p30
(dp31
g3
(dp32
g5
I1427
sg6
I43
sg7
I3
sg8
I7
sg9
I2
sg10
I3
sg11
I940
ssg12
(dp33
g5
I77
sg6
I3
sg7
I3
sg8
I1
sg9
I42
sg10
I1
sg11
I60
ssg14
(dp34
g5
I1300
sg6
I30
sg7
I16
sg8
I0
sg9
I2
sg10
I3
sg11
I1300
ssg16
(dp35
g5
I2490
sg6
I35
sg7
I11
sg8
I27
sg9
I2
sg10
I0
sg11
I1230
sss.(dp0
S'K_all3.csv'
p1
(dp2
S'machine'
p3
(dp4
S'count'
p5
I773
sS'truepos'
p6
I33
sS'falseneg'
p7
I4
sS'correction'
p8
I6
sS'unknownyes'
p9
I8
sS'falsepos'
p10
I3
sS'unique'
p11
I510
ssS'knee'
p12
(dp13
g5
I809
sg6
I36
sg7
I3
sg8
I9
sg9
I6
sg10
I9
sg11
I470
ssS'none'
p14
(dp15
g5
I630
sg6
I25
sg7
I15
sg8
I0
sg9
I5
sg10
I1
sg11
I630
ssS'three'
p16
(dp17
g5
I1188
sg6
I33
sg7
I9
sg8
I25
sg9
I3
sg10
I0
sg11
I580
sssS'Wahono.csv'
p18
(dp19
g3
(dp20
g5
I1872
sg6
I55
sg7
I4
sg8
I11
sg9
I3
sg10
I5
sg11
I1220
ssg12
(dp21
g5
I1170
sg6
I52
sg7
I6
sg8
I11
sg9
I4
sg10
I1
sg11
I910
ssg14
(dp22
g5
I1690
sg6
I46
sg7
I15
sg8
I0
sg9
I1
sg10
I6
sg11
I1690
ssg16
(dp23
g5
I2696
sg6
I43
sg7
I18
sg8
I31
sg9
I1
sg10
I0
sg11
I1330
sssS'Hall.csv'
p24
(dp25
g3
(dp26
g5
I939
sg6
I92
sg7
I10
sg8
I22
sg9
I2
sg10
I2
sg11
I710
ssg12
(dp27
g5
I590
sg6
I92
sg7
I9
sg8
I15
sg9
I3
sg10
I1
sg11
I400
ssg14
(dp28
g5
I730
sg6
I75
sg7
I27
sg8
I0
sg9
I2
sg10
I0
sg11
I730
ssg16
(dp29
g5
I1544
sg6
I87
sg7
I15
sg8
I40
sg9
I2
sg10
I0
sg11
I750
sssS'Danijel.csv'
p30
(dp31
g3
(dp32
g5
I1359
sg6
I44
sg7
I2
sg8
I10
sg9
I2
sg10
I2
sg11
I860
ssg12
(dp33
g5
I997
sg6
I41
sg7
I4
sg8
I9
sg9
I3
sg10
I0
sg11
I700
ssg14
(dp34
g5
I1230
sg6
I30
sg7
I16
sg8
I0
sg9
I2
sg10
I3
sg11
I1230
ssg16
(dp35
g5
I1604
sg6
I40
sg7
I6
sg8
I21
sg9
I2
sg10
I0
sg11
I790
sss.(dp0
S'K_all3.csv'
p1
(dp2
S'machine'
p3
(dp4
S'count'
p5
I710
sS'truepos'
p6
I34
sS'falseneg'
p7
I3
sS'correction'
p8
I5
sS'unknownyes'
p9
I8
sS'falsepos'
p10
I8
sS'unique'
p11
I440
ssS'knee'
p12
(dp13
g5
I1307
sg6
I37
sg7
I4
sg8
I12
sg9
I4
sg10
I6
sg11
I860
ssS'none'
p14
(dp15
g5
I600
sg6
I30
sg7
I10
sg8
I0
sg9
I5
sg10
I6
sg11
I600
ssS'three'
p16
(dp17
g5
I879
sg6
I30
sg7
I7
sg8
I15
sg9
I8
sg10
I0
sg11
I430
sssS'Wahono.csv'
p18
(dp19
g3
(dp20
g5
I1853
sg6
I58
sg7
I1
sg8
I15
sg9
I3
sg10
I2
sg11
I1190
ssg12
(dp21
g5
I706
sg6
I45
sg7
I6
sg8
I7
sg9
I11
sg10
I3
sg11
I460
ssg14
(dp22
g5
I1760
sg6
I39
sg7
I23
sg8
I0
sg9
I0
sg10
I3
sg11
I1760
ssg16
(dp23
g5
I2508
sg6
I48
sg7
I12
sg8
I25
sg9
I2
sg10
I0
sg11
I1240
sssS'Hall.csv'
p24
(dp25
g3
(dp26
g5
I995
sg6
I93
sg7
I9
sg8
I25
sg9
I2
sg10
I5
sg11
I730
ssg12
(dp27
g5
I684
sg6
I87
sg7
I14
sg8
I28
sg9
I3
sg10
I2
sg11
I440
ssg14
(dp28
g5
I1160
sg6
I79
sg7
I24
sg8
I0
sg9
I1
sg10
I3
sg11
I1160
ssg16
(dp29
g5
I1415
sg6
I82
sg7
I20
sg8
I49
sg9
I2
sg10
I0
sg11
I680
sssS'Danijel.csv'
p30
(dp31
g3
(dp32
g5
I1271
sg6
I42
sg7
I3
sg8
I11
sg9
I3
sg10
I1
sg11
I760
ssg12
(dp33
g5
I37
sg6
I3
sg7
I4
sg8
I0
sg9
I41
sg10
I0
sg11
I30
ssg14
(dp34
g5
I1310
sg6
I33
sg7
I13
sg8
I0
sg9
I2
sg10
I1
sg11
I1310
ssg16
(dp35
g5
I1743
sg6
I39
sg7
I7
sg8
I23
sg9
I2
sg10
I0
sg11
I860
sss.(dp0
S'K_all3.csv'
p1
(dp2
S'machine'
p3
(dp4
S'count'
p5
I738
sS'truepos'
p6
I33
sS'falseneg'
p7
I8
sS'correction'
p8
I9
sS'unknownyes'
p9
I4
sS'falsepos'
p10
I5
sS'unique'
p11
I510
ssS'knee'
p12
(dp13
g5
I1009
sg6
I33
sg7
I9
sg8
I2
sg9
I3
sg10
I8
sg11
I760
ssS'none'
p14
(dp15
g5
I460
sg6
I31
sg7
I8
sg8
I0
sg9
I6
sg10
I2
sg11
I460
ssS'three'
p16
(dp17
g5
I900
sg6
I29
sg7
I7
sg8
I16
sg9
I9
sg10
I0
sg11
I440
sssS'Wahono.csv'
p18
(dp19
g3
(dp20
g5
I2180
sg6
I55
sg7
I6
sg8
I10
sg9
I1
sg10
I2
sg11
I1580
ssg12
(dp21
g5
I455
sg6
I38
sg7
I4
sg8
I9
sg9
I20
sg10
I0
sg11
I300
ssg14
(dp22
g5
I1890
sg6
I45
sg7
I16
sg8
I0
sg9
I1
sg10
I6
sg11
I1890
ssg16
(dp23
g5
I3268
sg6
I45
sg7
I15
sg8
I26
sg9
I2
sg10
I0
sg11
I1620
sssS'Hall.csv'
p24
(dp25
g3
(dp26
g5
I846
sg6
I93
sg7
I9
sg8
I15
sg9
I2
sg10
I2
sg11
I620
ssg12
(dp27
g5
I561
sg6
I97
sg7
I2
sg8
I22
sg9
I5
sg10
I0
sg11
I360
ssg14
(dp28
g5
I1360
sg6
I68
sg7
I35
sg8
I0
sg9
I1
sg10
I2
sg11
I1360
ssg16
(dp29
g5
I1188
sg6
I82
sg7
I20
sg8
I40
sg9
I2
sg10
I0
sg11
I570
sssS'Danijel.csv'
p30
(dp31
g3
(dp32
g5
I1324
sg6
I41
sg7
I5
sg8
I13
sg9
I2
sg10
I2
sg11
I870
ssg12
(dp33
g5
I1031
sg6
I39
sg7
I6
sg8
I9
sg9
I3
sg10
I2
sg11
I760
ssg14
(dp34
g5
I1620
sg6
I29
sg7
I17
sg8
I0
sg9
I2
sg10
I1
sg11
I1620
ssg16
(dp35
g5
I2108
sg6
I36
sg7
I11
sg8
I26
sg9
I1
sg10
I0
sg11
I1040
sss.(dp0
S'K_all3.csv'
p1
(dp2
S'machine'
p3
(dp4
S'count'
p5
I640
sS'truepos'
p6
I32
sS'falseneg'
p7
I5
sS'correction'
p8
I7
sS'unknownyes'
p9
I8
sS'falsepos'
p10
I4
sS'unique'
p11
I440
ssS'knee'
p12
(dp13
g5
I1422
sg6
I41
sg7
I3
sg8
I12
sg9
I1
sg10
I5
sg11
I1070
ssS'none'
p14
(dp15
g5
I580
sg6
I28
sg7
I13
sg8
I0
sg9
I4
sg10
I3
sg11
I580
ssS'three'
p16
(dp17
g5
I1045
sg6
I31
sg7
I10
sg8
I22
sg9
I4
sg10
I0
sg11
I510
sssS'Wahono.csv'
p18
(dp19
g3
(dp20
g5
I2574
sg6
I49
sg7
I12
sg8
I11
sg9
I1
sg10
I6
sg11
I1750
ssg12
(dp21
g5
I198
sg6
I18
sg7
I7
sg8
I4
sg9
I37
sg10
I0
sg11
I140
ssg14
(dp22
g5
I1870
sg6
I38
sg7
I23
sg8
I0
sg9
I1
sg10
I2
sg11
I1870
ssg16
(dp23
g5
I3174
sg6
I54
sg7
I7
sg8
I30
sg9
I1
sg10
I0
sg11
I1570
sssS'Hall.csv'
p24
(dp25
g3
(dp26
g5
I763
sg6
I93
sg7
I9
sg8
I20
sg9
I2
sg10
I2
sg11
I520
ssg12
(dp27
g5
I497
sg6
I78
sg7
I19
sg8
I17
sg9
I7
sg10
I0
sg11
I370
ssg14
(dp28
g5
I1360
sg6
I62
sg7
I41
sg8
I0
sg9
I1
sg10
I7
sg11
I1360
ssg16
(dp29
g5
I2370
sg6
I77
sg7
I26
sg8
I40
sg9
I1
sg10
I0
sg11
I1160
sssS'Danijel.csv'
p30
(dp31
g3
(dp32
g5
I1012
sg6
I41
sg7
I4
sg8
I9
sg9
I3
sg10
I3
sg11
I620
ssg12
(dp33
g5
I601
sg6
I39
sg7
I5
sg8
I4
sg9
I4
sg10
I0
sg11
I460
ssg14
(dp34
g5
I1430
sg6
I23
sg7
I23
sg8
I0
sg9
I2
sg10
I4
sg11
I1430
ssg16
(dp35
g5
I2129
sg6
I38
sg7
I8
sg8
I27
sg9
I2
sg10
I0
sg11
I1050
sss.(dp0
S'K_all3.csv'
p1
(dp2
S'machine'
p3
(dp4
S'count'
p5
I640
sS'truepos'
p6
I29
sS'falseneg'
p7
I5
sS'correction'
p8
I3
sS'unknownyes'
p9
I11
sS'falsepos'
p10
I7
sS'unique'
p11
I420
ssS'knee'
p12
(dp13
g5
I1073
sg6
I37
sg7
I4
sg8
I9
sg9
I4
sg10
I7
sg11
I730
ssS'none'
p14
(dp15
g5
I520
sg6
I30
sg7
I10
sg8
I0
sg9
I5
sg10
I0
sg11
I520
ssS'three'
p16
(dp17
g5
I1107
sg6
I33
sg7
I8
sg8
I25
sg9
I4
sg10
I0
sg11
I540
sssS'Wahono.csv'
p18
(dp19
g3
(dp20
g5
I2042
sg6
I54
sg7
I5
sg8
I8
sg9
I3
sg10
I1
sg11
I1430
ssg12
(dp21
g5
I88
sg6
I13
sg7
I5
sg8
I1
sg9
I44
sg10
I0
sg11
I60
ssg14
(dp22
g5
I1860
sg6
I50
sg7
I11
sg8
I0
sg9
I1
sg10
I6
sg11
I1860
ssg16
(dp23
g5
I3235
sg6
I47
sg7
I12
sg8
I31
sg9
I3
sg10
I0
sg11
I1600
sssS'Hall.csv'
p24
(dp25
g3
(dp26
g5
I873
sg6
I84
sg7
I19
sg8
I16
sg9
I1
sg10
I5
sg11
I620
ssg12
(dp27
g5
I549
sg6
I91
sg7
I10
sg8
I18
sg9
I3
sg10
I0
sg11
I380
ssg14
(dp28
g5
I1230
sg6
I69
sg7
I34
sg8
I0
sg9
I1
sg10
I5
sg11
I1230
ssg16
(dp29
g5
I2352
sg6
I71
sg7
I31
sg8
I41
sg9
I2
sg10
I0
sg11
I1150
sssS'Danijel.csv'
p30
(dp31
g3
(dp32
g5
I1271
sg6
I40
sg7
I5
sg8
I8
sg9
I3
sg10
I2
sg11
I790
ssg12
(dp33
g5
I850
sg6
I37
sg7
I8
sg8
I7
sg9
I3
sg10
I0
sg11
I620
ssg14
(dp34
g5
I1990
sg6
I29
sg7
I18
sg8
I0
sg9
I1
sg10
I4
sg11
I1990
ssg16
(dp35
g5
I1965
sg6
I37
sg7
I9
sg8
I19
sg9
I2
sg10
I0
sg11
I970
sss.(dp0
S'K_all3.csv'
p1
(dp2
S'machine'
p3
(dp4
S'count'
p5
I682
sS'truepos'
p6
I32
sS'falseneg'
p7
I7
sS'correction'
p8
I6
sS'unknownyes'
p9
I6
sS'falsepos'
p10
I7
sS'unique'
p11
I450
ssS'knee'
p12
(dp13
g5
I1304
sg6
I34
sg7
I11
sg8
I15
sg9
I0
sg10
I1
sg11
I1140
ssS'none'
p14
(dp15
g5
I580
sg6
I28
sg7
I13
sg8
I0
sg9
I4
sg10
I2
sg11
I580
ssS'three'
p16
(dp17
g5
I1027
sg6
I34
sg7
I8
sg8
I24
sg9
I3
sg10
I0
sg11
I500
sssS'Wahono.csv'
p18
(dp19
g3
(dp20
g5
I2834
sg6
I54
sg7
I6
sg8
I14
sg9
I2
sg10
I9
sg11
I1750
ssg12
(dp21
g5
I1060
sg6
I44
sg7
I11
sg8
I10
sg9
I7
sg10
I1
sg11
I780
ssg14
(dp22
g5
I1550
sg6
I42
sg7
I19
sg8
I0
sg9
I1
sg10
I2
sg11
I1550
ssg16
(dp23
g5
I2684
sg6
I48
sg7
I11
sg8
I21
sg9
I3
sg10
I0
sg11
I1330
sssS'Hall.csv'
p24
(dp25
g3
(dp26
g5
I718
sg6
I88
sg7
I14
sg8
I21
sg9
I2
sg10
I0
sg11
I520
ssg12
(dp27
g5
I726
sg6
I93
sg7
I8
sg8
I25
sg9
I3
sg10
I0
sg11
I500
ssg14
(dp28
g5
I1480
sg6
I67
sg7
I35
sg8
I0
sg9
I2
sg10
I6
sg11
I1480
ssg16
(dp29
g5
I1484
sg6
I86
sg7
I16
sg8
I38
sg9
I2
sg10
I0
sg11
I720
sssS'Danijel.csv'
p30
(dp31
g3
(dp32
g5
I1272
sg6
I41
sg7
I5
sg8
I7
sg9
I2
sg10
I2
sg11
I760
ssg12
(dp33
g5
I533
sg6
I40
sg7
I3
sg8
I6
sg9
I5
sg10
I1
sg11
I370
ssg14
(dp34
g5
I1100
sg6
I34
sg7
I12
sg8
I0
sg9
I2
sg10
I3
sg11
I1100
ssg16
(dp35
g5
I1800
sg6
I38
sg7
I8
sg8
I18
sg9
I2
sg10
I0
sg11
I890
sss.(dp0
S'K_all3.csv'
p1
(dp2
S'machine'
p3
(dp4
S'count'
p5
I741
sS'truepos'
p6
I24
sS'falseneg'
p7
I15
sS'correction'
p8
I5
sS'unknownyes'
p9
I6
sS'falsepos'
p10
I1
sS'unique'
p11
I690
ssS'knee'
p12
(dp13
g5
I1863
sg6
I37
sg7
I8
sg8
I14
sg9
I0
sg10
I4
sg11
I1480
ssS'none'
p14
(dp15
g5
I600
sg6
I28
sg7
I14
sg8
I0
sg9
I3
sg10
I4
sg11
I600
ssS'three'
p16
(dp17
g5
I1064
sg6
I29
sg7
I11
sg8
I22
sg9
I5
sg10
I0
sg11
I520
sssS'Wahono.csv'
p18
(dp19
g3
(dp20
g5
I1812
sg6
I53
sg7
I6
sg8
I8
sg9
I3
sg10
I5
sg11
I1250
ssg12
(dp21
g5
I70
sg6
I13
sg7
I1
sg8
I3
sg9
I48
sg10
I0
sg11
I50
ssg14
(dp22
g5
I1820
sg6
I48
sg7
I13
sg8
I0
sg9
I1
sg10
I3
sg11
I1820
ssg16
(dp23
g5
I2866
sg6
I46
sg7
I13
sg8
I21
sg9
I3
sg10
I0
sg11
I1420
sssS'Hall.csv'
p24
(dp25
g3
(dp26
g5
I1216
sg6
I96
sg7
I7
sg8
I25
sg9
I1
sg10
I6
sg11
I930
ssg12
(dp27
g5
I692
sg6
I96
sg7
I5
sg8
I26
sg9
I3
sg10
I0
sg11
I540
ssg14
(dp28
g5
I630
sg6
I76
sg7
I26
sg8
I0
sg9
I2
sg10
I1
sg11
I630
ssg16
(dp29
g5
I1188
sg6
I79
sg7
I23
sg8
I40
sg9
I2
sg10
I0
sg11
I570
sssS'Danijel.csv'
p30
(dp31
g3
(dp32
g5
I1302
sg6
I42
sg7
I4
sg8
I10
sg9
I2
sg10
I2
sg11
I780
ssg12
(dp33
g5
I985
sg6
I39
sg7
I7
sg8
I13
sg9
I2
sg10
I2
sg11
I730
ssg14
(dp34
g5
I850
sg6
I36
sg7
I10
sg8
I0
sg9
I2
sg10
I2
sg11
I850
ssg16
(dp35
g5
I2206
sg6
I35
sg7
I11
sg8
I23
sg9
I2
sg10
I0
sg11
I1090
sss.(dp0
S'K_all3.csv'
p1
(dp2
S'machine'
p3
(dp4
S'count'
p5
I654
sS'truepos'
p6
I34
sS'falseneg'
p7
I4
sS'correction'
p8
I5
sS'unknownyes'
p9
I7
sS'falsepos'
p10
I4
sS'unique'
p11
I430
ssS'knee'
p12
(dp13
g5
I1366
sg6
I42
sg7
I2
sg8
I12
sg9
I1
sg10
I7
sg11
I970
ssS'none'
p14
(dp15
g5
I570
sg6
I31
sg7
I10
sg8
I0
sg9
I4
sg10
I7
sg11
I570
ssS'three'
p16
(dp17
g5
I1006
sg6
I32
sg7
I8
sg8
I23
sg9
I5
sg10
I0
sg11
I490
sssS'Wahono.csv'
p18
(dp19
g3
(dp20
g5
I2018
sg6
I56
sg7
I5
sg8
I11
sg9
I1
sg10
I4
sg11
I1350
ssg12
(dp21
g5
I728
sg6
I45
sg7
I5
sg8
I5
sg9
I12
sg10
I0
sg11
I500
ssg14
(dp22
g5
I1860
sg6
I37
sg7
I23
sg8
I0
sg9
I2
sg10
I2
sg11
I1860
ssg16
(dp23
g5
I2630
sg6
I49
sg7
I10
sg8
I28
sg9
I3
sg10
I0
sg11
I1300
sssS'Hall.csv'
p24
(dp25
g3
(dp26
g5
I689
sg6
I94
sg7
I8
sg8
I22
sg9
I2
sg10
I3
sg11
I480
ssg12
(dp27
g5
I797
sg6
I88
sg7
I14
sg8
I22
sg9
I2
sg10
I2
sg11
I600
ssg14
(dp28
g5
I880
sg6
I74
sg7
I28
sg8
I0
sg9
I2
sg10
I3
sg11
I880
ssg16
(dp29
g5
I1490
sg6
I82
sg7
I20
sg8
I27
sg9
I2
sg10
I0
sg11
I730
sssS'Danijel.csv'
p30
(dp31
g3
(dp32
g5
I1321
sg6
I41
sg7
I5
sg8
I10
sg9
I2
sg10
I4
sg11
I830
ssg12
(dp33
g5
I919
sg6
I37
sg7
I8
sg8
I10
sg9
I3
sg10
I0
sg11
I730
ssg14
(dp34
g5
I1190
sg6
I30
sg7
I16
sg8
I0
sg9
I2
sg10
I1
sg11
I1190
ssg16
(dp35
g5
I2345
sg6
I33
sg7
I13
sg8
I20
sg9
I2
sg10
I0
sg11
I1160
sss.