(dp0
S'K_all3.csv'
p1
(dp2
S'machine'
p3
(dp4
S'count'
p5
I821
sS'truepos'
p6
I33
sS'falseneg'
p7
I3
sS'correction'
p8
I6
sS'unknownyes'
p9
I9
sS'falsepos'
p10
I3
sS'unique'
p11
I520
ssS'knee'
p12
(dp13
g5
I231
sg6
I12
sg7
I4
sg8
I5
sg9
I29
sg10
I2
sg11
I150
ssS'none'
p14
(dp15
g5
I600
sg6
I26
sg7
I14
sg8
I0
sg9
I5
sg10
I2
sg11
I600
ssS'three'
p16
(dp17
g5
I1200
sg6
I35
sg7
I4
sg8
I20
sg9
I6
sg10
I0
sg11
I590
sssS'Wahono.csv'
p18
(dp19
g3
(dp20
g5
I1746
sg6
I54
sg7
I5
sg8
I17
sg9
I3
sg10
I3
sg11
I1230
ssg12
(dp21
g5
I540
sg6
I30
sg7
I14
sg8
I6
sg9
I18
sg10
I0
sg11
I390
ssg14
(dp22
g5
I1410
sg6
I44
sg7
I16
sg8
I0
sg9
I2
sg10
I3
sg11
I1410
ssg16
(dp23
g5
I2608
sg6
I52
sg7
I7
sg8
I26
sg9
I3
sg10
I0
sg11
I1290
sssS'Hall.csv'
p24
(dp25
g3
(dp26
g5
I616
sg6
I94
sg7
I8
sg8
I21
sg9
I4
sg10
I1
sg11
I450
ssg12
(dp27
g5
I709
sg6
I92
sg7
I10
sg8
I23
sg9
I4
sg10
I2
sg11
I490
ssg14
(dp28
g5
I630
sg6
I75
sg7
I27
sg8
I0
sg9
I4
sg10
I1
sg11
I630
ssg16
(dp29
g5
I1490
sg6
I84
sg7
I18
sg8
I46
sg9
I4
sg10
I0
sg11
I720
sssS'Danijel.csv'
p30
(dp31
g3
(dp32
g5
I1600
sg6
I38
sg7
I8
sg8
I10
sg9
I2
sg10
I4
sg11
I1040
ssg12
(dp33
g5
I752
sg6
I39
sg7
I4
sg8
I7
sg9
I5
sg10
I1
sg11
I500
ssg14
(dp34
g5
I1350
sg6
I26
sg7
I20
sg8
I0
sg9
I2
sg10
I4
sg11
I1350
ssg16
(dp35
g5
I1539
sg6
I41
sg7
I5
sg8
I18
sg9
I2
sg10
I0
sg11
I760
sss.(dp0
S'K_all3.csv'
p1
(dp2
S'machine'
p3
(dp4
S'count'
p5
I630
sS'truepos'
p6
I32
sS'falseneg'
p7
I8
sS'correction'
p8
I4
sS'unknownyes'
p9
I5
sS'falsepos'
p10
I6
sS'unique'
p11
I420
ssS'knee'
p12
(dp13
g5
I113
sg6
I9
sg7
I3
sg8
I4
sg9
I33
sg10
I2
sg11
I80
ssS'none'
p14
(dp15
g5
I550
sg6
I29
sg7
I10
sg8
I0
sg9
I6
sg10
I4
sg11
I550
ssS'three'
p16
(dp17
g5
I1128
sg6
I33
sg7
I6
sg8
I25
sg9
I6
sg10
I0
sg11
I550
sssS'Wahono.csv'
p18
(dp19
g3
(dp20
g5
I1683
sg6
I53
sg7
I7
sg8
I10
sg9
I2
sg10
I1
sg11
I1170
ssg12
(dp21
g5
I71
sg6
I11
sg7
I3
sg8
I2
sg9
I48
sg10
I0
sg11
I50
ssg14
(dp22
g5
I1690
sg6
I43
sg7
I19
sg8
I0
sg9
I0
sg10
I0
sg11
I1690
ssg16
(dp23
g5
I2825
sg6
I50
sg7
I9
sg8
I23
sg9
I3
sg10
I0
sg11
I1400
sssS'Hall.csv'
p24
(dp25
g3
(dp26
g5
I680
sg6
I95
sg7
I7
sg8
I16
sg9
I4
sg10
I0
sg11
I490
ssg12
(dp27
g5
I540
sg6
I90
sg7
I9
sg8
I19
sg9
I7
sg10
I0
sg11
I380
ssg14
(dp28
g5
I780
sg6
I72
sg7
I30
sg8
I0
sg9
I4
sg10
I2
sg11
I780
ssg16
(dp29
g5
I1243
sg6
I82
sg7
I20
sg8
I36
sg9
I4
sg10
I0
sg11
I600
sssS'Danijel.csv'
p30
(dp31
g3
(dp32
g5
I1655
sg6
I41
sg7
I5
sg8
I5
sg9
I2
sg10
I4
sg11
I1020
ssg12
(dp33
g5
I857
sg6
I38
sg7
I5
sg8
I8
sg9
I5
sg10
I3
sg11
I600
ssg14
(dp34
g5
I830
sg6
I39
sg7
I6
sg8
I0
sg9
I3
sg10
I1
sg11
I830
ssg16
(dp35
g5
I1722
sg6
I40
sg7
I6
sg8
I19
sg9
I2
sg10
I0
sg11
I850
sss.(dp0
S'K_all3.csv'
p1
(dp2
S'machine'
p3
(dp4
S'count'
p5
I724
sS'truepos'
p6
I35
sS'falseneg'
p7
I6
sS'correction'
p8
I10
sS'unknownyes'
p9
I4
sS'falsepos'
p10
I6
sS'unique'
p11
I520
ssS'knee'
p12
(dp13
g5
I1304
sg6
I38
sg7
I5
sg8
I15
sg9
I2
sg10
I8
sg11
I910
ssS'none'
p14
(dp15
g5
I500
sg6
I29
sg7
I9
sg8
I0
sg9
I7
sg10
I3
sg11
I500
ssS'three'
p16
(dp17
g5
I1045
sg6
I35
sg7
I4
sg8
I24
sg9
I6
sg10
I0
sg11
I510
sssS'Wahono.csv'
p18
(dp19
g3
(dp20
g5
I1817
sg6
I52
sg7
I8
sg8
I12
sg9
I2
sg10
I3
sg11
I1170
ssg12
(dp21
g5
I137
sg6
I17
sg7
I1
sg8
I4
sg9
I44
sg10
I0
sg11
I90
ssg14
(dp22
g5
I1330
sg6
I43
sg7
I16
sg8
I0
sg9
I3
sg10
I2
sg11
I1330
ssg16
(dp23
g5
I2680
sg6
I49
sg7
I11
sg8
I32
sg9
I2
sg10
I0
sg11
I1320
sssS'Hall.csv'
p24
(dp25
g3
(dp26
g5
I601
sg6
I90
sg7
I11
sg8
I17
sg9
I5
sg10
I1
sg11
I410
ssg12
(dp27
g5
I761
sg6
I80
sg7
I22
sg8
I20
sg9
I4
sg10
I1
sg11
I590
ssg14
(dp28
g5
I880
sg6
I75
sg7
I27
sg8
I0
sg9
I4
sg10
I1
sg11
I880
ssg16
(dp29
g5
I1242
sg6
I80
sg7
I22
sg8
I34
sg9
I4
sg10
I0
sg11
I600
sssS'Danijel.csv'
p30
(dp31
g3
(dp32
g5
I1359
sg6
I44
sg7
I2
sg8
I10
sg9
I2
sg10
I2
sg11
I850
ssg12
(dp33
g5
I825
sg6
I38
sg7
I7
sg8
I8
sg9
I3
sg10
I1
sg11
I660
ssg14
(dp34
g5
I1340
sg6
I35
sg7
I11
sg8
I0
sg9
I2
sg10
I2
sg11
I1340
ssg16
(dp35
g5
I2706
sg6
I37
sg7
I9
sg8
I19
sg9
I2
sg10
I0
sg11
I1340
sss.(dp0
S'K_all3.csv'
p1
(dp2
S'machine'
p3
(dp4
S'count'
p5
I781
sS'truepos'
p6
I32
sS'falseneg'
p7
I4
sS'correction'
p8
I8
sS'unknownyes'
p9
I9
sS'falsepos'
p10
I6
sS'unique'
p11
I530
ssS'knee'
p12
(dp13
g5
I1634
sg6
I36
sg7
I8
sg8
I8
sg9
I1
sg10
I7
sg11
I1160
ssS'none'
p14
(dp15
g5
I650
sg6
I23
sg7
I17
sg8
I0
sg9
I5
sg10
I4
sg11
I650
ssS'three'
p16
(dp17
g5
I1187
sg6
I27
sg7
I13
sg8
I20
sg9
I5
sg10
I0
sg11
I580
sssS'Wahono.csv'
p18
(dp19
g3
(dp20
g5
I2067
sg6
I56
sg7
I2
sg8
I13
sg9
I4
sg10
I5
sg11
I1320
ssg12
(dp21
g5
I591
sg6
I42
sg7
I6
sg8
I10
sg9
I14
sg10
I0
sg11
I410
ssg14
(dp22
g5
I1410
sg6
I48
sg7
I12
sg8
I0
sg9
I2
sg10
I3
sg11
I1410
ssg16
(dp23
g5
I2920
sg6
I52
sg7
I8
sg8
I37
sg9
I2
sg10
I0
sg11
I1440
sssS'Hall.csv'
p24
(dp25
g3
(dp26
g5
I863
sg6
I90
sg7
I12
sg8
I19
sg9
I4
sg10
I3
sg11
I640
ssg12
(dp27
g5
I560
sg6
I88
sg7
I11
sg8
I19
sg9
I7
sg10
I2
sg11
I400
ssg14
(dp28
g5
I830
sg6
I70
sg7
I32
sg8
I0
sg9
I4
sg10
I1
sg11
I830
ssg16
(dp29
g5
I1303
sg6
I81
sg7
I21
sg8
I37
sg9
I4
sg10
I0
sg11
I630
sssS'Danijel.csv'
p30
(dp31
g3
(dp32
g5
I1437
sg6
I39
sg7
I6
sg8
I12
sg9
I3
sg10
I5
sg11
I940
ssg12
(dp33
g5
I802
sg6
I35
sg7
I10
sg8
I8
sg9
I3
sg10
I0
sg11
I590
ssg14
(dp34
g5
I770
sg6
I37
sg7
I9
sg8
I0
sg9
I2
sg10
I1
sg11
I770
ssg16
(dp35
g5
I1787
sg6
I33
sg7
I13
sg8
I22
sg9
I2
sg10
I0
sg11
I880
sss.(dp0
S'K_all3.csv'
p1
(dp2
S'machine'
p3
(dp4
S'count'
p5
I749
sS'truepos'
p6
I33
sS'falseneg'
p7
I4
sS'correction'
p8
I9
sS'unknownyes'
p9
I8
sS'falsepos'
p10
I4
sS'unique'
p11
I520
ssS'knee'
p12
(dp13
g5
I321
sg6
I15
sg7
I9
sg8
I3
sg9
I21
sg10
I2
sg11
I240
ssS'none'
p14
(dp15
g5
I530
sg6
I31
sg7
I8
sg8
I0
sg9
I6
sg10
I8
sg11
I530
ssS'three'
p16
(dp17
g5
I1044
sg6
I28
sg7
I8
sg8
I21
sg9
I9
sg10
I0
sg11
I510
sssS'Wahono.csv'
p18
(dp19
g3
(dp20
g5
I1864
sg6
I53
sg7
I7
sg8
I16
sg9
I2
sg10
I4
sg11
I1220
ssg12
(dp21
g5
I1946
sg6
I46
sg7
I13
sg8
I12
sg9
I3
sg10
I8
sg11
I1380
ssg14
(dp22
g5
I1630
sg6
I46
sg7
I16
sg8
I0
sg9
I0
sg10
I2
sg11
I1630
ssg16
(dp23
g5
I2506
sg6
I46
sg7
I13
sg8
I24
sg9
I3
sg10
I0
sg11
I1240
sssS'Hall.csv'
p24
(dp25
g3
(dp26
g5
I742
sg6
I95
sg7
I7
sg8
I18
sg9
I4
sg10
I4
sg11
I510
ssg12
(dp27
g5
I638
sg6
I83
sg7
I19
sg8
I14
sg9
I4
sg10
I0
sg11
I500
ssg14
(dp28
g5
I670
sg6
I77
sg7
I25
sg8
I0
sg9
I4
sg10
I1
sg11
I670
ssg16
(dp29
g5
I1525
sg6
I89
sg7
I13
sg8
I39
sg9
I4
sg10
I0
sg11
I740
sssS'Danijel.csv'
p30
(dp31
g3
(dp32
g5
I1114
sg6
I39
sg7
I7
sg8
I13
sg9
I2
sg10
I1
sg11
I720
ssg12
(dp33
g5
I488
sg6
I34
sg7
I8
sg8
I6
sg9
I6
sg10
I0
sg11
I340
ssg14
(dp34
g5
I1180
sg6
I34
sg7
I13
sg8
I0
sg9
I1
sg10
I1
sg11
I1180
ssg16
(dp35
g5
I1745
sg6
I38
sg7
I8
sg8
I23
sg9
I2
sg10
I0
sg11
I860
sss.(dp0
S'K_all3.csv'
p1
(dp2
S'machine'
p3
(dp4
S'count'
p5
I726
sS'truepos'
p6
I30
sS'falseneg'
p7
I8
sS'correction'
p8
I8
sS'unknownyes'
p9
I7
sS'falsepos'
p10
I8
sS'unique'
p11
I520
ssS'knee'
p12
(dp13
g5
I74
sg6
I9
sg7
I3
sg8
I1
sg9
I33
sg10
I0
sg11
I60
ssS'none'
p14
(dp15
g5
I490
sg6
I29
sg7
I10
sg8
I0
sg9
I6
sg10
I4
sg11
I490
ssS'three'
p16
(dp17
g5
I1223
sg6
I24
sg7
I13
sg8
I19
sg9
I8
sg10
I0
sg11
I600
sssS'Wahono.csv'
p18
(dp19
g3
(dp20
g5
I2182
sg6
I55
sg7
I5
sg8
I16
sg9
I2
sg10
I9
sg11
I1450
ssg12
(dp21
g5
I770
sg6
I38
sg7
I11
sg8
I8
sg9
I13
sg10
I3
sg11
I590
ssg14
(dp22
g5
I1670
sg6
I36
sg7
I25
sg8
I0
sg9
I1
sg10
I5
sg11
I1670
ssg16
(dp23
g5
I2926
sg6
I51
sg7
I8
sg8
I22
sg9
I3
sg10
I0
sg11
I1450
sssS'Hall.csv'
p24
(dp25
g3
(dp26
g5
I765
sg6
I92
sg7
I10
sg8
I20
sg9
I4
sg10
I1
sg11
I530
ssg12
(dp27
g5
I606
sg6
I91
sg7
I11
sg8
I20
sg9
I4
sg10
I2
sg11
I420
ssg14
(dp28
g5
I530
sg6
I80
sg7
I22
sg8
I0
sg9
I4
sg10
I4
sg11
I530
ssg16
(dp29
g5
I1225
sg6
I85
sg7
I17
sg8
I41
sg9
I4
sg10
I0
sg11
I590
sssS'Danijel.csv'
p30
(dp31
g3
(dp32
g5
I1324
sg6
I43
sg7
I3
sg8
I9
sg9
I2
sg10
I2
sg11
I800
ssg12
(dp33
g5
I1144
sg6
I43
sg7
I3
sg8
I11
sg9
I2
sg10
I3
sg11
I780
ssg14
(dp34
g5
I1640
sg6
I35
sg7
I13
sg8
I0
sg9
I0
sg10
I3
sg11
I1640
ssg16
(dp35
g5
I2102
sg6
I37
sg7
I9
sg8
I21
sg9
I2
sg10
I0
sg11
I1040
sss.(dp0
S'K_all3.csv'
p1
(dp2
S'machine'
p3
(dp4
S'count'
p5
I656
sS'truepos'
p6
I32
sS'falseneg'
p7
I8
sS'correction'
p8
I11
sS'unknownyes'
p9
I5
sS'falsepos'
p10
I1
sS'unique'
p11
I500
ssS'knee'
p12
(dp13
g5
I198
sg6
I15
sg7
I3
sg8
I4
sg9
I27
sg10
I2
sg11
I140
ssS'none'
p14
(dp15
g5
I600
sg6
I27
sg7
I9
sg8
I0
sg9
I9
sg10
I5
sg11
I600
ssS'three'
p16
(dp17
g5
I1268
sg6
I26
sg7
I11
sg8
I24
sg9
I8
sg10
I1
sg11
I620
sssS'Wahono.csv'
p18
(dp19
g3
(dp20
g5
I1664
sg6
I51
sg7
I8
sg8
I11
sg9
I3
sg10
I6
sg11
I1090
ssg12
(dp21
g5
I1067
sg6
I52
sg7
I6
sg8
I13
sg9
I4
sg10
I1
sg11
I710
ssg14
(dp22
g5
I1860
sg6
I40
sg7
I21
sg8
I0
sg9
I1
sg10
I4
sg11
I1860
ssg16
(dp23
g5
I3306
sg6
I52
sg7
I9
sg8
I24
sg9
I1
sg10
I0
sg11
I1640
sssS'Hall.csv'
p24
(dp25
g3
(dp26
g5
I668
sg6
I94
sg7
I8
sg8
I28
sg9
I4
sg10
I1
sg11
I470
ssg12
(dp27
g5
I635
sg6
I94
sg7
I7
sg8
I20
sg9
I5
sg10
I2
sg11
I440
ssg14
(dp28
g5
I890
sg6
I71
sg7
I31
sg8
I0
sg9
I4
sg10
I1
sg11
I890
ssg16
(dp29
g5
I1605
sg6
I79
sg7
I23
sg8
I36
sg9
I4
sg10
I0
sg11
I780
sssS'Danijel.csv'
p30
(dp31
g3
(dp32
g5
I1306
sg6
I41
sg7
I4
sg8
I9
sg9
I3
sg10
I2
sg11
I840
ssg12
(dp33
g5
I713
sg6
I36
sg7
I6
sg8
I6
sg9
I6
sg10
I0
sg11
I470
ssg14
(dp34
g5
I1430
sg6
I28
sg7
I18
sg8
I0
sg9
I2
sg10
I5
sg11
I1430
ssg16
(dp35
g5
I1924
sg6
I38
sg7
I8
sg8
I19
sg9
I2
sg10
I0
sg11
I950
sss.(dp0
S'K_all3.csv'
p1
(dp2
S'machine'
p3
(dp4
S'count'
p5
I519
sS'truepos'
p6
I29
sS'falseneg'
p7
I5
sS'correction'
p8
I4
sS'unknownyes'
p9
I11
sS'falsepos'
p10
I3
sS'unique'
p11
I370
ssS'knee'
p12
(dp13
g5
I682
sg6
I30
sg7
I7
sg8
I8
sg9
I8
sg10
I5
sg11
I480
ssS'none'
p14
(dp15
g5
I500
sg6
I29
sg7
I8
sg8
I0
sg9
I8
sg10
I6
sg11
I500
ssS'three'
p16
(dp17
g5
I1225
sg6
I33
sg7
I9
sg8
I24
sg9
I3
sg10
I0
sg11
I600
sssS'Wahono.csv'
p18
(dp19
g3
(dp20
g5
I2211
sg6
I55
sg7
I5
sg8
I13
sg9
I2
sg10
I1
sg11
I1530
ssg12
(dp21
g5
I1350
sg6
I50
sg7
I8
sg8
I6
sg9
I4
sg10
I2
sg11
I860
ssg14
(dp22
g5
I1370
sg6
I42
sg7
I17
sg8
I0
sg9
I3
sg10
I4
sg11
I1370
ssg16
(dp23
g5
I2657
sg6
I48
sg7
I11
sg8
I34
sg9
I3
sg10
I0
sg11
I1310
sssS'Hall.csv'
p24
(dp25
g3
(dp26
g5
I723
sg6
I91
sg7
I10
sg8
I23
sg9
I5
sg10
I5
sg11
I530
ssg12
(dp27
g5
I686
sg6
I83
sg7
I17
sg8
I23
sg9
I6
sg10
I2
sg11
I480
ssg14
(dp28
g5
I1330
sg6
I78
sg7
I25
sg8
I0
sg9
I3
sg10
I7
sg11
I1330
ssg16
(dp29
g5
I1132
sg6
I85
sg7
I17
sg8
I44
sg9
I4
sg10
I0
sg11
I540
sssS'Danijel.csv'
p30
(dp31
g3
(dp32
g5
I1320
sg6
I38
sg7
I7
sg8
I8
sg9
I3
sg10
I4
sg11
I820
ssg12
(dp33
g5
I37
sg6
I3
sg7
I1
sg8
I0
sg9
I44
sg10
I0
sg11
I30
ssg14
(dp34
g5
I1260
sg6
I35
sg7
I12
sg8
I0
sg9
I1
sg10
I2
sg11
I1260
ssg16
(dp35
g5
I2209
sg6
I35
sg7
I11
sg8
I26
sg9
I2
sg10
I0
sg11
I1090
sss.(dp0
S'K_all3.csv'
p1
(dp2
S'machine'
p3
(dp4
S'count'
p5
I779
sS'truepos'
p6
I27
sS'falseneg'
p7
I8
sS'correction'
p8
I6
sS'unknownyes'
p9
I10
sS'falsepos'
p10
I9
sS'unique'
p11
I520
ssS'knee'
p12
(dp13
g5
I37
sg6
I5
sg7
I0
sg8
I2
sg9
I40
sg10
I0
sg11
I30
ssS'none'
p14
(dp15
g5
I520
sg6
I27
sg7
I10
sg8
I0
sg9
I8
sg10
I4
sg11
I520
ssS'three'
p16
(dp17
g5
I1147
sg6
I35
sg7
I6
sg8
I25
sg9
I4
sg10
I0
sg11
I560
sssS'Wahono.csv'
p18
(dp19
g3
(dp20
g5
I1875
sg6
I51
sg7
I10
sg8
I12
sg9
I1
sg10
I6
sg11
I1130
ssg12
(dp21
g5
I1116
sg6
I46
sg7
I9
sg8
I6
sg9
I7
sg10
I2
sg11
I800
ssg14
(dp22
g5
I1340
sg6
I49
sg7
I10
sg8
I0
sg9
I3
sg10
I1
sg11
I1340
ssg16
(dp23
g5
I2718
sg6
I45
sg7
I15
sg8
I31
sg9
I2
sg10
I1
sg11
I1340
sssS'Hall.csv'
p24
(dp25
g3
(dp26
g5
I680
sg6
I95
sg7
I7
sg8
I17
sg9
I4
sg10
I3
sg11
I470
ssg12
(dp27
g5
I637
sg6
I87
sg7
I15
sg8
I20
sg9
I4
sg10
I2
sg11
I460
ssg14
(dp28
g5
I1830
sg6
I63
sg7
I40
sg8
I0
sg9
I3
sg10
I8
sg11
I1830
ssg16
(dp29
g5
I1534
sg6
I80
sg7
I22
sg8
I46
sg9
I4
sg10
I0
sg11
I740
sssS'Danijel.csv'
p30
(dp31
g3
(dp32
g5
I1472
sg6
I41
sg7
I5
sg8
I4
sg9
I2
sg10
I3
sg11
I900
ssg12
(dp33
g5
I36
sg6
I4
sg7
I1
sg8
I0
sg9
I43
sg10
I0
sg11
I30
ssg14
(dp34
g5
I950
sg6
I33
sg7
I13
sg8
I0
sg9
I2
sg10
I5
sg11
I950
ssg16
(dp35
g5
I1767
sg6
I38
sg7
I8
sg8
I25
sg9
I2
sg10
I0
sg11
I870
sss.(dp0
S'K_all3.csv'
p1
(dp2
S'machine'
p3
(dp4
S'count'
p5
I880
sS'truepos'
p6
I35
sS'falseneg'
p7
I4
sS'correction'
p8
I11
sS'unknownyes'
p9
I6
sS'falsepos'
p10
I15
sS'unique'
p11
I580
ssS'knee'
p12
(dp13
g5
I552
sg6
I28
sg7
I7
sg8
I10
sg9
I10
sg10
I2
sg11
I460
ssS'none'
p14
(dp15
g5
I510
sg6
I29
sg7
I11
sg8
I0
sg9
I5
sg10
I0
sg11
I510
ssS'three'
p16
(dp17
g5
I986
sg6
I29
sg7
I8
sg8
I25
sg9
I8
sg10
I0
sg11
I480
sssS'Wahono.csv'
p18
(dp19
g3
(dp20
g5
I1850
sg6
I54
sg7
I4
sg8
I13
sg9
I4
sg10
I6
sg11
I1180
ssg12
(dp21
g5
I35
sg6
I7
sg7
I0
sg8
I0
sg9
I55
sg10
I0
sg11
I30
ssg14
(dp22
g5
I1490
sg6
I42
sg7
I17
sg8
I0
sg9
I3
sg10
I4
sg11
I1490
ssg16
(dp23
g5
I3067
sg6
I49
sg7
I10
sg8
I24
sg9
I3
sg10
I0
sg11
I1520
sssS'Hall.csv'
p24
(dp25
g3
(dp26
g5
I952
sg6
I92
sg7
I10
sg8
I25
sg9
I4
sg10
I2
sg11
I690
ssg12
(dp27
g5
I776
sg6
I89
sg7
I13
sg8
I20
sg9
I4
sg10
I0
sg11
I590
ssg14
(dp28
g5
I1030
sg6
I72
sg7
I30
sg8
I0
sg9
I4
sg10
I3
sg11
I1030
ssg16
(dp29
g5
I1271
sg6
I88
sg7
I14
sg8
I45
sg9
I4
sg10
I0
sg11
I610
sssS'Danijel.csv'
p30
(dp31
g3
(dp32
g5
I940
sg6
I37
sg7
I6
sg8
I5
sg9
I5
sg10
I1
sg11
I590
ssg12
(dp33
g5
I83
sg6
I7
sg7
I2
sg8
I0
sg9
I39
sg10
I0
sg11
I60
ssg14
(dp34
g5
I1530
sg6
I30
sg7
I16
sg8
I0
sg9
I2
sg10
I8
sg11
I1530
ssg16
(dp35
g5
I3064
sg6
I36
sg7
I10
sg8
I22
sg9
I2
sg10
I0
sg11
I1520
sss.(dp0
S'K_all3.csv'
p1
(dp2
S'machine'
p3
(dp4
S'count'
p5
I676
sS'truepos'
p6
I30
sS'falseneg'
p7
I8
sS'correction'
p8
I8
sS'unknownyes'
p9
I7
sS'falsepos'
p10
I6
sS'unique'
p11
I450
ssS'knee'
p12
(dp13
g5
I406
sg6
I26
sg7
I2
sg8
I4
sg9
I17
sg10
I2
sg11
I240
ssS'none'
p14
(dp15
g5
I570
sg6
I27
sg7
I12
sg8
I0
sg9
I6
sg10
I3
sg11
I570
ssS'three'
p16
(dp17
g5
I1009
sg6
I32
sg7
I8
sg8
I26
sg9
I5
sg10
I0
sg11
I490
sssS'Wahono.csv'
p18
(dp19
g3
(dp20
g5
I1771
sg6
I55
sg7
I5
sg8
I13
sg9
I2
sg10
I2
sg11
I1240
ssg12
(dp21
g5
I221
sg6
I22
sg7
I6
sg8
I3
sg9
I34
sg10
I0
sg11
I140
ssg14
(dp22
g5
I1870
sg6
I38
sg7
I22
sg8
I0
sg9
I2
sg10
I6
sg11
I1870
ssg16
(dp23
g5
I3319
sg6
I51
sg7
I10
sg8
I35
sg9
I1
sg10
I0
sg11
I1640
sssS'Hall.csv'
p24
(dp25
g3
(dp26
g5
I667
sg6
I95
sg7
I7
sg8
I19
sg9
I4
sg10
I1
sg11
I470
ssg12
(dp27
g5
I792
sg6
I87
sg7
I15
sg8
I20
sg9
I4
sg10
I2
sg11
I550
ssg14
(dp28
g5
I1150
sg6
I70
sg7
I33
sg8
I0
sg9
I3
sg10
I0
sg11
I1150
ssg16
(dp29
g5
I2092
sg6
I74
sg7
I29
sg8
I44
sg9
I3
sg10
I1
sg11
I1020
sssS'Danijel.csv'
p30
(dp31
g3
(dp32
g5
I1257
sg6
I42
sg7
I3
sg8
I12
sg9
I3
sg10
I5
sg11
I820
ssg12
(dp33
g5
I48
sg6
I3
sg7
I2
sg8
I1
sg9
I43
sg10
I0
sg11
I40
ssg14
(dp34
g5
I1240
sg6
I33
sg7
I13
sg8
I0
sg9
I2
sg10
I2
sg11
I1240
ssg16
(dp35
g5
I1984
sg6
I35
sg7
I11
sg8
I20
sg9
I2
sg10
I0
sg11
I980
sss.(dp0
S'K_all3.csv'
p1
(dp2
S'machine'
p3
(dp4
S'count'
p5
I790
sS'truepos'
p6
I34
sS'falseneg'
p7
I4
sS'correction'
p8
I12
sS'unknownyes'
p9
I7
sS'falsepos'
p10
I6
sS'unique'
p11
I550
ssS'knee'
p12
(dp13
g5
I54
sg6
I7
sg7
I1
sg8
I1
sg9
I37
sg10
I0
sg11
I40
ssS'none'
p14
(dp15
g5
I610
sg6
I24
sg7
I13
sg8
I0
sg9
I8
sg10
I4
sg11
I610
ssS'three'
p16
(dp17
g5
I1208
sg6
I29
sg7
I9
sg8
I27
sg9
I7
sg10
I0
sg11
I590
sssS'Wahono.csv'
p18
(dp19
g3
(dp20
g5
I1772
sg6
I55
sg7
I4
sg8
I13
sg9
I3
sg10
I7
sg11
I1110
ssg12
(dp21
g5
I833
sg6
I46
sg7
I8
sg8
I6
sg9
I8
sg10
I0
sg11
I620
ssg14
(dp22
g5
I1750
sg6
I41
sg7
I19
sg8
I0
sg9
I2
sg10
I7
sg11
I1750
ssg16
(dp23
g5
I3147
sg6
I50
sg7
I11
sg8
I22
sg9
I1
sg10
I0
sg11
I1560
sssS'Hall.csv'
p24
(dp25
g3
(dp26
g5
I730
sg6
I94
sg7
I8
sg8
I22
sg9
I4
sg10
I3
sg11
I510
ssg12
(dp27
g5
I591
sg6
I83
sg7
I18
sg8
I20
sg9
I5
sg10
I1
sg11
I430
ssg14
(dp28
g5
I930
sg6
I71
sg7
I32
sg8
I0
sg9
I3
sg10
I5
sg11
I930
ssg16
(dp29
g5
I1209
sg6
I78
sg7
I24
sg8
I42
sg9
I4
sg10
I0
sg11
I580
sssS'Danijel.csv'
p30
(dp31
g3
(dp32
g5
I1704
sg6
I38
sg7
I6
sg8
I9
sg9
I4
sg10
I7
sg11
I1060
ssg12
(dp33
g5
I659
sg6
I34
sg7
I9
sg8
I6
sg9
I5
sg10
I0
sg11
I470
ssg14
(dp34
g5
I1280
sg6
I33
sg7
I13
sg8
I0
sg9
I2
sg10
I2
sg11
I1280
ssg16
(dp35
g5
I1498
sg6
I43
sg7
I2
sg8
I16
sg9
I3
sg10
I0
sg11
I740
sss.(dp0
S'K_all3.csv'
p1
(dp2
S'machine'
p3
(dp4
S'count'
p5
I765
sS'truepos'
p6
I31
sS'falseneg'
p7
I6
sS'correction'
p8
I10
sS'unknownyes'
p9
I8
sS'falsepos'
p10
I7
sS'unique'
p11
I510
ssS'knee'
p12
(dp13
g5
I54
sg6
I8
sg7
I1
sg8
I2
sg9
I36
sg10
I0
sg11
I40
ssS'none'
p14
(dp15
g5
I550
sg6
I34
sg7
I7
sg8
I0
sg9
I4
sg10
I4
sg11
I550
ssS'three'
p16
(dp17
g5
I1084
sg6
I29
sg7
I10
sg8
I24
sg9
I6
sg10
I1
sg11
I530
sssS'Wahono.csv'
p18
(dp19
g3
(dp20
g5
I1508
sg6
I54
sg7
I5
sg8
I8
sg9
I3
sg10
I3
sg11
I960
ssg12
(dp21
g5
I141
sg6
I13
sg7
I9
sg8
I2
sg9
I40
sg10
I1
sg11
I110
ssg14
(dp22
g5
I1370
sg6
I36
sg7
I24
sg8
I0
sg9
I2
sg10
I3
sg11
I1370
ssg16
(dp23
g5
I2957
sg6
I47
sg7
I13
sg8
I34
sg9
I2
sg10
I0
sg11
I1460
sssS'Hall.csv'
p24
(dp25
g3
(dp26
g5
I1027
sg6
I89
sg7
I13
sg8
I24
sg9
I4
sg10
I2
sg11
I770
ssg12
(dp27
g5
I691
sg6
I89
sg7
I12
sg8
I22
sg9
I5
sg10
I2
sg11
I490
ssg14
(dp28
g5
I1730
sg6
I70
sg7
I32
sg8
I0
sg9
I4
sg10
I5
sg11
I1730
ssg16
(dp29
g5
I2274
sg6
I78
sg7
I25
sg8
I44
sg9
I3
sg10
I0
sg11
I1110
sssS'Danijel.csv'
p30
(dp31
g3
(dp32
g5
I1107
sg6
I40
sg7
I5
sg8
I8
sg9
I3
sg10
I5
sg11
I710
ssg12
(dp33
g5
I507
sg6
I30
sg7
I7
sg8
I5
sg9
I11
sg10
I2
sg11
I350
ssg14
(dp34
g5
I1010
sg6
I38
sg7
I8
sg8
I0
sg9
I2
sg10
I4
sg11
I1010
ssg16
(dp35
g5
I1770
sg6
I39
sg7
I7
sg8
I28
sg9
I2
sg10
I0
sg11
I870
sss.(dp0
S'K_all3.csv'
p1
(dp2
S'machine'
p3
(dp4
S'count'
p5
I624
sS'truepos'
p6
I33
sS'falseneg'
p7
I5
sS'correction'
p8
I4
sS'unknownyes'
p9
I7
sS'falsepos'
p10
I5
sS'unique'
p11
I430
ssS'knee'
p12
(dp13
g5
I1266
sg6
I38
sg7
I5
sg8
I10
sg9
I2
sg10
I4
sg11
I1030
ssS'none'
p14
(dp15
g5
I500
sg6
I29
sg7
I10
sg8
I0
sg9
I6
sg10
I2
sg11
I500
ssS'three'
p16
(dp17
g5
I1060
sg6
I28
sg7
I10
sg8
I17
sg9
I7
sg10
I0
sg11
I520
sssS'Wahono.csv'
p18
(dp19
g3
(dp20
g5
I1967
sg6
I50
sg7
I10
sg8
I14
sg9
I2
sg10
I3
sg11
I1360
ssg12
(dp21
g5
I1760
sg6
I51
sg7
I9
sg8
I16
sg9
I2
sg10
I4
sg11
I1380
ssg14
(dp22
g5
I1570
sg6
I42
sg7
I20
sg8
I0
sg9
I0
sg10
I1
sg11
I1570
ssg16
(dp23
g5
I2995
sg6
I51
sg7
I9
sg8
I31
sg9
I2
sg10
I0
sg11
I1480
sssS'Hall.csv'
p24
(dp25
g3
(dp26
g5
I1212
sg6
I86
sg7
I16
sg8
I15
sg9
I4
sg10
I5
sg11
I870
ssg12
(dp27
g5
I24
sg6
I7
sg7
I4
sg8
I1
sg9
I95
sg10
I0
sg11
I20
ssg14
(dp28
g5
I630
sg6
I69
sg7
I33
sg8
I0
sg9
I4
sg10
I0
sg11
I630
ssg16
(dp29
g5
I1267
sg6
I81
sg7
I21
sg8
I41
sg9
I4
sg10
I0
sg11
I610
sssS'Danijel.csv'
p30
(dp31
g3
(dp32
g5
I1309
sg6
I44
sg7
I2
sg8
I9
sg9
I2
sg10
I4
sg11
I840
ssg12
(dp33
g5
I249
sg6
I15
sg7
I4
sg8
I5
sg9
I29
sg10
I1
sg11
I160
ssg14
(dp34
g5
I1060
sg6
I32
sg7
I14
sg8
I0
sg9
I2
sg10
I2
sg11
I1060
ssg16
(dp35
g5
I1819
sg6
I38
sg7
I8
sg8
I19
sg9
I2
sg10
I0
sg11
I900
sss.(dp0
S'K_all3.csv'
p1
(dp2
S'machine'
p3
(dp4
S'count'
p5
I570
sS'truepos'
p6
I32
sS'falseneg'
p7
I1
sS'correction'
p8
I4
sS'unknownyes'
p9
I12
sS'falsepos'
p10
I5
sS'unique'
p11
I380
ssS'knee'
p12
(dp13
g5
I74
sg6
I7
sg7
I5
sg8
I0
sg9
I33
sg10
I1
sg11
I60
ssS'none'
p14
(dp15
g5
I540
sg6
I22
sg7
I15
sg8
I0
sg9
I8
sg10
I5
sg11
I540
ssS'three'
p16
(dp17
g5
I1075
sg6
I33
sg7
I7
sg8
I15
sg9
I5
sg10
I0
sg11
I530
sssS'Wahono.csv'
p18
(dp19
g3
(dp20
g5
I2017
sg6
I57
sg7
I2
sg8
I16
sg9
I3
sg10
I5
sg11
I1310
ssg12
(dp21
g5
I1278
sg6
I49
sg7
I9
sg8
I16
sg9
I4
sg10
I0
sg11
I960
ssg14
(dp22
g5
I1590
sg6
I42
sg7
I17
sg8
I0
sg9
I3
sg10
I4
sg11
I1590
ssg16
(dp23
g5
I3239
sg6
I42
sg7
I18
sg8
I31
sg9
I2
sg10
I0
sg11
I1600
sssS'Hall.csv'
p24
(dp25
g3
(dp26
g5
I827
sg6
I92
sg7
I10
sg8
I25
sg9
I4
sg10
I1
sg11
I600
ssg12
(dp27
g5
I34
sg6
I8
sg7
I4
sg8
I0
sg9
I94
sg10
I0
sg11
I30
ssg14
(dp28
g5
I1250
sg6
I68
sg7
I35
sg8
I0
sg9
I3
sg10
I4
sg11
I1250
ssg16
(dp29
g5
I1611
sg6
I78
sg7
I24
sg8
I42
sg9
I4
sg10
I0
sg11
I780
sssS'Danijel.csv'
p30
(dp31
g3
(dp32
g5
I1436
sg6
I39
sg7
I7
sg8
I9
sg9
I2
sg10
I4
sg11
I920
ssg12
(dp33
g5
I435
sg6
I36
sg7
I5
sg8
I9
sg9
I7
sg10
I2
sg11
I290
ssg14
(dp34
g5
I1400
sg6
I31
sg7
I15
sg8
I0
sg9
I2
sg10
I4
sg11
I1400
ssg16
(dp35
g5
I2102
sg6
I36
sg7
I10
sg8
I18
sg9
I2
sg10
I0
sg11
I1040
sss.(dp0
S'K_all3.csv'
p1
(dp2
S'machine'
p3
(dp4
S'count'
p5
I619
sS'truepos'
p6
I30
sS'falseneg'
p7
I8
sS'correction'
p8
I5
sS'unknownyes'
p9
I7
sS'falsepos'
p10
I6
sS'unique'
p11
I420
ssS'knee'
p12
(dp13
g5
I133
sg6
I12
sg7
I3
sg8
I2
sg9
I30
sg10
I1
sg11
I110
ssS'none'
p14
(dp15
g5
I540
sg6
I24
sg7
I12
sg8
I0
sg9
I9
sg10
I5
sg11
I540
ssS'three'
p16
(dp17
g5
I1361
sg6
I29
sg7
I11
sg8
I17
sg9
I5
sg10
I1
sg11
I670
sssS'Wahono.csv'
p18
(dp19
g3
(dp20
g5
I1842
sg6
I55
sg7
I4
sg8
I9
sg9
I3
sg10
I4
sg11
I1190
ssg12
(dp21
g5
I1329
sg6
I51
sg7
I6
sg8
I12
sg9
I5
sg10
I2
sg11
I960
ssg14
(dp22
g5
I1700
sg6
I43
sg7
I17
sg8
I0
sg9
I2
sg10
I7
sg11
I1700
ssg16
(dp23
g5
I2752
sg6
I45
sg7
I15
sg8
I29
sg9
I2
sg10
I0
sg11
I1360
sssS'Hall.csv'
p24
(dp25
g3
(dp26
g5
I859
sg6
I93
sg7
I9
sg8
I20
sg9
I4
sg10
I1
sg11
I600
ssg12
(dp27
g5
I506
sg6
I84
sg7
I13
sg8
I20
sg9
I9
sg10
I1
sg11
I360
ssg14
(dp28
g5
I690
sg6
I72
sg7
I30
sg8
I0
sg9
I4
sg10
I0
sg11
I690
ssg16
(dp29
g5
I1308
sg6
I80
sg7
I22
sg8
I41
sg9
I4
sg10
I0
sg11
I630
sssS'Danijel.csv'
p30
(dp31
g3
(dp32
g5
I1790
sg6
I43
sg7
I3
sg8
I8
sg9
I2
sg10
I7
sg11
I1120
ssg12
(dp33
g5
I590
sg6
I33
sg7
I8
sg8
I2
sg9
I7
sg10
I1
sg11
I450
ssg14
(dp34
g5
I1600
sg6
I31
sg7
I17
sg8
I0
sg9
I0
sg10
I3
sg11
I1600
ssg16
(dp35
g5
I2526
sg6
I36
sg7
I10
sg8
I24
sg9
I2
sg10
I0
sg11
I1250
sss.(dp0
S'K_all3.csv'
p1
(dp2
S'machine'
p3
(dp4
S'count'
p5
I801
sS'truepos'
p6
I34
sS'falseneg'
p7
I4
sS'correction'
p8
I6
sS'unknownyes'
p9
I7
sS'falsepos'
p10
I4
sS'unique'
p11
I520
ssS'knee'
p12
(dp13
g5
I546
sg6
I24
sg7
I6
sg8
I8
sg9
I15
sg10
I1
sg11
I360
ssS'none'
p14
(dp15
g5
I600
sg6
I30
sg7
I10
sg8
I0
sg9
I5
sg10
I2
sg11
I600
ssS'three'
p16
(dp17
g5
I1102
sg6
I31
sg7
I8
sg8
I20
sg9
I6
sg10
I0
sg11
I540
sssS'Wahono.csv'
p18
(dp19
g3
(dp20
g5
I1980
sg6
I58
sg7
I3
sg8
I12
sg9
I1
sg10
I8
sg11
I1310
ssg12
(dp21
g5
I495
sg6
I41
sg7
I6
sg8
I10
sg9
I15
sg10
I0
sg11
I350
ssg14
(dp22
g5
I1790
sg6
I41
sg7
I19
sg8
I0
sg9
I2
sg10
I3
sg11
I1790
ssg16
(dp23
g5
I3577
sg6
I42
sg7
I18
sg8
I29
sg9
I2
sg10
I2
sg11
I1770
sssS'Hall.csv'
p24
(dp25
g3
(dp26
g5
I851
sg6
I91
sg7
I11
sg8
I20
sg9
I4
sg10
I4
sg11
I620
ssg12
(dp27
g5
I584
sg6
I92
sg7
I8
sg8
I17
sg9
I6
sg10
I3
sg11
I400
ssg14
(dp28
g5
I560
sg6
I82
sg7
I20
sg8
I0
sg9
I4
sg10
I2
sg11
I560
ssg16
(dp29
g5
I1412
sg6
I77
sg7
I25
sg8
I43
sg9
I4
sg10
I0
sg11
I680
sssS'Danijel.csv'
p30
(dp31
g3
(dp32
g5
I1373
sg6
I43
sg7
I2
sg8
I8
sg9
I3
sg10
I5
sg11
I820
ssg12
(dp33
g5
I481
sg6
I35
sg7
I6
sg8
I6
sg9
I7
sg10
I1
sg11
I290
ssg14
(dp34
g5
I1740
sg6
I25
sg7
I21
sg8
I0
sg9
I2
sg10
I7
sg11
I1740
ssg16
(dp35
g5
I2166
sg6
I32
sg7
I15
sg8
I23
sg9
I1
sg10
I0
sg11
I1070
sss.(dp0
S'K_all3.csv'
p1
(dp2
S'machine'
p3
(dp4
S'count'
p5
I653
sS'truepos'
p6
I34
sS'falseneg'
p7
I5
sS'correction'
p8
I6
sS'unknownyes'
p9
I6
sS'falsepos'
p10
I5
sS'unique'
p11
I450
ssS'knee'
p12
(dp13
g5
I1504
sg6
I32
sg7
I11
sg8
I13
sg9
I2
sg10
I4
sg11
I1290
ssS'none'
p14
(dp15
g5
I560
sg6
I23
sg7
I15
sg8
I0
sg9
I7
sg10
I6
sg11
I560
ssS'three'
p16
(dp17
g5
I984
sg6
I33
sg7
I6
sg8
I24
sg9
I6
sg10
I0
sg11
I480
sssS'Wahono.csv'
p18
(dp19
g3
(dp20
g5
I2564
sg6
I51
sg7
I10
sg8
I8
sg9
I1
sg10
I7
sg11
I1730
ssg12
(dp21
g5
I1404
sg6
I49
sg7
I10
sg8
I10
sg9
I3
sg10
I2
sg11
I1070
ssg14
(dp22
g5
I1530
sg6
I37
sg7
I23
sg8
I0
sg9
I2
sg10
I4
sg11
I1530
ssg16
(dp23
g5
I2475
sg6
I48
sg7
I13
sg8
I35
sg9
I1
sg10
I0
sg11
I1220
sssS'Hall.csv'
p24
(dp25
g3
(dp26
g5
I1079
sg6
I86
sg7
I16
sg8
I16
sg9
I4
sg10
I3
sg11
I810
ssg12
(dp27
g5
I660
sg6
I90
sg7
I11
sg8
I22
sg9
I5
sg10
I2
sg11
I450
ssg14
(dp28
g5
I740
sg6
I77
sg7
I25
sg8
I0
sg9
I4
sg10
I1
sg11
I740
ssg16
(dp29
g5
I1262
sg6
I80
sg7
I22
sg8
I36
sg9
I4
sg10
I1
sg11
I610
sssS'Danijel.csv'
p30
(dp31
g3
(dp32
g5
I1204
sg6
I42
sg7
I3
sg8
I11
sg9
I3
sg10
I0
sg11
I740
ssg12
(dp33
g5
I173
sg6
I10
sg7
I4
sg8
I3
sg9
I34
sg10
I0
sg11
I120
ssg14
(dp34
g5
I1210
sg6
I35
sg7
I11
sg8
I0
sg9
I2
sg10
I0
sg11
I1210
ssg16
(dp35
g5
I1556
sg6
I38
sg7
I7
sg8
I16
sg9
I3
sg10
I0
sg11
I770
sss.(dp0
S'K_all3.csv'
p1
(dp2
S'machine'
p3
(dp4
S'count'
p5
I722
sS'truepos'
p6
I30
sS'falseneg'
p7
I9
sS'correction'
p8
I8
sS'unknownyes'
p9
I6
sS'falsepos'
p10
I7
sS'unique'
p11
I520
ssS'knee'
p12
(dp13
g5
I710
sg6
I28
sg7
I8
sg8
I6
sg9
I9
sg10
I3
sg11
I480
ssS'none'
p14
(dp15
g5
I550
sg6
I24
sg7
I15
sg8
I0
sg9
I6
sg10
I7
sg11
I550
ssS'three'
p16
(dp17
g5
I1228
sg6
I31
sg7
I9
sg8
I28
sg9
I5
sg10
I1
sg11
I600
sssS'Wahono.csv'
p18
(dp19
g3
(dp20
g5
I1850
sg6
I56
sg7
I3
sg8
I14
sg9
I3
sg10
I1
sg11
I1270
ssg12
(dp21
g5
I1169
sg6
I45
sg7
I13
sg8
I5
sg9
I4
sg10
I0
sg11
I930
ssg14
(dp22
g5
I1570
sg6
I52
sg7
I8
sg8
I0
sg9
I2
sg10
I3
sg11
I1570
ssg16
(dp23
g5
I3069
sg6
I47
sg7
I13
sg8
I26
sg9
I2
sg10
I0
sg11
I1520
sssS'Hall.csv'
p24
(dp25
g3
(dp26
g5
I674
sg6
I92
sg7
I9
sg8
I22
sg9
I5
sg10
I2
sg11
I460
ssg12
(dp27
g5
I715
sg6
I84
sg7
I18
sg8
I16
sg9
I4
sg10
I0
sg11
I550
ssg14
(dp28
g5
I940
sg6
I74
sg7
I28
sg8
I0
sg9
I4
sg10
I2
sg11
I940
ssg16
(dp29
g5
I1470
sg6
I79
sg7
I23
sg8
I44
sg9
I4
sg10
I0
sg11
I710
sssS'Danijel.csv'
p30
(dp31
g3
(dp32
g5
I1384
sg6
I41
sg7
I5
sg8
I2
sg9
I2
sg10
I1
sg11
I890
ssg12
(dp33
g5
I818
sg6
I30
sg7
I14
sg8
I8
sg9
I4
sg10
I1
sg11
I660
ssg14
(dp34
g5
I1070
sg6
I35
sg7
I10
sg8
I0
sg9
I3
sg10
I5
sg11
I1070
ssg16
(dp35
g5
I3007
sg6
I33
sg7
I14
sg8
I22
sg9
I1
sg10
I0
sg11
I1490
sss.(dp0
S'K_all3.csv'
p1
(dp2
S'machine'
p3
(dp4
S'count'
p5
I622
sS'truepos'
p6
I34
sS'falseneg'
p7
I5
sS'correction'
p8
I7
sS'unknownyes'
p9
I6
sS'falsepos'
p10
I8
sS'unique'
p11
I420
ssS'knee'
p12
(dp13
g5
I146
sg6
I14
sg7
I5
sg8
I0
sg9
I26
sg10
I2
sg11
I100
ssS'none'
p14
(dp15
g5
I560
sg6
I21
sg7
I16
sg8
I0
sg9
I8
sg10
I6
sg11
I560
ssS'three'
p16
(dp17
g5
I1022
sg6
I30
sg7
I9
sg8
I18
sg9
I6
sg10
I1
sg11
I500
sssS'Wahono.csv'
p18
(dp19
g3
(dp20
g5
I2045
sg6
I55
sg7
I4
sg8
I12
sg9
I3
sg10
I9
sg11
I1310
ssg12
(dp21
g5
I911
sg6
I41
sg7
I14
sg8
I9
sg9
I7
sg10
I1
sg11
I730
ssg14
(dp22
g5
I1800
sg6
I49
sg7
I12
sg8
I0
sg9
I1
sg10
I5
sg11
I1800
ssg16
(dp23
g5
I2646
sg6
I45
sg7
I14
sg8
I23
sg9
I3
sg10
I1
sg11
I1310
sssS'Hall.csv'
p24
(dp25
g3
(dp26
g5
I801
sg6
I93
sg7
I9
sg8
I15
sg9
I4
sg10
I1
sg11
I550
ssg12
(dp27
g5
I648
sg6
I86
sg7
I15
sg8
I14
sg9
I5
sg10
I0
sg11
I450
ssg14
(dp28
g5
I1520
sg6
I75
sg7
I28
sg8
I0
sg9
I3
sg10
I3
sg11
I1520
ssg16
(dp29
g5
I1064
sg6
I83
sg7
I19
sg8
I40
sg9
I4
sg10
I0
sg11
I510
sssS'Danijel.csv'
p30
(dp31
g3
(dp32
g5
I1363
sg6
I41
sg7
I4
sg8
I6
sg9
I3
sg10
I3
sg11
I880
ssg12
(dp33
g5
I884
sg6
I33
sg7
I11
sg8
I5
sg9
I4
sg10
I1
sg11
I690
ssg14
(dp34
g5
I1100
sg6
I34
sg7
I12
sg8
I0
sg9
I2
sg10
I2
sg11
I1100
ssg16
(dp35
g5
I1664
sg6
I38
sg7
I8
sg8
I22
sg9
I2
sg10
I0
sg11
I820
sss.(dp0
S'K_all3.csv'
p1
(dp2
S'machine'
p3
(dp4
S'count'
p5
I700
sS'truepos'
p6
I33
sS'falseneg'
p7
I5
sS'correction'
p8
I5
sS'unknownyes'
p9
I7
sS'falsepos'
p10
I5
sS'unique'
p11
I470
ssS'knee'
p12
(dp13
g5
I618
sg6
I30
sg7
I3
sg8
I8
sg9
I12
sg10
I2
sg11
I390
ssS'none'
p14
(dp15
g5
I660
sg6
I20
sg7
I20
sg8
I0
sg9
I5
sg10
I5
sg11
I660
ssS'three'
p16
(dp17
g5
I1163
sg6
I32
sg7
I7
sg8
I21
sg9
I6
sg10
I0
sg11
I570
sssS'Wahono.csv'
p18
(dp19
g3
(dp20
g5
I2058
sg6
I54
sg7
I6
sg8
I10
sg9
I2
sg10
I2
sg11
I1420
ssg12
(dp21
g5
I967
sg6
I51
sg7
I5
sg8
I9
sg9
I6
sg10
I1
sg11
I680
ssg14
(dp22
g5
I1460
sg6
I47
sg7
I13
sg8
I0
sg9
I2
sg10
I2
sg11
I1460
ssg16
(dp23
g5
I3259
sg6
I38
sg7
I22
sg8
I33
sg9
I2
sg10
I0
sg11
I1610
sssS'Hall.csv'
p24
(dp25
g3
(dp26
g5
I746
sg6
I95
sg7
I7
sg8
I17
sg9
I4
sg10
I3
sg11
I540
ssg12
(dp27
g5
I741
sg6
I85
sg7
I17
sg8
I25
sg9
I4
sg10
I2
sg11
I530
ssg14
(dp28
g5
I1460
sg6
I71
sg7
I32
sg8
I0
sg9
I3
sg10
I5
sg11
I1460
ssg16
(dp29
g5
I1181
sg6
I85
sg7
I17
sg8
I36
sg9
I4
sg10
I0
sg11
I570
sssS'Danijel.csv'
p30
(dp31
g3
(dp32
g5
I1331
sg6
I41
sg7
I4
sg8
I9
sg9
I3
sg10
I3
sg11
I840
ssg12
(dp33
g5
I698
sg6
I34
sg7
I5
sg8
I8
sg9
I9
sg10
I0
sg11
I460
ssg14
(dp34
g5
I1540
sg6
I31
sg7
I15
sg8
I0
sg9
I2
sg10
I4
sg11
I1540
ssg16
(dp35
g5
I2069
sg6
I36
sg7
I10
sg8
I25
sg9
I2
sg10
I0
sg11
I1020
sss.(dp0
S'K_all3.csv'
p1
(dp2
S'machine'
p3
(dp4
S'count'
p5
I647
sS'truepos'
p6
I32
sS'falseneg'
p7
I5
sS'correction'
p8
I6
sS'unknownyes'
p9
I8
sS'falsepos'
p10
I4
sS'unique'
p11
I430
ssS'knee'
p12
(dp13
g5
I561
sg6
I29
sg7
I9
sg8
I7
sg9
I7
sg10
I5
sg11
I430
ssS'none'
p14
(dp15
g5
I640
sg6
I28
sg7
I10
sg8
I0
sg9
I7
sg10
I5
sg11
I640
ssS'three'
p16
(dp17
g5
I1084
sg6
I30
sg7
I9
sg8
I21
sg9
I6
sg10
I0
sg11
I530
sssS'Wahono.csv'
p18
(dp19
g3
(dp20
g5
I2169
sg6
I50
sg7
I10
sg8
I11
sg9
I2
sg10
I6
sg11
I1470
ssg12
(dp21
g5
I681
sg6
I41
sg7
I6
sg8
I3
sg9
I15
sg10
I1
sg11
I390
ssg14
(dp22
g5
I1540
sg6
I42
sg7
I19
sg8
I0
sg9
I1
sg10
I2
sg11
I1540
ssg16
(dp23
g5
I3214
sg6
I49
sg7
I10
sg8
I33
sg9
I3
sg10
I0
sg11
I1590
sssS'Hall.csv'
p24
(dp25
g3
(dp26
g5
I867
sg6
I88
sg7
I14
sg8
I18
sg9
I4
sg10
I1
sg11
I640
ssg12
(dp27
g5
I711
sg6
I91
sg7
I11
sg8
I18
sg9
I4
sg10
I0
sg11
I500
ssg14
(dp28
g5
I1220
sg6
I65
sg7
I38
sg8
I0
sg9
I3
sg10
I4
sg11
I1220
ssg16
(dp29
g5
I2224
sg6
I74
sg7
I29
sg8
I40
sg9
I3
sg10
I1
sg11
I1090
sssS'Danijel.csv'
p30
(dp31
g3
(dp32
g5
I1201
sg6
I42
sg7
I3
sg8
I5
sg9
I3
sg10
I3
sg11
I710
ssg12
(dp33
g5
I791
sg6
I36
sg7
I7
sg8
I7
sg9
I5
sg10
I2
sg11
I510
ssg14
(dp34
g5
I1240
sg6
I34
sg7
I12
sg8
I0
sg9
I2
sg10
I2
sg11
I1240
ssg16
(dp35
g5
I2086
sg6
I36
sg7
I10
sg8
I25
sg9
I2
sg10
I0
sg11
I1030
sss.(dp0
S'K_all3.csv'
p1
(dp2
S'machine'
p3
(dp4
S'count'
p5
I605
sS'truepos'
p6
I32
sS'falseneg'
p7
I6
sS'correction'
p8
I4
sS'unknownyes'
p9
I7
sS'falsepos'
p10
I8
sS'unique'
p11
I400
ssS'knee'
p12
(dp13
g5
I1264
sg6
I36
sg7
I7
sg8
I9
sg9
I2
sg10
I5
sg11
I860
ssS'none'
p14
(dp15
g5
I530
sg6
I26
sg7
I14
sg8
I0
sg9
I5
sg10
I7
sg11
I530
ssS'three'
p16
(dp17
g5
I1387
sg6
I30
sg7
I12
sg8
I24
sg9
I3
sg10
I0
sg11
I680
sssS'Wahono.csv'
p18
(dp19
g3
(dp20
g5
I1963
sg6
I51
sg7
I10
sg8
I15
sg9
I1
sg10
I2
sg11
I1410
ssg12
(dp21
g5
I694
sg6
I43
sg7
I7
sg8
I13
sg9
I12
sg10
I0
sg11
I470
ssg14
(dp22
g5
I1630
sg6
I40
sg7
I20
sg8
I0
sg9
I2
sg10
I6
sg11
I1630
ssg16
(dp23
g5
I3068
sg6
I42
sg7
I19
sg8
I24
sg9
I1
sg10
I0
sg11
I1520
sssS'Hall.csv'
p24
(dp25
g3
(dp26
g5
I640
sg6
I96
sg7
I6
sg8
I13
sg9
I4
sg10
I3
sg11
I470
ssg12
(dp27
g5
I23
sg6
I8
sg7
I0
sg8
I1
sg9
I98
sg10
I0
sg11
I20
ssg14
(dp28
g5
I1100
sg6
I73
sg7
I30
sg8
I0
sg9
I3
sg10
I3
sg11
I1100
ssg16
(dp29
g5
I1384
sg6
I82
sg7
I20
sg8
I36
sg9
I4
sg10
I0
sg11
I670
sssS'Danijel.csv'
p30
(dp31
g3
(dp32
g5
I1321
sg6
I44
sg7
I1
sg8
I15
sg9
I3
sg10
I3
sg11
I790
ssg12
(dp33
g5
I815
sg6
I38
sg7
I3
sg8
I12
sg9
I7
sg10
I2
sg11
I500
ssg14
(dp34
g5
I1550
sg6
I28
sg7
I19
sg8
I0
sg9
I1
sg10
I4
sg11
I1550
ssg16
(dp35
g5
I2447
sg6
I26
sg7
I20
sg8
I19
sg9
I2
sg10
I0
sg11
I1210
sss.(dp0
S'K_all3.csv'
p1
(dp2
S'machine'
p3
(dp4
S'count'
p5
I695
sS'truepos'
p6
I30
sS'falseneg'
p7
I3
sS'correction'
p8
I9
sS'unknownyes'
p9
I12
sS'falsepos'
p10
I8
sS'unique'
p11
I500
ssS'knee'
p12
(dp13
g5
I1051
sg6
I32
sg7
I8
sg8
I5
sg9
I5
sg10
I4
sg11
I780
ssS'none'
p14
(dp15
g5
I620
sg6
I25
sg7
I16
sg8
I0
sg9
I4
sg10
I2
sg11
I620
ssS'three'
p16
(dp17
g5
I1136
sg6
I33
sg7
I6
sg8
I35
sg9
I6
sg10
I0
sg11
I550
sssS'Wahono.csv'
p18
(dp19
g3
(dp20
g5
I2411
sg6
I54
sg7
I6
sg8
I15
sg9
I2
sg10
I8
sg11
I1530
ssg12
(dp21
g5
I658
sg6
I33
sg7
I12
sg8
I5
sg9
I17
sg10
I0
sg11
I540
ssg14
(dp22
g5
I1630
sg6
I42
sg7
I19
sg8
I0
sg9
I1
sg10
I5
sg11
I1630
ssg16
(dp23
g5
I3054
sg6
I45
sg7
I14
sg8
I31
sg9
I3
sg10
I0
sg11
I1510
sssS'Hall.csv'
p24
(dp25
g3
(dp26
g5
I1028
sg6
I89
sg7
I13
sg8
I20
sg9
I4
sg10
I1
sg11
I780
ssg12
(dp27
g5
I572
sg6
I82
sg7
I19
sg8
I16
sg9
I5
sg10
I1
sg11
I430
ssg14
(dp28
g5
I990
sg6
I66
sg7
I36
sg8
I0
sg9
I4
sg10
I1
sg11
I990
ssg16
(dp29
g5
I1418
sg6
I81
sg7
I21
sg8
I35
sg9
I4
sg10
I0
sg11
I690
sssS'Danijel.csv'
p30
(dp31
g3
(dp32
g5
I1773
sg6
I42
sg7
I4
sg8
I14
sg9
I2
sg10
I5
sg11
I1080
ssg12
(dp33
g5
I48
sg6
I3
sg7
I1
sg8
I1
sg9
I44
sg10
I0
sg11
I40
ssg14
(dp34
g5
I1200
sg6
I35
sg7
I11
sg8
I0
sg9
I2
sg10
I2
sg11
I1200
ssg16
(dp35
g5
I2303
sg6
I34
sg7
I12
sg8
I17
sg9
I2
sg10
I0
sg11
I1140
sss.(dp0
S'K_all3.csv'
p1
(dp2
S'machine'
p3
(dp4
S'count'
p5
I651
sS'truepos'
p6
I27
sS'falseneg'
p7
I9
sS'correction'
p8
I5
sS'unknownyes'
p9
I9
sS'falsepos'
p10
I6
sS'unique'
p11
I500
ssS'knee'
p12
(dp13
g5
I1657
sg6
I37
sg7
I7
sg8
I11
sg9
I1
sg10
I10
sg11
I1170
ssS'none'
p14
(dp15
g5
I620
sg6
I26
sg7
I11
sg8
I0
sg9
I8
sg10
I6
sg11
I620
ssS'three'
p16
(dp17
g5
I1059
sg6
I28
sg7
I10
sg8
I15
sg9
I7
sg10
I0
sg11
I520
sssS'Wahono.csv'
p18
(dp19
g3
(dp20
g5
I2537
sg6
I47
sg7
I13
sg8
I12
sg9
I2
sg10
I8
sg11
I1770
ssg12
(dp21
g5
I1474
sg6
I43
sg7
I16
sg8
I10
sg9
I3
sg10
I2
sg11
I1180
ssg14
(dp22
g5
I1460
sg6
I48
sg7
I13
sg8
I0
sg9
I1
sg10
I3
sg11
I1460
ssg16
(dp23
g5
I3322
sg6
I47
sg7
I12
sg8
I40
sg9
I3
sg10
I0
sg11
I1640
sssS'Hall.csv'
p24
(dp25
g3
(dp26
g5
I852
sg6
I84
sg7
I18
sg8
I14
sg9
I4
sg10
I4
sg11
I600
ssg12
(dp27
g5
I732
sg6
I87
sg7
I15
sg8
I24
sg9
I4
sg10
I2
sg11
I540
ssg14
(dp28
g5
I520
sg6
I76
sg7
I26
sg8
I0
sg9
I4
sg10
I0
sg11
I520
ssg16
(dp29
g5
I1770
sg6
I90
sg7
I13
sg8
I47
sg9
I3
sg10
I0
sg11
I860
sssS'Danijel.csv'
p30
(dp31
g3
(dp32
g5
I1310
sg6
I40
sg7
I6
sg8
I14
sg9
I2
sg10
I2
sg11
I800
ssg12
(dp33
g5
I763
sg6
I37
sg7
I4
sg8
I6
sg9
I7
sg10
I2
sg11
I510
ssg14
(dp34
g5
I1290
sg6
I28
sg7
I17
sg8
I0
sg9
I3
sg10
I5
sg11
I1290
ssg16
(dp35
g5
I1842
sg6
I38
sg7
I8
sg8
I20
sg9
I2
sg10
I0
sg11
I910
sss.(dp0
S'K_all3.csv'
p1
(dp2
S'machine'
p3
(dp4
S'count'
p5
I785
sS'truepos'
p6
I32
sS'falseneg'
p7
I6
sS'correction'
p8
I11
sS'unknownyes'
p9
I7
sS'falsepos'
p10
I2
sS'unique'
p11
I630
ssS'knee'
p12
(dp13
g5
I54
sg6
I7
sg7
I1
sg8
I1
sg9
I37
sg10
I0
sg11
I40
ssS'none'
p14
(dp15
g5
I550
sg6
I26
sg7
I12
sg8
I0
sg9
I7
sg10
I1
sg11
I550
ssS'three'
p16
(dp17
g5
I1023
sg6
I31
sg7
I8
sg8
I22
sg9
I6
sg10
I0
sg11
I500
sssS'Wahono.csv'
p18
(dp19
g3
(dp20
g5
I1785
sg6
I55
sg7
I4
sg8
I12
sg9
I3
sg10
I3
sg11
I1210
ssg12
(dp21
g5
I1042
sg6
I46
sg7
I7
sg8
I9
sg9
I9
sg10
I0
sg11
I740
ssg14
(dp22
g5
I1760
sg6
I43
sg7
I16
sg8
I0
sg9
I3
sg10
I8
sg11
I1760
ssg16
(dp23
g5
I2771
sg6
I50
sg7
I10
sg8
I24
sg9
I2
sg10
I0
sg11
I1370
sssS'Hall.csv'
p24
(dp25
g3
(dp26
g5
I724
sg6
I91
sg7
I11
sg8
I24
sg9
I4
sg10
I0
sg11
I530
ssg12
(dp27
g5
I639
sg6
I86
sg7
I15
sg8
I13
sg9
I5
sg10
I0
sg11
I450
ssg14
(dp28
g5
I1780
sg6
I68
sg7
I35
sg8
I0
sg9
I3
sg10
I7
sg11
I1780
ssg16
(dp29
g5
I1145
sg6
I83
sg7
I19
sg8
I39
sg9
I4
sg10
I0
sg11
I550
sssS'Danijel.csv'
p30
(dp31
g3
(dp32
g5
I1821
sg6
I37
sg7
I9
sg8
I6
sg9
I2
sg10
I4
sg11
I1050
ssg12
(dp33
g5
I48
sg6
I4
sg7
I3
sg8
I2
sg9
I41
sg10
I0
sg11
I40
ssg14
(dp34
g5
I1740
sg6
I23
sg7
I24
sg8
I0
sg9
I1
sg10
I5
sg11
I1740
ssg16
(dp35
g5
I2365
sg6
I31
sg7
I15
sg8
I22
sg9
I2
sg10
I0
sg11
I1170
sss.(dp0
S'K_all3.csv'
p1
(dp2
S'machine'
p3
(dp4
S'count'
p5
I795
sS'truepos'
p6
I29
sS'falseneg'
p7
I9
sS'correction'
p8
I8
sS'unknownyes'
p9
I7
sS'falsepos'
p10
I3
sS'unique'
p11
I640
ssS'knee'
p12
(dp13
g5
I708
sg6
I29
sg7
I8
sg8
I7
sg9
I8
sg10
I3
sg11
I580
ssS'none'
p14
(dp15
g5
I590
sg6
I33
sg7
I7
sg8
I0
sg9
I5
sg10
I2
sg11
I590
ssS'three'
p16
(dp17
g5
I1022
sg6
I33
sg7
I6
sg8
I21
sg9
I6
sg10
I0
sg11
I500
sssS'Wahono.csv'
p18
(dp19
g3
(dp20
g5
I2492
sg6
I57
sg7
I4
sg8
I15
sg9
I1
sg10
I11
sg11
I1660
ssg12
(dp21
g5
I2011
sg6
I53
sg7
I7
sg8
I13
sg9
I2
sg10
I6
sg11
I1350
ssg14
(dp22
g5
I1620
sg6
I49
sg7
I12
sg8
I0
sg9
I1
sg10
I0
sg11
I1620
ssg16
(dp23
g5
I2992
sg6
I43
sg7
I16
sg8
I28
sg9
I3
sg10
I1
sg11
I1480
sssS'Hall.csv'
p24
(dp25
g3
(dp26
g5
I731
sg6
I92
sg7
I10
sg8
I21
sg9
I4
sg10
I4
sg11
I510
ssg12
(dp27
g5
I719
sg6
I84
sg7
I16
sg8
I17
sg9
I6
sg10
I1
sg11
I470
ssg14
(dp28
g5
I1190
sg6
I70
sg7
I33
sg8
I0
sg9
I3
sg10
I3
sg11
I1190
ssg16
(dp29
g5
I1327
sg6
I76
sg7
I26
sg8
I45
sg9
I4
sg10
I0
sg11
I640
sssS'Danijel.csv'
p30
(dp31
g3
(dp32
g5
I1189
sg6
I42
sg7
I3
sg8
I13
sg9
I3
sg10
I2
sg11
I760
ssg12
(dp33
g5
I205
sg6
I18
sg7
I1
sg8
I3
sg9
I29
sg10
I0
sg11
I130
ssg14
(dp34
g5
I1370
sg6
I35
sg7
I12
sg8
I0
sg9
I1
sg10
I3
sg11
I1370
ssg16
(dp35
g5
I2023
sg6
I38
sg7
I8
sg8
I17
sg9
I2
sg10
I0
sg11
I1000
sss.