(dp0
S'K_all3.csv'
p1
(dp2
S'machine'
p3
(dp4
S'count'
p5
I542
sS'truepos'
p6
I25
sS'falseneg'
p7
I6
sS'unknownyes'
p8
I14
sS'falsepos'
p9
I8
sS'unique'
p10
I410
ssS'none'
p11
(dp12
g5
I410
sg6
I27
sg7
I3
sg8
I15
sg9
I35
sg10
I410
ssS'three'
p13
(dp14
g5
I828
sg6
I34
sg7
I0
sg8
I11
sg9
I11
sg10
I380
ssS'machine3'
p15
(dp16
g5
I597
sg6
I29
sg7
I5
sg8
I11
sg9
I7
sg10
I480
ssS'machine2'
p17
(dp18
g5
I551
sg6
I31
sg7
I3
sg8
I11
sg9
I5
sg10
I410
sssS'Wahono.csv'
p19
(dp20
g3
(dp21
g5
I1686
sg6
I54
sg7
I5
sg8
I3
sg9
I17
sg10
I1260
ssg11
(dp22
g5
I3290
sg6
I52
sg7
I9
sg8
I1
sg9
I314
sg10
I3290
ssg13
(dp23
g5
I3475
sg6
I57
sg7
I2
sg8
I3
sg9
I37
sg10
I1600
ssg15
(dp24
g5
I1810
sg6
I55
sg7
I4
sg8
I3
sg9
I17
sg10
I1330
ssg17
(dp25
g5
I2313
sg6
I57
sg7
I2
sg8
I3
sg9
I40
sg10
I1610
sssS'Hall.csv'
p26
(dp27
g3
(dp28
g5
I743
sg6
I97
sg7
I5
sg8
I4
sg9
I14
sg10
I530
ssg11
(dp29
g5
I1940
sg6
I92
sg7
I9
sg8
I5
sg9
I195
sg10
I1940
ssg13
(dp30
g5
I2597
sg6
I99
sg7
I3
sg8
I4
sg9
I35
sg10
I1200
ssg15
(dp31
g5
I833
sg6
I97
sg7
I5
sg8
I4
sg9
I7
sg10
I560
ssg17
(dp32
g5
I918
sg6
I96
sg7
I6
sg8
I4
sg9
I18
sg10
I610
sssS'Danijel.csv'
p33
(dp34
g3
(dp35
g5
I1132
sg6
I41
sg7
I3
sg8
I4
sg9
I13
sg10
I860
ssg11
(dp36
g5
I2340
sg6
I40
sg7
I7
sg8
I1
sg9
I222
sg10
I2340
ssg13
(dp37
g5
I1704
sg6
I41
sg7
I3
sg8
I4
sg9
I17
sg10
I780
ssg15
(dp38
g5
I996
sg6
I40
sg7
I6
sg8
I2
sg9
I4
sg10
I740
ssg17
(dp39
g5
I1109
sg6
I44
sg7
I1
sg8
I3
sg9
I18
sg10
I810
sss.(dp0
S'K_all3.csv'
p1
(dp2
S'machine'
p3
(dp4
S'count'
p5
I535
sS'truepos'
p6
I29
sS'falseneg'
p7
I3
sS'unknownyes'
p8
I13
sS'falsepos'
p9
I7
sS'unique'
p10
I410
ssS'none'
p11
(dp12
g5
I530
sg6
I30
sg7
I4
sg8
I11
sg9
I40
sg10
I530
ssS'three'
p13
(dp14
g5
I884
sg6
I33
sg7
I1
sg8
I11
sg9
I6
sg10
I400
ssS'machine3'
p15
(dp16
g5
I615
sg6
I30
sg7
I5
sg8
I10
sg9
I4
sg10
I500
ssS'machine2'
p17
(dp18
g5
I652
sg6
I29
sg7
I3
sg8
I13
sg9
I11
sg10
I460
sssS'Wahono.csv'
p19
(dp20
g3
(dp21
g5
I1574
sg6
I52
sg7
I6
sg8
I4
sg9
I20
sg10
I1210
ssg11
(dp22
g5
I2680
sg6
I49
sg7
I8
sg8
I5
sg9
I270
sg10
I2680
ssg13
(dp23
g5
I4231
sg6
I60
sg7
I0
sg8
I2
sg9
I62
sg10
I1950
ssg15
(dp24
g5
I1732
sg6
I52
sg7
I7
sg8
I3
sg9
I17
sg10
I1310
ssg17
(dp25
g5
I1577
sg6
I56
sg7
I1
sg8
I5
sg9
I20
sg10
I1110
sssS'Hall.csv'
p26
(dp27
g3
(dp28
g5
I640
sg6
I96
sg7
I6
sg8
I4
sg9
I15
sg10
I460
ssg11
(dp29
g5
I3160
sg6
I92
sg7
I10
sg8
I4
sg9
I293
sg10
I3160
ssg13
(dp30
g5
I2436
sg6
I98
sg7
I5
sg8
I3
sg9
I30
sg10
I1110
ssg15
(dp31
g5
I1596
sg6
I100
sg7
I3
sg8
I3
sg9
I14
sg10
I1150
ssg17
(dp32
g5
I876
sg6
I101
sg7
I1
sg8
I4
sg9
I18
sg10
I600
sssS'Danijel.csv'
p33
(dp34
g3
(dp35
g5
I1452
sg6
I44
sg7
I2
sg8
I2
sg9
I12
sg10
I1070
ssg11
(dp36
g5
I1480
sg6
I41
sg7
I5
sg8
I2
sg9
I138
sg10
I1480
ssg13
(dp37
g5
I2666
sg6
I44
sg7
I1
sg8
I3
sg9
I35
sg10
I1230
ssg15
(dp38
g5
I1336
sg6
I43
sg7
I3
sg8
I2
sg9
I15
sg10
I1010
ssg17
(dp39
g5
I1381
sg6
I42
sg7
I3
sg8
I3
sg9
I14
sg10
I970
sss.(dp0
S'K_all3.csv'
p1
(dp2
S'machine'
p3
(dp4
S'count'
p5
I597
sS'truepos'
p6
I31
sS'falseneg'
p7
I5
sS'unknownyes'
p8
I9
sS'falsepos'
p9
I4
sS'unique'
p10
I460
ssS'none'
p11
(dp12
g5
I560
sg6
I35
sg7
I5
sg8
I5
sg9
I51
sg10
I560
ssS'three'
p13
(dp14
g5
I900
sg6
I33
sg7
I2
sg8
I10
sg9
I10
sg10
I410
ssS'machine3'
p15
(dp16
g5
I610
sg6
I34
sg7
I4
sg8
I7
sg9
I4
sg10
I490
ssS'machine2'
p17
(dp18
g5
I607
sg6
I32
sg7
I1
sg8
I12
sg9
I7
sg10
I420
sssS'Wahono.csv'
p19
(dp20
g3
(dp21
g5
I1351
sg6
I57
sg7
I2
sg8
I3
sg9
I13
sg10
I1010
ssg11
(dp22
g5
I3040
sg6
I48
sg7
I11
sg8
I3
sg9
I317
sg10
I3040
ssg13
(dp23
g5
I2968
sg6
I58
sg7
I1
sg8
I3
sg9
I43
sg10
I1360
ssg15
(dp24
g5
I1614
sg6
I58
sg7
I2
sg8
I2
sg9
I19
sg10
I1220
ssg17
(dp25
g5
I2428
sg6
I58
sg7
I1
sg8
I3
sg9
I41
sg10
I1710
sssS'Hall.csv'
p26
(dp27
g3
(dp28
g5
I703
sg6
I95
sg7
I7
sg8
I4
sg9
I8
sg10
I510
ssg11
(dp29
g5
I3010
sg6
I96
sg7
I7
sg8
I3
sg9
I279
sg10
I3010
ssg13
(dp30
g5
I2070
sg6
I98
sg7
I5
sg8
I3
sg9
I19
sg10
I960
ssg15
(dp31
g5
I933
sg6
I91
sg7
I11
sg8
I4
sg9
I13
sg10
I630
ssg17
(dp32
g5
I834
sg6
I97
sg7
I5
sg8
I4
sg9
I21
sg10
I560
sssS'Danijel.csv'
p33
(dp34
g3
(dp35
g5
I1277
sg6
I38
sg7
I5
sg8
I5
sg9
I19
sg10
I960
ssg11
(dp36
g5
I1910
sg6
I42
sg7
I3
sg8
I3
sg9
I169
sg10
I1910
ssg13
(dp37
g5
I2260
sg6
I45
sg7
I1
sg8
I2
sg9
I36
sg10
I1040
ssg15
(dp38
g5
I1296
sg6
I41
sg7
I4
sg8
I3
sg9
I13
sg10
I990
ssg17
(dp39
g5
I1028
sg6
I40
sg7
I3
sg8
I5
sg9
I20
sg10
I710
sss.(dp0
S'K_all3.csv'
p1
(dp2
S'machine'
p3
(dp4
S'count'
p5
I723
sS'truepos'
p6
I27
sS'falseneg'
p7
I8
sS'unknownyes'
p8
I10
sS'falsepos'
p9
I7
sS'unique'
p10
I570
ssS'none'
p11
(dp12
g5
I510
sg6
I29
sg7
I5
sg8
I11
sg9
I52
sg10
I510
ssS'three'
p13
(dp14
g5
I1070
sg6
I34
sg7
I2
sg8
I9
sg9
I10
sg10
I490
ssS'machine3'
p15
(dp16
g5
I649
sg6
I31
sg7
I1
sg8
I13
sg9
I7
sg10
I500
ssS'machine2'
p17
(dp18
g5
I625
sg6
I31
sg7
I1
sg8
I13
sg9
I12
sg10
I460
sssS'Wahono.csv'
p19
(dp20
g3
(dp21
g5
I1559
sg6
I58
sg7
I2
sg8
I2
sg9
I15
sg10
I1160
ssg11
(dp22
g5
I3190
sg6
I56
sg7
I3
sg8
I3
sg9
I290
sg10
I3190
ssg13
(dp23
g5
I3502
sg6
I56
sg7
I3
sg8
I3
sg9
I45
sg10
I1610
ssg15
(dp24
g5
I1812
sg6
I58
sg7
I3
sg8
I1
sg9
I19
sg10
I1350
ssg17
(dp25
g5
I1473
sg6
I57
sg7
I2
sg8
I3
sg9
I16
sg10
I1010
sssS'Hall.csv'
p26
(dp27
g3
(dp28
g5
I760
sg6
I92
sg7
I10
sg8
I4
sg9
I8
sg10
I550
ssg11
(dp29
g5
I2500
sg6
I87
sg7
I15
sg8
I4
sg9
I248
sg10
I2500
ssg13
(dp30
g5
I1571
sg6
I99
sg7
I4
sg8
I3
sg9
I18
sg10
I720
ssg15
(dp31
g5
I639
sg6
I95
sg7
I6
sg8
I5
sg9
I1
sg10
I420
ssg17
(dp32
g5
I763
sg6
I99
sg7
I3
sg8
I4
sg9
I13
sg10
I510
sssS'Danijel.csv'
p33
(dp34
g3
(dp35
g5
I1007
sg6
I41
sg7
I3
sg8
I4
sg9
I6
sg10
I760
ssg11
(dp36
g5
I3050
sg6
I43
sg7
I3
sg8
I2
sg9
I280
sg10
I3050
ssg13
(dp37
g5
I1924
sg6
I44
sg7
I0
sg8
I4
sg9
I33
sg10
I890
ssg15
(dp38
g5
I1095
sg6
I41
sg7
I5
sg8
I2
sg9
I8
sg10
I830
ssg17
(dp39
g5
I1382
sg6
I42
sg7
I2
sg8
I4
sg9
I26
sg10
I960
sss.(dp0
S'K_all3.csv'
p1
(dp2
S'machine'
p3
(dp4
S'count'
p5
I538
sS'truepos'
p6
I30
sS'falseneg'
p7
I3
sS'unknownyes'
p8
I12
sS'falsepos'
p9
I6
sS'unique'
p10
I410
ssS'none'
p11
(dp12
g5
I380
sg6
I34
sg7
I1
sg8
I10
sg9
I33
sg10
I380
ssS'three'
p13
(dp14
g5
I994
sg6
I36
sg7
I1
sg8
I8
sg9
I14
sg10
I450
ssS'machine3'
p15
(dp16
g5
I678
sg6
I30
sg7
I5
sg8
I10
sg9
I5
sg10
I520
ssS'machine2'
p17
(dp18
g5
I755
sg6
I30
sg7
I2
sg8
I13
sg9
I18
sg10
I560
sssS'Wahono.csv'
p19
(dp20
g3
(dp21
g5
I1831
sg6
I56
sg7
I3
sg8
I3
sg9
I13
sg10
I1360
ssg11
(dp22
g5
I2820
sg6
I53
sg7
I6
sg8
I3
sg9
I275
sg10
I2820
ssg13
(dp23
g5
I4589
sg6
I57
sg7
I0
sg8
I5
sg9
I55
sg10
I2110
ssg15
(dp24
g5
I1582
sg6
I53
sg7
I4
sg8
I5
sg9
I18
sg10
I1170
ssg17
(dp25
g5
I1776
sg6
I57
sg7
I2
sg8
I3
sg9
I23
sg10
I1230
sssS'Hall.csv'
p26
(dp27
g3
(dp28
g5
I600
sg6
I92
sg7
I9
sg8
I5
sg9
I8
sg10
I420
ssg11
(dp29
g5
I2990
sg6
I93
sg7
I11
sg8
I2
sg9
I308
sg10
I2990
ssg13
(dp30
g5
I1247
sg6
I99
sg7
I3
sg8
I4
sg9
I18
sg10
I570
ssg15
(dp31
g5
I689
sg6
I93
sg7
I8
sg8
I5
sg9
I1
sg10
I460
ssg17
(dp32
g5
I593
sg6
I94
sg7
I8
sg8
I4
sg9
I26
sg10
I410
sssS'Danijel.csv'
p33
(dp34
g3
(dp35
g5
I1344
sg6
I41
sg7
I4
sg8
I3
sg9
I8
sg10
I1020
ssg11
(dp36
g5
I2760
sg6
I42
sg7
I5
sg8
I1
sg9
I281
sg10
I2760
ssg13
(dp37
g5
I3088
sg6
I46
sg7
I0
sg8
I2
sg9
I33
sg10
I1430
ssg15
(dp38
g5
I1425
sg6
I43
sg7
I2
sg8
I3
sg9
I15
sg10
I1070
ssg17
(dp39
g5
I923
sg6
I40
sg7
I6
sg8
I2
sg9
I14
sg10
I660
sss.(dp0
S'K_all3.csv'
p1
(dp2
S'machine'
p3
(dp4
S'count'
p5
I522
sS'truepos'
p6
I29
sS'falseneg'
p7
I5
sS'unknownyes'
p8
I11
sS'falsepos'
p9
I6
sS'unique'
p10
I410
ssS'none'
p11
(dp12
g5
I830
sg6
I36
sg7
I4
sg8
I5
sg9
I77
sg10
I830
ssS'three'
p13
(dp14
g5
I1111
sg6
I33
sg7
I2
sg8
I10
sg9
I8
sg10
I510
ssS'machine3'
p15
(dp16
g5
I555
sg6
I28
sg7
I8
sg8
I9
sg9
I8
sg10
I450
ssS'machine2'
p17
(dp18
g5
I547
sg6
I30
sg7
I1
sg8
I14
sg9
I9
sg10
I410
sssS'Wahono.csv'
p19
(dp20
g3
(dp21
g5
I2123
sg6
I60
sg7
I0
sg8
I2
sg9
I18
sg10
I1610
ssg11
(dp22
g5
I3230
sg6
I52
sg7
I5
sg8
I5
sg9
I332
sg10
I3230
ssg13
(dp23
g5
I2766
sg6
I57
sg7
I1
sg8
I4
sg9
I38
sg10
I1260
ssg15
(dp24
g5
I2129
sg6
I57
sg7
I5
sg8
I0
sg9
I17
sg10
I1620
ssg17
(dp25
g5
I2359
sg6
I56
sg7
I2
sg8
I4
sg9
I39
sg10
I1660
sssS'Hall.csv'
p26
(dp27
g3
(dp28
g5
I651
sg6
I96
sg7
I5
sg8
I5
sg9
I6
sg10
I460
ssg11
(dp29
g5
I3230
sg6
I90
sg7
I12
sg8
I4
sg9
I291
sg10
I3230
ssg13
(dp30
g5
I2631
sg6
I96
sg7
I6
sg8
I4
sg9
I34
sg10
I1200
ssg15
(dp31
g5
I614
sg6
I95
sg7
I6
sg8
I5
sg9
I4
sg10
I410
ssg17
(dp32
g5
I926
sg6
I99
sg7
I3
sg8
I4
sg9
I13
sg10
I620
sssS'Danijel.csv'
p33
(dp34
g3
(dp35
g5
I1155
sg6
I43
sg7
I1
sg8
I4
sg9
I16
sg10
I860
ssg11
(dp36
g5
I1960
sg6
I40
sg7
I4
sg8
I4
sg9
I176
sg10
I1960
ssg13
(dp37
g5
I1841
sg6
I46
sg7
I0
sg8
I2
sg9
I20
sg10
I840
ssg15
(dp38
g5
I1303
sg6
I42
sg7
I3
sg8
I3
sg9
I15
sg10
I980
ssg17
(dp39
g5
I1402
sg6
I43
sg7
I2
sg8
I3
sg9
I21
sg10
I960
sss.(dp0
S'K_all3.csv'
p1
(dp2
S'machine'
p3
(dp4
S'count'
p5
I661
sS'truepos'
p6
I33
sS'falseneg'
p7
I4
sS'unknownyes'
p8
I8
sS'falsepos'
p9
I1
sS'unique'
p10
I510
ssS'none'
p11
(dp12
g5
I480
sg6
I30
sg7
I3
sg8
I12
sg9
I51
sg10
I480
ssS'three'
p13
(dp14
g5
I1047
sg6
I28
sg7
I3
sg8
I14
sg9
I14
sg10
I480
ssS'machine3'
p15
(dp16
g5
I643
sg6
I31
sg7
I8
sg8
I6
sg9
I9
sg10
I520
ssS'machine2'
p17
(dp18
g5
I652
sg6
I33
sg7
I5
sg8
I7
sg9
I16
sg10
I460
sssS'Wahono.csv'
p19
(dp20
g3
(dp21
g5
I2229
sg6
I57
sg7
I5
sg8
I0
sg9
I23
sg10
I1660
ssg11
(dp22
g5
I3560
sg6
I52
sg7
I10
sg8
I0
sg9
I346
sg10
I3560
ssg13
(dp23
g5
I3675
sg6
I57
sg7
I3
sg8
I2
sg9
I42
sg10
I1700
ssg15
(dp24
g5
I1180
sg6
I50
sg7
I6
sg8
I6
sg9
I9
sg10
I900
ssg17
(dp25
g5
I2374
sg6
I59
sg7
I1
sg8
I2
sg9
I43
sg10
I1680
sssS'Hall.csv'
p26
(dp27
g3
(dp28
g5
I913
sg6
I97
sg7
I5
sg8
I4
sg9
I19
sg10
I660
ssg11
(dp29
g5
I2470
sg6
I97
sg7
I7
sg8
I2
sg9
I226
sg10
I2470
ssg13
(dp30
g5
I2415
sg6
I102
sg7
I1
sg8
I3
sg9
I31
sg10
I1110
ssg15
(dp31
g5
I685
sg6
I100
sg7
I2
sg8
I4
sg9
I2
sg10
I460
ssg17
(dp32
g5
I769
sg6
I100
sg7
I2
sg8
I4
sg9
I11
sg10
I520
sssS'Danijel.csv'
p33
(dp34
g3
(dp35
g5
I1071
sg6
I39
sg7
I4
sg8
I5
sg9
I11
sg10
I810
ssg11
(dp36
g5
I2830
sg6
I43
sg7
I5
sg8
I0
sg9
I284
sg10
I2830
ssg13
(dp37
g5
I1861
sg6
I43
sg7
I1
sg8
I4
sg9
I33
sg10
I860
ssg15
(dp38
g5
I1176
sg6
I46
sg7
I0
sg8
I2
sg9
I15
sg10
I880
ssg17
(dp39
g5
I1919
sg6
I43
sg7
I2
sg8
I3
sg9
I23
sg10
I1370
sss.(dp0
S'K_all3.csv'
p1
(dp2
S'machine'
p3
(dp4
S'count'
p5
I462
sS'truepos'
p6
I25
sS'falseneg'
p7
I6
sS'unknownyes'
p8
I14
sS'falsepos'
p9
I4
sS'unique'
p10
I360
ssS'none'
p11
(dp12
g5
I500
sg6
I34
sg7
I3
sg8
I8
sg9
I39
sg10
I500
ssS'three'
p13
(dp14
g5
I950
sg6
I34
sg7
I1
sg8
I10
sg9
I10
sg10
I430
ssS'machine3'
p15
(dp16
g5
I630
sg6
I33
sg7
I4
sg8
I8
sg9
I5
sg10
I510
ssS'machine2'
p17
(dp18
g5
I567
sg6
I35
sg7
I1
sg8
I9
sg9
I8
sg10
I410
sssS'Wahono.csv'
p19
(dp20
g3
(dp21
g5
I1496
sg6
I59
sg7
I2
sg8
I1
sg9
I14
sg10
I1110
ssg11
(dp22
g5
I3930
sg6
I59
sg7
I2
sg8
I1
sg9
I435
sg10
I3930
ssg13
(dp23
g5
I4028
sg6
I60
sg7
I1
sg8
I1
sg9
I52
sg10
I1860
ssg15
(dp24
g5
I1905
sg6
I53
sg7
I6
sg8
I3
sg9
I16
sg10
I1420
ssg17
(dp25
g5
I2529
sg6
I56
sg7
I3
sg8
I3
sg9
I44
sg10
I1760
sssS'Hall.csv'
p26
(dp27
g3
(dp28
g5
I601
sg6
I97
sg7
I3
sg8
I6
sg9
I11
sg10
I430
ssg11
(dp29
g5
I2690
sg6
I88
sg7
I13
sg8
I5
sg9
I239
sg10
I2690
ssg13
(dp30
g5
I1124
sg6
I98
sg7
I4
sg8
I4
sg9
I4
sg10
I520
ssg15
(dp31
g5
I871
sg6
I99
sg7
I3
sg8
I4
sg9
I4
sg10
I600
ssg17
(dp32
g5
I516
sg6
I93
sg7
I6
sg8
I7
sg9
I18
sg10
I360
sssS'Danijel.csv'
p33
(dp34
g3
(dp35
g5
I1230
sg6
I40
sg7
I4
sg8
I4
sg9
I17
sg10
I910
ssg11
(dp36
g5
I1630
sg6
I42
sg7
I4
sg8
I2
sg9
I138
sg10
I1630
ssg13
(dp37
g5
I2077
sg6
I42
sg7
I2
sg8
I4
sg9
I21
sg10
I950
ssg15
(dp38
g5
I1091
sg6
I41
sg7
I2
sg8
I5
sg9
I16
sg10
I810
ssg17
(dp39
g5
I1207
sg6
I44
sg7
I1
sg8
I3
sg9
I13
sg10
I840
sss.(dp0
S'K_all3.csv'
p1
(dp2
S'machine'
p3
(dp4
S'count'
p5
I635
sS'truepos'
p6
I32
sS'falseneg'
p7
I5
sS'unknownyes'
p8
I8
sS'falsepos'
p9
I9
sS'unique'
p10
I500
ssS'none'
p11
(dp12
g5
I550
sg6
I27
sg7
I7
sg8
I11
sg9
I47
sg10
I550
ssS'three'
p13
(dp14
g5
I973
sg6
I34
sg7
I1
sg8
I10
sg9
I8
sg10
I440
ssS'machine3'
p15
(dp16
g5
I653
sg6
I32
sg7
I5
sg8
I8
sg9
I7
sg10
I520
ssS'machine2'
p17
(dp18
g5
I650
sg6
I28
sg7
I6
sg8
I11
sg9
I9
sg10
I470
sssS'Wahono.csv'
p19
(dp20
g3
(dp21
g5
I2111
sg6
I59
sg7
I0
sg8
I3
sg9
I22
sg10
I1560
ssg11
(dp22
g5
I3290
sg6
I53
sg7
I7
sg8
I2
sg9
I321
sg10
I3290
ssg13
(dp23
g5
I2956
sg6
I59
sg7
I0
sg8
I3
sg9
I39
sg10
I1350
ssg15
(dp24
g5
I1660
sg6
I51
sg7
I7
sg8
I4
sg9
I16
sg10
I1240
ssg17
(dp25
g5
I1582
sg6
I51
sg7
I5
sg8
I6
sg9
I21
sg10
I1110
sssS'Hall.csv'
p26
(dp27
g3
(dp28
g5
I640
sg6
I100
sg7
I1
sg8
I5
sg9
I18
sg10
I460
ssg11
(dp29
g5
I2880
sg6
I95
sg7
I10
sg8
I1
sg9
I263
sg10
I2880
ssg13
(dp30
g5
I1645
sg6
I100
sg7
I3
sg8
I3
sg9
I8
sg10
I760
ssg15
(dp31
g5
I717
sg6
I93
sg7
I8
sg8
I5
sg9
I3
sg10
I490
ssg17
(dp32
g5
I733
sg6
I99
sg7
I3
sg8
I4
sg9
I11
sg10
I500
sssS'Danijel.csv'
p33
(dp34
g3
(dp35
g5
I1303
sg6
I42
sg7
I4
sg8
I2
sg9
I15
sg10
I970
ssg11
(dp36
g5
I3150
sg6
I40
sg7
I7
sg8
I1
sg9
I324
sg10
I3150
ssg13
(dp37
g5
I2744
sg6
I45
sg7
I1
sg8
I2
sg9
I36
sg10
I1260
ssg15
(dp38
g5
I1136
sg6
I41
sg7
I5
sg8
I2
sg9
I8
sg10
I860
ssg17
(dp39
g5
I963
sg6
I43
sg7
I0
sg8
I5
sg9
I14
sg10
I680
sss.(dp0
S'K_all3.csv'
p1
(dp2
S'machine'
p3
(dp4
S'count'
p5
I482
sS'truepos'
p6
I25
sS'falseneg'
p7
I5
sS'unknownyes'
p8
I15
sS'falsepos'
p9
I12
sS'unique'
p10
I360
ssS'none'
p11
(dp12
g5
I530
sg6
I31
sg7
I7
sg8
I7
sg9
I42
sg10
I530
ssS'three'
p13
(dp14
g5
I1066
sg6
I30
sg7
I2
sg8
I13
sg9
I11
sg10
I490
ssS'machine3'
p15
(dp16
g5
I636
sg6
I29
sg7
I3
sg8
I13
sg9
I4
sg10
I500
ssS'machine2'
p17
(dp18
g5
I647
sg6
I32
sg7
I4
sg8
I9
sg9
I9
sg10
I460
sssS'Wahono.csv'
p19
(dp20
g3
(dp21
g5
I1539
sg6
I52
sg7
I7
sg8
I3
sg9
I9
sg10
I1160
ssg11
(dp22
g5
I3930
sg6
I57
sg7
I5
sg8
I0
sg9
I398
sg10
I3930
ssg13
(dp23
g5
I3530
sg6
I56
sg7
I3
sg8
I3
sg9
I39
sg10
I1610
ssg15
(dp24
g5
I1890
sg6
I57
sg7
I3
sg8
I2
sg9
I19
sg10
I1410
ssg17
(dp25
g5
I2252
sg6
I57
sg7
I1
sg8
I4
sg9
I32
sg10
I1610
sssS'Hall.csv'
p26
(dp27
g3
(dp28
g5
I860
sg6
I95
sg7
I6
sg8
I5
sg9
I9
sg10
I610
ssg11
(dp29
g5
I2560
sg6
I90
sg7
I14
sg8
I2
sg9
I234
sg10
I2560
ssg13
(dp30
g5
I2712
sg6
I99
sg7
I4
sg8
I3
sg9
I38
sg10
I1240
ssg15
(dp31
g5
I905
sg6
I92
sg7
I10
sg8
I4
sg9
I6
sg10
I630
ssg17
(dp32
g5
I1111
sg6
I97
sg7
I6
sg8
I3
sg9
I21
sg10
I760
sssS'Danijel.csv'
p33
(dp34
g3
(dp35
g5
I679
sg6
I40
sg7
I2
sg8
I6
sg9
I7
sg10
I510
ssg11
(dp36
g5
I1470
sg6
I37
sg7
I5
sg8
I6
sg9
I145
sg10
I1470
ssg13
(dp37
g5
I2848
sg6
I42
sg7
I3
sg8
I3
sg9
I37
sg10
I1310
ssg15
(dp38
g5
I1175
sg6
I41
sg7
I2
sg8
I5
sg9
I14
sg10
I880
ssg17
(dp39
g5
I1274
sg6
I41
sg7
I3
sg8
I4
sg9
I25
sg10
I910
sss.(dp0
S'K_all3.csv'
p1
(dp2
S'machine'
p3
(dp4
S'count'
p5
I461
sS'truepos'
p6
I27
sS'falseneg'
p7
I3
sS'unknownyes'
p8
I15
sS'falsepos'
p9
I5
sS'unique'
p10
I360
ssS'none'
p11
(dp12
g5
I500
sg6
I39
sg7
I3
sg8
I3
sg9
I52
sg10
I500
ssS'three'
p13
(dp14
g5
I1092
sg6
I34
sg7
I1
sg8
I10
sg9
I8
sg10
I500
ssS'machine3'
p15
(dp16
g5
I705
sg6
I32
sg7
I6
sg8
I7
sg9
I6
sg10
I560
ssS'machine2'
p17
(dp18
g5
I881
sg6
I34
sg7
I3
sg8
I8
sg9
I17
sg10
I660
sssS'Wahono.csv'
p19
(dp20
g3
(dp21
g5
I1837
sg6
I54
sg7
I4
sg8
I4
sg9
I15
sg10
I1360
ssg11
(dp22
g5
I3550
sg6
I59
sg7
I2
sg8
I1
sg9
I340
sg10
I3550
ssg13
(dp23
g5
I3579
sg6
I60
sg7
I0
sg8
I2
sg9
I34
sg10
I1650
ssg15
(dp24
g5
I1351
sg6
I54
sg7
I5
sg8
I3
sg9
I6
sg10
I1020
ssg17
(dp25
g5
I1621
sg6
I52
sg7
I5
sg8
I5
sg9
I31
sg10
I1110
sssS'Hall.csv'
p26
(dp27
g3
(dp28
g5
I593
sg6
I95
sg7
I6
sg8
I5
sg9
I8
sg10
I420
ssg11
(dp29
g5
I2660
sg6
I87
sg7
I15
sg8
I4
sg9
I261
sg10
I2660
ssg13
(dp30
g5
I1552
sg6
I99
sg7
I3
sg8
I4
sg9
I17
sg10
I710
ssg15
(dp31
g5
I617
sg6
I95
sg7
I7
sg8
I4
sg9
I1
sg10
I410
ssg17
(dp32
g5
I599
sg6
I97
sg7
I3
sg8
I6
sg9
I17
sg10
I410
sssS'Danijel.csv'
p33
(dp34
g3
(dp35
g5
I1005
sg6
I42
sg7
I4
sg8
I2
sg9
I9
sg10
I760
ssg11
(dp36
g5
I3270
sg6
I41
sg7
I6
sg8
I1
sg9
I298
sg10
I3270
ssg13
(dp37
g5
I1653
sg6
I42
sg7
I2
sg8
I4
sg9
I19
sg10
I760
ssg15
(dp38
g5
I1339
sg6
I42
sg7
I3
sg8
I3
sg9
I14
sg10
I1010
ssg17
(dp39
g5
I1483
sg6
I45
sg7
I0
sg8
I3
sg9
I15
sg10
I1060
sss.(dp0
S'K_all3.csv'
p1
(dp2
S'machine'
p3
(dp4
S'count'
p5
I672
sS'truepos'
p6
I32
sS'falseneg'
p7
I4
sS'unknownyes'
p8
I9
sS'falsepos'
p9
I6
sS'unique'
p10
I550
ssS'none'
p11
(dp12
g5
I440
sg6
I32
sg7
I5
sg8
I8
sg9
I29
sg10
I440
ssS'three'
p13
(dp14
g5
I1072
sg6
I31
sg7
I1
sg8
I13
sg9
I8
sg10
I490
ssS'machine3'
p15
(dp16
g5
I591
sg6
I31
sg7
I4
sg8
I10
sg9
I7
sg10
I480
ssS'machine2'
p17
(dp18
g5
I804
sg6
I34
sg7
I3
sg8
I8
sg9
I13
sg10
I620
sssS'Wahono.csv'
p19
(dp20
g3
(dp21
g5
I1422
sg6
I56
sg7
I2
sg8
I4
sg9
I13
sg10
I1060
ssg11
(dp22
g5
I3390
sg6
I46
sg7
I12
sg8
I4
sg9
I333
sg10
I3390
ssg13
(dp23
g5
I3827
sg6
I60
sg7
I0
sg8
I2
sg9
I50
sg10
I1760
ssg15
(dp24
g5
I1644
sg6
I57
sg7
I2
sg8
I3
sg9
I13
sg10
I1230
ssg17
(dp25
g5
I2113
sg6
I57
sg7
I3
sg8
I2
sg9
I37
sg10
I1460
sssS'Hall.csv'
p26
(dp27
g3
(dp28
g5
I490
sg6
I93
sg7
I5
sg8
I8
sg9
I14
sg10
I360
ssg11
(dp29
g5
I2170
sg6
I94
sg7
I10
sg8
I2
sg9
I193
sg10
I2170
ssg13
(dp30
g5
I3924
sg6
I104
sg7
I0
sg8
I2
sg9
I60
sg10
I1800
ssg15
(dp31
g5
I736
sg6
I96
sg7
I6
sg8
I4
sg9
I5
sg10
I500
ssg17
(dp32
g5
I985
sg6
I98
sg7
I4
sg8
I4
sg9
I28
sg10
I660
sssS'Danijel.csv'
p33
(dp34
g3
(dp35
g5
I1140
sg6
I42
sg7
I3
sg8
I3
sg9
I13
sg10
I860
ssg11
(dp36
g5
I3190
sg6
I44
sg7
I2
sg8
I2
sg9
I297
sg10
I3190
ssg13
(dp37
g5
I4121
sg6
I43
sg7
I2
sg8
I3
sg9
I52
sg10
I1890
ssg15
(dp38
g5
I1182
sg6
I42
sg7
I3
sg8
I3
sg9
I11
sg10
I920
ssg17
(dp39
g5
I964
sg6
I43
sg7
I2
sg8
I3
sg9
I15
sg10
I680
sss.(dp0
S'K_all3.csv'
p1
(dp2
S'machine'
p3
(dp4
S'count'
p5
I664
sS'truepos'
p6
I27
sS'falseneg'
p7
I8
sS'unknownyes'
p8
I10
sS'falsepos'
p9
I7
sS'unique'
p10
I500
ssS'none'
p11
(dp12
g5
I680
sg6
I33
sg7
I6
sg8
I6
sg9
I63
sg10
I680
ssS'three'
p13
(dp14
g5
I1051
sg6
I37
sg7
I1
sg8
I7
sg9
I14
sg10
I480
ssS'machine3'
p15
(dp16
g5
I757
sg6
I29
sg7
I9
sg8
I7
sg9
I3
sg10
I650
ssS'machine2'
p17
(dp18
g5
I541
sg6
I29
sg7
I1
sg8
I15
sg9
I3
sg10
I410
sssS'Wahono.csv'
p19
(dp20
g3
(dp21
g5
I2077
sg6
I56
sg7
I5
sg8
I1
sg9
I22
sg10
I1560
ssg11
(dp22
g5
I3620
sg6
I54
sg7
I8
sg8
I0
sg9
I313
sg10
I3620
ssg13
(dp23
g5
I4226
sg6
I59
sg7
I0
sg8
I3
sg9
I46
sg10
I1930
ssg15
(dp24
g5
I1552
sg6
I56
sg7
I2
sg8
I4
sg9
I21
sg10
I1160
ssg17
(dp25
g5
I2213
sg6
I56
sg7
I3
sg8
I3
sg9
I29
sg10
I1560
sssS'Hall.csv'
p26
(dp27
g3
(dp28
g5
I660
sg6
I96
sg7
I4
sg8
I6
sg9
I15
sg10
I460
ssg11
(dp29
g5
I2800
sg6
I93
sg7
I10
sg8
I3
sg9
I313
sg10
I2800
ssg13
(dp30
g5
I1283
sg6
I101
sg7
I1
sg8
I4
sg9
I18
sg10
I590
ssg15
(dp31
g5
I784
sg6
I99
sg7
I3
sg8
I4
sg9
I4
sg10
I530
ssg17
(dp32
g5
I508
sg6
I91
sg7
I7
sg8
I8
sg9
I17
sg10
I360
sssS'Danijel.csv'
p33
(dp34
g3
(dp35
g5
I1091
sg6
I42
sg7
I3
sg8
I3
sg9
I8
sg10
I820
ssg11
(dp36
g5
I2660
sg6
I42
sg7
I5
sg8
I1
sg9
I249
sg10
I2660
ssg13
(dp37
g5
I2867
sg6
I43
sg7
I1
sg8
I4
sg9
I24
sg10
I1310
ssg15
(dp38
g5
I941
sg6
I40
sg7
I4
sg8
I4
sg9
I6
sg10
I700
ssg17
(dp39
g5
I1358
sg6
I43
sg7
I1
sg8
I4
sg9
I23
sg10
I960
sss.(dp0
S'K_all3.csv'
p1
(dp2
S'machine'
p3
(dp4
S'count'
p5
I718
sS'truepos'
p6
I29
sS'falseneg'
p7
I10
sS'unknownyes'
p8
I6
sS'falsepos'
p9
I6
sS'unique'
p10
I560
ssS'none'
p11
(dp12
g5
I490
sg6
I32
sg7
I2
sg8
I11
sg9
I42
sg10
I490
ssS'three'
p13
(dp14
g5
I939
sg6
I34
sg7
I3
sg8
I8
sg9
I10
sg10
I430
ssS'machine3'
p15
(dp16
g5
I683
sg6
I31
sg7
I9
sg8
I5
sg9
I5
sg10
I550
ssS'machine2'
p17
(dp18
g5
I721
sg6
I35
sg7
I3
sg8
I7
sg9
I11
sg10
I510
sssS'Wahono.csv'
p19
(dp20
g3
(dp21
g5
I1537
sg6
I57
sg7
I1
sg8
I4
sg9
I19
sg10
I1160
ssg11
(dp22
g5
I3270
sg6
I56
sg7
I6
sg8
I0
sg9
I329
sg10
I3270
ssg13
(dp23
g5
I3892
sg6
I57
sg7
I5
sg8
I0
sg9
I38
sg10
I1790
ssg15
(dp24
g5
I1728
sg6
I57
sg7
I1
sg8
I4
sg9
I15
sg10
I1300
ssg17
(dp25
g5
I3028
sg6
I53
sg7
I6
sg8
I3
sg9
I45
sg10
I2130
sssS'Hall.csv'
p26
(dp27
g3
(dp28
g5
I611
sg6
I97
sg7
I3
sg8
I6
sg9
I14
sg10
I440
ssg11
(dp29
g5
I3980
sg6
I92
sg7
I13
sg8
I1
sg9
I369
sg10
I3980
ssg13
(dp30
g5
I1767
sg6
I99
sg7
I3
sg8
I4
sg9
I20
sg10
I800
ssg15
(dp31
g5
I586
sg6
I93
sg7
I8
sg8
I5
sg9
I3
sg10
I390
ssg17
(dp32
g5
I1228
sg6
I98
sg7
I5
sg8
I3
sg9
I16
sg10
I810
sssS'Danijel.csv'
p33
(dp34
g3
(dp35
g5
I1021
sg6
I39
sg7
I6
sg8
I3
sg9
I8
sg10
I760
ssg11
(dp36
g5
I1360
sg6
I38
sg7
I6
sg8
I4
sg9
I121
sg10
I1360
ssg13
(dp37
g5
I2031
sg6
I45
sg7
I0
sg8
I3
sg9
I18
sg10
I930
ssg15
(dp38
g5
I1255
sg6
I36
sg7
I9
sg8
I3
sg9
I8
sg10
I1000
ssg17
(dp39
g5
I1080
sg6
I43
sg7
I1
sg8
I4
sg9
I16
sg10
I760
sss.(dp0
S'K_all3.csv'
p1
(dp2
S'machine'
p3
(dp4
S'count'
p5
I683
sS'truepos'
p6
I28
sS'falseneg'
p7
I4
sS'unknownyes'
p8
I13
sS'falsepos'
p9
I2
sS'unique'
p10
I560
ssS'none'
p11
(dp12
g5
I820
sg6
I35
sg7
I5
sg8
I5
sg9
I79
sg10
I820
ssS'three'
p13
(dp14
g5
I915
sg6
I32
sg7
I1
sg8
I12
sg9
I10
sg10
I420
ssS'machine3'
p15
(dp16
g5
I853
sg6
I33
sg7
I5
sg8
I7
sg9
I4
sg10
I700
ssS'machine2'
p17
(dp18
g5
I560
sg6
I32
sg7
I0
sg8
I13
sg9
I9
sg10
I410
sssS'Wahono.csv'
p19
(dp20
g3
(dp21
g5
I1692
sg6
I53
sg7
I5
sg8
I4
sg9
I21
sg10
I1260
ssg11
(dp22
g5
I3240
sg6
I50
sg7
I10
sg8
I2
sg9
I295
sg10
I3240
ssg13
(dp23
g5
I3544
sg6
I52
sg7
I5
sg8
I5
sg9
I42
sg10
I1620
ssg15
(dp24
g5
I1422
sg6
I56
sg7
I4
sg8
I2
sg9
I12
sg10
I1090
ssg17
(dp25
g5
I1816
sg6
I59
sg7
I1
sg8
I2
sg9
I26
sg10
I1260
sssS'Hall.csv'
p26
(dp27
g3
(dp28
g5
I563
sg6
I91
sg7
I10
sg8
I5
sg9
I12
sg10
I410
ssg11
(dp29
g5
I3140
sg6
I91
sg7
I12
sg8
I3
sg9
I309
sg10
I3140
ssg13
(dp30
g5
I1527
sg6
I98
sg7
I4
sg8
I4
sg9
I11
sg10
I700
ssg15
(dp31
g5
I774
sg6
I96
sg7
I6
sg8
I4
sg9
I9
sg10
I520
ssg17
(dp32
g5
I667
sg6
I97
sg7
I5
sg8
I4
sg9
I10
sg10
I460
sssS'Danijel.csv'
p33
(dp34
g3
(dp35
g5
I1275
sg6
I40
sg7
I5
sg8
I3
sg9
I14
sg10
I960
ssg11
(dp36
g5
I3550
sg6
I41
sg7
I5
sg8
I2
sg9
I354
sg10
I3550
ssg13
(dp37
g5
I2607
sg6
I44
sg7
I0
sg8
I4
sg9
I28
sg10
I1210
ssg15
(dp38
g5
I1151
sg6
I37
sg7
I8
sg8
I3
sg9
I16
sg10
I870
ssg17
(dp39
g5
I1811
sg6
I44
sg7
I1
sg8
I3
sg9
I35
sg10
I1260
sss.(dp0
S'K_all3.csv'
p1
(dp2
S'machine'
p3
(dp4
S'count'
p5
I550
sS'truepos'
p6
I29
sS'falseneg'
p7
I3
sS'unknownyes'
p8
I13
sS'falsepos'
p9
I10
sS'unique'
p10
I410
ssS'none'
p11
(dp12
g5
I480
sg6
I32
sg7
I2
sg8
I11
sg9
I46
sg10
I480
ssS'three'
p13
(dp14
g5
I829
sg6
I34
sg7
I0
sg8
I11
sg9
I10
sg10
I380
ssS'machine3'
p15
(dp16
g5
I667
sg6
I29
sg7
I8
sg8
I8
sg9
I4
sg10
I570
ssS'machine2'
p17
(dp18
g5
I684
sg6
I35
sg7
I3
sg8
I7
sg9
I11
sg10
I510
sssS'Wahono.csv'
p19
(dp20
g3
(dp21
g5
I1091
sg6
I45
sg7
I7
sg8
I10
sg9
I13
sg10
I810
ssg11
(dp22
g5
I3080
sg6
I51
sg7
I11
sg8
I0
sg9
I291
sg10
I3080
ssg13
(dp23
g5
I4402
sg6
I58
sg7
I0
sg8
I4
sg9
I62
sg10
I2010
ssg15
(dp24
g5
I1931
sg6
I59
sg7
I0
sg8
I3
sg9
I17
sg10
I1450
ssg17
(dp25
g5
I2123
sg6
I54
sg7
I5
sg8
I3
sg9
I35
sg10
I1510
sssS'Hall.csv'
p26
(dp27
g3
(dp28
g5
I632
sg6
I90
sg7
I9
sg8
I7
sg9
I9
sg10
I460
ssg11
(dp29
g5
I3950
sg6
I95
sg7
I9
sg8
I2
sg9
I407
sg10
I3950
ssg13
(dp30
g5
I2208
sg6
I99
sg7
I4
sg8
I3
sg9
I27
sg10
I1010
ssg15
(dp31
g5
I676
sg6
I93
sg7
I8
sg8
I5
sg9
I6
sg10
I460
ssg17
(dp32
g5
I1275
sg6
I97
sg7
I5
sg8
I4
sg9
I28
sg10
I860
sssS'Danijel.csv'
p33
(dp34
g3
(dp35
g5
I1358
sg6
I38
sg7
I6
sg8
I4
sg9
I20
sg10
I1010
ssg11
(dp36
g5
I2820
sg6
I44
sg7
I3
sg8
I1
sg9
I261
sg10
I2820
ssg13
(dp37
g5
I1626
sg6
I44
sg7
I1
sg8
I3
sg9
I21
sg10
I750
ssg15
(dp38
g5
I1077
sg6
I37
sg7
I9
sg8
I2
sg9
I8
sg10
I860
ssg17
(dp39
g5
I1380
sg6
I43
sg7
I2
sg8
I3
sg9
I17
sg10
I960
sss.(dp0
S'K_all3.csv'
p1
(dp2
S'machine'
p3
(dp4
S'count'
p5
I534
sS'truepos'
p6
I28
sS'falseneg'
p7
I6
sS'unknownyes'
p8
I11
sS'falsepos'
p9
I9
sS'unique'
p10
I410
ssS'none'
p11
(dp12
g5
I440
sg6
I23
sg7
I6
sg8
I16
sg9
I37
sg10
I440
ssS'three'
p13
(dp14
g5
I855
sg6
I32
sg7
I1
sg8
I12
sg9
I7
sg10
I390
ssS'machine3'
p15
(dp16
g5
I692
sg6
I29
sg7
I3
sg8
I13
sg9
I6
sg10
I570
ssS'machine2'
p17
(dp18
g5
I692
sg6
I36
sg7
I1
sg8
I8
sg9
I12
sg10
I500
sssS'Wahono.csv'
p19
(dp20
g3
(dp21
g5
I2223
sg6
I56
sg7
I4
sg8
I2
sg9
I22
sg10
I1660
ssg11
(dp22
g5
I2930
sg6
I56
sg7
I4
sg8
I2
sg9
I262
sg10
I2930
ssg13
(dp23
g5
I3813
sg6
I58
sg7
I1
sg8
I3
sg9
I42
sg10
I1750
ssg15
(dp24
g5
I1767
sg6
I54
sg7
I7
sg8
I1
sg9
I22
sg10
I1320
ssg17
(dp25
g5
I2605
sg6
I55
sg7
I2
sg8
I5
sg9
I42
sg10
I1810
sssS'Hall.csv'
p26
(dp27
g3
(dp28
g5
I530
sg6
I96
sg7
I5
sg8
I5
sg9
I19
sg10
I370
ssg11
(dp29
g5
I4070
sg6
I93
sg7
I11
sg8
I2
sg9
I413
sg10
I4070
ssg13
(dp30
g5
I1215
sg6
I99
sg7
I3
sg8
I4
sg9
I9
sg10
I560
ssg15
(dp31
g5
I686
sg6
I94
sg7
I7
sg8
I5
sg9
I6
sg10
I460
ssg17
(dp32
g5
I596
sg6
I99
sg7
I2
sg8
I5
sg9
I14
sg10
I410
sssS'Danijel.csv'
p33
(dp34
g3
(dp35
g5
I949
sg6
I43
sg7
I2
sg8
I3
sg9
I5
sg10
I710
ssg11
(dp36
g5
I2840
sg6
I45
sg7
I1
sg8
I2
sg9
I263
sg10
I2840
ssg13
(dp37
g5
I2168
sg6
I45
sg7
I0
sg8
I3
sg9
I37
sg10
I990
ssg15
(dp38
g5
I1054
sg6
I37
sg7
I6
sg8
I5
sg9
I7
sg10
I820
ssg17
(dp39
g5
I1023
sg6
I44
sg7
I0
sg8
I4
sg9
I18
sg10
I710
sss.(dp0
S'K_all3.csv'
p1
(dp2
S'machine'
p3
(dp4
S'count'
p5
I589
sS'truepos'
p6
I33
sS'falseneg'
p7
I2
sS'unknownyes'
p8
I10
sS'falsepos'
p9
I2
sS'unique'
p10
I460
ssS'none'
p11
(dp12
g5
I460
sg6
I31
sg7
I1
sg8
I13
sg9
I45
sg10
I460
ssS'three'
p13
(dp14
g5
I1188
sg6
I38
sg7
I0
sg8
I7
sg9
I16
sg10
I540
ssS'machine3'
p15
(dp16
g5
I688
sg6
I31
sg7
I7
sg8
I7
sg9
I8
sg10
I570
ssS'machine2'
p17
(dp18
g5
I515
sg6
I31
sg7
I1
sg8
I13
sg9
I6
sg10
I360
sssS'Wahono.csv'
p19
(dp20
g3
(dp21
g5
I1894
sg6
I55
sg7
I4
sg8
I3
sg9
I15
sg10
I1410
ssg11
(dp22
g5
I2720
sg6
I54
sg7
I6
sg8
I2
sg9
I288
sg10
I2720
ssg13
(dp23
g5
I4265
sg6
I59
sg7
I1
sg8
I2
sg9
I52
sg10
I1960
ssg15
(dp24
g5
I1901
sg6
I55
sg7
I5
sg8
I2
sg9
I18
sg10
I1430
ssg17
(dp25
g5
I2796
sg6
I58
sg7
I2
sg8
I2
sg9
I34
sg10
I1960
sssS'Hall.csv'
p26
(dp27
g3
(dp28
g5
I662
sg6
I95
sg7
I6
sg8
I5
sg9
I18
sg10
I470
ssg11
(dp29
g5
I4410
sg6
I93
sg7
I12
sg8
I1
sg9
I439
sg10
I4410
ssg13
(dp30
g5
I1239
sg6
I100
sg7
I2
sg8
I4
sg9
I10
sg10
I570
ssg15
(dp31
g5
I879
sg6
I96
sg7
I6
sg8
I4
sg9
I12
sg10
I590
ssg17
(dp32
g5
I2032
sg6
I98
sg7
I4
sg8
I4
sg9
I31
sg10
I1360
sssS'Danijel.csv'
p33
(dp34
g3
(dp35
g5
I877
sg6
I38
sg7
I7
sg8
I3
sg9
I9
sg10
I660
ssg11
(dp36
g5
I2150
sg6
I40
sg7
I6
sg8
I2
sg9
I190
sg10
I2150
ssg13
(dp37
g5
I2578
sg6
I45
sg7
I1
sg8
I2
sg9
I40
sg10
I1180
ssg15
(dp38
g5
I1004
sg6
I42
sg7
I3
sg8
I3
sg9
I16
sg10
I750
ssg17
(dp39
g5
I1393
sg6
I42
sg7
I4
sg8
I2
sg9
I15
sg10
I1010
sss.(dp0
S'K_all3.csv'
p1
(dp2
S'machine'
p3
(dp4
S'count'
p5
I585
sS'truepos'
p6
I33
sS'falseneg'
p7
I2
sS'unknownyes'
p8
I10
sS'falsepos'
p9
I6
sS'unique'
p10
I440
ssS'none'
p11
(dp12
g5
I600
sg6
I35
sg7
I1
sg8
I9
sg9
I53
sg10
I600
ssS'three'
p13
(dp14
g5
I1275
sg6
I35
sg7
I1
sg8
I9
sg9
I14
sg10
I590
ssS'machine3'
p15
(dp16
g5
I529
sg6
I31
sg7
I3
sg8
I11
sg9
I5
sg10
I430
ssS'machine2'
p17
(dp18
g5
I495
sg6
I30
sg7
I3
sg8
I12
sg9
I6
sg10
I360
sssS'Wahono.csv'
p19
(dp20
g3
(dp21
g5
I1765
sg6
I57
sg7
I3
sg8
I2
sg9
I14
sg10
I1310
ssg11
(dp22
g5
I3500
sg6
I52
sg7
I7
sg8
I3
sg9
I328
sg10
I3500
ssg13
(dp23
g5
I4157
sg6
I58
sg7
I3
sg8
I1
sg9
I37
sg10
I1910
ssg15
(dp24
g5
I1743
sg6
I55
sg7
I4
sg8
I3
sg9
I13
sg10
I1320
ssg17
(dp25
g5
I1616
sg6
I56
sg7
I3
sg8
I3
sg9
I18
sg10
I1160
sssS'Hall.csv'
p26
(dp27
g3
(dp28
g5
I500
sg6
I95
sg7
I5
sg8
I6
sg9
I13
sg10
I360
ssg11
(dp29
g5
I3880
sg6
I97
sg7
I8
sg8
I1
sg9
I378
sg10
I3880
ssg13
(dp30
g5
I4300
sg6
I97
sg7
I7
sg8
I2
sg9
I47
sg10
I1970
ssg15
(dp31
g5
I640
sg6
I94
sg7
I7
sg8
I5
sg9
I4
sg10
I420
ssg17
(dp32
g5
I757
sg6
I100
sg7
I2
sg8
I4
sg9
I12
sg10
I510
sssS'Danijel.csv'
p33
(dp34
g3
(dp35
g5
I816
sg6
I45
sg7
I0
sg8
I3
sg9
I7
sg10
I610
ssg11
(dp36
g5
I2580
sg6
I41
sg7
I6
sg8
I1
sg9
I272
sg10
I2580
ssg13
(dp37
g5
I2263
sg6
I44
sg7
I0
sg8
I4
sg9
I33
sg10
I1040
ssg15
(dp38
g5
I1441
sg6
I43
sg7
I2
sg8
I3
sg9
I11
sg10
I1080
ssg17
(dp39
g5
I2301
sg6
I43
sg7
I2
sg8
I3
sg9
I39
sg10
I1610
sss.(dp0
S'K_all3.csv'
p1
(dp2
S'machine'
p3
(dp4
S'count'
p5
I779
sS'truepos'
p6
I27
sS'falseneg'
p7
I8
sS'unknownyes'
p8
I10
sS'falsepos'
p9
I6
sS'unique'
p10
I630
ssS'none'
p11
(dp12
g5
I390
sg6
I33
sg7
I3
sg8
I9
sg9
I36
sg10
I390
ssS'three'
p13
(dp14
g5
I1031
sg6
I37
sg7
I0
sg8
I8
sg9
I11
sg10
I470
ssS'machine3'
p15
(dp16
g5
I562
sg6
I33
sg7
I1
sg8
I11
sg9
I6
sg10
I440
ssS'machine2'
p17
(dp18
g5
I505
sg6
I31
sg7
I5
sg8
I9
sg9
I3
sg10
I360
sssS'Wahono.csv'
p19
(dp20
g3
(dp21
g5
I1633
sg6
I55
sg7
I4
sg8
I3
sg9
I19
sg10
I1210
ssg11
(dp22
g5
I3470
sg6
I54
sg7
I7
sg8
I1
sg9
I352
sg10
I3470
ssg13
(dp23
g5
I3211
sg6
I58
sg7
I1
sg8
I3
sg9
I42
sg10
I1480
ssg15
(dp24
g5
I1675
sg6
I58
sg7
I1
sg8
I3
sg9
I20
sg10
I1270
ssg17
(dp25
g5
I1511
sg6
I56
sg7
I3
sg8
I3
sg9
I27
sg10
I1060
sssS'Hall.csv'
p26
(dp27
g3
(dp28
g5
I353
sg6
I80
sg7
I9
sg8
I17
sg9
I9
sg10
I260
ssg11
(dp29
g5
I4430
sg6
I92
sg7
I13
sg8
I1
sg9
I459
sg10
I4430
ssg13
(dp30
g5
I1881
sg6
I97
sg7
I5
sg8
I4
sg9
I24
sg10
I860
ssg15
(dp31
g5
I807
sg6
I95
sg7
I7
sg8
I4
sg9
I5
sg10
I550
ssg17
(dp32
g5
I936
sg6
I95
sg7
I7
sg8
I4
sg9
I13
sg10
I630
sssS'Danijel.csv'
p33
(dp34
g3
(dp35
g5
I742
sg6
I40
sg7
I3
sg8
I5
sg9
I6
sg10
I560
ssg11
(dp36
g5
I1290
sg6
I40
sg7
I4
sg8
I4
sg9
I99
sg10
I1290
ssg13
(dp37
g5
I2063
sg6
I45
sg7
I0
sg8
I3
sg9
I22
sg10
I950
ssg15
(dp38
g5
I1125
sg6
I41
sg7
I4
sg8
I3
sg9
I10
sg10
I860
ssg17
(dp39
g5
I1161
sg6
I39
sg7
I5
sg8
I4
sg9
I17
sg10
I810
sss.(dp0
S'K_all3.csv'
p1
(dp2
S'machine'
p3
(dp4
S'count'
p5
I666
sS'truepos'
p6
I27
sS'falseneg'
p7
I7
sS'unknownyes'
p8
I11
sS'falsepos'
p9
I6
sS'unique'
p10
I510
ssS'none'
p11
(dp12
g5
I460
sg6
I32
sg7
I3
sg8
I10
sg9
I47
sg10
I460
ssS'three'
p13
(dp14
g5
I694
sg6
I29
sg7
I1
sg8
I15
sg9
I10
sg10
I320
ssS'machine3'
p15
(dp16
g5
I656
sg6
I32
sg7
I6
sg8
I7
sg9
I7
sg10
I510
ssS'machine2'
p17
(dp18
g5
I729
sg6
I34
sg7
I2
sg8
I9
sg9
I8
sg10
I510
sssS'Wahono.csv'
p19
(dp20
g3
(dp21
g5
I2084
sg6
I56
sg7
I4
sg8
I2
sg9
I29
sg10
I1560
ssg11
(dp22
g5
I3640
sg6
I52
sg7
I8
sg8
I2
sg9
I330
sg10
I3640
ssg13
(dp23
g5
I4553
sg6
I59
sg7
I0
sg8
I3
sg9
I49
sg10
I2080
ssg15
(dp24
g5
I1909
sg6
I59
sg7
I1
sg8
I2
sg9
I17
sg10
I1440
ssg17
(dp25
g5
I1994
sg6
I57
sg7
I3
sg8
I2
sg9
I20
sg10
I1410
sssS'Hall.csv'
p26
(dp27
g3
(dp28
g5
I801
sg6
I96
sg7
I5
sg8
I5
sg9
I18
sg10
I570
ssg11
(dp29
g5
I4290
sg6
I95
sg7
I10
sg8
I1
sg9
I420
sg10
I4290
ssg13
(dp30
g5
I3351
sg6
I99
sg7
I4
sg8
I3
sg9
I33
sg10
I1530
ssg15
(dp31
g5
I761
sg6
I94
sg7
I8
sg8
I4
sg9
I3
sg10
I510
ssg17
(dp32
g5
I853
sg6
I99
sg7
I3
sg8
I4
sg9
I13
sg10
I580
sssS'Danijel.csv'
p33
(dp34
g3
(dp35
g5
I1029
sg6
I41
sg7
I3
sg8
I4
sg9
I12
sg10
I760
ssg11
(dp36
g5
I1670
sg6
I41
sg7
I6
sg8
I1
sg9
I175
sg10
I1670
ssg13
(dp37
g5
I1947
sg6
I44
sg7
I1
sg8
I3
sg9
I18
sg10
I890
ssg15
(dp38
g5
I1225
sg6
I42
sg7
I4
sg8
I2
sg9
I5
sg10
I950
ssg17
(dp39
g5
I1106
sg6
I44
sg7
I1
sg8
I3
sg9
I14
sg10
I760
sss.(dp0
S'K_all3.csv'
p1
(dp2
S'machine'
p3
(dp4
S'count'
p5
I646
sS'truepos'
p6
I31
sS'falseneg'
p7
I4
sS'unknownyes'
p8
I10
sS'falsepos'
p9
I4
sS'unique'
p10
I510
ssS'none'
p11
(dp12
g5
I480
sg6
I32
sg7
I5
sg8
I8
sg9
I41
sg10
I480
ssS'three'
p13
(dp14
g5
I1003
sg6
I36
sg7
I1
sg8
I8
sg9
I21
sg10
I460
ssS'machine3'
p15
(dp16
g5
I556
sg6
I28
sg7
I7
sg8
I10
sg9
I6
sg10
I450
ssS'machine2'
p17
(dp18
g5
I579
sg6
I30
sg7
I3
sg8
I12
sg9
I11
sg10
I410
sssS'Wahono.csv'
p19
(dp20
g3
(dp21
g5
I2005
sg6
I57
sg7
I2
sg8
I3
sg9
I15
sg10
I1500
ssg11
(dp22
g5
I3600
sg6
I60
sg7
I1
sg8
I1
sg9
I359
sg10
I3600
ssg13
(dp23
g5
I3959
sg6
I54
sg7
I5
sg8
I3
sg9
I61
sg10
I1820
ssg15
(dp24
g5
I1584
sg6
I57
sg7
I2
sg8
I3
sg9
I12
sg10
I1200
ssg17
(dp25
g5
I2880
sg6
I57
sg7
I3
sg8
I2
sg9
I39
sg10
I2010
sssS'Hall.csv'
p26
(dp27
g3
(dp28
g5
I490
sg6
I97
sg7
I3
sg8
I6
sg9
I10
sg10
I350
ssg11
(dp29
g5
I3850
sg6
I94
sg7
I9
sg8
I3
sg9
I372
sg10
I3850
ssg13
(dp30
g5
I1931
sg6
I100
sg7
I2
sg8
I4
sg9
I15
sg10
I890
ssg15
(dp31
g5
I1190
sg6
I97
sg7
I5
sg8
I4
sg9
I17
sg10
I840
ssg17
(dp32
g5
I813
sg6
I97
sg7
I4
sg8
I5
sg9
I16
sg10
I560
sssS'Danijel.csv'
p33
(dp34
g3
(dp35
g5
I1331
sg6
I40
sg7
I6
sg8
I2
sg9
I12
sg10
I1010
ssg11
(dp36
g5
I2900
sg6
I43
sg7
I3
sg8
I2
sg9
I285
sg10
I2900
ssg13
(dp37
g5
I2035
sg6
I44
sg7
I0
sg8
I4
sg9
I19
sg10
I930
ssg15
(dp38
g5
I1251
sg6
I43
sg7
I2
sg8
I3
sg9
I15
sg10
I940
ssg17
(dp39
g5
I1006
sg6
I42
sg7
I2
sg8
I4
sg9
I26
sg10
I710
sss.(dp0
S'K_all3.csv'
p1
(dp2
S'machine'
p3
(dp4
S'count'
p5
I603
sS'truepos'
p6
I33
sS'falseneg'
p7
I6
sS'unknownyes'
p8
I6
sS'falsepos'
p9
I8
sS'unique'
p10
I450
ssS'none'
p11
(dp12
g5
I430
sg6
I31
sg7
I5
sg8
I9
sg9
I30
sg10
I430
ssS'three'
p13
(dp14
g5
I1048
sg6
I37
sg7
I0
sg8
I8
sg9
I11
sg10
I480
ssS'machine3'
p15
(dp16
g5
I659
sg6
I31
sg7
I5
sg8
I9
sg9
I14
sg10
I520
ssS'machine2'
p17
(dp18
g5
I687
sg6
I31
sg7
I5
sg8
I9
sg9
I8
sg10
I480
sssS'Wahono.csv'
p19
(dp20
g3
(dp21
g5
I1358
sg6
I52
sg7
I5
sg8
I5
sg9
I11
sg10
I1010
ssg11
(dp22
g5
I3440
sg6
I52
sg7
I9
sg8
I1
sg9
I347
sg10
I3440
ssg13
(dp23
g5
I4017
sg6
I60
sg7
I0
sg8
I2
sg9
I55
sg10
I1840
ssg15
(dp24
g5
I1997
sg6
I55
sg7
I4
sg8
I3
sg9
I22
sg10
I1510
ssg17
(dp25
g5
I2504
sg6
I59
sg7
I0
sg8
I3
sg9
I30
sg10
I1770
sssS'Hall.csv'
p26
(dp27
g3
(dp28
g5
I662
sg6
I91
sg7
I7
sg8
I8
sg9
I9
sg10
I470
ssg11
(dp29
g5
I4040
sg6
I94
sg7
I11
sg8
I1
sg9
I396
sg10
I4040
ssg13
(dp30
g5
I1552
sg6
I101
sg7
I1
sg8
I4
sg9
I21
sg10
I710
ssg15
(dp31
g5
I634
sg6
I95
sg7
I7
sg8
I4
sg9
I6
sg10
I410
ssg17
(dp32
g5
I754
sg6
I99
sg7
I3
sg8
I4
sg9
I12
sg10
I510
sssS'Danijel.csv'
p33
(dp34
g3
(dp35
g5
I1409
sg6
I44
sg7
I2
sg8
I2
sg9
I7
sg10
I1060
ssg11
(dp36
g5
I2750
sg6
I44
sg7
I2
sg8
I2
sg9
I262
sg10
I2750
ssg13
(dp37
g5
I1909
sg6
I42
sg7
I2
sg8
I4
sg9
I15
sg10
I870
ssg15
(dp38
g5
I1375
sg6
I42
sg7
I4
sg8
I2
sg9
I14
sg10
I1040
ssg17
(dp39
g5
I675
sg6
I41
sg7
I2
sg8
I5
sg9
I15
sg10
I460
sss.(dp0
S'K_all3.csv'
p1
(dp2
S'machine'
p3
(dp4
S'count'
p5
I611
sS'truepos'
p6
I29
sS'falseneg'
p7
I7
sS'unknownyes'
p8
I9
sS'falsepos'
p9
I5
sS'unique'
p10
I470
ssS'none'
p11
(dp12
g5
I610
sg6
I33
sg7
I5
sg8
I7
sg9
I57
sg10
I610
ssS'three'
p13
(dp14
g5
I936
sg6
I33
sg7
I1
sg8
I11
sg9
I8
sg10
I430
ssS'machine3'
p15
(dp16
g5
I666
sg6
I32
sg7
I3
sg8
I10
sg9
I5
sg10
I550
ssS'machine2'
p17
(dp18
g5
I544
sg6
I29
sg7
I2
sg8
I14
sg9
I9
sg10
I410
sssS'Wahono.csv'
p19
(dp20
g3
(dp21
g5
I1875
sg6
I57
sg7
I4
sg8
I1
sg9
I22
sg10
I1410
ssg11
(dp22
g5
I4000
sg6
I55
sg7
I5
sg8
I2
sg9
I429
sg10
I4000
ssg13
(dp23
g5
I5945
sg6
I58
sg7
I2
sg8
I2
sg9
I89
sg10
I2710
ssg15
(dp24
g5
I1290
sg6
I48
sg7
I6
sg8
I8
sg9
I14
sg10
I960
ssg17
(dp25
g5
I1717
sg6
I56
sg7
I3
sg8
I3
sg9
I17
sg10
I1210
sssS'Hall.csv'
p26
(dp27
g3
(dp28
g5
I540
sg6
I90
sg7
I8
sg8
I8
sg9
I12
sg10
I380
ssg11
(dp29
g5
I3840
sg6
I93
sg7
I11
sg8
I2
sg9
I379
sg10
I3840
ssg13
(dp30
g5
I958
sg6
I99
sg7
I3
sg8
I4
sg9
I4
sg10
I440
ssg15
(dp31
g5
I980
sg6
I96
sg7
I6
sg8
I4
sg9
I8
sg10
I680
ssg17
(dp32
g5
I707
sg6
I96
sg7
I3
sg8
I7
sg9
I17
sg10
I470
sssS'Danijel.csv'
p33
(dp34
g3
(dp35
g5
I1015
sg6
I43
sg7
I2
sg8
I3
sg9
I7
sg10
I760
ssg11
(dp36
g5
I1570
sg6
I40
sg7
I5
sg8
I3
sg9
I150
sg10
I1570
ssg13
(dp37
g5
I2540
sg6
I44
sg7
I1
sg8
I3
sg9
I19
sg10
I1170
ssg15
(dp38
g5
I1266
sg6
I39
sg7
I4
sg8
I5
sg9
I12
sg10
I960
ssg17
(dp39
g5
I1297
sg6
I42
sg7
I2
sg8
I4
sg9
I13
sg10
I910
sss.(dp0
S'K_all3.csv'
p1
(dp2
S'machine'
p3
(dp4
S'count'
p5
I586
sS'truepos'
p6
I31
sS'falseneg'
p7
I2
sS'unknownyes'
p8
I12
sS'falsepos'
p9
I4
sS'unique'
p10
I440
ssS'none'
p11
(dp12
g5
I460
sg6
I26
sg7
I5
sg8
I14
sg9
I41
sg10
I460
ssS'three'
p13
(dp14
g5
I947
sg6
I34
sg7
I0
sg8
I11
sg9
I8
sg10
I440
ssS'machine3'
p15
(dp16
g5
I688
sg6
I31
sg7
I4
sg8
I10
sg9
I6
sg10
I550
ssS'machine2'
p17
(dp18
g5
I620
sg6
I27
sg7
I4
sg8
I14
sg9
I7
sg10
I460
sssS'Wahono.csv'
p19
(dp20
g3
(dp21
g5
I2414
sg6
I56
sg7
I5
sg8
I1
sg9
I30
sg10
I1810
ssg11
(dp22
g5
I4630
sg6
I54
sg7
I8
sg8
I0
sg9
I460
sg10
I4630
ssg13
(dp23
g5
I4035
sg6
I59
sg7
I0
sg8
I3
sg9
I49
sg10
I1850
ssg15
(dp24
g5
I1423
sg6
I56
sg7
I3
sg8
I3
sg9
I13
sg10
I1070
ssg17
(dp25
g5
I1924
sg6
I55
sg7
I5
sg8
I2
sg9
I26
sg10
I1320
sssS'Hall.csv'
p26
(dp27
g3
(dp28
g5
I780
sg6
I99
sg7
I3
sg8
I4
sg9
I16
sg10
I560
ssg11
(dp29
g5
I2830
sg6
I95
sg7
I6
sg8
I5
sg9
I285
sg10
I2830
ssg13
(dp30
g5
I1515
sg6
I97
sg7
I4
sg8
I5
sg9
I15
sg10
I700
ssg15
(dp31
g5
I779
sg6
I97
sg7
I5
sg8
I4
sg9
I6
sg10
I530
ssg17
(dp32
g5
I1092
sg6
I99
sg7
I3
sg8
I4
sg9
I14
sg10
I730
sssS'Danijel.csv'
p33
(dp34
g3
(dp35
g5
I1169
sg6
I40
sg7
I5
sg8
I3
sg9
I11
sg10
I880
ssg11
(dp36
g5
I780
sg6
I38
sg7
I6
sg8
I4
sg9
I63
sg10
I780
ssg13
(dp37
g5
I1853
sg6
I44
sg7
I1
sg8
I3
sg9
I32
sg10
I850
ssg15
(dp38
g5
I959
sg6
I45
sg7
I1
sg8
I2
sg9
I10
sg10
I730
ssg17
(dp39
g5
I1223
sg6
I42
sg7
I2
sg8
I4
sg9
I17
sg10
I860
sss.(dp0
S'K_all3.csv'
p1
(dp2
S'machine'
p3
(dp4
S'count'
p5
I580
sS'truepos'
p6
I31
sS'falseneg'
p7
I6
sS'unknownyes'
p8
I8
sS'falsepos'
p9
I5
sS'unique'
p10
I460
ssS'none'
p11
(dp12
g5
I420
sg6
I31
sg7
I3
sg8
I11
sg9
I26
sg10
I420
ssS'three'
p13
(dp14
g5
I1134
sg6
I38
sg7
I1
sg8
I6
sg9
I15
sg10
I520
ssS'machine3'
p15
(dp16
g5
I550
sg6
I32
sg7
I0
sg8
I13
sg9
I6
sg10
I440
ssS'machine2'
p17
(dp18
g5
I801
sg6
I30
sg7
I3
sg8
I12
sg9
I10
sg10
I610
sssS'Wahono.csv'
p19
(dp20
g3
(dp21
g5
I1701
sg6
I56
sg7
I2
sg8
I4
sg9
I25
sg10
I1260
ssg11
(dp22
g5
I3220
sg6
I56
sg7
I4
sg8
I2
sg9
I328
sg10
I3220
ssg13
(dp23
g5
I3469
sg6
I61
sg7
I0
sg8
I1
sg9
I36
sg10
I1600
ssg15
(dp24
g5
I1784
sg6
I57
sg7
I2
sg8
I3
sg9
I20
sg10
I1350
ssg17
(dp25
g5
I2200
sg6
I56
sg7
I4
sg8
I2
sg9
I42
sg10
I1520
sssS'Hall.csv'
p26
(dp27
g3
(dp28
g5
I931
sg6
I97
sg7
I5
sg8
I4
sg9
I17
sg10
I660
ssg11
(dp29
g5
I4300
sg6
I90
sg7
I14
sg8
I2
sg9
I408
sg10
I4300
ssg13
(dp30
g5
I1389
sg6
I98
sg7
I4
sg8
I4
sg9
I11
sg10
I640
ssg15
(dp31
g5
I1019
sg6
I95
sg7
I7
sg8
I4
sg9
I13
sg10
I710
ssg17
(dp32
g5
I889
sg6
I99
sg7
I3
sg8
I4
sg9
I14
sg10
I610
sssS'Danijel.csv'
p33
(dp34
g3
(dp35
g5
I1812
sg6
I42
sg7
I3
sg8
I3
sg9
I21
sg10
I1360
ssg11
(dp36
g5
I2900
sg6
I44
sg7
I1
sg8
I3
sg9
I274
sg10
I2900
ssg13
(dp37
g5
I3004
sg6
I41
sg7
I3
sg8
I4
sg9
I35
sg10
I1370
ssg15
(dp38
g5
I1168
sg6
I40
sg7
I4
sg8
I4
sg9
I10
sg10
I900
ssg17
(dp39
g5
I981
sg6
I41
sg7
I3
sg8
I4
sg9
I13
sg10
I710
sss.(dp0
S'K_all3.csv'
p1
(dp2
S'machine'
p3
(dp4
S'count'
p5
I531
sS'truepos'
p6
I32
sS'falseneg'
p7
I2
sS'unknownyes'
p8
I11
sS'falsepos'
p9
I0
sS'unique'
p10
I410
ssS'none'
p11
(dp12
g5
I730
sg6
I36
sg7
I5
sg8
I4
sg9
I73
sg10
I730
ssS'three'
p13
(dp14
g5
I892
sg6
I36
sg7
I0
sg8
I9
sg9
I10
sg10
I400
ssS'machine3'
p15
(dp16
g5
I869
sg6
I29
sg7
I4
sg8
I12
sg9
I11
sg10
I740
ssS'machine2'
p17
(dp18
g5
I661
sg6
I34
sg7
I4
sg8
I7
sg9
I15
sg10
I460
sssS'Wahono.csv'
p19
(dp20
g3
(dp21
g5
I1410
sg6
I55
sg7
I4
sg8
I3
sg9
I12
sg10
I1060
ssg11
(dp22
g5
I3940
sg6
I59
sg7
I3
sg8
I0
sg9
I398
sg10
I3940
ssg13
(dp23
g5
I3471
sg6
I58
sg7
I1
sg8
I3
sg9
I41
sg10
I1600
ssg15
(dp24
g5
I1364
sg6
I55
sg7
I4
sg8
I3
sg9
I14
sg10
I1020
ssg17
(dp25
g5
I2371
sg6
I53
sg7
I6
sg8
I3
sg9
I33
sg10
I1660
sssS'Hall.csv'
p26
(dp27
g3
(dp28
g5
I704
sg6
I98
sg7
I4
sg8
I4
sg9
I11
sg10
I510
ssg11
(dp29
g5
I3710
sg6
I88
sg7
I17
sg8
I1
sg9
I358
sg10
I3710
ssg13
(dp30
g5
I1471
sg6
I98
sg7
I4
sg8
I4
sg9
I16
sg10
I670
ssg15
(dp31
g5
I697
sg6
I92
sg7
I10
sg8
I4
sg9
I7
sg10
I460
ssg17
(dp32
g5
I779
sg6
I97
sg7
I4
sg8
I5
sg9
I17
sg10
I520
sssS'Danijel.csv'
p33
(dp34
g3
(dp35
g5
I1298
sg6
I42
sg7
I1
sg8
I5
sg9
I13
sg10
I980
ssg11
(dp36
g5
I3180
sg6
I41
sg7
I6
sg8
I1
sg9
I293
sg10
I3180
ssg13
(dp37
g5
I2025
sg6
I45
sg7
I0
sg8
I3
sg9
I22
sg10
I930
ssg15
(dp38
g5
I847
sg6
I41
sg7
I3
sg8
I4
sg9
I7
sg10
I630
ssg17
(dp39
g5
I1425
sg6
I40
sg7
I4
sg8
I4
sg9
I25
sg10
I1010
sss.(dp0
S'K_all3.csv'
p1
(dp2
S'machine'
p3
(dp4
S'count'
p5
I463
sS'truepos'
p6
I27
sS'falseneg'
p7
I5
sS'unknownyes'
p8
I13
sS'falsepos'
p9
I8
sS'unique'
p10
I360
ssS'none'
p11
(dp12
g5
I420
sg6
I28
sg7
I3
sg8
I14
sg9
I46
sg10
I420
ssS'three'
p13
(dp14
g5
I876
sg6
I33
sg7
I1
sg8
I11
sg9
I12
sg10
I400
ssS'machine3'
p15
(dp16
g5
I660
sg6
I30
sg7
I6
sg8
I9
sg9
I3
sg10
I550
ssS'machine2'
p17
(dp18
g5
I586
sg6
I30
sg7
I5
sg8
I10
sg9
I6
sg10
I450
sssS'Wahono.csv'
p19
(dp20
g3
(dp21
g5
I1692
sg6
I53
sg7
I5
sg8
I4
sg9
I13
sg10
I1260
ssg11
(dp22
g5
I4000
sg6
I57
sg7
I5
sg8
I0
sg9
I398
sg10
I4000
ssg13
(dp23
g5
I3000
sg6
I60
sg7
I2
sg8
I0
sg9
I42
sg10
I1380
ssg15
(dp24
g5
I1685
sg6
I55
sg7
I4
sg8
I3
sg9
I13
sg10
I1290
ssg17
(dp25
g5
I2865
sg6
I58
sg7
I2
sg8
I2
sg9
I41
sg10
I2020
sssS'Hall.csv'
p26
(dp27
g3
(dp28
g5
I653
sg6
I98
sg7
I3
sg8
I5
sg9
I8
sg10
I460
ssg11
(dp29
g5
I3350
sg6
I88
sg7
I15
sg8
I3
sg9
I284
sg10
I3350
ssg13
(dp30
g5
I1221
sg6
I99
sg7
I3
sg8
I4
sg9
I6
sg10
I560
ssg15
(dp31
g5
I1854
sg6
I102
sg7
I1
sg8
I3
sg9
I24
sg10
I1330
ssg17
(dp32
g5
I665
sg6
I99
sg7
I2
sg8
I5
sg9
I14
sg10
I450
sssS'Danijel.csv'
p33
(dp34
g3
(dp35
g5
I969
sg6
I42
sg7
I3
sg8
I3
sg9
I12
sg10
I710
ssg11
(dp36
g5
I3630
sg6
I44
sg7
I4
sg8
I0
sg9
I358
sg10
I3630
ssg13
(dp37
g5
I3076
sg6
I44
sg7
I2
sg8
I2
sg9
I34
sg10
I1400
ssg15
(dp38
g5
I1017
sg6
I39
sg7
I6
sg8
I3
sg9
I12
sg10
I780
ssg17
(dp39
g5
I1309
sg6
I42
sg7
I2
sg8
I4
sg9
I15
sg10
I910
sss.(dp0
S'K_all3.csv'
p1
(dp2
S'machine'
p3
(dp4
S'count'
p5
I599
sS'truepos'
p6
I32
sS'falseneg'
p7
I5
sS'unknownyes'
p8
I8
sS'falsepos'
p9
I3
sS'unique'
p10
I460
ssS'none'
p11
(dp12
g5
I400
sg6
I28
sg7
I3
sg8
I14
sg9
I39
sg10
I400
ssS'three'
p13
(dp14
g5
I930
sg6
I32
sg7
I0
sg8
I13
sg9
I11
sg10
I430
ssS'machine3'
p15
(dp16
g5
I574
sg6
I31
sg7
I2
sg8
I12
sg9
I6
sg10
I460
ssS'machine2'
p17
(dp18
g5
I626
sg6
I29
sg7
I2
sg8
I14
sg9
I9
sg10
I460
sssS'Wahono.csv'
p19
(dp20
g3
(dp21
g5
I1793
sg6
I55
sg7
I4
sg8
I3
sg9
I20
sg10
I1350
ssg11
(dp22
g5
I3700
sg6
I51
sg7
I11
sg8
I0
sg9
I345
sg10
I3700
ssg13
(dp23
g5
I3267
sg6
I57
sg7
I2
sg8
I3
sg9
I38
sg10
I1500
ssg15
(dp24
g5
I1704
sg6
I58
sg7
I2
sg8
I2
sg9
I18
sg10
I1270
ssg17
(dp25
g5
I1767
sg6
I56
sg7
I3
sg8
I3
sg9
I38
sg10
I1210
sssS'Hall.csv'
p26
(dp27
g3
(dp28
g5
I982
sg6
I96
sg7
I6
sg8
I4
sg9
I10
sg10
I710
ssg11
(dp29
g5
I4420
sg6
I88
sg7
I15
sg8
I3
sg9
I445
sg10
I4420
ssg13
(dp30
g5
I2227
sg6
I100
sg7
I2
sg8
I4
sg9
I30
sg10
I1010
ssg15
(dp31
g5
I915
sg6
I99
sg7
I2
sg8
I5
sg9
I14
sg10
I620
ssg17
(dp32
g5
I1288
sg6
I100
sg7
I2
sg8
I4
sg9
I14
sg10
I860
sssS'Danijel.csv'
p33
(dp34
g3
(dp35
g5
I1091
sg6
I40
sg7
I6
sg8
I2
sg9
I17
sg10
I820
ssg11
(dp36
g5
I3110
sg6
I42
sg7
I6
sg8
I0
sg9
I315
sg10
I3110
ssg13
(dp37
g5
I2613
sg6
I45
sg7
I1
sg8
I2
sg9
I28
sg10
I1190
ssg15
(dp38
g5
I1312
sg6
I43
sg7
I3
sg8
I2
sg9
I16
sg10
I980
ssg17
(dp39
g5
I1464
sg6
I42
sg7
I4
sg8
I2
sg9
I25
sg10
I1010
sss.(dp0
S'K_all3.csv'
p1
(dp2
S'machine'
p3
(dp4
S'count'
p5
I664
sS'truepos'
p6
I33
sS'falseneg'
p7
I5
sS'unknownyes'
p8
I7
sS'falsepos'
p9
I2
sS'unique'
p10
I510
ssS'none'
p11
(dp12
g5
I650
sg6
I33
sg7
I6
sg8
I6
sg9
I59
sg10
I650
ssS'three'
p13
(dp14
g5
I856
sg6
I33
sg7
I1
sg8
I11
sg9
I5
sg10
I390
ssS'machine3'
p15
(dp16
g5
I482
sg6
I31
sg7
I4
sg8
I10
sg9
I5
sg10
I390
ssS'machine2'
p17
(dp18
g5
I695
sg6
I32
sg7
I3
sg8
I10
sg9
I14
sg10
I480
sssS'Wahono.csv'
p19
(dp20
g3
(dp21
g5
I1481
sg6
I54
sg7
I6
sg8
I2
sg9
I14
sg10
I1110
ssg11
(dp22
g5
I4280
sg6
I56
sg7
I6
sg8
I0
sg9
I416
sg10
I4280
ssg13
(dp23
g5
I3519
sg6
I59
sg7
I0
sg8
I3
sg9
I45
sg10
I1610
ssg15
(dp24
g5
I1676
sg6
I53
sg7
I7
sg8
I2
sg9
I9
sg10
I1250
ssg17
(dp25
g5
I1055
sg6
I52
sg7
I5
sg8
I5
sg9
I11
sg10
I710
sssS'Hall.csv'
p26
(dp27
g3
(dp28
g5
I524
sg6
I92
sg7
I7
sg8
I7
sg9
I10
sg10
I370
ssg11
(dp29
g5
I4570
sg6
I96
sg7
I9
sg8
I1
sg9
I460
sg10
I4570
ssg13
(dp30
g5
I1031
sg6
I101
sg7
I1
sg8
I4
sg9
I4
sg10
I480
ssg15
(dp31
g5
I816
sg6
I94
sg7
I8
sg8
I4
sg9
I2
sg10
I560
ssg17
(dp32
g5
I1563
sg6
I100
sg7
I2
sg8
I4
sg9
I27
sg10
I1040
sssS'Danijel.csv'
p33
(dp34
g3
(dp35
g5
I1140
sg6
I38
sg7
I6
sg8
I4
sg9
I11
sg10
I860
ssg11
(dp36
g5
I1150
sg6
I43
sg7
I2
sg8
I3
sg9
I102
sg10
I1150
ssg13
(dp37
g5
I2198
sg6
I44
sg7
I1
sg8
I3
sg9
I20
sg10
I1010
ssg15
(dp38
g5
I1077
sg6
I45
sg7
I1
sg8
I2
sg9
I12
sg10
I800
ssg17
(dp39
g5
I1160
sg6
I42
sg7
I2
sg8
I4
sg9
I11
sg10
I810
sss.(dp0
S'K_all3.csv'
p1
(dp2
S'machine'
p3
(dp4
S'count'
p5
I663
sS'truepos'
p6
I32
sS'falseneg'
p7
I4
sS'unknownyes'
p8
I9
sS'falsepos'
p9
I7
sS'unique'
p10
I510
ssS'none'
p11
(dp12
g5
I400
sg6
I29
sg7
I4
sg8
I12
sg9
I35
sg10
I400
ssS'three'
p13
(dp14
g5
I1047
sg6
I33
sg7
I1
sg8
I11
sg9
I14
sg10
I470
ssS'machine3'
p15
(dp16
g5
I662
sg6
I26
sg7
I9
sg8
I10
sg9
I5
sg10
I560
ssS'machine2'
p17
(dp18
g5
I536
sg6
I30
sg7
I5
sg8
I10
sg9
I11
sg10
I410
sssS'Wahono.csv'
p19
(dp20
g3
(dp21
g5
I1974
sg6
I56
sg7
I3
sg8
I3
sg9
I17
sg10
I1460
ssg11
(dp22
g5
I3960
sg6
I54
sg7
I5
sg8
I3
sg9
I371
sg10
I3960
ssg13
(dp23
g5
I2914
sg6
I57
sg7
I3
sg8
I2
sg9
I46
sg10
I1340
ssg15
(dp24
g5
I1554
sg6
I51
sg7
I8
sg8
I3
sg9
I10
sg10
I1190
ssg17
(dp25
g5
I1889
sg6
I60
sg7
I0
sg8
I2
sg9
I27
sg10
I1310
sssS'Hall.csv'
p26
(dp27
g3
(dp28
g5
I700
sg6
I96
sg7
I5
sg8
I5
sg9
I6
sg10
I510
ssg11
(dp29
g5
I4150
sg6
I95
sg7
I9
sg8
I2
sg9
I420
sg10
I4150
ssg13
(dp30
g5
I1309
sg6
I98
sg7
I4
sg8
I4
sg9
I16
sg10
I600
ssg15
(dp31
g5
I605
sg6
I90
sg7
I10
sg8
I6
sg9
I8
sg10
I410
ssg17
(dp32
g5
I742
sg6
I98
sg7
I4
sg8
I4
sg9
I7
sg10
I510
sssS'Danijel.csv'
p33
(dp34
g3
(dp35
g5
I1085
sg6
I43
sg7
I2
sg8
I3
sg9
I10
sg10
I810
ssg11
(dp36
g5
I3120
sg6
I43
sg7
I4
sg8
I1
sg9
I312
sg10
I3120
ssg13
(dp37
g5
I1904
sg6
I45
sg7
I0
sg8
I3
sg9
I32
sg10
I870
ssg15
(dp38
g5
I1389
sg6
I44
sg7
I1
sg8
I3
sg9
I11
sg10
I1030
ssg17
(dp39
g5
I1349
sg6
I45
sg7
I1
sg8
I2
sg9
I20
sg10
I920
sss.(dp0
S'K_all3.csv'
p1
(dp2
S'machine'
p3
(dp4
S'count'
p5
I754
sS'truepos'
p6
I29
sS'falseneg'
p7
I2
sS'unknownyes'
p8
I14
sS'falsepos'
p9
I9
sS'unique'
p10
I610
ssS'none'
p11
(dp12
g5
I440
sg6
I30
sg7
I2
sg8
I13
sg9
I32
sg10
I440
ssS'three'
p13
(dp14
g5
I1033
sg6
I36
sg7
I1
sg8
I8
sg9
I9
sg10
I470
ssS'machine3'
p15
(dp16
g5
I595
sg6
I30
sg7
I5
sg8
I10
sg9
I8
sg10
I460
ssS'machine2'
p17
(dp18
g5
I638
sg6
I31
sg7
I4
sg8
I10
sg9
I6
sg10
I450
sssS'Wahono.csv'
p19
(dp20
g3
(dp21
g5
I1474
sg6
I55
sg7
I4
sg8
I3
sg9
I7
sg10
I1110
ssg11
(dp22
g5
I3030
sg6
I51
sg7
I8
sg8
I3
sg9
I279
sg10
I3030
ssg13
(dp23
g5
I3388
sg6
I61
sg7
I0
sg8
I1
sg9
I41
sg10
I1550
ssg15
(dp24
g5
I1930
sg6
I57
sg7
I2
sg8
I3
sg9
I20
sg10
I1350
ssg17
(dp25
g5
I2852
sg6
I56
sg7
I3
sg8
I3
sg9
I39
sg10
I2020
sssS'Hall.csv'
p26
(dp27
g3
(dp28
g5
I473
sg6
I90
sg7
I10
sg8
I6
sg9
I9
sg10
I340
ssg11
(dp29
g5
I1320
sg6
I93
sg7
I9
sg8
I4
sg9
I119
sg10
I1320
ssg13
(dp30
g5
I1296
sg6
I101
sg7
I1
sg8
I4
sg9
I12
sg10
I600
ssg15
(dp31
g5
I1355
sg6
I100
sg7
I2
sg8
I4
sg9
I17
sg10
I890
ssg17
(dp32
g5
I771
sg6
I94
sg7
I5
sg8
I7
sg9
I18
sg10
I520
sssS'Danijel.csv'
p33
(dp34
g3
(dp35
g5
I1016
sg6
I40
sg7
I4
sg8
I4
sg9
I9
sg10
I760
ssg11
(dp36
g5
I2190
sg6
I43
sg7
I3
sg8
I2
sg9
I212
sg10
I2190
ssg13
(dp37
g5
I2597
sg6
I45
sg7
I1
sg8
I2
sg9
I40
sg10
I1180
ssg15
(dp38
g5
I1221
sg6
I41
sg7
I4
sg8
I3
sg9
I20
sg10
I850
ssg17
(dp39
g5
I1186
sg6
I46
sg7
I0
sg8
I2
sg9
I16
sg10
I830
sss.(dp0
S'K_all3.csv'
p1
(dp2
S'machine'
p3
(dp4
S'count'
p5
I602
sS'truepos'
p6
I35
sS'falseneg'
p7
I1
sS'unknownyes'
p8
I9
sS'falsepos'
p9
I4
sS'unique'
p10
I460
ssS'none'
p11
(dp12
g5
I480
sg6
I29
sg7
I8
sg8
I8
sg9
I47
sg10
I480
ssS'three'
p13
(dp14
g5
I1238
sg6
I34
sg7
I2
sg8
I9
sg9
I20
sg10
I570
ssS'machine3'
p15
(dp16
g5
I620
sg6
I29
sg7
I3
sg8
I13
sg9
I10
sg10
I440
ssS'machine2'
p17
(dp18
g5
I578
sg6
I29
sg7
I3
sg8
I13
sg9
I10
sg10
I420
sssS'Wahono.csv'
p19
(dp20
g3
(dp21
g5
I2221
sg6
I55
sg7
I6
sg8
I1
sg9
I26
sg10
I1660
ssg11
(dp22
g5
I3430
sg6
I52
sg7
I6
sg8
I4
sg9
I354
sg10
I3430
ssg13
(dp23
g5
I3511
sg6
I56
sg7
I2
sg8
I4
sg9
I39
sg10
I1610
ssg15
(dp24
g5
I1486
sg6
I58
sg7
I1
sg8
I3
sg9
I18
sg10
I1040
ssg17
(dp25
g5
I2101
sg6
I60
sg7
I2
sg8
I0
sg9
I25
sg10
I1450
sssS'Hall.csv'
p26
(dp27
g3
(dp28
g5
I530
sg6
I92
sg7
I6
sg8
I8
sg9
I11
sg10
I370
ssg11
(dp29
g5
I1370
sg6
I93
sg7
I10
sg8
I3
sg9
I117
sg10
I1370
ssg13
(dp30
g5
I1017
sg6
I101
sg7
I1
sg8
I4
sg9
I7
sg10
I470
ssg15
(dp31
g5
I798
sg6
I98
sg7
I3
sg8
I5
sg9
I9
sg10
I520
ssg17
(dp32
g5
I541
sg6
I93
sg7
I7
sg8
I6
sg9
I10
sg10
I370
sssS'Danijel.csv'
p33
(dp34
g3
(dp35
g5
I550
sg6
I36
sg7
I5
sg8
I7
sg9
I7
sg10
I410
ssg11
(dp36
g5
I2020
sg6
I39
sg7
I6
sg8
I3
sg9
I199
sg10
I2020
ssg13
(dp37
g5
I2076
sg6
I42
sg7
I3
sg8
I3
sg9
I23
sg10
I960
ssg15
(dp38
g5
I1099
sg6
I43
sg7
I0
sg8
I5
sg9
I14
sg10
I780
ssg17
(dp39
g5
I981
sg6
I42
sg7
I2
sg8
I4
sg9
I19
sg10
I660
sss.(dp0
S'K_all3.csv'
p1
(dp2
S'machine'
p3
(dp4
S'count'
p5
I650
sS'truepos'
p6
I27
sS'falseneg'
p7
I4
sS'unknownyes'
p8
I14
sS'falsepos'
p9
I8
sS'unique'
p10
I490
ssS'none'
p11
(dp12
g5
I600
sg6
I35
sg7
I4
sg8
I6
sg9
I60
sg10
I600
ssS'three'
p13
(dp14
g5
I1003
sg6
I31
sg7
I3
sg8
I11
sg9
I9
sg10
I460
ssS'machine3'
p15
(dp16
g5
I721
sg6
I34
sg7
I3
sg8
I8
sg9
I11
sg10
I510
ssS'machine2'
p17
(dp18
g5
I713
sg6
I38
sg7
I2
sg8
I5
sg9
I9
sg10
I500
sssS'Wahono.csv'
p19
(dp20
g3
(dp21
g5
I2400
sg6
I57
sg7
I2
sg8
I3
sg9
I27
sg10
I1810
ssg11
(dp22
g5
I2700
sg6
I56
sg7
I3
sg8
I3
sg9
I273
sg10
I2700
ssg13
(dp23
g5
I2815
sg6
I47
sg7
I3
sg8
I12
sg9
I38
sg10
I1300
ssg15
(dp24
g5
I2253
sg6
I55
sg7
I2
sg8
I5
sg9
I32
sg10
I1570
ssg17
(dp25
g5
I1650
sg6
I54
sg7
I0
sg8
I8
sg9
I26
sg10
I1160
sssS'Hall.csv'
p26
(dp27
g3
(dp28
g5
I1290
sg6
I98
sg7
I4
sg8
I4
sg9
I17
sg10
I910
ssg11
(dp29
g5
I3210
sg6
I97
sg7
I7
sg8
I2
sg9
I325
sg10
I3210
ssg13
(dp30
g5
I1186
sg6
I101
sg7
I1
sg8
I4
sg9
I8
sg10
I540
ssg15
(dp31
g5
I866
sg6
I101
sg7
I1
sg8
I4
sg9
I13
sg10
I560
ssg17
(dp32
g5
I670
sg6
I98
sg7
I3
sg8
I5
sg9
I14
sg10
I460
sssS'Danijel.csv'
p33
(dp34
g3
(dp35
g5
I1011
sg6
I41
sg7
I4
sg8
I3
sg9
I7
sg10
I760
ssg11
(dp36
g5
I1460
sg6
I40
sg7
I7
sg8
I1
sg9
I125
sg10
I1460
ssg13
(dp37
g5
I2584
sg6
I45
sg7
I1
sg8
I2
sg9
I36
sg10
I1190
ssg15
(dp38
g5
I1634
sg6
I46
sg7
I0
sg8
I2
sg9
I28
sg10
I1150
ssg17
(dp39
g5
I1327
sg6
I43
sg7
I3
sg8
I2
sg9
I13
sg10
I940
sss.(dp0
S'K_all3.csv'
p1
(dp2
S'machine'
p3
(dp4
S'count'
p5
I474
sS'truepos'
p6
I29
sS'falseneg'
p7
I2
sS'unknownyes'
p8
I14
sS'falsepos'
p9
I4
sS'unique'
p10
I360
ssS'none'
p11
(dp12
g5
I500
sg6
I35
sg7
I3
sg8
I7
sg9
I49
sg10
I500
ssS'three'
p13
(dp14
g5
I859
sg6
I36
sg7
I0
sg8
I9
sg9
I14
sg10
I390
ssS'machine3'
p15
(dp16
g5
I510
sg6
I33
sg7
I2
sg8
I10
sg9
I6
sg10
I380
ssS'machine2'
p17
(dp18
g5
I643
sg6
I31
sg7
I2
sg8
I12
sg9
I14
sg10
I430
sssS'Wahono.csv'
p19
(dp20
g3
(dp21
g5
I1668
sg6
I56
sg7
I3
sg8
I3
sg9
I9
sg10
I1250
ssg11
(dp22
g5
I3090
sg6
I54
sg7
I6
sg8
I2
sg9
I289
sg10
I3090
ssg13
(dp23
g5
I3258
sg6
I58
sg7
I2
sg8
I2
sg9
I40
sg10
I1490
ssg15
(dp24
g5
I1809
sg6
I58
sg7
I1
sg8
I3
sg9
I25
sg10
I1280
ssg17
(dp25
g5
I2188
sg6
I57
sg7
I2
sg8
I3
sg9
I36
sg10
I1520
sssS'Hall.csv'
p26
(dp27
g3
(dp28
g5
I500
sg6
I94
sg7
I4
sg8
I8
sg9
I10
sg10
I360
ssg11
(dp29
g5
I2820
sg6
I92
sg7
I9
sg8
I5
sg9
I288
sg10
I2820
ssg13
(dp30
g5
I1092
sg6
I101
sg7
I0
sg8
I5
sg9
I13
sg10
I500
ssg15
(dp31
g5
I1111
sg6
I94
sg7
I8
sg8
I4
sg9
I9
sg10
I720
ssg17
(dp32
g5
I803
sg6
I98
sg7
I4
sg8
I4
sg9
I24
sg10
I540
sssS'Danijel.csv'
p33
(dp34
g3
(dp35
g5
I1094
sg6
I43
sg7
I2
sg8
I3
sg9
I10
sg10
I810
ssg11
(dp36
g5
I2030
sg6
I42
sg7
I3
sg8
I3
sg9
I212
sg10
I2030
ssg13
(dp37
g5
I2420
sg6
I44
sg7
I1
sg8
I3
sg9
I28
sg10
I1110
ssg15
(dp38
g5
I1120
sg6
I43
sg7
I1
sg8
I4
sg9
I14
sg10
I780
ssg17
(dp39
g5
I1325
sg6
I42
sg7
I3
sg8
I3
sg9
I16
sg10
I920
sss.(dp0
S'K_all3.csv'
p1
(dp2
S'machine'
p3
(dp4
S'count'
p5
I506
sS'truepos'
p6
I25
sS'falseneg'
p7
I5
sS'unknownyes'
p8
I15
sS'falsepos'
p9
I6
sS'unique'
p10
I410
ssS'none'
p11
(dp12
g5
I410
sg6
I27
sg7
I1
sg8
I17
sg9
I48
sg10
I410
ssS'three'
p13
(dp14
g5
I937
sg6
I32
sg7
I2
sg8
I11
sg9
I12
sg10
I430
ssS'machine3'
p15
(dp16
g5
I696
sg6
I37
sg7
I1
sg8
I7
sg9
I6
sg10
I520
ssS'machine2'
p17
(dp18
g5
I683
sg6
I29
sg7
I2
sg8
I14
sg9
I7
sg10
I470
sssS'Wahono.csv'
p19
(dp20
g3
(dp21
g5
I1022
sg6
I48
sg7
I7
sg8
I7
sg9
I7
sg10
I760
ssg11
(dp22
g5
I3570
sg6
I54
sg7
I7
sg8
I1
sg9
I364
sg10
I3570
ssg13
(dp23
g5
I3142
sg6
I56
sg7
I3
sg8
I3
sg9
I46
sg10
I1440
ssg15
(dp24
g5
I2150
sg6
I56
sg7
I3
sg8
I3
sg9
I26
sg10
I1530
ssg17
(dp25
g5
I2261
sg6
I56
sg7
I3
sg8
I3
sg9
I25
sg10
I1580
sssS'Hall.csv'
p26
(dp27
g3
(dp28
g5
I640
sg6
I99
sg7
I2
sg8
I5
sg9
I19
sg10
I460
ssg11
(dp29
g5
I1880
sg6
I96
sg7
I6
sg8
I4
sg9
I170
sg10
I1880
ssg13
(dp30
g5
I1314
sg6
I100
sg7
I2
sg8
I4
sg9
I11
sg10
I610
ssg15
(dp31
g5
I639
sg6
I95
sg7
I3
sg8
I8
sg9
I6
sg10
I390
ssg17
(dp32
g5
I1149
sg6
I102
sg7
I1
sg8
I3
sg9
I17
sg10
I770
sssS'Danijel.csv'
p33
(dp34
g3
(dp35
g5
I1258
sg6
I45
sg7
I1
sg8
I2
sg9
I13
sg10
I960
ssg11
(dp36
g5
I2990
sg6
I43
sg7
I3
sg8
I2
sg9
I284
sg10
I2990
ssg13
(dp37
g5
I2617
sg6
I44
sg7
I2
sg8
I2
sg9
I35
sg10
I1200
ssg15
(dp38
g5
I984
sg6
I42
sg7
I1
sg8
I5
sg9
I15
sg10
I680
ssg17
(dp39
g5
I1018
sg6
I39
sg7
I3
sg8
I6
sg9
I16
sg10
I710
sss.(dp0
S'K_all3.csv'
p1
(dp2
S'machine'
p3
(dp4
S'count'
p5
I762
sS'truepos'
p6
I34
sS'falseneg'
p7
I4
sS'unknownyes'
p8
I7
sS'falsepos'
p9
I3
sS'unique'
p10
I600
ssS'none'
p11
(dp12
g5
I350
sg6
I32
sg7
I1
sg8
I12
sg9
I27
sg10
I350
ssS'three'
p13
(dp14
g5
I974
sg6
I32
sg7
I0
sg8
I13
sg9
I11
sg10
I450
ssS'machine3'
p15
(dp16
g5
I672
sg6
I33
sg7
I1
sg8
I11
sg9
I6
sg10
I490
ssS'machine2'
p17
(dp18
g5
I581
sg6
I27
sg7
I3
sg8
I15
sg9
I16
sg10
I410
sssS'Wahono.csv'
p19
(dp20
g3
(dp21
g5
I2054
sg6
I54
sg7
I5
sg8
I3
sg9
I15
sg10
I1560
ssg11
(dp22
g5
I2970
sg6
I54
sg7
I6
sg8
I2
sg9
I269
sg10
I2970
ssg13
(dp23
g5
I4219
sg6
I56
sg7
I2
sg8
I4
sg9
I45
sg10
I1940
ssg15
(dp24
g5
I2311
sg6
I56
sg7
I4
sg8
I2
sg9
I40
sg10
I1620
ssg17
(dp25
g5
I1955
sg6
I56
sg7
I3
sg8
I3
sg9
I25
sg10
I1360
sssS'Hall.csv'
p26
(dp27
g3
(dp28
g5
I500
sg6
I89
sg7
I9
sg8
I8
sg9
I13
sg10
I360
ssg11
(dp29
g5
I3280
sg6
I89
sg7
I15
sg8
I2
sg9
I311
sg10
I3280
ssg13
(dp30
g5
I1354
sg6
I94
sg7
I5
sg8
I7
sg9
I20
sg10
I620
ssg15
(dp31
g5
I674
sg6
I97
sg7
I4
sg8
I5
sg9
I7
sg10
I420
ssg17
(dp32
g5
I920
sg6
I98
sg7
I3
sg8
I5
sg9
I17
sg10
I610
sssS'Danijel.csv'
p33
(dp34
g3
(dp35
g5
I1056
sg6
I43
sg7
I2
sg8
I3
sg9
I8
sg10
I810
ssg11
(dp36
g5
I2570
sg6
I39
sg7
I7
sg8
I2
sg9
I248
sg10
I2570
ssg13
(dp37
g5
I2715
sg6
I43
sg7
I3
sg8
I2
sg9
I37
sg10
I1250
ssg15
(dp38
g5
I1510
sg6
I41
sg7
I5
sg8
I2
sg9
I25
sg10
I1070
ssg17
(dp39
g5
I1795
sg6
I45
sg7
I1
sg8
I2
sg9
I30
sg10
I1260
sss.(dp0
S'K_all3.csv'
p1
(dp2
S'machine'
p3
(dp4
S'count'
p5
I657
sS'truepos'
p6
I29
sS'falseneg'
p7
I6
sS'unknownyes'
p8
I10
sS'falsepos'
p9
I9
sS'unique'
p10
I510
ssS'none'
p11
(dp12
g5
I590
sg6
I33
sg7
I4
sg8
I8
sg9
I59
sg10
I590
ssS'three'
p13
(dp14
g5
I916
sg6
I33
sg7
I1
sg8
I11
sg9
I8
sg10
I420
ssS'machine3'
p15
(dp16
g5
I678
sg6
I31
sg7
I1
sg8
I13
sg9
I6
sg10
I500
ssS'machine2'
p17
(dp18
g5
I687
sg6
I27
sg7
I4
sg8
I14
sg9
I10
sg10
I510
sssS'Wahono.csv'
p19
(dp20
g3
(dp21
g5
I1624
sg6
I52
sg7
I8
sg8
I2
sg9
I15
sg10
I1210
ssg11
(dp22
g5
I3200
sg6
I58
sg7
I3
sg8
I1
sg9
I297
sg10
I3200
ssg13
(dp23
g5
I2968
sg6
I56
sg7
I2
sg8
I4
sg9
I24
sg10
I1370
ssg15
(dp24
g5
I2503
sg6
I57
sg7
I3
sg8
I2
sg9
I36
sg10
I1760
ssg17
(dp25
g5
I2568
sg6
I58
sg7
I1
sg8
I3
sg9
I36
sg10
I1810
sssS'Hall.csv'
p26
(dp27
g3
(dp28
g5
I723
sg6
I94
sg7
I8
sg8
I4
sg9
I8
sg10
I510
ssg11
(dp29
g5
I2640
sg6
I95
sg7
I9
sg8
I2
sg9
I249
sg10
I2640
ssg13
(dp30
g5
I1306
sg6
I100
sg7
I2
sg8
I4
sg9
I9
sg10
I600
ssg15
(dp31
g5
I975
sg6
I100
sg7
I2
sg8
I4
sg9
I7
sg10
I630
ssg17
(dp32
g5
I1455
sg6
I99
sg7
I3
sg8
I4
sg9
I20
sg10
I960
sssS'Danijel.csv'
p33
(dp34
g3
(dp35
g5
I1074
sg6
I43
sg7
I1
sg8
I4
sg9
I12
sg10
I800
ssg11
(dp36
g5
I2890
sg6
I43
sg7
I4
sg8
I1
sg9
I282
sg10
I2890
ssg13
(dp37
g5
I2554
sg6
I44
sg7
I1
sg8
I3
sg9
I35
sg10
I1160
ssg15
(dp38
g5
I1414
sg6
I42
sg7
I3
sg8
I3
sg9
I14
sg10
I990
ssg17
(dp39
g5
I1290
sg6
I37
sg7
I6
sg8
I5
sg9
I25
sg10
I910
sss.(dp0
S'K_all3.csv'
p1
(dp2
S'machine'
p3
(dp4
S'count'
p5
I751
sS'truepos'
p6
I23
sS'falseneg'
p7
I9
sS'unknownyes'
p8
I13
sS'falsepos'
p9
I13
sS'unique'
p10
I610
ssS'none'
p11
(dp12
g5
I570
sg6
I29
sg7
I5
sg8
I11
sg9
I54
sg10
I570
ssS'three'
p13
(dp14
g5
I968
sg6
I32
sg7
I2
sg8
I11
sg9
I12
sg10
I450
ssS'machine3'
p15
(dp16
g5
I579
sg6
I36
sg7
I1
sg8
I8
sg9
I6
sg10
I440
ssS'machine2'
p17
(dp18
g5
I582
sg6
I31
sg7
I2
sg8
I12
sg9
I10
sg10
I420
sssS'Wahono.csv'
p19
(dp20
g3
(dp21
g5
I2028
sg6
I52
sg7
I8
sg8
I2
sg9
I15
sg10
I1510
ssg11
(dp22
g5
I3200
sg6
I52
sg7
I7
sg8
I3
sg9
I316
sg10
I3200
ssg13
(dp23
g5
I4153
sg6
I59
sg7
I0
sg8
I3
sg9
I56
sg10
I1910
ssg15
(dp24
g5
I2641
sg6
I56
sg7
I4
sg8
I2
sg9
I45
sg10
I1840
ssg17
(dp25
g5
I1563
sg6
I53
sg7
I1
sg8
I8
sg9
I24
sg10
I1060
sssS'Hall.csv'
p26
(dp27
g3
(dp28
g5
I940
sg6
I91
sg7
I9
sg8
I6
sg9
I18
sg10
I660
ssg11
(dp29
g5
I3110
sg6
I99
sg7
I6
sg8
I1
sg9
I283
sg10
I3110
ssg13
(dp30
g5
I1397
sg6
I100
sg7
I2
sg8
I4
sg9
I15
sg10
I640
ssg15
(dp31
g5
I913
sg6
I96
sg7
I6
sg8
I4
sg9
I9
sg10
I580
ssg17
(dp32
g5
I528
sg6
I91
sg7
I5
sg8
I10
sg9
I23
sg10
I360
sssS'Danijel.csv'
p33
(dp34
g3
(dp35
g5
I1156
sg6
I40
sg7
I4
sg8
I4
sg9
I11
sg10
I860
ssg11
(dp36
g5
I2740
sg6
I42
sg7
I5
sg8
I1
sg9
I265
sg10
I2740
ssg13
(dp37
g5
I1650
sg6
I44
sg7
I1
sg8
I3
sg9
I17
sg10
I760
ssg15
(dp38
g5
I1306
sg6
I40
sg7
I5
sg8
I3
sg9
I17
sg10
I930
ssg17
(dp39
g5
I589
sg6
I41
sg7
I1
sg8
I6
sg9
I8
sg10
I410
sss.(dp0
S'K_all3.csv'
p1
(dp2
S'machine'
p3
(dp4
S'count'
p5
I716
sS'truepos'
p6
I27
sS'falseneg'
p7
I10
sS'unknownyes'
p8
I8
sS'falsepos'
p9
I7
sS'unique'
p10
I560
ssS'none'
p11
(dp12
g5
I510
sg6
I34
sg7
I3
sg8
I8
sg9
I31
sg10
I510
ssS'three'
p13
(dp14
g5
I1056
sg6
I30
sg7
I2
sg8
I13
sg9
I14
sg10
I490
ssS'machine3'
p15
(dp16
g5
I779
sg6
I36
sg7
I0
sg8
I9
sg9
I11
sg10
I570
ssS'machine2'
p17
(dp18
g5
I553
sg6
I29
sg7
I3
sg8
I13
sg9
I9
sg10
I410
sssS'Wahono.csv'
p19
(dp20
g3
(dp21
g5
I1374
sg6
I49
sg7
I4
sg8
I9
sg9
I16
sg10
I1010
ssg11
(dp22
g5
I3280
sg6
I56
sg7
I3
sg8
I3
sg9
I315
sg10
I3280
ssg13
(dp23
g5
I4442
sg6
I60
sg7
I1
sg8
I1
sg9
I67
sg10
I2020
ssg15
(dp24
g5
I1974
sg6
I52
sg7
I6
sg8
I4
sg9
I23
sg10
I1370
ssg17
(dp25
g5
I2388
sg6
I57
sg7
I3
sg8
I2
sg9
I30
sg10
I1710
sssS'Hall.csv'
p26
(dp27
g3
(dp28
g5
I791
sg6
I92
sg7
I10
sg8
I4
sg9
I8
sg10
I560
ssg11
(dp29
g5
I2570
sg6
I98
sg7
I6
sg8
I2
sg9
I273
sg10
I2570
ssg13
(dp30
g5
I2618
sg6
I101
sg7
I2
sg8
I3
sg9
I32
sg10
I1200
ssg15
(dp31
g5
I593
sg6
I91
sg7
I9
sg8
I6
sg9
I5
sg10
I360
ssg17
(dp32
g5
I811
sg6
I96
sg7
I5
sg8
I5
sg9
I29
sg10
I560
sssS'Danijel.csv'
p33
(dp34
g3
(dp35
g5
I960
sg6
I44
sg7
I1
sg8
I3
sg9
I14
sg10
I710
ssg11
(dp36
g5
I3000
sg6
I42
sg7
I5
sg8
I1
sg9
I318
sg10
I3000
ssg13
(dp37
g5
I2124
sg6
I44
sg7
I2
sg8
I2
sg9
I27
sg10
I980
ssg15
(dp38
g5
I1643
sg6
I43
sg7
I3
sg8
I2
sg9
I19
sg10
I1180
ssg17
(dp39
g5
I1211
sg6
I43
sg7
I2
sg8
I3
sg9
I19
sg10
I860
sss.(dp0
S'K_all3.csv'
p1
(dp2
S'machine'
p3
(dp4
S'count'
p5
I584
sS'truepos'
p6
I25
sS'falseneg'
p7
I6
sS'unknownyes'
p8
I14
sS'falsepos'
p9
I2
sS'unique'
p10
I460
ssS'none'
p11
(dp12
g5
I750
sg6
I36
sg7
I4
sg8
I5
sg9
I83
sg10
I750
ssS'three'
p13
(dp14
g5
I1025
sg6
I35
sg7
I2
sg8
I8
sg9
I14
sg10
I470
ssS'machine3'
p15
(dp16
g5
I667
sg6
I30
sg7
I4
sg8
I11
sg9
I8
sg10
I490
ssS'machine2'
p17
(dp18
g5
I588
sg6
I31
sg7
I2
sg8
I12
sg9
I11
sg10
I410
sssS'Wahono.csv'
p19
(dp20
g3
(dp21
g5
I1036
sg6
I49
sg7
I7
sg8
I6
sg9
I10
sg10
I760
ssg11
(dp22
g5
I3900
sg6
I51
sg7
I8
sg8
I3
sg9
I382
sg10
I3900
ssg13
(dp23
g5
I3204
sg6
I56
sg7
I3
sg8
I3
sg9
I37
sg10
I1460
ssg15
(dp24
g5
I1567
sg6
I55
sg7
I4
sg8
I3
sg9
I17
sg10
I1120
ssg17
(dp25
g5
I2412
sg6
I55
sg7
I5
sg8
I2
sg9
I41
sg10
I1690
sssS'Hall.csv'
p26
(dp27
g3
(dp28
g5
I703
sg6
I94
sg7
I8
sg8
I4
sg9
I16
sg10
I510
ssg11
(dp29
g5
I1810
sg6
I91
sg7
I12
sg8
I3
sg9
I156
sg10
I1810
ssg13
(dp30
g5
I2229
sg6
I101
sg7
I2
sg8
I3
sg9
I28
sg10
I1030
ssg15
(dp31
g5
I770
sg6
I98
sg7
I4
sg8
I4
sg9
I8
sg10
I480
ssg17
(dp32
g5
I843
sg6
I100
sg7
I2
sg8
I4
sg9
I9
sg10
I560
sssS'Danijel.csv'
p33
(dp34
g3
(dp35
g5
I877
sg6
I38
sg7
I6
sg8
I4
sg9
I12
sg10
I660
ssg11
(dp36
g5
I2380
sg6
I42
sg7
I2
sg8
I4
sg9
I205
sg10
I2380
ssg13
(dp37
g5
I2502
sg6
I41
sg7
I3
sg8
I4
sg9
I32
sg10
I1150
ssg15
(dp38
g5
I1140
sg6
I43
sg7
I1
sg8
I4
sg9
I15
sg10
I780
ssg17
(dp39
g5
I937
sg6
I41
sg7
I2
sg8
I5
sg9
I11
sg10
I660
sss.(dp0
S'K_all3.csv'
p1
(dp2
S'machine'
p3
(dp4
S'count'
p5
I483
sS'truepos'
p6
I27
sS'falseneg'
p7
I5
sS'unknownyes'
p8
I13
sS'falsepos'
p9
I9
sS'unique'
p10
I360
ssS'none'
p11
(dp12
g5
I780
sg6
I35
sg7
I6
sg8
I4
sg9
I72
sg10
I780
ssS'three'
p13
(dp14
g5
I1034
sg6
I34
sg7
I2
sg8
I9
sg9
I12
sg10
I480
ssS'machine3'
p15
(dp16
g5
I580
sg6
I33
sg7
I3
sg8
I9
sg9
I6
sg10
I420
ssS'machine2'
p17
(dp18
g5
I570
sg6
I31
sg7
I3
sg8
I11
sg9
I11
sg10
I410
sssS'Wahono.csv'
p19
(dp20
g3
(dp21
g5
I1439
sg6
I54
sg7
I6
sg8
I2
sg9
I12
sg10
I1060
ssg11
(dp22
g5
I3090
sg6
I58
sg7
I2
sg8
I2
sg9
I288
sg10
I3090
ssg13
(dp23
g5
I3648
sg6
I57
sg7
I2
sg8
I3
sg9
I53
sg10
I1670
ssg15
(dp24
g5
I2072
sg6
I57
sg7
I3
sg8
I2
sg9
I26
sg10
I1490
ssg17
(dp25
g5
I1720
sg6
I59
sg7
I0
sg8
I3
sg9
I26
sg10
I1210
sssS'Hall.csv'
p26
(dp27
g3
(dp28
g5
I631
sg6
I98
sg7
I3
sg8
I5
sg9
I16
sg10
I460
ssg11
(dp29
g5
I3610
sg6
I93
sg7
I11
sg8
I2
sg9
I371
sg10
I3610
ssg13
(dp30
g5
I1691
sg6
I100
sg7
I2
sg8
I4
sg9
I23
sg10
I780
ssg15
(dp31
g5
I753
sg6
I97
sg7
I5
sg8
I4
sg9
I8
sg10
I460
ssg17
(dp32
g5
I1003
sg6
I95
sg7
I7
sg8
I4
sg9
I15
sg10
I660
sssS'Danijel.csv'
p33
(dp34
g3
(dp35
g5
I996
sg6
I40
sg7
I3
sg8
I5
sg9
I12
sg10
I760
ssg11
(dp36
g5
I2200
sg6
I41
sg7
I5
sg8
I2
sg9
I218
sg10
I2200
ssg13
(dp37
g5
I1625
sg6
I39
sg7
I2
sg8
I7
sg9
I25
sg10
I750
ssg15
(dp38
g5
I1036
sg6
I43
sg7
I3
sg8
I2
sg9
I14
sg10
I730
ssg17
(dp39
g5
I2078
sg6
I42
sg7
I3
sg8
I3
sg9
I43
sg10
I1420
sss.(dp0
S'K_all3.csv'
p1
(dp2
S'machine'
p3
(dp4
S'count'
p5
I731
sS'truepos'
p6
I31
sS'falseneg'
p7
I7
sS'unknownyes'
p8
I7
sS'falsepos'
p9
I4
sS'unique'
p10
I580
ssS'none'
p11
(dp12
g5
I630
sg6
I30
sg7
I6
sg8
I9
sg9
I60
sg10
I630
ssS'three'
p13
(dp14
g5
I945
sg6
I35
sg7
I1
sg8
I9
sg9
I9
sg10
I430
ssS'machine3'
p15
(dp16
g5
I664
sg6
I32
sg7
I2
sg8
I11
sg9
I10
sg10
I470
ssS'machine2'
p17
(dp18
g5
I600
sg6
I33
sg7
I2
sg8
I10
sg9
I4
sg10
I430
sssS'Wahono.csv'
p19
(dp20
g3
(dp21
g5
I1743
sg6
I52
sg7
I6
sg8
I4
sg9
I24
sg10
I1290
ssg11
(dp22
g5
I2700
sg6
I53
sg7
I6
sg8
I3
sg9
I232
sg10
I2700
ssg13
(dp23
g5
I3548
sg6
I59
sg7
I0
sg8
I3
sg9
I47
sg10
I1630
ssg15
(dp24
g5
I2916
sg6
I58
sg7
I2
sg8
I2
sg9
I58
sg10
I2020
ssg17
(dp25
g5
I2882
sg6
I59
sg7
I2
sg8
I1
sg9
I42
sg10
I2010
sssS'Hall.csv'
p26
(dp27
g3
(dp28
g5
I594
sg6
I94
sg7
I4
sg8
I8
sg9
I19
sg10
I420
ssg11
(dp29
g5
I3240
sg6
I90
sg7
I14
sg8
I2
sg9
I347
sg10
I3240
ssg13
(dp30
g5
I2347
sg6
I101
sg7
I1
sg8
I4
sg9
I28
sg10
I1080
ssg15
(dp31
g5
I1068
sg6
I100
sg7
I2
sg8
I4
sg9
I14
sg10
I690
ssg17
(dp32
g5
I1656
sg6
I100
sg7
I2
sg8
I4
sg9
I21
sg10
I1110
sssS'Danijel.csv'
p33
(dp34
g3
(dp35
g5
I1028
sg6
I43
sg7
I2
sg8
I3
sg9
I12
sg10
I760
ssg11
(dp36
g5
I2200
sg6
I40
sg7
I4
sg8
I4
sg9
I209
sg10
I2200
ssg13
(dp37
g5
I2278
sg6
I44
sg7
I2
sg8
I2
sg9
I25
sg10
I1040
ssg15
(dp38
g5
I1289
sg6
I43
sg7
I1
sg8
I4
sg9
I18
sg10
I900
ssg17
(dp39
g5
I1161
sg6
I41
sg7
I4
sg8
I3
sg9
I31
sg10
I810
sss.(dp0
S'K_all3.csv'
p1
(dp2
S'machine'
p3
(dp4
S'count'
p5
I553
sS'truepos'
p6
I33
sS'falseneg'
p7
I4
sS'unknownyes'
p8
I8
sS'falsepos'
p9
I10
sS'unique'
p10
I410
ssS'none'
p11
(dp12
g5
I540
sg6
I34
sg7
I4
sg8
I7
sg9
I51
sg10
I540
ssS'three'
p13
(dp14
g5
I911
sg6
I35
sg7
I0
sg8
I10
sg9
I9
sg10
I420
ssS'machine3'
p15
(dp16
g5
I648
sg6
I33
sg7
I4
sg8
I8
sg9
I7
sg10
I490
ssS'machine2'
p17
(dp18
g5
I804
sg6
I35
sg7
I1
sg8
I9
sg9
I17
sg10
I550
sssS'Wahono.csv'
p19
(dp20
g3
(dp21
g5
I1890
sg6
I55
sg7
I4
sg8
I3
sg9
I20
sg10
I1420
ssg11
(dp22
g5
I3880
sg6
I59
sg7
I3
sg8
I0
sg9
I358
sg10
I3880
ssg13
(dp23
g5
I3751
sg6
I58
sg7
I1
sg8
I3
sg9
I41
sg10
I1720
ssg15
(dp24
g5
I2197
sg6
I48
sg7
I8
sg8
I6
sg9
I34
sg10
I1520
ssg17
(dp25
g5
I2335
sg6
I56
sg7
I3
sg8
I3
sg9
I33
sg10
I1610
sssS'Hall.csv'
p26
(dp27
g3
(dp28
g5
I813
sg6
I91
sg7
I11
sg8
I4
sg9
I12
sg10
I580
ssg11
(dp29
g5
I920
sg6
I90
sg7
I10
sg8
I6
sg9
I86
sg10
I920
ssg13
(dp30
g5
I1010
sg6
I100
sg7
I2
sg8
I4
sg9
I8
sg10
I460
ssg15
(dp31
g5
I998
sg6
I98
sg7
I5
sg8
I3
sg9
I18
sg10
I660
ssg17
(dp32
g5
I1475
sg6
I98
sg7
I5
sg8
I3
sg9
I32
sg10
I980
sssS'Danijel.csv'
p33
(dp34
g3
(dp35
g5
I1682
sg6
I41
sg7
I4
sg8
I3
sg9
I17
sg10
I1260
ssg11
(dp36
g5
I2650
sg6
I41
sg7
I6
sg8
I1
sg9
I270
sg10
I2650
ssg13
(dp37
g5
I2006
sg6
I45
sg7
I0
sg8
I3
sg9
I27
sg10
I920
ssg15
(dp38
g5
I1167
sg6
I36
sg7
I8
sg8
I4
sg9
I15
sg10
I850
ssg17
(dp39
g5
I1657
sg6
I44
sg7
I2
sg8
I2
sg9
I15
sg10
I1160
sss.(dp0
S'K_all3.csv'
p1
(dp2
S'machine'
p3
(dp4
S'count'
p5
I599
sS'truepos'
p6
I32
sS'falseneg'
p7
I4
sS'unknownyes'
p8
I9
sS'falsepos'
p9
I7
sS'unique'
p10
I460
ssS'none'
p11
(dp12
g5
I530
sg6
I35
sg7
I0
sg8
I10
sg9
I62
sg10
I530
ssS'three'
p13
(dp14
g5
I849
sg6
I34
sg7
I1
sg8
I10
sg9
I10
sg10
I400
ssS'machine3'
p15
(dp16
g5
I680
sg6
I34
sg7
I4
sg8
I7
sg9
I7
sg10
I520
ssS'machine2'
p17
(dp18
g5
I432
sg6
I27
sg7
I1
sg8
I17
sg9
I3
sg10
I310
sssS'Wahono.csv'
p19
(dp20
g3
(dp21
g5
I1605
sg6
I52
sg7
I6
sg8
I4
sg9
I13
sg10
I1210
ssg11
(dp22
g5
I3120
sg6
I53
sg7
I7
sg8
I2
sg9
I292
sg10
I3120
ssg13
(dp23
g5
I3340
sg6
I56
sg7
I2
sg8
I4
sg9
I43
sg10
I1540
ssg15
(dp24
g5
I1772
sg6
I61
sg7
I0
sg8
I1
sg9
I15
sg10
I1250
ssg17
(dp25
g5
I2160
sg6
I55
sg7
I4
sg8
I3
sg9
I30
sg10
I1510
sssS'Hall.csv'
p26
(dp27
g3
(dp28
g5
I660
sg6
I96
sg7
I5
sg8
I5
sg9
I10
sg10
I460
ssg11
(dp29
g5
I2780
sg6
I89
sg7
I13
sg8
I4
sg9
I246
sg10
I2780
ssg13
(dp30
g5
I1444
sg6
I100
sg7
I2
sg8
I4
sg9
I14
sg10
I670
ssg15
(dp31
g5
I1193
sg6
I96
sg7
I6
sg8
I4
sg9
I19
sg10
I810
ssg17
(dp32
g5
I588
sg6
I97
sg7
I4
sg8
I5
sg9
I16
sg10
I410
sssS'Danijel.csv'
p33
(dp34
g3
(dp35
g5
I830
sg6
I39
sg7
I3
sg8
I6
sg9
I15
sg10
I610
ssg11
(dp36
g5
I3350
sg6
I41
sg7
I5
sg8
I2
sg9
I289
sg10
I3350
ssg13
(dp37
g5
I1984
sg6
I45
sg7
I1
sg8
I2
sg9
I27
sg10
I900
ssg15
(dp38
g5
I1139
sg6
I41
sg7
I3
sg8
I4
sg9
I18
sg10
I790
ssg17
(dp39
g5
I2169
sg6
I43
sg7
I3
sg8
I2
sg9
I32
sg10
I1510
sss.(dp0
S'K_all3.csv'
p1
(dp2
S'machine'
p3
(dp4
S'count'
p5
I648
sS'truepos'
p6
I29
sS'falseneg'
p7
I7
sS'unknownyes'
p8
I9
sS'falsepos'
p9
I4
sS'unique'
p10
I510
ssS'none'
p11
(dp12
g5
I430
sg6
I33
sg7
I1
sg8
I11
sg9
I33
sg10
I430
ssS'three'
p13
(dp14
g5
I952
sg6
I39
sg7
I0
sg8
I6
sg9
I12
sg10
I440
ssS'machine3'
p15
(dp16
g5
I691
sg6
I32
sg7
I4
sg8
I9
sg9
I15
sg10
I480
ssS'machine2'
p17
(dp18
g5
I626
sg6
I31
sg7
I4
sg8
I10
sg9
I6
sg10
I430
sssS'Wahono.csv'
p19
(dp20
g3
(dp21
g5
I1437
sg6
I57
sg7
I3
sg8
I2
sg9
I15
sg10
I1060
ssg11
(dp22
g5
I4440
sg6
I56
sg7
I6
sg8
I0
sg9
I421
sg10
I4440
ssg13
(dp23
g5
I3631
sg6
I61
sg7
I1
sg8
I0
sg9
I36
sg10
I1660
ssg15
(dp24
g5
I2141
sg6
I55
sg7
I2
sg8
I5
sg9
I35
sg10
I1490
ssg17
(dp25
g5
I2243
sg6
I56
sg7
I5
sg8
I1
sg9
I36
sg10
I1560
sssS'Hall.csv'
p26
(dp27
g3
(dp28
g5
I780
sg6
I100
sg7
I1
sg8
I5
sg9
I9
sg10
I560
ssg11
(dp29
g5
I1640
sg6
I90
sg7
I12
sg8
I4
sg9
I160
sg10
I1640
ssg13
(dp30
g5
I1206
sg6
I101
sg7
I1
sg8
I4
sg9
I14
sg10
I560
ssg15
(dp31
g5
I868
sg6
I97
sg7
I5
sg8
I4
sg9
I8
sg10
I580
ssg17
(dp32
g5
I1238
sg6
I98
sg7
I4
sg8
I4
sg9
I18
sg10
I830
sssS'Danijel.csv'
p33
(dp34
g3
(dp35
g5
I1041
sg6
I42
sg7
I3
sg8
I3
sg9
I15
sg10
I790
ssg11
(dp36
g5
I910
sg6
I38
sg7
I4
sg8
I6
sg9
I74
sg10
I910
ssg13
(dp37
g5
I2734
sg6
I45
sg7
I0
sg8
I3
sg9
I30
sg10
I1260
ssg15
(dp38
g5
I1284
sg6
I39
sg7
I5
sg8
I4
sg9
I18
sg10
I940
ssg17
(dp39
g5
I1160
sg6
I41
sg7
I5
sg8
I2
sg9
I14
sg10
I810
sss.(dp0
S'K_all3.csv'
p1
(dp2
S'machine'
p3
(dp4
S'count'
p5
I727
sS'truepos'
p6
I29
sS'falseneg'
p7
I7
sS'unknownyes'
p8
I9
sS'falsepos'
p9
I7
sS'unique'
p10
I580
ssS'none'
p11
(dp12
g5
I500
sg6
I38
sg7
I2
sg8
I5
sg9
I44
sg10
I500
ssS'three'
p13
(dp14
g5
I916
sg6
I34
sg7
I1
sg8
I10
sg9
I8
sg10
I420
ssS'machine3'
p15
(dp16
g5
I580
sg6
I35
sg7
I1
sg8
I9
sg9
I4
sg10
I430
ssS'machine2'
p17
(dp18
g5
I600
sg6
I29
sg7
I2
sg8
I14
sg9
I7
sg10
I470
sssS'Wahono.csv'
p19
(dp20
g3
(dp21
g5
I1730
sg6
I55
sg7
I4
sg8
I3
sg9
I20
sg10
I1290
ssg11
(dp22
g5
I4440
sg6
I49
sg7
I12
sg8
I1
sg9
I424
sg10
I4440
ssg13
(dp23
g5
I4392
sg6
I53
sg7
I5
sg8
I4
sg9
I63
sg10
I2010
ssg15
(dp24
g5
I1787
sg6
I54
sg7
I4
sg8
I4
sg9
I28
sg10
I1230
ssg17
(dp25
g5
I1457
sg6
I53
sg7
I6
sg8
I3
sg9
I21
sg10
I1010
sssS'Hall.csv'
p26
(dp27
g3
(dp28
g5
I1021
sg6
I94
sg7
I9
sg8
I3
sg9
I11
sg10
I730
ssg11
(dp29
g5
I2620
sg6
I97
sg7
I7
sg8
I2
sg9
I272
sg10
I2620
ssg13
(dp30
g5
I1742
sg6
I99
sg7
I3
sg8
I4
sg9
I20
sg10
I800
ssg15
(dp31
g5
I1306
sg6
I101
sg7
I2
sg8
I3
sg9
I13
sg10
I870
ssg17
(dp32
g5
I1042
sg6
I97
sg7
I5
sg8
I4
sg9
I14
sg10
I710
sssS'Danijel.csv'
p33
(dp34
g3
(dp35
g5
I1001
sg6
I40
sg7
I4
sg8
I4
sg9
I6
sg10
I760
ssg11
(dp36
g5
I1920
sg6
I40
sg7
I7
sg8
I1
sg9
I190
sg10
I1920
ssg13
(dp37
g5
I1898
sg6
I43
sg7
I3
sg8
I2
sg9
I17
sg10
I870
ssg15
(dp38
g5
I1206
sg6
I43
sg7
I3
sg8
I2
sg9
I14
sg10
I840
ssg17
(dp39
g5
I1084
sg6
I44
sg7
I1
sg8
I3
sg9
I12
sg10
I760
sss.(dp0
S'K_all3.csv'
p1
(dp2
S'machine'
p3
(dp4
S'count'
p5
I531
sS'truepos'
p6
I29
sS'falseneg'
p7
I6
sS'unknownyes'
p8
I10
sS'falsepos'
p9
I3
sS'unique'
p10
I410
ssS'none'
p11
(dp12
g5
I450
sg6
I29
sg7
I5
sg8
I11
sg9
I50
sg10
I450
ssS'three'
p13
(dp14
g5
I938
sg6
I32
sg7
I0
sg8
I13
sg9
I12
sg10
I430
ssS'machine3'
p15
(dp16
g5
I589
sg6
I35
sg7
I1
sg8
I9
sg9
I5
sg10
I440
ssS'machine2'
p17
(dp18
g5
I573
sg6
I35
sg7
I1
sg8
I9
sg9
I6
sg10
I410
sssS'Wahono.csv'
p19
(dp20
g3
(dp21
g5
I2195
sg6
I56
sg7
I5
sg8
I1
sg9
I19
sg10
I1630
ssg11
(dp22
g5
I3860
sg6
I55
sg7
I5
sg8
I2
sg9
I406
sg10
I3860
ssg13
(dp23
g5
I3871
sg6
I56
sg7
I2
sg8
I4
sg9
I54
sg10
I1770
ssg15
(dp24
g5
I2854
sg6
I54
sg7
I4
sg8
I4
sg9
I40
sg10
I2000
ssg17
(dp25
g5
I1894
sg6
I57
sg7
I1
sg8
I4
sg9
I33
sg10
I1310
sssS'Hall.csv'
p26
(dp27
g3
(dp28
g5
I590
sg6
I93
sg7
I8
sg8
I5
sg9
I15
sg10
I410
ssg11
(dp29
g5
I3260
sg6
I91
sg7
I12
sg8
I3
sg9
I333
sg10
I3260
ssg13
(dp30
g5
I1856
sg6
I98
sg7
I4
sg8
I4
sg9
I20
sg10
I850
ssg15
(dp31
g5
I928
sg6
I99
sg7
I3
sg8
I4
sg9
I6
sg10
I590
ssg17
(dp32
g5
I817
sg6
I97
sg7
I4
sg8
I5
sg9
I24
sg10
I560
sssS'Danijel.csv'
p33
(dp34
g3
(dp35
g5
I1464
sg6
I42
sg7
I4
sg8
I2
sg9
I17
sg10
I1110
ssg11
(dp36
g5
I970
sg6
I40
sg7
I4
sg8
I4
sg9
I86
sg10
I970
ssg13
(dp37
g5
I1579
sg6
I45
sg7
I0
sg8
I3
sg9
I19
sg10
I730
ssg15
(dp38
g5
I1335
sg6
I43
sg7
I2
sg8
I3
sg9
I12
sg10
I970
ssg17
(dp39
g5
I1509
sg6
I44
sg7
I2
sg8
I2
sg9
I17
sg10
I1060
sss.(dp0
S'K_all3.csv'
p1
(dp2
S'machine'
p3
(dp4
S'count'
p5
I622
sS'truepos'
p6
I31
sS'falseneg'
p7
I4
sS'unknownyes'
p8
I10
sS'falsepos'
p9
I3
sS'unique'
p10
I520
ssS'none'
p11
(dp12
g5
I400
sg6
I30
sg7
I2
sg8
I13
sg9
I33
sg10
I400
ssS'three'
p13
(dp14
g5
I993
sg6
I34
sg7
I2
sg8
I9
sg9
I10
sg10
I450
ssS'machine3'
p15
(dp16
g5
I580
sg6
I31
sg7
I3
sg8
I11
sg9
I8
sg10
I430
ssS'machine2'
p17
(dp18
g5
I584
sg6
I25
sg7
I5
sg8
I15
sg9
I14
sg10
I410
sssS'Wahono.csv'
p19
(dp20
g3
(dp21
g5
I1775
sg6
I54
sg7
I6
sg8
I2
sg9
I20
sg10
I1340
ssg11
(dp22
g5
I3850
sg6
I56
sg7
I5
sg8
I1
sg9
I357
sg10
I3850
ssg13
(dp23
g5
I4513
sg6
I60
sg7
I1
sg8
I1
sg9
I64
sg10
I2080
ssg15
(dp24
g5
I2290
sg6
I58
sg7
I2
sg8
I2
sg9
I28
sg10
I1630
ssg17
(dp25
g5
I1447
sg6
I56
sg7
I4
sg8
I2
sg9
I16
sg10
I1010
sssS'Hall.csv'
p26
(dp27
g3
(dp28
g5
I780
sg6
I96
sg7
I5
sg8
I5
sg9
I17
sg10
I560
ssg11
(dp29
g5
I3480
sg6
I84
sg7
I20
sg8
I2
sg9
I347
sg10
I3480
ssg13
(dp30
g5
I1112
sg6
I98
sg7
I4
sg8
I4
sg9
I11
sg10
I510
ssg15
(dp31
g5
I606
sg6
I92
sg7
I7
sg8
I7
sg9
I4
sg10
I370
ssg17
(dp32
g5
I814
sg6
I101
sg7
I1
sg8
I4
sg9
I13
sg10
I560
sssS'Danijel.csv'
p33
(dp34
g3
(dp35
g5
I949
sg6
I43
sg7
I2
sg8
I3
sg9
I7
sg10
I710
ssg11
(dp36
g5
I2750
sg6
I42
sg7
I2
sg8
I4
sg9
I298
sg10
I2750
ssg13
(dp37
g5
I2886
sg6
I43
sg7
I2
sg8
I3
sg9
I36
sg10
I1330
ssg15
(dp38
g5
I1335
sg6
I38
sg7
I4
sg8
I6
sg9
I20
sg10
I930
ssg17
(dp39
g5
I1016
sg6
I42
sg7
I2
sg8
I4
sg9
I22
sg10
I700
sss.(dp0
S'K_all3.csv'
p1
(dp2
S'machine'
p3
(dp4
S'count'
p5
I514
sS'truepos'
p6
I28
sS'falseneg'
p7
I3
sS'unknownyes'
p8
I14
sS'falsepos'
p9
I6
sS'unique'
p10
I400
ssS'none'
p11
(dp12
g5
I380
sg6
I31
sg7
I2
sg8
I12
sg9
I34
sg10
I380
ssS'three'
p13
(dp14
g5
I821
sg6
I30
sg7
I2
sg8
I13
sg9
I13
sg10
I380
ssS'machine3'
p15
(dp16
g5
I589
sg6
I29
sg7
I3
sg8
I13
sg9
I7
sg10
I430
ssS'machine2'
p17
(dp18
g5
I633
sg6
I31
sg7
I3
sg8
I11
sg9
I15
sg10
I460
sssS'Wahono.csv'
p19
(dp20
g3
(dp21
g5
I1908
sg6
I55
sg7
I6
sg8
I1
sg9
I13
sg10
I1410
ssg11
(dp22
g5
I4110
sg6
I59
sg7
I3
sg8
I0
sg9
I425
sg10
I4110
ssg13
(dp23
g5
I2907
sg6
I56
sg7
I2
sg8
I4
sg9
I40
sg10
I1330
ssg15
(dp24
g5
I2250
sg6
I57
sg7
I3
sg8
I2
sg9
I27
sg10
I1570
ssg17
(dp25
g5
I2704
sg6
I57
sg7
I4
sg8
I1
sg9
I45
sg10
I1860
sssS'Hall.csv'
p26
(dp27
g3
(dp28
g5
I932
sg6
I95
sg7
I7
sg8
I4
sg9
I9
sg10
I660
ssg11
(dp29
g5
I3020
sg6
I95
sg7
I10
sg8
I1
sg9
I271
sg10
I3020
ssg13
(dp30
g5
I1950
sg6
I99
sg7
I3
sg8
I4
sg9
I26
sg10
I890
ssg15
(dp31
g5
I1002
sg6
I96
sg7
I6
sg8
I4
sg9
I10
sg10
I650
ssg17
(dp32
g5
I517
sg6
I95
sg7
I5
sg8
I6
sg9
I15
sg10
I360
sssS'Danijel.csv'
p33
(dp34
g3
(dp35
g5
I690
sg6
I42
sg7
I1
sg8
I5
sg9
I5
sg10
I510
ssg11
(dp36
g5
I2780
sg6
I42
sg7
I5
sg8
I1
sg9
I301
sg10
I2780
ssg13
(dp37
g5
I2156
sg6
I43
sg7
I2
sg8
I3
sg9
I26
sg10
I990
ssg15
(dp38
g5
I1210
sg6
I46
sg7
I1
sg8
I1
sg9
I11
sg10
I840
ssg17
(dp39
g5
I1338
sg6
I44
sg7
I2
sg8
I2
sg9
I16
sg10
I970
sss.(dp0
S'K_all3.csv'
p1
(dp2
S'machine'
p3
(dp4
S'count'
p5
I740
sS'truepos'
p6
I31
sS'falseneg'
p7
I6
sS'unknownyes'
p8
I8
sS'falsepos'
p9
I10
sS'unique'
p10
I570
ssS'none'
p11
(dp12
g5
I440
sg6
I25
sg7
I5
sg8
I15
sg9
I43
sg10
I440
ssS'three'
p13
(dp14
g5
I940
sg6
I31
sg7
I1
sg8
I13
sg9
I8
sg10
I440
ssS'machine3'
p15
(dp16
g5
I787
sg6
I29
sg7
I5
sg8
I11
sg9
I7
sg10
I600
ssS'machine2'
p17
(dp18
g5
I581
sg6
I32
sg7
I0
sg8
I13
sg9
I10
sg10
I410
sssS'Wahono.csv'
p19
(dp20
g3
(dp21
g5
I1680
sg6
I57
sg7
I4
sg8
I1
sg9
I21
sg10
I1240
ssg11
(dp22
g5
I3610
sg6
I57
sg7
I4
sg8
I1
sg9
I348
sg10
I3610
ssg13
(dp23
g5
I3452
sg6
I56
sg7
I2
sg8
I4
sg9
I41
sg10
I1580
ssg15
(dp24
g5
I1844
sg6
I54
sg7
I3
sg8
I5
sg9
I30
sg10
I1310
ssg17
(dp25
g5
I1776
sg6
I56
sg7
I3
sg8
I3
sg9
I17
sg10
I1260
sssS'Hall.csv'
p26
(dp27
g3
(dp28
g5
I721
sg6
I95
sg7
I6
sg8
I5
sg9
I15
sg10
I510
ssg11
(dp29
g5
I4240
sg6
I96
sg7
I9
sg8
I1
sg9
I414
sg10
I4240
ssg13
(dp30
g5
I1541
sg6
I98
sg7
I5
sg8
I3
sg9
I19
sg10
I700
ssg15
(dp31
g5
I832
sg6
I95
sg7
I7
sg8
I4
sg9
I12
sg10
I530
ssg17
(dp32
g5
I587
sg6
I97
sg7
I5
sg8
I4
sg9
I16
sg10
I410
sssS'Danijel.csv'
p33
(dp34
g3
(dp35
g5
I969
sg6
I43
sg7
I1
sg8
I4
sg9
I15
sg10
I710
ssg11
(dp36
g5
I2150
sg6
I41
sg7
I4
sg8
I3
sg9
I214
sg10
I2150
ssg13
(dp37
g5
I1897
sg6
I44
sg7
I1
sg8
I3
sg9
I20
sg10
I870
ssg15
(dp38
g5
I958
sg6
I44
sg7
I0
sg8
I4
sg9
I15
sg10
I650
ssg17
(dp39
g5
I1087
sg6
I43
sg7
I2
sg8
I3
sg9
I13
sg10
I780
sss.(dp0
S'K_all3.csv'
p1
(dp2
S'machine'
p3
(dp4
S'count'
p5
I421
sS'truepos'
p6
I30
sS'falseneg'
p7
I2
sS'unknownyes'
p8
I13
sS'falsepos'
p9
I9
sS'unique'
p10
I310
ssS'none'
p11
(dp12
g5
I450
sg6
I36
sg7
I2
sg8
I7
sg9
I45
sg10
I450
ssS'three'
p13
(dp14
g5
I959
sg6
I29
sg7
I2
sg8
I14
sg9
I14
sg10
I440
ssS'machine3'
p15
(dp16
g5
I597
sg6
I31
sg7
I2
sg8
I12
sg9
I11
sg10
I430
ssS'machine2'
p17
(dp18
g5
I545
sg6
I31
sg7
I1
sg8
I13
sg9
I4
sg10
I380
sssS'Wahono.csv'
p19
(dp20
g3
(dp21
g5
I1689
sg6
I60
sg7
I0
sg8
I2
sg9
I17
sg10
I1260
ssg11
(dp22
g5
I3490
sg6
I56
sg7
I5
sg8
I1
sg9
I338
sg10
I3490
ssg13
(dp23
g5
I3074
sg6
I57
sg7
I1
sg8
I4
sg9
I40
sg10
I1410
ssg15
(dp24
g5
I2420
sg6
I55
sg7
I6
sg8
I1
sg9
I40
sg10
I1700
ssg17
(dp25
g5
I2528
sg6
I55
sg7
I4
sg8
I3
sg9
I36
sg10
I1760
sssS'Hall.csv'
p26
(dp27
g3
(dp28
g5
I700
sg6
I95
sg7
I7
sg8
I4
sg9
I13
sg10
I510
ssg11
(dp29
g5
I3660
sg6
I91
sg7
I12
sg8
I3
sg9
I343
sg10
I3660
ssg13
(dp30
g5
I1606
sg6
I99
sg7
I3
sg8
I4
sg9
I15
sg10
I730
ssg15
(dp31
g5
I1064
sg6
I100
sg7
I2
sg8
I4
sg9
I13
sg10
I690
ssg17
(dp32
g5
I2305
sg6
I98
sg7
I5
sg8
I3
sg9
I35
sg10
I1560
sssS'Danijel.csv'
p33
(dp34
g3
(dp35
g5
I953
sg6
I44
sg7
I1
sg8
I3
sg9
I11
sg10
I710
ssg11
(dp36
g5
I2800
sg6
I39
sg7
I5
sg8
I4
sg9
I284
sg10
I2800
ssg13
(dp37
g5
I2901
sg6
I44
sg7
I2
sg8
I2
sg9
I33
sg10
I1330
ssg15
(dp38
g5
I1563
sg6
I43
sg7
I3
sg8
I2
sg9
I20
sg10
I1090
ssg17
(dp39
g5
I1514
sg6
I43
sg7
I2
sg8
I3
sg9
I24
sg10
I1060
sss.(dp0
S'K_all3.csv'
p1
(dp2
S'machine'
p3
(dp4
S'count'
p5
I608
sS'truepos'
p6
I34
sS'falseneg'
p7
I3
sS'unknownyes'
p8
I8
sS'falsepos'
p9
I7
sS'unique'
p10
I460
ssS'none'
p11
(dp12
g5
I600
sg6
I32
sg7
I5
sg8
I8
sg9
I59
sg10
I600
ssS'three'
p13
(dp14
g5
I1089
sg6
I33
sg7
I2
sg8
I10
sg9
I15
sg10
I500
ssS'machine3'
p15
(dp16
g5
I609
sg6
I30
sg7
I4
sg8
I11
sg9
I9
sg10
I440
ssS'machine2'
p17
(dp18
g5
I479
sg6
I27
sg7
I3
sg8
I15
sg9
I7
sg10
I360
sssS'Wahono.csv'
p19
(dp20
g3
(dp21
g5
I2343
sg6
I56
sg7
I4
sg8
I2
sg9
I21
sg10
I1760
ssg11
(dp22
g5
I2180
sg6
I55
sg7
I5
sg8
I2
sg9
I190
sg10
I2180
ssg13
(dp23
g5
I2703
sg6
I58
sg7
I2
sg8
I2
sg9
I27
sg10
I1230
ssg15
(dp24
g5
I1959
sg6
I58
sg7
I2
sg8
I2
sg9
I37
sg10
I1370
ssg17
(dp25
g5
I2236
sg6
I59
sg7
I0
sg8
I3
sg9
I34
sg10
I1600
sssS'Hall.csv'
p26
(dp27
g3
(dp28
g5
I492
sg6
I93
sg7
I6
sg8
I7
sg9
I14
sg10
I360
ssg11
(dp29
g5
I4360
sg6
I92
sg7
I11
sg8
I3
sg9
I441
sg10
I4360
ssg13
(dp30
g5
I1608
sg6
I99
sg7
I3
sg8
I4
sg9
I20
sg10
I730
ssg15
(dp31
g5
I769
sg6
I99
sg7
I3
sg8
I4
sg9
I10
sg10
I500
ssg17
(dp32
g5
I1075
sg6
I101
sg7
I1
sg8
I4
sg9
I11
sg10
I720
sssS'Danijel.csv'
p33
(dp34
g3
(dp35
g5
I1488
sg6
I39
sg7
I6
sg8
I3
sg9
I17
sg10
I1130
ssg11
(dp36
g5
I2830
sg6
I44
sg7
I2
sg8
I2
sg9
I271
sg10
I2830
ssg13
(dp37
g5
I3026
sg6
I45
sg7
I1
sg8
I2
sg9
I36
sg10
I1380
ssg15
(dp38
g5
I1082
sg6
I40
sg7
I3
sg8
I5
sg9
I15
sg10
I770
ssg17
(dp39
g5
I1593
sg6
I43
sg7
I3
sg8
I2
sg9
I32
sg10
I1110
sss.(dp0
S'K_all3.csv'
p1
(dp2
S'machine'
p3
(dp4
S'count'
p5
I480
sS'truepos'
p6
I26
sS'falseneg'
p7
I3
sS'unknownyes'
p8
I16
sS'falsepos'
p9
I6
sS'unique'
p10
I360
ssS'none'
p11
(dp12
g5
I400
sg6
I29
sg7
I2
sg8
I14
sg9
I34
sg10
I400
ssS'three'
p13
(dp14
g5
I996
sg6
I30
sg7
I2
sg8
I13
sg9
I8
sg10
I460
ssS'machine3'
p15
(dp16
g5
I513
sg6
I30
sg7
I1
sg8
I14
sg9
I9
sg10
I370
ssS'machine2'
p17
(dp18
g5
I535
sg6
I27
sg7
I2
sg8
I16
sg9
I7
sg10
I370
sssS'Wahono.csv'
p19
(dp20
g3
(dp21
g5
I1563
sg6
I54
sg7
I5
sg8
I3
sg9
I18
sg10
I1160
ssg11
(dp22
g5
I3380
sg6
I53
sg7
I6
sg8
I3
sg9
I332
sg10
I3380
ssg13
(dp23
g5
I3472
sg6
I56
sg7
I2
sg8
I4
sg9
I41
sg10
I1600
ssg15
(dp24
g5
I1752
sg6
I58
sg7
I2
sg8
I2
sg9
I24
sg10
I1230
ssg17
(dp25
g5
I2553
sg6
I56
sg7
I2
sg8
I4
sg9
I40
sg10
I1760
sssS'Hall.csv'
p26
(dp27
g3
(dp28
g5
I590
sg6
I92
sg7
I6
sg8
I8
sg9
I16
sg10
I410
ssg11
(dp29
g5
I3740
sg6
I95
sg7
I8
sg8
I3
sg9
I372
sg10
I3740
ssg13
(dp30
g5
I1929
sg6
I103
sg7
I0
sg8
I3
sg9
I23
sg10
I890
ssg15
(dp31
g5
I1953
sg6
I98
sg7
I5
sg8
I3
sg9
I32
sg10
I1320
ssg17
(dp32
g5
I787
sg6
I99
sg7
I3
sg8
I4
sg9
I7
sg10
I530
sssS'Danijel.csv'
p33
(dp34
g3
(dp35
g5
I869
sg6
I41
sg7
I2
sg8
I5
sg9
I7
sg10
I660
ssg11
(dp36
g5
I2590
sg6
I42
sg7
I2
sg8
I4
sg9
I254
sg10
I2590
ssg13
(dp37
g5
I2407
sg6
I43
sg7
I3
sg8
I2
sg9
I17
sg10
I1100
ssg15
(dp38
g5
I989
sg6
I45
sg7
I0
sg8
I3
sg9
I9
sg10
I700
ssg17
(dp39
g5
I1226
sg6
I44
sg7
I2
sg8
I2
sg9
I17
sg10
I860
sss.(dp0
S'K_all3.csv'
p1
(dp2
S'machine'
p3
(dp4
S'count'
p5
I643
sS'truepos'
p6
I27
sS'falseneg'
p7
I5
sS'unknownyes'
p8
I13
sS'falsepos'
p9
I8
sS'unique'
p10
I510
ssS'none'
p11
(dp12
g5
I360
sg6
I33
sg7
I0
sg8
I12
sg9
I35
sg10
I360
ssS'three'
p13
(dp14
g5
I1025
sg6
I39
sg7
I1
sg8
I5
sg9
I13
sg10
I470
ssS'machine3'
p15
(dp16
g5
I638
sg6
I34
sg7
I2
sg8
I9
sg9
I5
sg10
I480
ssS'machine2'
p17
(dp18
g5
I666
sg6
I31
sg7
I7
sg8
I7
sg9
I6
sg10
I500
sssS'Wahono.csv'
p19
(dp20
g3
(dp21
g5
I1607
sg6
I58
sg7
I1
sg8
I3
sg9
I9
sg10
I1210
ssg11
(dp22
g5
I4160
sg6
I53
sg7
I8
sg8
I1
sg9
I441
sg10
I4160
ssg13
(dp23
g5
I3535
sg6
I51
sg7
I7
sg8
I4
sg9
I50
sg10
I1630
ssg15
(dp24
g5
I2464
sg6
I59
sg7
I1
sg8
I2
sg9
I33
sg10
I1710
ssg17
(dp25
g5
I1709
sg6
I56
sg7
I2
sg8
I4
sg9
I14
sg10
I1210
sssS'Hall.csv'
p26
(dp27
g3
(dp28
g5
I734
sg6
I96
sg7
I5
sg8
I5
sg9
I19
sg10
I520
ssg11
(dp29
g5
I2780
sg6
I98
sg7
I5
sg8
I3
sg9
I282
sg10
I2780
ssg13
(dp30
g5
I1510
sg6
I101
sg7
I1
sg8
I4
sg9
I14
sg10
I690
ssg15
(dp31
g5
I709
sg6
I98
sg7
I3
sg8
I5
sg9
I7
sg10
I440
ssg17
(dp32
g5
I1149
sg6
I98
sg7
I4
sg8
I4
sg9
I16
sg10
I760
sssS'Danijel.csv'
p33
(dp34
g3
(dp35
g5
I1300
sg6
I41
sg7
I3
sg8
I4
sg9
I10
sg10
I980
ssg11
(dp36
g5
I2750
sg6
I43
sg7
I4
sg8
I1
sg9
I258
sg10
I2750
ssg13
(dp37
g5
I2086
sg6
I44
sg7
I1
sg8
I3
sg9
I31
sg10
I960
ssg15
(dp38
g5
I1350
sg6
I38
sg7
I7
sg8
I3
sg9
I19
sg10
I950
ssg17
(dp39
g5
I1524
sg6
I44
sg7
I1
sg8
I3
sg9
I26
sg10
I1060
sss.(dp0
S'K_all3.csv'
p1
(dp2
S'machine'
p3
(dp4
S'count'
p5
I566
sS'truepos'
p6
I32
sS'falseneg'
p7
I4
sS'unknownyes'
p8
I9
sS'falsepos'
p9
I6
sS'unique'
p10
I420
ssS'none'
p11
(dp12
g5
I590
sg6
I33
sg7
I4
sg8
I8
sg9
I55
sg10
I590
ssS'three'
p13
(dp14
g5
I847
sg6
I30
sg7
I1
sg8
I14
sg9
I11
sg10
I380
ssS'machine3'
p15
(dp16
g5
I673
sg6
I36
sg7
I2
sg8
I7
sg9
I2
sg10
I490
ssS'machine2'
p17
(dp18
g5
I496
sg6
I27
sg7
I3
sg8
I15
sg9
I7
sg10
I360
sssS'Wahono.csv'
p19
(dp20
g3
(dp21
g5
I1294
sg6
I57
sg7
I2
sg8
I3
sg9
I10
sg10
I960
ssg11
(dp22
g5
I3930
sg6
I56
sg7
I5
sg8
I1
sg9
I377
sg10
I3930
ssg13
(dp23
g5
I3162
sg6
I54
sg7
I4
sg8
I4
sg9
I41
sg10
I1440
ssg15
(dp24
g5
I1890
sg6
I58
sg7
I1
sg8
I3
sg9
I20
sg10
I1330
ssg17
(dp25
g5
I2446
sg6
I59
sg7
I2
sg8
I1
sg9
I38
sg10
I1710
sssS'Hall.csv'
p26
(dp27
g3
(dp28
g5
I570
sg6
I97
sg7
I3
sg8
I6
sg9
I15
sg10
I410
ssg11
(dp29
g5
I2170
sg6
I97
sg7
I5
sg8
I4
sg9
I229
sg10
I2170
ssg13
(dp30
g5
I1349
sg6
I99
sg7
I3
sg8
I4
sg9
I14
sg10
I620
ssg15
(dp31
g5
I820
sg6
I98
sg7
I4
sg8
I4
sg9
I9
sg10
I510
ssg17
(dp32
g5
I1080
sg6
I96
sg7
I6
sg8
I4
sg9
I18
sg10
I720
sssS'Danijel.csv'
p33
(dp34
g3
(dp35
g5
I1033
sg6
I42
sg7
I3
sg8
I3
sg9
I4
sg10
I770
ssg11
(dp36
g5
I3460
sg6
I40
sg7
I7
sg8
I1
sg9
I368
sg10
I3460
ssg13
(dp37
g5
I2323
sg6
I44
sg7
I2
sg8
I2
sg9
I30
sg10
I1060
ssg15
(dp38
g5
I1082
sg6
I43
sg7
I1
sg8
I4
sg9
I15
sg10
I750
ssg17
(dp39
g5
I1122
sg6
I42
sg7
I2
sg8
I4
sg9
I17
sg10
I790
sss.(dp0
S'K_all3.csv'
p1
(dp2
S'machine'
p3
(dp4
S'count'
p5
I607
sS'truepos'
p6
I31
sS'falseneg'
p7
I3
sS'unknownyes'
p8
I11
sS'falsepos'
p9
I8
sS'unique'
p10
I490
ssS'none'
p11
(dp12
g5
I570
sg6
I37
sg7
I3
sg8
I5
sg9
I58
sg10
I570
ssS'three'
p13
(dp14
g5
I870
sg6
I31
sg7
I0
sg8
I14
sg9
I8
sg10
I400
ssS'machine3'
p15
(dp16
g5
I665
sg6
I31
sg7
I5
sg8
I9
sg9
I7
sg10
I480
ssS'machine2'
p17
(dp18
g5
I591
sg6
I31
sg7
I1
sg8
I13
sg9
I6
sg10
I430
sssS'Wahono.csv'
p19
(dp20
g3
(dp21
g5
I2055
sg6
I57
sg7
I3
sg8
I2
sg9
I30
sg10
I1520
ssg11
(dp22
g5
I4050
sg6
I56
sg7
I4
sg8
I2
sg9
I413
sg10
I4050
ssg13
(dp23
g5
I2552
sg6
I53
sg7
I3
sg8
I6
sg9
I35
sg10
I1170
ssg15
(dp24
g5
I2706
sg6
I57
sg7
I4
sg8
I1
sg9
I38
sg10
I1880
ssg17
(dp25
g5
I2448
sg6
I58
sg7
I3
sg8
I1
sg9
I31
sg10
I1720
sssS'Hall.csv'
p26
(dp27
g3
(dp28
g5
I670
sg6
I100
sg7
I1
sg8
I5
sg9
I5
sg10
I480
ssg11
(dp29
g5
I3330
sg6
I94
sg7
I9
sg8
I3
sg9
I364
sg10
I3330
ssg13
(dp30
g5
I1842
sg6
I101
sg7
I1
sg8
I4
sg9
I23
sg10
I850
ssg15
(dp31
g5
I730
sg6
I99
sg7
I3
sg8
I4
sg9
I8
sg10
I460
ssg17
(dp32
g5
I924
sg6
I100
sg7
I2
sg8
I4
sg9
I14
sg10
I620
sssS'Danijel.csv'
p33
(dp34
g3
(dp35
g5
I1582
sg6
I41
sg7
I4
sg8
I3
sg9
I15
sg10
I1210
ssg11
(dp36
g5
I2910
sg6
I43
sg7
I4
sg8
I1
sg9
I283
sg10
I2910
ssg13
(dp37
g5
I3755
sg6
I45
sg7
I3
sg8
I0
sg9
I55
sg10
I1720
ssg15
(dp38
g5
I1096
sg6
I43
sg7
I2
sg8
I3
sg9
I14
sg10
I770
ssg17
(dp39
g5
I1016
sg6
I44
sg7
I1
sg8
I3
sg9
I19
sg10
I710
sss.(dp0
S'K_all3.csv'
p1
(dp2
S'machine'
p3
(dp4
S'count'
p5
I412
sS'truepos'
p6
I25
sS'falseneg'
p7
I4
sS'unknownyes'
p8
I16
sS'falsepos'
p9
I7
sS'unique'
p10
I310
ssS'none'
p11
(dp12
g5
I480
sg6
I10
sg7
I3
sg8
I32
sg9
I47
sg10
I480
ssS'three'
p13
(dp14
g5
I1003
sg6
I33
sg7
I2
sg8
I10
sg9
I12
sg10
I460
ssS'machine3'
p15
(dp16
g5
I590
sg6
I32
sg7
I3
sg8
I10
sg9
I5
sg10
I440
ssS'machine2'
p17
(dp18
g5
I653
sg6
I30
sg7
I3
sg8
I12
sg9
I9
sg10
I460
sssS'Wahono.csv'
p19
(dp20
g3
(dp21
g5
I1221
sg6
I48
sg7
I8
sg8
I6
sg9
I21
sg10
I910
ssg11
(dp22
g5
I4030
sg6
I54
sg7
I8
sg8
I0
sg9
I402
sg10
I4030
ssg13
(dp23
g5
I3604
sg6
I61
sg7
I0
sg8
I1
sg9
I45
sg10
I1650
ssg15
(dp24
g5
I2465
sg6
I59
sg7
I1
sg8
I2
sg9
I30
sg10
I1710
ssg17
(dp25
g5
I2618
sg6
I58
sg7
I0
sg8
I4
sg9
I47
sg10
I1810
sssS'Hall.csv'
p26
(dp27
g3
(dp28
g5
I570
sg6
I94
sg7
I7
sg8
I5
sg9
I14
sg10
I410
ssg11
(dp29
g5
I3080
sg6
I96
sg7
I7
sg8
I3
sg9
I288
sg10
I3080
ssg13
(dp30
g5
I964
sg6
I97
sg7
I3
sg8
I6
sg9
I8
sg10
I450
ssg15
(dp31
g5
I639
sg6
I93
sg7
I8
sg8
I5
sg9
I7
sg10
I400
ssg17
(dp32
g5
I663
sg6
I95
sg7
I5
sg8
I6
sg9
I11
sg10
I450
sssS'Danijel.csv'
p33
(dp34
g3
(dp35
g5
I972
sg6
I40
sg7
I6
sg8
I2
sg9
I15
sg10
I730
ssg11
(dp36
g5
I2930
sg6
I38
sg7
I7
sg8
I3
sg9
I301
sg10
I2930
ssg13
(dp37
g5
I2576
sg6
I44
sg7
I1
sg8
I3
sg9
I29
sg10
I1180
ssg15
(dp38
g5
I1521
sg6
I44
sg7
I2
sg8
I2
sg9
I16
sg10
I1080
ssg17
(dp39
g5
I996
sg6
I41
sg7
I4
sg8
I3
sg9
I15
sg10
I710
sss.(dp0
S'K_all3.csv'
p1
(dp2
S'machine'
p3
(dp4
S'count'
p5
I466
sS'truepos'
p6
I34
sS'falseneg'
p7
I0
sS'unknownyes'
p8
I11
sS'falsepos'
p9
I6
sS'unique'
p10
I360
ssS'none'
p11
(dp12
g5
I500
sg6
I34
sg7
I1
sg8
I10
sg9
I45
sg10
I500
ssS'three'
p13
(dp14
g5
I1235
sg6
I34
sg7
I3
sg8
I8
sg9
I23
sg10
I570
ssS'machine3'
p15
(dp16
g5
I648
sg6
I34
sg7
I1
sg8
I10
sg9
I10
sg10
I470
ssS'machine2'
p17
(dp18
g5
I571
sg6
I29
sg7
I3
sg8
I13
sg9
I7
sg10
I410
sssS'Wahono.csv'
p19
(dp20
g3
(dp21
g5
I2045
sg6
I55
sg7
I5
sg8
I2
sg9
I26
sg10
I1510
ssg11
(dp22
g5
I3600
sg6
I52
sg7
I8
sg8
I2
sg9
I366
sg10
I3600
ssg13
(dp23
g5
I4444
sg6
I59
sg7
I2
sg8
I1
sg9
I57
sg10
I2030
ssg15
(dp24
g5
I1771
sg6
I54
sg7
I5
sg8
I3
sg9
I25
sg10
I1220
ssg17
(dp25
g5
I2275
sg6
I54
sg7
I6
sg8
I2
sg9
I27
sg10
I1610
sssS'Hall.csv'
p26
(dp27
g3
(dp28
g5
I820
sg6
I97
sg7
I4
sg8
I5
sg9
I25
sg10
I580
ssg11
(dp29
g5
I4000
sg6
I95
sg7
I8
sg8
I3
sg9
I415
sg10
I4000
ssg13
(dp30
g5
I1696
sg6
I97
sg7
I5
sg8
I4
sg9
I18
sg10
I770
ssg15
(dp31
g5
I777
sg6
I97
sg7
I5
sg8
I4
sg9
I6
sg10
I510
ssg17
(dp32
g5
I1321
sg6
I100
sg7
I2
sg8
I4
sg9
I24
sg10
I890
sssS'Danijel.csv'
p33
(dp34
g3
(dp35
g5
I1398
sg6
I40
sg7
I4
sg8
I4
sg9
I13
sg10
I1060
ssg11
(dp36
g5
I2040
sg6
I42
sg7
I3
sg8
I3
sg9
I209
sg10
I2040
ssg13
(dp37
g5
I2792
sg6
I46
sg7
I0
sg8
I2
sg9
I22
sg10
I1290
ssg15
(dp38
g5
I1243
sg6
I41
sg7
I4
sg8
I3
sg9
I18
sg10
I890
ssg17
(dp39
g5
I1073
sg6
I38
sg7
I6
sg8
I4
sg9
I12
sg10
I760
sss.(dp0
S'K_all3.csv'
p1
(dp2
S'machine'
p3
(dp4
S'count'
p5
I651
sS'truepos'
p6
I33
sS'falseneg'
p7
I3
sS'unknownyes'
p8
I9
sS'falsepos'
p9
I8
sS'unique'
p10
I510
ssS'none'
p11
(dp12
g5
I360
sg6
I28
sg7
I4
sg8
I13
sg9
I29
sg10
I360
ssS'three'
p13
(dp14
g5
I977
sg6
I36
sg7
I0
sg8
I9
sg9
I15
sg10
I450
ssS'machine3'
p15
(dp16
g5
I608
sg6
I34
sg7
I2
sg8
I9
sg9
I9
sg10
I450
ssS'machine2'
p17
(dp18
g5
I557
sg6
I28
sg7
I2
sg8
I15
sg9
I8
sg10
I410
sssS'Wahono.csv'
p19
(dp20
g3
(dp21
g5
I1840
sg6
I54
sg7
I5
sg8
I3
sg9
I19
sg10
I1360
ssg11
(dp22
g5
I4200
sg6
I54
sg7
I8
sg8
I0
sg9
I421
sg10
I4200
ssg13
(dp23
g5
I2495
sg6
I59
sg7
I0
sg8
I3
sg9
I23
sg10
I1150
ssg15
(dp24
g5
I2017
sg6
I56
sg7
I4
sg8
I2
sg9
I22
sg10
I1400
ssg17
(dp25
g5
I2029
sg6
I58
sg7
I0
sg8
I4
sg9
I24
sg10
I1420
sssS'Hall.csv'
p26
(dp27
g3
(dp28
g5
I1142
sg6
I96
sg7
I7
sg8
I3
sg9
I21
sg10
I810
ssg11
(dp29
g5
I3810
sg6
I87
sg7
I16
sg8
I3
sg9
I370
sg10
I3810
ssg13
(dp30
g5
I1779
sg6
I96
sg7
I6
sg8
I4
sg9
I21
sg10
I810
ssg15
(dp31
g5
I797
sg6
I94
sg7
I8
sg8
I4
sg9
I7
sg10
I510
ssg17
(dp32
g5
I1016
sg6
I95
sg7
I6
sg8
I5
sg9
I25
sg10
I680
sssS'Danijel.csv'
p33
(dp34
g3
(dp35
g5
I941
sg6
I44
sg7
I1
sg8
I3
sg9
I8
sg10
I710
ssg11
(dp36
g5
I2770
sg6
I44
sg7
I3
sg8
I1
sg9
I257
sg10
I2770
ssg13
(dp37
g5
I2490
sg6
I46
sg7
I0
sg8
I2
sg9
I31
sg10
I1150
ssg15
(dp38
g5
I1229
sg6
I42
sg7
I3
sg8
I3
sg9
I15
sg10
I870
ssg17
(dp39
g5
I1159
sg6
I44
sg7
I2
sg8
I2
sg9
I18
sg10
I810
sss.(dp0
S'K_all3.csv'
p1
(dp2
S'machine'
p3
(dp4
S'count'
p5
I591
sS'truepos'
p6
I28
sS'falseneg'
p7
I6
sS'unknownyes'
p8
I11
sS'falsepos'
p9
I7
sS'unique'
p10
I460
ssS'none'
p11
(dp12
g5
I630
sg6
I27
sg7
I9
sg8
I9
sg9
I55
sg10
I630
ssS'three'
p13
(dp14
g5
I1106
sg6
I38
sg7
I0
sg8
I7
sg9
I10
sg10
I510
ssS'machine3'
p15
(dp16
g5
I665
sg6
I32
sg7
I2
sg8
I11
sg9
I13
sg10
I480
ssS'machine2'
p17
(dp18
g5
I709
sg6
I32
sg7
I3
sg8
I10
sg9
I12
sg10
I510
sssS'Wahono.csv'
p19
(dp20
g3
(dp21
g5
I1834
sg6
I58
sg7
I2
sg8
I2
sg9
I13
sg10
I1360
ssg11
(dp22
g5
I3010
sg6
I55
sg7
I5
sg8
I2
sg9
I294
sg10
I3010
ssg13
(dp23
g5
I2683
sg6
I56
sg7
I2
sg8
I4
sg9
I36
sg10
I1230
ssg15
(dp24
g5
I1836
sg6
I54
sg7
I4
sg8
I4
sg9
I34
sg10
I1270
ssg17
(dp25
g5
I2049
sg6
I58
sg7
I2
sg8
I2
sg9
I24
sg10
I1440
sssS'Hall.csv'
p26
(dp27
g3
(dp28
g5
I570
sg6
I95
sg7
I5
sg8
I6
sg9
I11
sg10
I410
ssg11
(dp29
g5
I4950
sg6
I92
sg7
I12
sg8
I2
sg9
I544
sg10
I4950
ssg13
(dp30
g5
I2198
sg6
I95
sg7
I7
sg8
I4
sg9
I22
sg10
I1000
ssg15
(dp31
g5
I847
sg6
I94
sg7
I8
sg8
I4
sg9
I7
sg10
I540
ssg17
(dp32
g5
I452
sg6
I96
sg7
I2
sg8
I8
sg9
I11
sg10
I310
sssS'Danijel.csv'
p33
(dp34
g3
(dp35
g5
I1013
sg6
I44
sg7
I1
sg8
I3
sg9
I14
sg10
I760
ssg11
(dp36
g5
I2110
sg6
I40
sg7
I5
sg8
I3
sg9
I190
sg10
I2110
ssg13
(dp37
g5
I2329
sg6
I43
sg7
I3
sg8
I2
sg9
I35
sg10
I1070
ssg15
(dp38
g5
I1323
sg6
I43
sg7
I1
sg8
I4
sg9
I19
sg10
I920
ssg17
(dp39
g5
I854
sg6
I43
sg7
I2
sg8
I3
sg9
I12
sg10
I610
sss.(dp0
S'K_all3.csv'
p1
(dp2
S'machine'
p3
(dp4
S'count'
p5
I540
sS'truepos'
p6
I29
sS'falseneg'
p7
I9
sS'unknownyes'
p8
I7
sS'falsepos'
p9
I4
sS'unique'
p10
I410
ssS'none'
p11
(dp12
g5
I430
sg6
I29
sg7
I3
sg8
I13
sg9
I40
sg10
I430
ssS'three'
p13
(dp14
g5
I947
sg6
I29
sg7
I1
sg8
I15
sg9
I16
sg10
I430
ssS'machine3'
p15
(dp16
g5
I521
sg6
I30
sg7
I4
sg8
I11
sg9
I10
sg10
I370
ssS'machine2'
p17
(dp18
g5
I636
sg6
I32
sg7
I2
sg8
I11
sg9
I10
sg10
I460
sssS'Wahono.csv'
p19
(dp20
g3
(dp21
g5
I1632
sg6
I54
sg7
I5
sg8
I3
sg9
I16
sg10
I1210
ssg11
(dp22
g5
I4390
sg6
I57
sg7
I4
sg8
I1
sg9
I415
sg10
I4390
ssg13
(dp23
g5
I3492
sg6
I58
sg7
I2
sg8
I2
sg9
I33
sg10
I1610
ssg15
(dp24
g5
I1519
sg6
I54
sg7
I4
sg8
I4
sg9
I24
sg10
I1070
ssg17
(dp25
g5
I1884
sg6
I54
sg7
I3
sg8
I5
sg9
I30
sg10
I1310
sssS'Hall.csv'
p26
(dp27
g3
(dp28
g5
I730
sg6
I96
sg7
I5
sg8
I5
sg9
I8
sg10
I510
ssg11
(dp29
g5
I4940
sg6
I94
sg7
I10
sg8
I2
sg9
I457
sg10
I4940
ssg13
(dp30
g5
I1414
sg6
I99
sg7
I3
sg8
I4
sg9
I13
sg10
I650
ssg15
(dp31
g5
I905
sg6
I102
sg7
I0
sg8
I4
sg9
I11
sg10
I570
ssg17
(dp32
g5
I924
sg6
I101
sg7
I1
sg8
I4
sg9
I17
sg10
I620
sssS'Danijel.csv'
p33
(dp34
g3
(dp35
g5
I933
sg6
I39
sg7
I5
sg8
I4
sg9
I8
sg10
I710
ssg11
(dp36
g5
I2730
sg6
I44
sg7
I3
sg8
I1
sg9
I254
sg10
I2730
ssg13
(dp37
g5
I1545
sg6
I42
sg7
I2
sg8
I4
sg9
I20
sg10
I710
ssg15
(dp38
g5
I1195
sg6
I42
sg7
I4
sg8
I2
sg9
I13
sg10
I850
ssg17
(dp39
g5
I1227
sg6
I42
sg7
I3
sg8
I3
sg9
I15
sg10
I880
sss.(dp0
S'K_all3.csv'
p1
(dp2
S'machine'
p3
(dp4
S'count'
p5
I588
sS'truepos'
p6
I29
sS'falseneg'
p7
I3
sS'unknownyes'
p8
I13
sS'falsepos'
p9
I3
sS'unique'
p10
I460
ssS'none'
p11
(dp12
g5
I450
sg6
I31
sg7
I5
sg8
I9
sg9
I45
sg10
I450
ssS'three'
p13
(dp14
g5
I873
sg6
I33
sg7
I2
sg8
I10
sg9
I11
sg10
I400
ssS'machine3'
p15
(dp16
g5
I732
sg6
I28
sg7
I5
sg8
I12
sg9
I15
sg10
I530
ssS'machine2'
p17
(dp18
g5
I688
sg6
I35
sg7
I2
sg8
I8
sg9
I8
sg10
I500
sssS'Wahono.csv'
p19
(dp20
g3
(dp21
g5
I1814
sg6
I50
sg7
I8
sg8
I4
sg9
I26
sg10
I1360
ssg11
(dp22
g5
I2560
sg6
I50
sg7
I8
sg8
I4
sg9
I274
sg10
I2560
ssg13
(dp23
g5
I2795
sg6
I58
sg7
I1
sg8
I3
sg9
I44
sg10
I1290
ssg15
(dp24
g5
I1897
sg6
I57
sg7
I4
sg8
I1
sg9
I19
sg10
I1320
ssg17
(dp25
g5
I2208
sg6
I57
sg7
I3
sg8
I2
sg9
I29
sg10
I1560
sssS'Hall.csv'
p26
(dp27
g3
(dp28
g5
I761
sg6
I96
sg7
I6
sg8
I4
sg9
I6
sg10
I550
ssg11
(dp29
g5
I2510
sg6
I97
sg7
I7
sg8
I2
sg9
I218
sg10
I2510
ssg13
(dp30
g5
I1724
sg6
I97
sg7
I5
sg8
I4
sg9
I15
sg10
I790
ssg15
(dp31
g5
I3066
sg6
I100
sg7
I3
sg8
I3
sg9
I53
sg10
I2090
ssg17
(dp32
g5
I986
sg6
I101
sg7
I1
sg8
I4
sg9
I12
sg10
I660
sssS'Danijel.csv'
p33
(dp34
g3
(dp35
g5
I1195
sg6
I42
sg7
I4
sg8
I2
sg9
I7
sg10
I910
ssg11
(dp36
g5
I990
sg6
I38
sg7
I4
sg8
I6
sg9
I92
sg10
I990
ssg13
(dp37
g5
I1796
sg6
I42
sg7
I2
sg8
I4
sg9
I24
sg10
I820
ssg15
(dp38
g5
I1866
sg6
I43
sg7
I2
sg8
I3
sg9
I24
sg10
I1310
ssg17
(dp39
g5
I1355
sg6
I42
sg7
I3
sg8
I3
sg9
I26
sg10
I960
sss.(dp0
S'K_all3.csv'
p1
(dp2
S'machine'
p3
(dp4
S'count'
p5
I660
sS'truepos'
p6
I33
sS'falseneg'
p7
I3
sS'unknownyes'
p8
I9
sS'falsepos'
p9
I6
sS'unique'
p10
I520
ssS'none'
p11
(dp12
g5
I540
sg6
I34
sg7
I2
sg8
I9
sg9
I59
sg10
I540
ssS'three'
p13
(dp14
g5
I1081
sg6
I32
sg7
I2
sg8
I11
sg9
I7
sg10
I490
ssS'machine3'
p15
(dp16
g5
I703
sg6
I30
sg7
I3
sg8
I12
sg9
I12
sg10
I510
ssS'machine2'
p17
(dp18
g5
I557
sg6
I33
sg7
I5
sg8
I7
sg9
I8
sg10
I410
sssS'Wahono.csv'
p19
(dp20
g3
(dp21
g5
I1453
sg6
I51
sg7
I8
sg8
I3
sg9
I11
sg10
I1110
ssg11
(dp22
g5
I2910
sg6
I57
sg7
I5
sg8
I0
sg9
I291
sg10
I2910
ssg13
(dp23
g5
I3388
sg6
I55
sg7
I3
sg8
I4
sg9
I41
sg10
I1550
ssg15
(dp24
g5
I1615
sg6
I49
sg7
I8
sg8
I5
sg9
I30
sg10
I1140
ssg17
(dp25
g5
I1862
sg6
I55
sg7
I4
sg8
I3
sg9
I16
sg10
I1320
sssS'Hall.csv'
p26
(dp27
g3
(dp28
g5
I653
sg6
I93
sg7
I6
sg8
I7
sg9
I12
sg10
I460
ssg11
(dp29
g5
I2460
sg6
I89
sg7
I13
sg8
I4
sg9
I202
sg10
I2460
ssg13
(dp30
g5
I2387
sg6
I98
sg7
I5
sg8
I3
sg9
I30
sg10
I1100
ssg15
(dp31
g5
I774
sg6
I99
sg7
I3
sg8
I4
sg9
I4
sg10
I500
ssg17
(dp32
g5
I631
sg6
I95
sg7
I4
sg8
I7
sg9
I22
sg10
I430
sssS'Danijel.csv'
p33
(dp34
g3
(dp35
g5
I734
sg6
I34
sg7
I10
sg8
I4
sg9
I11
sg10
I560
ssg11
(dp36
g5
I1790
sg6
I39
sg7
I7
sg8
I2
sg9
I185
sg10
I1790
ssg13
(dp37
g5
I2340
sg6
I45
sg7
I0
sg8
I3
sg9
I36
sg10
I1070
ssg15
(dp38
g5
I1356
sg6
I43
sg7
I2
sg8
I3
sg9
I14
sg10
I960
ssg17
(dp39
g5
I1774
sg6
I45
sg7
I1
sg8
I2
sg9
I27
sg10
I1260
sss.(dp0
S'K_all3.csv'
p1
(dp2
S'machine'
p3
(dp4
S'count'
p5
I689
sS'truepos'
p6
I30
sS'falseneg'
p7
I6
sS'unknownyes'
p8
I9
sS'falsepos'
p9
I9
sS'unique'
p10
I530
ssS'none'
p11
(dp12
g5
I530
sg6
I22
sg7
I4
sg8
I19
sg9
I45
sg10
I530
ssS'three'
p13
(dp14
g5
I989
sg6
I36
sg7
I0
sg8
I9
sg9
I3
sg10
I450
ssS'machine3'
p15
(dp16
g5
I571
sg6
I32
sg7
I2
sg8
I11
sg9
I6
sg10
I440
ssS'machine2'
p17
(dp18
g5
I428
sg6
I31
sg7
I3
sg8
I11
sg9
I9
sg10
I310
sssS'Wahono.csv'
p19
(dp20
g3
(dp21
g5
I1749
sg6
I52
sg7
I4
sg8
I6
sg9
I19
sg10
I1310
ssg11
(dp22
g5
I3640
sg6
I51
sg7
I7
sg8
I4
sg9
I358
sg10
I3640
ssg13
(dp23
g5
I3316
sg6
I58
sg7
I0
sg8
I4
sg9
I40
sg10
I1520
ssg15
(dp24
g5
I2266
sg6
I58
sg7
I3
sg8
I1
sg9
I28
sg10
I1580
ssg17
(dp25
g5
I1986
sg6
I51
sg7
I4
sg8
I7
sg9
I33
sg10
I1370
sssS'Hall.csv'
p26
(dp27
g3
(dp28
g5
I704
sg6
I97
sg7
I5
sg8
I4
sg9
I15
sg10
I510
ssg11
(dp29
g5
I1680
sg6
I93
sg7
I8
sg8
I5
sg9
I143
sg10
I1680
ssg13
(dp30
g5
I1777
sg6
I96
sg7
I6
sg8
I4
sg9
I28
sg10
I800
ssg15
(dp31
g5
I1082
sg6
I100
sg7
I1
sg8
I5
sg9
I14
sg10
I690
ssg17
(dp32
g5
I643
sg6
I97
sg7
I2
sg8
I7
sg9
I17
sg10
I440
sssS'Danijel.csv'
p33
(dp34
g3
(dp35
g5
I1156
sg6
I41
sg7
I4
sg8
I3
sg9
I17
sg10
I870
ssg11
(dp36
g5
I2100
sg6
I42
sg7
I5
sg8
I1
sg9
I187
sg10
I2100
ssg13
(dp37
g5
I1578
sg6
I42
sg7
I3
sg8
I3
sg9
I15
sg10
I730
ssg15
(dp38
g5
I1497
sg6
I42
sg7
I3
sg8
I3
sg9
I18
sg10
I1080
ssg17
(dp39
g5
I1308
sg6
I42
sg7
I2
sg8
I4
sg9
I18
sg10
I930
sss.(dp0
S'K_all3.csv'
p1
(dp2
S'machine'
p3
(dp4
S'count'
p5
I591
sS'truepos'
p6
I31
sS'falseneg'
p7
I3
sS'unknownyes'
p8
I11
sS'falsepos'
p9
I6
sS'unique'
p10
I460
ssS'none'
p11
(dp12
g5
I370
sg6
I29
sg7
I1
sg8
I15
sg9
I35
sg10
I370
ssS'three'
p13
(dp14
g5
I1046
sg6
I32
sg7
I3
sg8
I10
sg9
I10
sg10
I480
ssS'machine3'
p15
(dp16
g5
I810
sg6
I34
sg7
I7
sg8
I4
sg9
I14
sg10
I590
ssS'machine2'
p17
(dp18
g5
I577
sg6
I29
sg7
I7
sg8
I9
sg9
I8
sg10
I410
sssS'Wahono.csv'
p19
(dp20
g3
(dp21
g5
I1421
sg6
I56
sg7
I3
sg8
I3
sg9
I22
sg10
I1060
ssg11
(dp22
g5
I3660
sg6
I58
sg7
I3
sg8
I1
sg9
I398
sg10
I3660
ssg13
(dp23
g5
I3605
sg6
I56
sg7
I2
sg8
I4
sg9
I41
sg10
I1650
ssg15
(dp24
g5
I1493
sg6
I53
sg7
I2
sg8
I7
sg9
I19
sg10
I1040
ssg17
(dp25
g5
I1573
sg6
I53
sg7
I6
sg8
I3
sg9
I23
sg10
I1110
sssS'Hall.csv'
p26
(dp27
g3
(dp28
g5
I460
sg6
I90
sg7
I5
sg8
I11
sg9
I8
sg10
I330
ssg11
(dp29
g5
I1700
sg6
I91
sg7
I11
sg8
I4
sg9
I142
sg10
I1700
ssg13
(dp30
g5
I1550
sg6
I98
sg7
I4
sg8
I4
sg9
I18
sg10
I710
ssg15
(dp31
g5
I999
sg6
I96
sg7
I6
sg8
I4
sg9
I20
sg10
I640
ssg17
(dp32
g5
I837
sg6
I98
sg7
I4
sg8
I4
sg9
I14
sg10
I560
sssS'Danijel.csv'
p33
(dp34
g3
(dp35
g5
I1123
sg6
I40
sg7
I5
sg8
I3
sg9
I10
sg10
I860
ssg11
(dp36
g5
I2460
sg6
I40
sg7
I8
sg8
I0
sg9
I221
sg10
I2460
ssg13
(dp37
g5
I3029
sg6
I46
sg7
I0
sg8
I2
sg9
I47
sg10
I1390
ssg15
(dp38
g5
I1108
sg6
I43
sg7
I3
sg8
I2
sg9
I17
sg10
I780
ssg17
(dp39
g5
I1058
sg6
I43
sg7
I2
sg8
I3
sg9
I9
sg10
I760
sss.(dp0
S'K_all3.csv'
p1
(dp2
S'machine'
p3
(dp4
S'count'
p5
I521
sS'truepos'
p6
I31
sS'falseneg'
p7
I5
sS'unknownyes'
p8
I9
sS'falsepos'
p9
I3
sS'unique'
p10
I410
ssS'none'
p11
(dp12
g5
I590
sg6
I37
sg7
I1
sg8
I7
sg9
I64
sg10
I590
ssS'three'
p13
(dp14
g5
I956
sg6
I36
sg7
I0
sg8
I9
sg9
I16
sg10
I440
ssS'machine3'
p15
(dp16
g5
I733
sg6
I32
sg7
I6
sg8
I7
sg9
I12
sg10
I540
ssS'machine2'
p17
(dp18
g5
I715
sg6
I34
sg7
I2
sg8
I9
sg9
I11
sg10
I520
sssS'Wahono.csv'
p19
(dp20
g3
(dp21
g5
I1682
sg6
I56
sg7
I4
sg8
I2
sg9
I22
sg10
I1260
ssg11
(dp22
g5
I2860
sg6
I52
sg7
I8
sg8
I2
sg9
I294
sg10
I2860
ssg13
(dp23
g5
I3631
sg6
I59
sg7
I0
sg8
I3
sg9
I51
sg10
I1660
ssg15
(dp24
g5
I1671
sg6
I54
sg7
I4
sg8
I4
sg9
I22
sg10
I1180
ssg17
(dp25
g5
I2194
sg6
I56
sg7
I4
sg8
I2
sg9
I33
sg10
I1520
sssS'Hall.csv'
p26
(dp27
g3
(dp28
g5
I672
sg6
I97
sg7
I2
sg8
I7
sg9
I12
sg10
I480
ssg11
(dp29
g5
I1890
sg6
I95
sg7
I8
sg8
I3
sg9
I171
sg10
I1890
ssg13
(dp30
g5
I1242
sg6
I100
sg7
I2
sg8
I4
sg9
I14
sg10
I570
ssg15
(dp31
g5
I821
sg6
I99
sg7
I2
sg8
I5
sg9
I11
sg10
I520
ssg17
(dp32
g5
I782
sg6
I98
sg7
I4
sg8
I4
sg9
I11
sg10
I530
sssS'Danijel.csv'
p33
(dp34
g3
(dp35
g5
I1022
sg6
I43
sg7
I2
sg8
I3
sg9
I11
sg10
I770
ssg11
(dp36
g5
I3350
sg6
I43
sg7
I4
sg8
I1
sg9
I345
sg10
I3350
ssg13
(dp37
g5
I2236
sg6
I44
sg7
I1
sg8
I3
sg9
I38
sg10
I1020
ssg15
(dp38
g5
I1388
sg6
I43
sg7
I0
sg8
I5
sg9
I24
sg10
I960
ssg17
(dp39
g5
I1344
sg6
I43
sg7
I3
sg8
I2
sg9
I14
sg10
I960
sss.(dp0
S'K_all3.csv'
p1
(dp2
S'machine'
p3
(dp4
S'count'
p5
I606
sS'truepos'
p6
I25
sS'falseneg'
p7
I5
sS'unknownyes'
p8
I15
sS'falsepos'
p9
I7
sS'unique'
p10
I460
ssS'none'
p11
(dp12
g5
I420
sg6
I28
sg7
I5
sg8
I12
sg9
I40
sg10
I420
ssS'three'
p13
(dp14
g5
I919
sg6
I31
sg7
I2
sg8
I12
sg9
I11
sg10
I420
ssS'machine3'
p15
(dp16
g5
I644
sg6
I32
sg7
I5
sg8
I8
sg9
I6
sg10
I470
ssS'machine2'
p17
(dp18
g5
I503
sg6
I28
sg7
I3
sg8
I14
sg9
I12
sg10
I360
sssS'Wahono.csv'
p19
(dp20
g3
(dp21
g5
I1749
sg6
I55
sg7
I3
sg8
I4
sg9
I17
sg10
I1310
ssg11
(dp22
g5
I3590
sg6
I56
sg7
I4
sg8
I2
sg9
I347
sg10
I3590
ssg13
(dp23
g5
I3463
sg6
I59
sg7
I2
sg8
I1
sg9
I40
sg10
I1600
ssg15
(dp24
g5
I1691
sg6
I56
sg7
I4
sg8
I2
sg9
I25
sg10
I1170
ssg17
(dp25
g5
I1726
sg6
I54
sg7
I6
sg8
I2
sg9
I26
sg10
I1210
sssS'Hall.csv'
p26
(dp27
g3
(dp28
g5
I592
sg6
I96
sg7
I5
sg8
I5
sg9
I5
sg10
I420
ssg11
(dp29
g5
I980
sg6
I96
sg7
I6
sg8
I4
sg9
I83
sg10
I980
ssg13
(dp30
g5
I3097
sg6
I99
sg7
I4
sg8
I3
sg9
I48
sg10
I1410
ssg15
(dp31
g5
I845
sg6
I100
sg7
I2
sg8
I4
sg9
I4
sg10
I540
ssg17
(dp32
g5
I652
sg6
I96
sg7
I3
sg8
I7
sg9
I22
sg10
I450
sssS'Danijel.csv'
p33
(dp34
g3
(dp35
g5
I860
sg6
I41
sg7
I4
sg8
I3
sg9
I3
sg10
I660
ssg11
(dp36
g5
I2890
sg6
I44
sg7
I2
sg8
I2
sg9
I317
sg10
I2890
ssg13
(dp37
g5
I1713
sg6
I43
sg7
I1
sg8
I4
sg9
I21
sg10
I780
ssg15
(dp38
g5
I779
sg6
I43
sg7
I1
sg8
I4
sg9
I9
sg10
I530
ssg17
(dp39
g5
I1537
sg6
I43
sg7
I2
sg8
I3
sg9
I17
sg10
I1060
sss.(dp0
S'K_all3.csv'
p1
(dp2
S'machine'
p3
(dp4
S'count'
p5
I645
sS'truepos'
p6
I28
sS'falseneg'
p7
I6
sS'unknownyes'
p8
I11
sS'falsepos'
p9
I7
sS'unique'
p10
I510
ssS'none'
p11
(dp12
g5
I400
sg6
I29
sg7
I4
sg8
I12
sg9
I47
sg10
I400
ssS'three'
p13
(dp14
g5
I1043
sg6
I36
sg7
I0
sg8
I9
sg9
I14
sg10
I480
ssS'machine3'
p15
(dp16
g5
I627
sg6
I29
sg7
I4
sg8
I12
sg9
I14
sg10
I450
ssS'machine2'
p17
(dp18
g5
I568
sg6
I28
sg7
I5
sg8
I12
sg9
I11
sg10
I410
sssS'Wahono.csv'
p19
(dp20
g3
(dp21
g5
I1796
sg6
I52
sg7
I5
sg8
I5
sg9
I29
sg10
I1310
ssg11
(dp22
g5
I3330
sg6
I55
sg7
I5
sg8
I2
sg9
I320
sg10
I3330
ssg13
(dp23
g5
I4061
sg6
I59
sg7
I1
sg8
I2
sg9
I54
sg10
I1850
ssg15
(dp24
g5
I1669
sg6
I58
sg7
I1
sg8
I3
sg9
I23
sg10
I1180
ssg17
(dp25
g5
I2241
sg6
I57
sg7
I2
sg8
I3
sg9
I31
sg10
I1610
sssS'Hall.csv'
p26
(dp27
g3
(dp28
g5
I791
sg6
I92
sg7
I9
sg8
I5
sg9
I11
sg10
I560
ssg11
(dp29
g5
I1820
sg6
I87
sg7
I16
sg8
I3
sg9
I151
sg10
I1820
ssg13
(dp30
g5
I1509
sg6
I101
sg7
I1
sg8
I4
sg9
I13
sg10
I690
ssg15
(dp31
g5
I873
sg6
I98
sg7
I4
sg8
I4
sg9
I10
sg10
I570
ssg17
(dp32
g5
I760
sg6
I94
sg7
I7
sg8
I5
sg9
I16
sg10
I510
sssS'Danijel.csv'
p33
(dp34
g3
(dp35
g5
I1018
sg6
I45
sg7
I0
sg8
I3
sg9
I14
sg10
I760
ssg11
(dp36
g5
I3000
sg6
I40
sg7
I7
sg8
I1
sg9
I302
sg10
I3000
ssg13
(dp37
g5
I1769
sg6
I45
sg7
I0
sg8
I3
sg9
I23
sg10
I810
ssg15
(dp38
g5
I1424
sg6
I44
sg7
I1
sg8
I3
sg9
I17
sg10
I1010
ssg17
(dp39
g5
I1786
sg6
I41
sg7
I4
sg8
I3
sg9
I23
sg10
I1260
sss.(dp0
S'K_all3.csv'
p1
(dp2
S'machine'
p3
(dp4
S'count'
p5
I620
sS'truepos'
p6
I29
sS'falseneg'
p7
I8
sS'unknownyes'
p8
I8
sS'falsepos'
p9
I2
sS'unique'
p10
I510
ssS'none'
p11
(dp12
g5
I540
sg6
I29
sg7
I3
sg8
I13
sg9
I41
sg10
I540
ssS'three'
p13
(dp14
g5
I1028
sg6
I34
sg7
I0
sg8
I11
sg9
I12
sg10
I470
ssS'machine3'
p15
(dp16
g5
I477
sg6
I28
sg7
I2
sg8
I15
sg9
I12
sg10
I340
ssS'machine2'
p17
(dp18
g5
I521
sg6
I30
sg7
I2
sg8
I13
sg9
I3
sg10
I360
sssS'Wahono.csv'
p19
(dp20
g3
(dp21
g5
I2013
sg6
I58
sg7
I1
sg8
I3
sg9
I20
sg10
I1510
ssg11
(dp22
g5
I4060
sg6
I53
sg7
I7
sg8
I2
sg9
I414
sg10
I4060
ssg13
(dp23
g5
I3497
sg6
I57
sg7
I2
sg8
I3
sg9
I39
sg10
I1620
ssg15
(dp24
g5
I1377
sg6
I52
sg7
I6
sg8
I4
sg9
I13
sg10
I970
ssg17
(dp25
g5
I1732
sg6
I56
sg7
I1
sg8
I5
sg9
I26
sg10
I1210
sssS'Hall.csv'
p26
(dp27
g3
(dp28
g5
I862
sg6
I98
sg7
I4
sg8
I4
sg9
I12
sg10
I610
ssg11
(dp29
g5
I1990
sg6
I88
sg7
I15
sg8
I3
sg9
I183
sg10
I1990
ssg13
(dp30
g5
I2058
sg6
I98
sg7
I4
sg8
I4
sg9
I26
sg10
I940
ssg15
(dp31
g5
I699
sg6
I96
sg7
I5
sg8
I5
sg9
I4
sg10
I450
ssg17
(dp32
g5
I1875
sg6
I100
sg7
I3
sg8
I3
sg9
I27
sg10
I1260
sssS'Danijel.csv'
p33
(dp34
g3
(dp35
g5
I1371
sg6
I41
sg7
I4
sg8
I3
sg9
I12
sg10
I1060
ssg11
(dp36
g5
I1460
sg6
I42
sg7
I5
sg8
I1
sg9
I131
sg10
I1460
ssg13
(dp37
g5
I1803
sg6
I43
sg7
I1
sg8
I4
sg9
I22
sg10
I830
ssg15
(dp38
g5
I1198
sg6
I41
sg7
I5
sg8
I2
sg9
I9
sg10
I880
ssg17
(dp39
g5
I1204
sg6
I37
sg7
I7
sg8
I4
sg9
I19
sg10
I860
sss.(dp0
S'K_all3.csv'
p1
(dp2
S'machine'
p3
(dp4
S'count'
p5
I596
sS'truepos'
p6
I34
sS'falseneg'
p7
I4
sS'unknownyes'
p8
I7
sS'falsepos'
p9
I6
sS'unique'
p10
I460
ssS'none'
p11
(dp12
g5
I350
sg6
I30
sg7
I0
sg8
I15
sg9
I29
sg10
I350
ssS'three'
p13
(dp14
g5
I1114
sg6
I36
sg7
I1
sg8
I8
sg9
I15
sg10
I510
ssS'machine3'
p15
(dp16
g5
I785
sg6
I36
sg7
I3
sg8
I6
sg9
I16
sg10
I580
ssS'machine2'
p17
(dp18
g5
I624
sg6
I34
sg7
I1
sg8
I10
sg9
I11
sg10
I460
sssS'Wahono.csv'
p19
(dp20
g3
(dp21
g5
I1353
sg6
I55
sg7
I4
sg8
I3
sg9
I10
sg10
I1010
ssg11
(dp22
g5
I2990
sg6
I50
sg7
I8
sg8
I4
sg9
I283
sg10
I2990
ssg13
(dp23
g5
I3099
sg6
I60
sg7
I0
sg8
I2
sg9
I35
sg10
I1430
ssg15
(dp24
g5
I1376
sg6
I47
sg7
I7
sg8
I8
sg9
I26
sg10
I980
ssg17
(dp25
g5
I2140
sg6
I57
sg7
I1
sg8
I4
sg9
I28
sg10
I1510
sssS'Hall.csv'
p26
(dp27
g3
(dp28
g5
I832
sg6
I98
sg7
I4
sg8
I4
sg9
I11
sg10
I600
ssg11
(dp29
g5
I3260
sg6
I94
sg7
I9
sg8
I3
sg9
I332
sg10
I3260
ssg13
(dp30
g5
I2748
sg6
I101
sg7
I2
sg8
I3
sg9
I38
sg10
I1270
ssg15
(dp31
g5
I1027
sg6
I102
sg7
I0
sg8
I4
sg9
I13
sg10
I670
ssg17
(dp32
g5
I921
sg6
I96
sg7
I6
sg8
I4
sg9
I16
sg10
I610
sssS'Danijel.csv'
p33
(dp34
g3
(dp35
g5
I877
sg6
I42
sg7
I4
sg8
I2
sg9
I9
sg10
I660
ssg11
(dp36
g5
I2780
sg6
I45
sg7
I3
sg8
I0
sg9
I288
sg10
I2780
ssg13
(dp37
g5
I1536
sg6
I42
sg7
I1
sg8
I5
sg9
I11
sg10
I700
ssg15
(dp38
g5
I1085
sg6
I42
sg7
I3
sg8
I3
sg9
I16
sg10
I760
ssg17
(dp39
g5
I1243
sg6
I40
sg7
I4
sg8
I4
sg9
I17
sg10
I860
sss.(dp0
S'K_all3.csv'
p1
(dp2
S'machine'
p3
(dp4
S'count'
p5
I563
sS'truepos'
p6
I29
sS'falseneg'
p7
I2
sS'unknownyes'
p8
I14
sS'falsepos'
p9
I8
sS'unique'
p10
I430
ssS'none'
p11
(dp12
g5
I450
sg6
I29
sg7
I5
sg8
I11
sg9
I34
sg10
I450
ssS'three'
p13
(dp14
g5
I905
sg6
I34
sg7
I0
sg8
I11
sg9
I6
sg10
I420
ssS'machine3'
p15
(dp16
g5
I691
sg6
I30
sg7
I4
sg8
I11
sg9
I10
sg10
I530
ssS'machine2'
p17
(dp18
g5
I588
sg6
I29
sg7
I3
sg8
I13
sg9
I11
sg10
I430
sssS'Wahono.csv'
p19
(dp20
g3
(dp21
g5
I1503
sg6
I47
sg7
I7
sg8
I8
sg9
I15
sg10
I1110
ssg11
(dp22
g5
I3140
sg6
I54
sg7
I7
sg8
I1
sg9
I316
sg10
I3140
ssg13
(dp23
g5
I3065
sg6
I60
sg7
I0
sg8
I2
sg9
I40
sg10
I1400
ssg15
(dp24
g5
I1746
sg6
I56
sg7
I3
sg8
I3
sg9
I33
sg10
I1190
ssg17
(dp25
g5
I2389
sg6
I54
sg7
I5
sg8
I3
sg9
I37
sg10
I1670
sssS'Hall.csv'
p26
(dp27
g3
(dp28
g5
I931
sg6
I97
sg7
I5
sg8
I4
sg9
I15
sg10
I660
ssg11
(dp29
g5
I3970
sg6
I94
sg7
I10
sg8
I2
sg9
I421
sg10
I3970
ssg13
(dp30
g5
I1908
sg6
I99
sg7
I3
sg8
I4
sg9
I22
sg10
I870
ssg15
(dp31
g5
I1658
sg6
I93
sg7
I9
sg8
I4
sg9
I26
sg10
I1110
ssg17
(dp32
g5
I656
sg6
I98
sg7
I3
sg8
I5
sg9
I14
sg10
I450
sssS'Danijel.csv'
p33
(dp34
g3
(dp35
g5
I533
sg6
I35
sg7
I4
sg8
I9
sg9
I3
sg10
I410
ssg11
(dp36
g5
I820
sg6
I37
sg7
I5
sg8
I6
sg9
I62
sg10
I820
ssg13
(dp37
g5
I1634
sg6
I42
sg7
I0
sg8
I6
sg9
I23
sg10
I760
ssg15
(dp38
g5
I1525
sg6
I44
sg7
I1
sg8
I3
sg9
I23
sg10
I1070
ssg17
(dp39
g5
I1191
sg6
I43
sg7
I1
sg8
I4
sg9
I19
sg10
I820
sss.(dp0
S'K_all3.csv'
p1
(dp2
S'machine'
p3
(dp4
S'count'
p5
I413
sS'truepos'
p6
I27
sS'falseneg'
p7
I3
sS'unknownyes'
p8
I15
sS'falsepos'
p9
I5
sS'unique'
p10
I310
ssS'none'
p11
(dp12
g5
I740
sg6
I36
sg7
I3
sg8
I6
sg9
I65
sg10
I740
ssS'three'
p13
(dp14
g5
I1046
sg6
I32
sg7
I3
sg8
I10
sg9
I7
sg10
I480
ssS'machine3'
p15
(dp16
g5
I558
sg6
I31
sg7
I1
sg8
I13
sg9
I10
sg10
I400
ssS'machine2'
p17
(dp18
g5
I610
sg6
I34
sg7
I2
sg8
I9
sg9
I13
sg10
I460
sssS'Wahono.csv'
p19
(dp20
g3
(dp21
g5
I1674
sg6
I52
sg7
I5
sg8
I5
sg9
I18
sg10
I1260
ssg11
(dp22
g5
I2970
sg6
I57
sg7
I3
sg8
I2
sg9
I292
sg10
I2970
ssg13
(dp23
g5
I3022
sg6
I59
sg7
I1
sg8
I2
sg9
I42
sg10
I1380
ssg15
(dp24
g5
I1822
sg6
I55
sg7
I3
sg8
I4
sg9
I30
sg10
I1280
ssg17
(dp25
g5
I2691
sg6
I56
sg7
I2
sg8
I4
sg9
I56
sg10
I1860
sssS'Hall.csv'
p26
(dp27
g3
(dp28
g5
I801
sg6
I97
sg7
I4
sg8
I5
sg9
I13
sg10
I570
ssg11
(dp29
g5
I3100
sg6
I94
sg7
I10
sg8
I2
sg9
I314
sg10
I3100
ssg13
(dp30
g5
I1877
sg6
I99
sg7
I3
sg8
I4
sg9
I27
sg10
I860
ssg15
(dp31
g5
I877
sg6
I95
sg7
I7
sg8
I4
sg9
I10
sg10
I560
ssg17
(dp32
g5
I1050
sg6
I101
sg7
I1
sg8
I4
sg9
I14
sg10
I710
sssS'Danijel.csv'
p33
(dp34
g3
(dp35
g5
I996
sg6
I36
sg7
I8
sg8
I4
sg9
I8
sg10
I760
ssg11
(dp36
g5
I2180
sg6
I40
sg7
I5
sg8
I3
sg9
I222
sg10
I2180
ssg13
(dp37
g5
I1822
sg6
I44
sg7
I0
sg8
I4
sg9
I17
sg10
I830
ssg15
(dp38
g5
I962
sg6
I45
sg7
I1
sg8
I2
sg9
I10
sg10
I680
ssg17
(dp39
g5
I799
sg6
I43
sg7
I2
sg8
I3
sg9
I12
sg10
I560
sss.(dp0
S'K_all3.csv'
p1
(dp2
S'machine'
p3
(dp4
S'count'
p5
I510
sS'truepos'
p6
I30
sS'falseneg'
p7
I4
sS'unknownyes'
p8
I11
sS'falsepos'
p9
I4
sS'unique'
p10
I400
ssS'none'
p11
(dp12
g5
I610
sg6
I36
sg7
I4
sg8
I5
sg9
I50
sg10
I610
ssS'three'
p13
(dp14
g5
I1115
sg6
I38
sg7
I0
sg8
I7
sg9
I16
sg10
I510
ssS'machine3'
p15
(dp16
g5
I547
sg6
I33
sg7
I2
sg8
I10
sg9
I5
sg10
I420
ssS'machine2'
p17
(dp18
g5
I791
sg6
I37
sg7
I2
sg8
I6
sg9
I17
sg10
I560
sssS'Wahono.csv'
p19
(dp20
g3
(dp21
g5
I1643
sg6
I55
sg7
I4
sg8
I3
sg9
I17
sg10
I1210
ssg11
(dp22
g5
I2070
sg6
I49
sg7
I6
sg8
I7
sg9
I178
sg10
I2070
ssg13
(dp23
g5
I5567
sg6
I60
sg7
I1
sg8
I1
sg9
I84
sg10
I2550
ssg15
(dp24
g5
I2028
sg6
I56
sg7
I3
sg8
I3
sg9
I21
sg10
I1430
ssg17
(dp25
g5
I1719
sg6
I57
sg7
I2
sg8
I3
sg9
I26
sg10
I1210
sssS'Hall.csv'
p26
(dp27
g3
(dp28
g5
I773
sg6
I96
sg7
I5
sg8
I5
sg9
I8
sg10
I560
ssg11
(dp29
g5
I3900
sg6
I100
sg7
I6
sg8
I0
sg9
I383
sg10
I3900
ssg13
(dp30
g5
I1344
sg6
I98
sg7
I4
sg8
I4
sg9
I9
sg10
I620
ssg15
(dp31
g5
I1187
sg6
I102
sg7
I1
sg8
I3
sg9
I17
sg10
I770
ssg17
(dp32
g5
I750
sg6
I100
sg7
I2
sg8
I4
sg9
I16
sg10
I510
sssS'Danijel.csv'
p33
(dp34
g3
(dp35
g5
I1450
sg6
I42
sg7
I4
sg8
I2
sg9
I10
sg10
I1110
ssg11
(dp36
g5
I2160
sg6
I40
sg7
I7
sg8
I1
sg9
I210
sg10
I2160
ssg13
(dp37
g5
I1535
sg6
I45
sg7
I1
sg8
I2
sg9
I21
sg10
I700
ssg15
(dp38
g5
I1307
sg6
I44
sg7
I2
sg8
I2
sg9
I20
sg10
I900
ssg17
(dp39
g5
I1520
sg6
I43
sg7
I1
sg8
I4
sg9
I18
sg10
I1070
sss.(dp0
S'K_all3.csv'
p1
(dp2
S'machine'
p3
(dp4
S'count'
p5
I609
sS'truepos'
p6
I27
sS'falseneg'
p7
I5
sS'unknownyes'
p8
I13
sS'falsepos'
p9
I7
sS'unique'
p10
I510
ssS'none'
p11
(dp12
g5
I330
sg6
I33
sg7
I2
sg8
I10
sg9
I25
sg10
I330
ssS'three'
p13
(dp14
g5
I1319
sg6
I37
sg7
I0
sg8
I8
sg9
I19
sg10
I600
ssS'machine3'
p15
(dp16
g5
I577
sg6
I30
sg7
I4
sg8
I11
sg9
I7
sg10
I440
ssS'machine2'
p17
(dp18
g5
I710
sg6
I37
sg7
I1
sg8
I7
sg9
I10
sg10
I530
sssS'Wahono.csv'
p19
(dp20
g3
(dp21
g5
I2148
sg6
I48
sg7
I11
sg8
I3
sg9
I20
sg10
I1610
ssg11
(dp22
g5
I3240
sg6
I55
sg7
I2
sg8
I5
sg9
I296
sg10
I3240
ssg13
(dp23
g5
I3682
sg6
I57
sg7
I1
sg8
I4
sg9
I54
sg10
I1690
ssg15
(dp24
g5
I2394
sg6
I56
sg7
I3
sg8
I3
sg9
I33
sg10
I1670
ssg17
(dp25
g5
I1606
sg6
I55
sg7
I3
sg8
I4
sg9
I21
sg10
I1110
sssS'Hall.csv'
p26
(dp27
g3
(dp28
g5
I933
sg6
I97
sg7
I5
sg8
I4
sg9
I18
sg10
I660
ssg11
(dp29
g5
I1780
sg6
I93
sg7
I11
sg8
I2
sg9
I161
sg10
I1780
ssg13
(dp30
g5
I2131
sg6
I100
sg7
I2
sg8
I4
sg9
I25
sg10
I980
ssg15
(dp31
g5
I820
sg6
I101
sg7
I1
sg8
I4
sg9
I7
sg10
I530
ssg17
(dp32
g5
I940
sg6
I99
sg7
I3
sg8
I4
sg9
I9
sg10
I640
sssS'Danijel.csv'
p33
(dp34
g3
(dp35
g5
I1313
sg6
I39
sg7
I5
sg8
I4
sg9
I17
sg10
I1010
ssg11
(dp36
g5
I3570
sg6
I38
sg7
I8
sg8
I2
sg9
I357
sg10
I3570
ssg13
(dp37
g5
I1567
sg6
I46
sg7
I0
sg8
I2
sg9
I13
sg10
I720
ssg15
(dp38
g5
I1046
sg6
I42
sg7
I1
sg8
I5
sg9
I17
sg10
I720
ssg17
(dp39
g5
I1574
sg6
I43
sg7
I2
sg8
I3
sg9
I20
sg10
I1120
sss.(dp0
S'K_all3.csv'
p1
(dp2
S'machine'
p3
(dp4
S'count'
p5
I562
sS'truepos'
p6
I27
sS'falseneg'
p7
I5
sS'unknownyes'
p8
I13
sS'falsepos'
p9
I5
sS'unique'
p10
I460
ssS'none'
p11
(dp12
g5
I470
sg6
I30
sg7
I4
sg8
I11
sg9
I51
sg10
I470
ssS'three'
p13
(dp14
g5
I1135
sg6
I34
sg7
I1
sg8
I10
sg9
I12
sg10
I520
ssS'machine3'
p15
(dp16
g5
I647
sg6
I34
sg7
I1
sg8
I10
sg9
I10
sg10
I480
ssS'machine2'
p17
(dp18
g5
I562
sg6
I31
sg7
I2
sg8
I12
sg9
I7
sg10
I410
sssS'Wahono.csv'
p19
(dp20
g3
(dp21
g5
I1279
sg6
I54
sg7
I4
sg8
I4
sg9
I8
sg10
I960
ssg11
(dp22
g5
I3340
sg6
I56
sg7
I5
sg8
I1
sg9
I323
sg10
I3340
ssg13
(dp23
g5
I2703
sg6
I58
sg7
I1
sg8
I3
sg9
I37
sg10
I1240
ssg15
(dp24
g5
I1885
sg6
I56
sg7
I3
sg8
I3
sg9
I27
sg10
I1330
ssg17
(dp25
g5
I2775
sg6
I56
sg7
I3
sg8
I3
sg9
I38
sg10
I1960
sssS'Hall.csv'
p26
(dp27
g3
(dp28
g5
I722
sg6
I87
sg7
I11
sg8
I8
sg9
I9
sg10
I510
ssg11
(dp29
g5
I3500
sg6
I90
sg7
I14
sg8
I2
sg9
I345
sg10
I3500
ssg13
(dp30
g5
I1707
sg6
I101
sg7
I2
sg8
I3
sg9
I23
sg10
I780
ssg15
(dp31
g5
I883
sg6
I91
sg7
I11
sg8
I4
sg9
I8
sg10
I570
ssg17
(dp32
g5
I694
sg6
I97
sg7
I5
sg8
I4
sg9
I13
sg10
I470
sssS'Danijel.csv'
p33
(dp34
g3
(dp35
g5
I892
sg6
I41
sg7
I3
sg8
I4
sg9
I3
sg10
I660
ssg11
(dp36
g5
I2020
sg6
I42
sg7
I4
sg8
I2
sg9
I201
sg10
I2020
ssg13
(dp37
g5
I1730
sg6
I44
sg7
I1
sg8
I3
sg9
I13
sg10
I790
ssg15
(dp38
g5
I1111
sg6
I43
sg7
I1
sg8
I4
sg9
I17
sg10
I800
ssg17
(dp39
g5
I1484
sg6
I46
sg7
I0
sg8
I2
sg9
I16
sg10
I1040
sss.(dp0
S'K_all3.csv'
p1
(dp2
S'machine'
p3
(dp4
S'count'
p5
I570
sS'truepos'
p6
I33
sS'falseneg'
p7
I3
sS'unknownyes'
p8
I9
sS'falsepos'
p9
I5
sS'unique'
p10
I440
ssS'none'
p11
(dp12
g5
I390
sg6
I31
sg7
I0
sg8
I14
sg9
I41
sg10
I390
ssS'three'
p13
(dp14
g5
I1024
sg6
I38
sg7
I1
sg8
I6
sg9
I13
sg10
I470
ssS'machine3'
p15
(dp16
g5
I600
sg6
I32
sg7
I4
sg8
I9
sg9
I9
sg10
I440
ssS'machine2'
p17
(dp18
g5
I577
sg6
I30
sg7
I1
sg8
I14
sg9
I9
sg10
I410
sssS'Wahono.csv'
p19
(dp20
g3
(dp21
g5
I1874
sg6
I58
sg7
I1
sg8
I3
sg9
I16
sg10
I1410
ssg11
(dp22
g5
I3550
sg6
I58
sg7
I4
sg8
I0
sg9
I320
sg10
I3550
ssg13
(dp23
g5
I3275
sg6
I60
sg7
I1
sg8
I1
sg9
I54
sg10
I1480
ssg15
(dp24
g5
I1687
sg6
I57
sg7
I1
sg8
I4
sg9
I15
sg10
I1200
ssg17
(dp25
g5
I1654
sg6
I57
sg7
I2
sg8
I3
sg9
I20
sg10
I1160
sssS'Hall.csv'
p26
(dp27
g3
(dp28
g5
I632
sg6
I93
sg7
I6
sg8
I7
sg9
I21
sg10
I460
ssg11
(dp29
g5
I3910
sg6
I91
sg7
I11
sg8
I4
sg9
I385
sg10
I3910
ssg13
(dp30
g5
I2186
sg6
I100
sg7
I2
sg8
I4
sg9
I24
sg10
I1010
ssg15
(dp31
g5
I770
sg6
I93
sg7
I9
sg8
I4
sg9
I6
sg10
I500
ssg17
(dp32
g5
I867
sg6
I99
sg7
I3
sg8
I4
sg9
I20
sg10
I590
sssS'Danijel.csv'
p33
(dp34
g3
(dp35
g5
I954
sg6
I43
sg7
I1
sg8
I4
sg9
I9
sg10
I710
ssg11
(dp36
g5
I970
sg6
I41
sg7
I2
sg8
I5
sg9
I77
sg10
I970
ssg13
(dp37
g5
I1997
sg6
I43
sg7
I3
sg8
I2
sg9
I15
sg10
I910
ssg15
(dp38
g5
I971
sg6
I44
sg7
I1
sg8
I3
sg9
I14
sg10
I700
ssg17
(dp39
g5
I1495
sg6
I44
sg7
I1
sg8
I3
sg9
I22
sg10
I1050
sss.(dp0
S'K_all3.csv'
p1
(dp2
S'machine'
p3
(dp4
S'count'
p5
I679
sS'truepos'
p6
I32
sS'falseneg'
p7
I8
sS'unknownyes'
p8
I5
sS'falsepos'
p9
I9
sS'unique'
p10
I520
ssS'none'
p11
(dp12
g5
I370
sg6
I35
sg7
I2
sg8
I8
sg9
I31
sg10
I370
ssS'three'
p13
(dp14
g5
I892
sg6
I33
sg7
I0
sg8
I12
sg9
I7
sg10
I410
ssS'machine3'
p15
(dp16
g5
I654
sg6
I30
sg7
I3
sg8
I12
sg9
I8
sg10
I470
ssS'machine2'
p17
(dp18
g5
I633
sg6
I31
sg7
I1
sg8
I13
sg9
I9
sg10
I460
sssS'Wahono.csv'
p19
(dp20
g3
(dp21
g5
I1338
sg6
I56
sg7
I4
sg8
I2
sg9
I15
sg10
I1010
ssg11
(dp22
g5
I3690
sg6
I52
sg7
I8
sg8
I2
sg9
I373
sg10
I3690
ssg13
(dp23
g5
I4123
sg6
I58
sg7
I3
sg8
I1
sg9
I55
sg10
I1880
ssg15
(dp24
g5
I2052
sg6
I58
sg7
I3
sg8
I1
sg9
I34
sg10
I1430
ssg17
(dp25
g5
I2434
sg6
I58
sg7
I2
sg8
I2
sg9
I40
sg10
I1710
sssS'Hall.csv'
p26
(dp27
g3
(dp28
g5
I1052
sg6
I97
sg7
I5
sg8
I4
sg9
I10
sg10
I760
ssg11
(dp29
g5
I2700
sg6
I95
sg7
I7
sg8
I4
sg9
I271
sg10
I2700
ssg13
(dp30
g5
I1080
sg6
I97
sg7
I3
sg8
I6
sg9
I9
sg10
I500
ssg15
(dp31
g5
I1474
sg6
I100
sg7
I2
sg8
I4
sg9
I23
sg10
I1000
ssg17
(dp32
g5
I840
sg6
I96
sg7
I6
sg8
I4
sg9
I13
sg10
I570
sssS'Danijel.csv'
p33
(dp34
g3
(dp35
g5
I1153
sg6
I40
sg7
I4
sg8
I4
sg9
I14
sg10
I860
ssg11
(dp36
g5
I2920
sg6
I44
sg7
I4
sg8
I0
sg9
I257
sg10
I2920
ssg13
(dp37
g5
I1938
sg6
I40
sg7
I3
sg8
I5
sg9
I23
sg10
I880
ssg15
(dp38
g5
I1513
sg6
I42
sg7
I3
sg8
I3
sg9
I15
sg10
I1050
ssg17
(dp39
g5
I1542
sg6
I46
sg7
I0
sg8
I2
sg9
I20
sg10
I1060
sss.(dp0
S'K_all3.csv'
p1
(dp2
S'machine'
p3
(dp4
S'count'
p5
I570
sS'truepos'
p6
I32
sS'falseneg'
p7
I6
sS'unknownyes'
p8
I7
sS'falsepos'
p9
I4
sS'unique'
p10
I450
ssS'none'
p11
(dp12
g5
I510
sg6
I34
sg7
I3
sg8
I8
sg9
I39
sg10
I510
ssS'three'
p13
(dp14
g5
I1109
sg6
I33
sg7
I3
sg8
I9
sg9
I18
sg10
I510
ssS'machine3'
p15
(dp16
g5
I581
sg6
I31
sg7
I4
sg8
I10
sg9
I7
sg10
I420
ssS'machine2'
p17
(dp18
g5
I503
sg6
I29
sg7
I4
sg8
I12
sg9
I6
sg10
I360
sssS'Wahono.csv'
p19
(dp20
g3
(dp21
g5
I1646
sg6
I56
sg7
I2
sg8
I4
sg9
I17
sg10
I1260
ssg11
(dp22
g5
I3960
sg6
I58
sg7
I4
sg8
I0
sg9
I388
sg10
I3960
ssg13
(dp23
g5
I3406
sg6
I58
sg7
I2
sg8
I2
sg9
I39
sg10
I1560
ssg15
(dp24
g5
I1904
sg6
I59
sg7
I1
sg8
I2
sg9
I22
sg10
I1340
ssg17
(dp25
g5
I1734
sg6
I57
sg7
I2
sg8
I3
sg9
I24
sg10
I1210
sssS'Hall.csv'
p26
(dp27
g3
(dp28
g5
I582
sg6
I90
sg7
I9
sg8
I7
sg9
I10
sg10
I410
ssg11
(dp29
g5
I2230
sg6
I90
sg7
I14
sg8
I2
sg9
I215
sg10
I2230
ssg13
(dp30
g5
I1354
sg6
I100
sg7
I2
sg8
I4
sg9
I13
sg10
I620
ssg15
(dp31
g5
I1070
sg6
I98
sg7
I4
sg8
I4
sg9
I14
sg10
I700
ssg17
(dp32
g5
I813
sg6
I100
sg7
I2
sg8
I4
sg9
I12
sg10
I560
sssS'Danijel.csv'
p33
(dp34
g3
(dp35
g5
I1028
sg6
I43
sg7
I2
sg8
I3
sg9
I9
sg10
I760
ssg11
(dp36
g5
I2990
sg6
I44
sg7
I3
sg8
I1
sg9
I311
sg10
I2990
ssg13
(dp37
g5
I3669
sg6
I45
sg7
I1
sg8
I2
sg9
I61
sg10
I1690
ssg15
(dp38
g5
I1162
sg6
I44
sg7
I1
sg8
I3
sg9
I12
sg10
I800
ssg17
(dp39
g5
I1031
sg6
I42
sg7
I2
sg8
I4
sg9
I18
sg10
I710
sss.(dp0
S'K_all3.csv'
p1
(dp2
S'machine'
p3
(dp4
S'count'
p5
I765
sS'truepos'
p6
I28
sS'falseneg'
p7
I10
sS'unknownyes'
p8
I7
sS'falsepos'
p9
I8
sS'unique'
p10
I590
ssS'none'
p11
(dp12
g5
I480
sg6
I32
sg7
I3
sg8
I10
sg9
I41
sg10
I480
ssS'three'
p13
(dp14
g5
I1060
sg6
I38
sg7
I0
sg8
I7
sg9
I19
sg10
I480
ssS'machine3'
p15
(dp16
g5
I591
sg6
I28
sg7
I5
sg8
I12
sg9
I9
sg10
I440
ssS'machine2'
p17
(dp18
g5
I699
sg6
I33
sg7
I4
sg8
I8
sg9
I11
sg10
I500
sssS'Wahono.csv'
p19
(dp20
g3
(dp21
g5
I1849
sg6
I58
sg7
I0
sg8
I4
sg9
I19
sg10
I1410
ssg11
(dp22
g5
I3720
sg6
I53
sg7
I6
sg8
I3
sg9
I346
sg10
I3720
ssg13
(dp23
g5
I3337
sg6
I57
sg7
I2
sg8
I3
sg9
I38
sg10
I1540
ssg15
(dp24
g5
I3220
sg6
I59
sg7
I2
sg8
I1
sg9
I51
sg10
I2280
ssg17
(dp25
g5
I1559
sg6
I58
sg7
I2
sg8
I2
sg9
I17
sg10
I1110
sssS'Hall.csv'
p26
(dp27
g3
(dp28
g5
I801
sg6
I96
sg7
I6
sg8
I4
sg9
I10
sg10
I570
ssg11
(dp29
g5
I3820
sg6
I95
sg7
I9
sg8
I2
sg9
I408
sg10
I3820
ssg13
(dp30
g5
I1478
sg6
I101
sg7
I1
sg8
I4
sg9
I16
sg10
I670
ssg15
(dp31
g5
I895
sg6
I98
sg7
I4
sg8
I4
sg9
I6
sg10
I580
ssg17
(dp32
g5
I610
sg6
I92
sg7
I7
sg8
I7
sg9
I11
sg10
I410
sssS'Danijel.csv'
p33
(dp34
g3
(dp35
g5
I1131
sg6
I42
sg7
I3
sg8
I3
sg9
I13
sg10
I850
ssg11
(dp36
g5
I720
sg6
I38
sg7
I3
sg8
I7
sg9
I56
sg10
I720
ssg13
(dp37
g5
I1400
sg6
I42
sg7
I1
sg8
I5
sg9
I18
sg10
I640
ssg15
(dp38
g5
I1420
sg6
I44
sg7
I2
sg8
I2
sg9
I23
sg10
I1010
ssg17
(dp39
g5
I1270
sg6
I44
sg7
I2
sg8
I2
sg9
I15
sg10
I910
sss.(dp0
S'K_all3.csv'
p1
(dp2
S'machine'
p3
(dp4
S'count'
p5
I555
sS'truepos'
p6
I31
sS'falseneg'
p7
I5
sS'unknownyes'
p8
I9
sS'falsepos'
p9
I7
sS'unique'
p10
I430
ssS'none'
p11
(dp12
g5
I460
sg6
I36
sg7
I1
sg8
I8
sg9
I40
sg10
I460
ssS'three'
p13
(dp14
g5
I979
sg6
I34
sg7
I1
sg8
I10
sg9
I8
sg10
I450
ssS'machine3'
p15
(dp16
g5
I638
sg6
I31
sg7
I4
sg8
I10
sg9
I13
sg10
I450
ssS'machine2'
p17
(dp18
g5
I597
sg6
I29
sg7
I4
sg8
I12
sg9
I11
sg10
I410
sssS'Wahono.csv'
p19
(dp20
g3
(dp21
g5
I1722
sg6
I56
sg7
I2
sg8
I4
sg9
I20
sg10
I1310
ssg11
(dp22
g5
I3440
sg6
I54
sg7
I5
sg8
I3
sg9
I347
sg10
I3440
ssg13
(dp23
g5
I3069
sg6
I58
sg7
I1
sg8
I3
sg9
I41
sg10
I1400
ssg15
(dp24
g5
I1123
sg6
I48
sg7
I2
sg8
I12
sg9
I14
sg10
I770
ssg17
(dp25
g5
I2196
sg6
I56
sg7
I2
sg8
I4
sg9
I34
sg10
I1550
sssS'Hall.csv'
p26
(dp27
g3
(dp28
g5
I1300
sg6
I96
sg7
I6
sg8
I4
sg9
I18
sg10
I930
ssg11
(dp29
g5
I4230
sg6
I94
sg7
I11
sg8
I1
sg9
I407
sg10
I4230
ssg13
(dp30
g5
I1319
sg6
I99
sg7
I3
sg8
I4
sg9
I11
sg10
I600
ssg15
(dp31
g5
I1108
sg6
I98
sg7
I4
sg8
I4
sg9
I16
sg10
I730
ssg17
(dp32
g5
I1117
sg6
I101
sg7
I1
sg8
I4
sg9
I22
sg10
I760
sssS'Danijel.csv'
p33
(dp34
g3
(dp35
g5
I1118
sg6
I41
sg7
I3
sg8
I4
sg9
I14
sg10
I850
ssg11
(dp36
g5
I2850
sg6
I42
sg7
I5
sg8
I1
sg9
I288
sg10
I2850
ssg13
(dp37
g5
I1597
sg6
I44
sg7
I0
sg8
I4
sg9
I20
sg10
I740
ssg15
(dp38
g5
I1528
sg6
I43
sg7
I3
sg8
I2
sg9
I25
sg10
I1070
ssg17
(dp39
g5
I866
sg6
I43
sg7
I1
sg8
I4
sg9
I16
sg10
I610
sss.(dp0
S'K_all3.csv'
p1
(dp2
S'machine'
p3
(dp4
S'count'
p5
I590
sS'truepos'
p6
I30
sS'falseneg'
p7
I4
sS'unknownyes'
p8
I11
sS'falsepos'
p9
I6
sS'unique'
p10
I460
ssS'none'
p11
(dp12
g5
I370
sg6
I26
sg7
I5
sg8
I14
sg9
I32
sg10
I370
ssS'three'
p13
(dp14
g5
I972
sg6
I31
sg7
I0
sg8
I14
sg9
I9
sg10
I450
ssS'machine3'
p15
(dp16
g5
I615
sg6
I31
sg7
I1
sg8
I13
sg9
I8
sg10
I440
ssS'machine2'
p17
(dp18
g5
I641
sg6
I31
sg7
I2
sg8
I12
sg9
I8
sg10
I460
sssS'Wahono.csv'
p19
(dp20
g3
(dp21
g5
I1614
sg6
I54
sg7
I6
sg8
I2
sg9
I12
sg10
I1210
ssg11
(dp22
g5
I3990
sg6
I54
sg7
I6
sg8
I2
sg9
I366
sg10
I3990
ssg13
(dp23
g5
I4467
sg6
I58
sg7
I1
sg8
I3
sg9
I51
sg10
I2050
ssg15
(dp24
g5
I1581
sg6
I55
sg7
I3
sg8
I4
sg9
I21
sg10
I1130
ssg17
(dp25
g5
I2576
sg6
I56
sg7
I3
sg8
I3
sg9
I49
sg10
I1810
sssS'Hall.csv'
p26
(dp27
g3
(dp28
g5
I492
sg6
I94
sg7
I6
sg8
I6
sg9
I14
sg10
I360
ssg11
(dp29
g5
I3920
sg6
I92
sg7
I11
sg8
I3
sg9
I383
sg10
I3920
ssg13
(dp30
g5
I1268
sg6
I97
sg7
I5
sg8
I4
sg9
I5
sg10
I580
ssg15
(dp31
g5
I836
sg6
I95
sg7
I7
sg8
I4
sg9
I9
sg10
I540
ssg17
(dp32
g5
I770
sg6
I96
sg7
I4
sg8
I6
sg9
I15
sg10
I520
sssS'Danijel.csv'
p33
(dp34
g3
(dp35
g5
I1348
sg6
I42
sg7
I3
sg8
I3
sg9
I12
sg10
I1010
ssg11
(dp36
g5
I1010
sg6
I42
sg7
I3
sg8
I3
sg9
I93
sg10
I1010
ssg13
(dp37
g5
I1889
sg6
I43
sg7
I1
sg8
I4
sg9
I31
sg10
I860
ssg15
(dp38
g5
I1210
sg6
I42
sg7
I2
sg8
I4
sg9
I22
sg10
I890
ssg17
(dp39
g5
I1173
sg6
I42
sg7
I3
sg8
I3
sg9
I19
sg10
I810
sss.(dp0
S'K_all3.csv'
p1
(dp2
S'machine'
p3
(dp4
S'count'
p5
I501
sS'truepos'
p6
I29
sS'falseneg'
p7
I3
sS'unknownyes'
p8
I13
sS'falsepos'
p9
I5
sS'unique'
p10
I410
ssS'none'
p11
(dp12
g5
I710
sg6
I38
sg7
I3
sg8
I4
sg9
I63
sg10
I710
ssS'three'
p13
(dp14
g5
I931
sg6
I30
sg7
I2
sg8
I13
sg9
I11
sg10
I420
ssS'machine3'
p15
(dp16
g5
I597
sg6
I31
sg7
I0
sg8
I14
sg9
I10
sg10
I430
ssS'machine2'
p17
(dp18
g5
I824
sg6
I33
sg7
I5
sg8
I7
sg9
I10
sg10
I610
sssS'Wahono.csv'
p19
(dp20
g3
(dp21
g5
I2083
sg6
I54
sg7
I6
sg8
I2
sg9
I20
sg10
I1570
ssg11
(dp22
g5
I3790
sg6
I55
sg7
I7
sg8
I0
sg9
I391
sg10
I3790
ssg13
(dp23
g5
I3125
sg6
I56
sg7
I1
sg8
I5
sg9
I45
sg10
I1430
ssg15
(dp24
g5
I1868
sg6
I56
sg7
I3
sg8
I3
sg9
I20
sg10
I1280
ssg17
(dp25
g5
I2138
sg6
I57
sg7
I1
sg8
I4
sg9
I32
sg10
I1510
sssS'Hall.csv'
p26
(dp27
g3
(dp28
g5
I751
sg6
I101
sg7
I1
sg8
I4
sg9
I10
sg10
I540
ssg11
(dp29
g5
I3500
sg6
I91
sg7
I11
sg8
I4
sg9
I365
sg10
I3500
ssg13
(dp30
g5
I1269
sg6
I101
sg7
I1
sg8
I4
sg9
I18
sg10
I580
ssg15
(dp31
g5
I1128
sg6
I92
sg7
I10
sg8
I4
sg9
I14
sg10
I750
ssg17
(dp32
g5
I1495
sg6
I96
sg7
I6
sg8
I4
sg9
I24
sg10
I1010
sssS'Danijel.csv'
p33
(dp34
g3
(dp35
g5
I668
sg6
I35
sg7
I7
sg8
I6
sg9
I4
sg10
I510
ssg11
(dp36
g5
I2730
sg6
I41
sg7
I5
sg8
I2
sg9
I256
sg10
I2730
ssg13
(dp37
g5
I2765
sg6
I42
sg7
I3
sg8
I3
sg9
I34
sg10
I1270
ssg15
(dp38
g5
I1738
sg6
I44
sg7
I2
sg8
I2
sg9
I32
sg10
I1230
ssg17
(dp39
g5
I1284
sg6
I46
sg7
I0
sg8
I2
sg9
I15
sg10
I910
sss.(dp0
S'K_all3.csv'
p1
(dp2
S'machine'
p3
(dp4
S'count'
p5
I655
sS'truepos'
p6
I27
sS'falseneg'
p7
I6
sS'unknownyes'
p8
I12
sS'falsepos'
p9
I10
sS'unique'
p10
I510
ssS'none'
p11
(dp12
g5
I430
sg6
I33
sg7
I1
sg8
I11
sg9
I47
sg10
I430
ssS'three'
p13
(dp14
g5
I953
sg6
I37
sg7
I1
sg8
I7
sg9
I14
sg10
I430
ssS'machine3'
p15
(dp16
g5
I659
sg6
I30
sg7
I4
sg8
I11
sg9
I6
sg10
I500
ssS'machine2'
p17
(dp18
g5
I552
sg6
I34
sg7
I0
sg8
I11
sg9
I5
sg10
I410
sssS'Wahono.csv'
p19
(dp20
g3
(dp21
g5
I1601
sg6
I53
sg7
I4
sg8
I5
sg9
I26
sg10
I1210
ssg11
(dp22
g5
I3730
sg6
I52
sg7
I8
sg8
I2
sg9
I341
sg10
I3730
ssg13
(dp23
g5
I3257
sg6
I59
sg7
I0
sg8
I3
sg9
I36
sg10
I1490
ssg15
(dp24
g5
I1824
sg6
I54
sg7
I3
sg8
I5
sg9
I31
sg10
I1300
ssg17
(dp25
g5
I2572
sg6
I56
sg7
I4
sg8
I2
sg9
I38
sg10
I1810
sssS'Hall.csv'
p26
(dp27
g3
(dp28
g5
I841
sg6
I99
sg7
I3
sg8
I4
sg9
I7
sg10
I610
ssg11
(dp29
g5
I4510
sg6
I98
sg7
I5
sg8
I3
sg9
I424
sg10
I4510
ssg13
(dp30
g5
I1859
sg6
I101
sg7
I1
sg8
I4
sg9
I20
sg10
I850
ssg15
(dp31
g5
I1042
sg6
I97
sg7
I5
sg8
I4
sg9
I17
sg10
I680
ssg17
(dp32
g5
I753
sg6
I100
sg7
I1
sg8
I5
sg9
I6
sg10
I510
sssS'Danijel.csv'
p33
(dp34
g3
(dp35
g5
I931
sg6
I42
sg7
I2
sg8
I4
sg9
I10
sg10
I690
ssg11
(dp36
g5
I1520
sg6
I36
sg7
I8
sg8
I4
sg9
I140
sg10
I1520
ssg13
(dp37
g5
I2222
sg6
I46
sg7
I0
sg8
I2
sg9
I30
sg10
I1030
ssg15
(dp38
g5
I1407
sg6
I45
sg7
I0
sg8
I3
sg9
I12
sg10
I990
ssg17
(dp39
g5
I1110
sg6
I43
sg7
I3
sg8
I2
sg9
I18
sg10
I760
sss.(dp0
S'K_all3.csv'
p1
(dp2
S'machine'
p3
(dp4
S'count'
p5
I591
sS'truepos'
p6
I28
sS'falseneg'
p7
I5
sS'unknownyes'
p8
I12
sS'falsepos'
p9
I5
sS'unique'
p10
I460
ssS'none'
p11
(dp12
g5
I570
sg6
I35
sg7
I3
sg8
I7
sg9
I51
sg10
I570
ssS'three'
p13
(dp14
g5
I849
sg6
I28
sg7
I3
sg8
I14
sg9
I11
sg10
I390
ssS'machine3'
p15
(dp16
g5
I633
sg6
I32
sg7
I2
sg8
I11
sg9
I7
sg10
I470
ssS'machine2'
p17
(dp18
g5
I709
sg6
I31
sg7
I2
sg8
I12
sg9
I7
sg10
I510
sssS'Wahono.csv'
p19
(dp20
g3
(dp21
g5
I1679
sg6
I53
sg7
I5
sg8
I4
sg9
I19
sg10
I1260
ssg11
(dp22
g5
I3990
sg6
I54
sg7
I7
sg8
I1
sg9
I423
sg10
I3990
ssg13
(dp23
g5
I4314
sg6
I59
sg7
I1
sg8
I2
sg9
I57
sg10
I1990
ssg15
(dp24
g5
I1911
sg6
I53
sg7
I6
sg8
I3
sg9
I24
sg10
I1340
ssg17
(dp25
g5
I1388
sg6
I53
sg7
I3
sg8
I6
sg9
I28
sg10
I960
sssS'Hall.csv'
p26
(dp27
g3
(dp28
g5
I732
sg6
I98
sg7
I4
sg8
I4
sg9
I3
sg10
I520
ssg11
(dp29
g5
I3690
sg6
I95
sg7
I9
sg8
I2
sg9
I369
sg10
I3690
ssg13
(dp30
g5
I2178
sg6
I95
sg7
I7
sg8
I4
sg9
I33
sg10
I1000
ssg15
(dp31
g5
I1009
sg6
I96
sg7
I5
sg8
I5
sg9
I13
sg10
I680
ssg17
(dp32
g5
I920
sg6
I96
sg7
I5
sg8
I5
sg9
I16
sg10
I620
sssS'Danijel.csv'
p33
(dp34
g3
(dp35
g5
I1589
sg6
I43
sg7
I3
sg8
I2
sg9
I17
sg10
I1210
ssg11
(dp36
g5
I2510
sg6
I38
sg7
I8
sg8
I2
sg9
I250
sg10
I2510
ssg13
(dp37
g5
I1984
sg6
I44
sg7
I0
sg8
I4
sg9
I22
sg10
I910
ssg15
(dp38
g5
I1460
sg6
I44
sg7
I2
sg8
I2
sg9
I23
sg10
I1020
ssg17
(dp39
g5
I1480
sg6
I42
sg7
I4
sg8
I2
sg9
I18
sg10
I1060
sss.(dp0
S'K_all3.csv'
p1
(dp2
S'machine'
p3
(dp4
S'count'
p5
I830
sS'truepos'
p6
I33
sS'falseneg'
p7
I9
sS'unknownyes'
p8
I3
sS'falsepos'
p9
I6
sS'unique'
p10
I660
ssS'none'
p11
(dp12
g5
I430
sg6
I30
sg7
I4
sg8
I11
sg9
I30
sg10
I430
ssS'three'
p13
(dp14
g5
I860
sg6
I31
sg7
I2
sg8
I12
sg9
I7
sg10
I400
ssS'machine3'
p15
(dp16
g5
I671
sg6
I33
sg7
I2
sg8
I10
sg9
I5
sg10
I490
ssS'machine2'
p17
(dp18
g5
I584
sg6
I33
sg7
I1
sg8
I11
sg9
I15
sg10
I410
sssS'Wahono.csv'
p19
(dp20
g3
(dp21
g5
I2049
sg6
I56
sg7
I2
sg8
I4
sg9
I20
sg10
I1510
ssg11
(dp22
g5
I3280
sg6
I48
sg7
I11
sg8
I3
sg9
I311
sg10
I3280
ssg13
(dp23
g5
I3154
sg6
I56
sg7
I3
sg8
I3
sg9
I44
sg10
I1450
ssg15
(dp24
g5
I1612
sg6
I57
sg7
I2
sg8
I3
sg9
I22
sg10
I1130
ssg17
(dp25
g5
I1827
sg6
I58
sg7
I2
sg8
I2
sg9
I31
sg10
I1260
sssS'Hall.csv'
p26
(dp27
g3
(dp28
g5
I791
sg6
I93
sg7
I8
sg8
I5
sg9
I7
sg10
I560
ssg11
(dp29
g5
I3440
sg6
I96
sg7
I9
sg8
I1
sg9
I358
sg10
I3440
ssg13
(dp30
g5
I2369
sg6
I100
sg7
I3
sg8
I3
sg9
I23
sg10
I1090
ssg15
(dp31
g5
I668
sg6
I92
sg7
I7
sg8
I7
sg9
I3
sg10
I420
ssg17
(dp32
g5
I1722
sg6
I97
sg7
I6
sg8
I3
sg9
I23
sg10
I1160
sssS'Danijel.csv'
p33
(dp34
g3
(dp35
g5
I1450
sg6
I41
sg7
I5
sg8
I2
sg9
I19
sg10
I1110
ssg11
(dp36
g5
I790
sg6
I35
sg7
I4
sg8
I9
sg9
I80
sg10
I790
ssg13
(dp37
g5
I1701
sg6
I44
sg7
I0
sg8
I4
sg9
I20
sg10
I780
ssg15
(dp38
g5
I1583
sg6
I45
sg7
I1
sg8
I2
sg9
I27
sg10
I1090
ssg17
(dp39
g5
I2099
sg6
I45
sg7
I1
sg8
I2
sg9
I32
sg10
I1510
sss.(dp0
S'K_all3.csv'
p1
(dp2
S'machine'
p3
(dp4
S'count'
p5
I581
sS'truepos'
p6
I27
sS'falseneg'
p7
I4
sS'unknownyes'
p8
I14
sS'falsepos'
p9
I3
sS'unique'
p10
I460
ssS'none'
p11
(dp12
g5
I550
sg6
I37
sg7
I4
sg8
I4
sg9
I53
sg10
I550
ssS'three'
p13
(dp14
g5
I1092
sg6
I35
sg7
I2
sg8
I8
sg9
I12
sg10
I500
ssS'machine3'
p15
(dp16
g5
I595
sg6
I35
sg7
I0
sg8
I10
sg9
I6
sg10
I440
ssS'machine2'
p17
(dp18
g5
I752
sg6
I31
sg7
I6
sg8
I8
sg9
I12
sg10
I560
sssS'Wahono.csv'
p19
(dp20
g3
(dp21
g5
I1828
sg6
I56
sg7
I5
sg8
I1
sg9
I16
sg10
I1360
ssg11
(dp22
g5
I3950
sg6
I50
sg7
I12
sg8
I0
sg9
I397
sg10
I3950
ssg13
(dp23
g5
I3947
sg6
I60
sg7
I1
sg8
I1
sg9
I35
sg10
I1820
ssg15
(dp24
g5
I1901
sg6
I60
sg7
I0
sg8
I2
sg9
I22
sg10
I1320
ssg17
(dp25
g5
I2052
sg6
I57
sg7
I3
sg8
I2
sg9
I33
sg10
I1460
sssS'Hall.csv'
p26
(dp27
g3
(dp28
g5
I522
sg6
I90
sg7
I7
sg8
I9
sg9
I8
sg10
I370
ssg11
(dp29
g5
I4440
sg6
I99
sg7
I5
sg8
I2
sg9
I462
sg10
I4440
ssg13
(dp30
g5
I1632
sg6
I97
sg7
I5
sg8
I4
sg9
I17
sg10
I750
ssg15
(dp31
g5
I1016
sg6
I99
sg7
I3
sg8
I4
sg9
I13
sg10
I660
ssg17
(dp32
g5
I728
sg6
I94
sg7
I5
sg8
I7
sg9
I18
sg10
I500
sssS'Danijel.csv'
p33
(dp34
g3
(dp35
g5
I1082
sg6
I42
sg7
I2
sg8
I4
sg9
I6
sg10
I810
ssg11
(dp36
g5
I900
sg6
I39
sg7
I4
sg8
I5
sg9
I75
sg10
I900
ssg13
(dp37
g5
I2319
sg6
I44
sg7
I1
sg8
I3
sg9
I23
sg10
I1060
ssg15
(dp38
g5
I1290
sg6
I41
sg7
I3
sg8
I4
sg9
I21
sg10
I900
ssg17
(dp39
g5
I1185
sg6
I44
sg7
I0
sg8
I4
sg9
I12
sg10
I810
sss.(dp0
S'K_all3.csv'
p1
(dp2
S'machine'
p3
(dp4
S'count'
p5
I530
sS'truepos'
p6
I31
sS'falseneg'
p7
I5
sS'unknownyes'
p8
I9
sS'falsepos'
p9
I4
sS'unique'
p10
I410
ssS'none'
p11
(dp12
g5
I620
sg6
I34
sg7
I3
sg8
I8
sg9
I61
sg10
I620
ssS'three'
p13
(dp14
g5
I914
sg6
I34
sg7
I1
sg8
I10
sg9
I10
sg10
I420
ssS'machine3'
p15
(dp16
g5
I693
sg6
I29
sg7
I3
sg8
I13
sg9
I14
sg10
I520
ssS'machine2'
p17
(dp18
g5
I673
sg6
I33
sg7
I3
sg8
I9
sg9
I8
sg10
I510
sssS'Wahono.csv'
p19
(dp20
g3
(dp21
g5
I1225
sg6
I48
sg7
I5
sg8
I9
sg9
I14
sg10
I910
ssg11
(dp22
g5
I3860
sg6
I54
sg7
I7
sg8
I1
sg9
I395
sg10
I3860
ssg13
(dp23
g5
I3252
sg6
I60
sg7
I0
sg8
I2
sg9
I35
sg10
I1500
ssg15
(dp24
g5
I2615
sg6
I55
sg7
I4
sg8
I3
sg9
I47
sg10
I1820
ssg17
(dp25
g5
I1924
sg6
I57
sg7
I2
sg8
I3
sg9
I24
sg10
I1310
sssS'Hall.csv'
p26
(dp27
g3
(dp28
g5
I792
sg6
I96
sg7
I6
sg8
I4
sg9
I12
sg10
I560
ssg11
(dp29
g5
I4200
sg6
I87
sg7
I16
sg8
I3
sg9
I429
sg10
I4200
ssg13
(dp30
g5
I1595
sg6
I98
sg7
I3
sg8
I5
sg9
I16
sg10
I730
ssg15
(dp31
g5
I1041
sg6
I101
sg7
I1
sg8
I4
sg9
I13
sg10
I690
ssg17
(dp32
g5
I808
sg6
I99
sg7
I3
sg8
I4
sg9
I24
sg10
I560
sssS'Danijel.csv'
p33
(dp34
g3
(dp35
g5
I1137
sg6
I40
sg7
I5
sg8
I3
sg9
I16
sg10
I860
ssg11
(dp36
g5
I2760
sg6
I41
sg7
I5
sg8
I2
sg9
I260
sg10
I2760
ssg13
(dp37
g5
I1846
sg6
I41
sg7
I4
sg8
I3
sg9
I18
sg10
I850
ssg15
(dp38
g5
I1755
sg6
I41
sg7
I4
sg8
I3
sg9
I40
sg10
I1210
ssg17
(dp39
g5
I1235
sg6
I43
sg7
I3
sg8
I2
sg9
I10
sg10
I870
sss.(dp0
S'K_all3.csv'
p1
(dp2
S'machine'
p3
(dp4
S'count'
p5
I616
sS'truepos'
p6
I34
sS'falseneg'
p7
I5
sS'unknownyes'
p8
I6
sS'falsepos'
p9
I4
sS'unique'
p10
I470
ssS'none'
p11
(dp12
g5
I510
sg6
I32
sg7
I5
sg8
I8
sg9
I45
sg10
I510
ssS'three'
p13
(dp14
g5
I850
sg6
I32
sg7
I0
sg8
I13
sg9
I9
sg10
I390
ssS'machine3'
p15
(dp16
g5
I616
sg6
I33
sg7
I0
sg8
I12
sg9
I7
sg10
I430
ssS'machine2'
p17
(dp18
g5
I508
sg6
I33
sg7
I0
sg8
I12
sg9
I6
sg10
I360
sssS'Wahono.csv'
p19
(dp20
g3
(dp21
g5
I1489
sg6
I55
sg7
I4
sg8
I3
sg9
I12
sg10
I1110
ssg11
(dp22
g5
I4200
sg6
I53
sg7
I8
sg8
I1
sg9
I426
sg10
I4200
ssg13
(dp23
g5
I3473
sg6
I56
sg7
I3
sg8
I3
sg9
I39
sg10
I1590
ssg15
(dp24
g5
I2992
sg6
I57
sg7
I2
sg8
I3
sg9
I42
sg10
I2100
ssg17
(dp25
g5
I2299
sg6
I58
sg7
I0
sg8
I4
sg9
I36
sg10
I1610
sssS'Hall.csv'
p26
(dp27
g3
(dp28
g5
I650
sg6
I85
sg7
I12
sg8
I9
sg9
I10
sg10
I460
ssg11
(dp29
g5
I4020
sg6
I94
sg7
I11
sg8
I1
sg9
I407
sg10
I4020
ssg13
(dp30
g5
I1808
sg6
I100
sg7
I2
sg8
I4
sg9
I21
sg10
I830
ssg15
(dp31
g5
I971
sg6
I100
sg7
I2
sg8
I4
sg9
I8
sg10
I610
ssg17
(dp32
g5
I666
sg6
I94
sg7
I6
sg8
I6
sg9
I11
sg10
I460
sssS'Danijel.csv'
p33
(dp34
g3
(dp35
g5
I1430
sg6
I40
sg7
I6
sg8
I2
sg9
I18
sg10
I1100
ssg11
(dp36
g5
I2320
sg6
I38
sg7
I6
sg8
I4
sg9
I228
sg10
I2320
ssg13
(dp37
g5
I2792
sg6
I44
sg7
I2
sg8
I2
sg9
I30
sg10
I1290
ssg15
(dp38
g5
I1412
sg6
I44
sg7
I1
sg8
I3
sg9
I12
sg10
I980
ssg17
(dp39
g5
I1157
sg6
I40
sg7
I3
sg8
I5
sg9
I18
sg10
I810
sss.(dp0
S'K_all3.csv'
p1
(dp2
S'machine'
p3
(dp4
S'count'
p5
I657
sS'truepos'
p6
I27
sS'falseneg'
p7
I6
sS'unknownyes'
p8
I12
sS'falsepos'
p9
I6
sS'unique'
p10
I520
ssS'none'
p11
(dp12
g5
I380
sg6
I27
sg7
I1
sg8
I17
sg9
I40
sg10
I380
ssS'three'
p13
(dp14
g5
I788
sg6
I32
sg7
I1
sg8
I12
sg9
I12
sg10
I360
ssS'machine3'
p15
(dp16
g5
I589
sg6
I31
sg7
I3
sg8
I11
sg9
I8
sg10
I430
ssS'machine2'
p17
(dp18
g5
I474
sg6
I30
sg7
I2
sg8
I13
sg9
I13
sg10
I360
sssS'Wahono.csv'
p19
(dp20
g3
(dp21
g5
I1754
sg6
I50
sg7
I5
sg8
I7
sg9
I21
sg10
I1310
ssg11
(dp22
g5
I3730
sg6
I51
sg7
I9
sg8
I2
sg9
I339
sg10
I3730
ssg13
(dp23
g5
I3695
sg6
I58
sg7
I3
sg8
I1
sg9
I49
sg10
I1700
ssg15
(dp24
g5
I1599
sg6
I56
sg7
I3
sg8
I3
sg9
I23
sg10
I1120
ssg17
(dp25
g5
I1821
sg6
I56
sg7
I3
sg8
I3
sg9
I26
sg10
I1260
sssS'Hall.csv'
p26
(dp27
g3
(dp28
g5
I564
sg6
I91
sg7
I8
sg8
I7
sg9
I9
sg10
I410
ssg11
(dp29
g5
I5180
sg6
I87
sg7
I17
sg8
I2
sg9
I546
sg10
I5180
ssg13
(dp30
g5
I2531
sg6
I97
sg7
I6
sg8
I3
sg9
I35
sg10
I1160
ssg15
(dp31
g5
I748
sg6
I100
sg7
I1
sg8
I5
sg9
I12
sg10
I470
ssg17
(dp32
g5
I1615
sg6
I99
sg7
I3
sg8
I4
sg9
I29
sg10
I1070
sssS'Danijel.csv'
p33
(dp34
g3
(dp35
g5
I899
sg6
I40
sg7
I5
sg8
I3
sg9
I6
sg10
I710
ssg11
(dp36
g5
I2780
sg6
I44
sg7
I3
sg8
I1
sg9
I285
sg10
I2780
ssg13
(dp37
g5
I1678
sg6
I43
sg7
I2
sg8
I3
sg9
I16
sg10
I770
ssg15
(dp38
g5
I2214
sg6
I40
sg7
I5
sg8
I3
sg9
I36
sg10
I1540
ssg17
(dp39
g5
I1502
sg6
I42
sg7
I3
sg8
I3
sg9
I22
sg10
I1060
sss.(dp0
S'K_all3.csv'
p1
(dp2
S'machine'
p3
(dp4
S'count'
p5
I602
sS'truepos'
p6
I30
sS'falseneg'
p7
I8
sS'unknownyes'
p8
I7
sS'falsepos'
p9
I5
sS'unique'
p10
I460
ssS'none'
p11
(dp12
g5
I510
sg6
I20
sg7
I6
sg8
I19
sg9
I44
sg10
I510
ssS'three'
p13
(dp14
g5
I952
sg6
I34
sg7
I0
sg8
I11
sg9
I18
sg10
I440
ssS'machine3'
p15
(dp16
g5
I708
sg6
I28
sg7
I7
sg8
I10
sg9
I10
sg10
I530
ssS'machine2'
p17
(dp18
g5
I559
sg6
I30
sg7
I1
sg8
I14
sg9
I9
sg10
I390
sssS'Wahono.csv'
p19
(dp20
g3
(dp21
g5
I1730
sg6
I55
sg7
I3
sg8
I4
sg9
I16
sg10
I1310
ssg11
(dp22
g5
I3180
sg6
I56
sg7
I5
sg8
I1
sg9
I288
sg10
I3180
ssg13
(dp23
g5
I4002
sg6
I59
sg7
I0
sg8
I3
sg9
I55
sg10
I1840
ssg15
(dp24
g5
I2480
sg6
I53
sg7
I5
sg8
I4
sg9
I36
sg10
I1770
ssg17
(dp25
g5
I2616
sg6
I56
sg7
I3
sg8
I3
sg9
I33
sg10
I1890
sssS'Hall.csv'
p26
(dp27
g3
(dp28
g5
I1001
sg6
I99
sg7
I4
sg8
I3
sg9
I17
sg10
I710
ssg11
(dp29
g5
I5070
sg6
I92
sg7
I13
sg8
I1
sg9
I526
sg10
I5070
ssg13
(dp30
g5
I1627
sg6
I99
sg7
I4
sg8
I3
sg9
I20
sg10
I750
ssg15
(dp31
g5
I812
sg6
I98
sg7
I4
sg8
I4
sg9
I7
sg10
I530
ssg17
(dp32
g5
I1080
sg6
I96
sg7
I6
sg8
I4
sg9
I18
sg10
I720
sssS'Danijel.csv'
p33
(dp34
g3
(dp35
g5
I1032
sg6
I41
sg7
I4
sg8
I3
sg9
I11
sg10
I760
ssg11
(dp36
g5
I3000
sg6
I42
sg7
I5
sg8
I1
sg9
I263
sg10
I3000
ssg13
(dp37
g5
I4060
sg6
I45
sg7
I1
sg8
I2
sg9
I44
sg10
I1870
ssg15
(dp38
g5
I919
sg6
I42
sg7
I2
sg8
I4
sg9
I16
sg10
I630
ssg17
(dp39
g5
I1417
sg6
I44
sg7
I2
sg8
I2
sg9
I24
sg10
I1010
sss.(dp0
S'K_all3.csv'
p1
(dp2
S'machine'
p3
(dp4
S'count'
p5
I464
sS'truepos'
p6
I26
sS'falseneg'
p7
I4
sS'unknownyes'
p8
I15
sS'falsepos'
p9
I4
sS'unique'
p10
I360
ssS'none'
p11
(dp12
g5
I590
sg6
I37
sg7
I1
sg8
I7
sg9
I49
sg10
I590
ssS'three'
p13
(dp14
g5
I930
sg6
I32
sg7
I4
sg8
I9
sg9
I9
sg10
I420
ssS'machine3'
p15
(dp16
g5
I610
sg6
I34
sg7
I3
sg8
I8
sg9
I6
sg10
I450
ssS'machine2'
p17
(dp18
g5
I497
sg6
I30
sg7
I3
sg8
I12
sg9
I9
sg10
I360
sssS'Wahono.csv'
p19
(dp20
g3
(dp21
g5
I1595
sg6
I55
sg7
I4
sg8
I3
sg9
I11
sg10
I1210
ssg11
(dp22
g5
I3230
sg6
I53
sg7
I8
sg8
I1
sg9
I311
sg10
I3230
ssg13
(dp23
g5
I3877
sg6
I59
sg7
I1
sg8
I2
sg9
I56
sg10
I1790
ssg15
(dp24
g5
I1893
sg6
I51
sg7
I5
sg8
I6
sg9
I29
sg10
I1320
ssg17
(dp25
g5
I2116
sg6
I58
sg7
I1
sg8
I3
sg9
I35
sg10
I1460
sssS'Hall.csv'
p26
(dp27
g3
(dp28
g5
I563
sg6
I95
sg7
I6
sg8
I5
sg9
I14
sg10
I410
ssg11
(dp29
g5
I4040
sg6
I97
sg7
I8
sg8
I1
sg9
I359
sg10
I4040
ssg13
(dp30
g5
I2813
sg6
I95
sg7
I6
sg8
I5
sg9
I31
sg10
I1290
ssg15
(dp31
g5
I1430
sg6
I98
sg7
I5
sg8
I3
sg9
I26
sg10
I960
ssg17
(dp32
g5
I785
sg6
I99
sg7
I3
sg8
I4
sg9
I15
sg10
I530
sssS'Danijel.csv'
p33
(dp34
g3
(dp35
g5
I957
sg6
I40
sg7
I4
sg8
I4
sg9
I9
sg10
I710
ssg11
(dp36
g5
I3130
sg6
I43
sg7
I3
sg8
I2
sg9
I328
sg10
I3130
ssg13
(dp37
g5
I2491
sg6
I40
sg7
I4
sg8
I4
sg9
I32
sg10
I1140
ssg15
(dp38
g5
I1922
sg6
I45
sg7
I1
sg8
I2
sg9
I25
sg10
I1340
ssg17
(dp39
g5
I1535
sg6
I42
sg7
I3
sg8
I3
sg9
I13
sg10
I1110
sss.(dp0
S'K_all3.csv'
p1
(dp2
S'machine'
p3
(dp4
S'count'
p5
I545
sS'truepos'
p6
I35
sS'falseneg'
p7
I2
sS'unknownyes'
p8
I8
sS'falsepos'
p9
I6
sS'unique'
p10
I410
ssS'none'
p11
(dp12
g5
I470
sg6
I30
sg7
I4
sg8
I11
sg9
I35
sg10
I470
ssS'three'
p13
(dp14
g5
I909
sg6
I30
sg7
I2
sg8
I13
sg9
I11
sg10
I410
ssS'machine3'
p15
(dp16
g5
I646
sg6
I34
sg7
I1
sg8
I10
sg9
I4
sg10
I470
ssS'machine2'
p17
(dp18
g5
I626
sg6
I32
sg7
I3
sg8
I10
sg9
I13
sg10
I450
sssS'Wahono.csv'
p19
(dp20
g3
(dp21
g5
I1595
sg6
I52
sg7
I6
sg8
I4
sg9
I19
sg10
I1210
ssg11
(dp22
g5
I2790
sg6
I50
sg7
I9
sg8
I3
sg9
I273
sg10
I2790
ssg13
(dp23
g5
I3366
sg6
I60
sg7
I0
sg8
I2
sg9
I36
sg10
I1550
ssg15
(dp24
g5
I2261
sg6
I56
sg7
I4
sg8
I2
sg9
I38
sg10
I1590
ssg17
(dp25
g5
I1669
sg6
I57
sg7
I2
sg8
I3
sg9
I21
sg10
I1160
sssS'Hall.csv'
p26
(dp27
g3
(dp28
g5
I1042
sg6
I97
sg7
I5
sg8
I4
sg9
I13
sg10
I750
ssg11
(dp29
g5
I4960
sg6
I92
sg7
I11
sg8
I3
sg9
I475
sg10
I4960
ssg13
(dp30
g5
I1207
sg6
I101
sg7
I1
sg8
I4
sg9
I9
sg10
I550
ssg15
(dp31
g5
I1028
sg6
I98
sg7
I4
sg8
I4
sg9
I16
sg10
I670
ssg17
(dp32
g5
I925
sg6
I101
sg7
I1
sg8
I4
sg9
I18
sg10
I610
sssS'Danijel.csv'
p33
(dp34
g3
(dp35
g5
I1084
sg6
I42
sg7
I3
sg8
I3
sg9
I10
sg10
I810
ssg11
(dp36
g5
I3160
sg6
I41
sg7
I5
sg8
I2
sg9
I320
sg10
I3160
ssg13
(dp37
g5
I1723
sg6
I44
sg7
I1
sg8
I3
sg9
I18
sg10
I790
ssg15
(dp38
g5
I1092
sg6
I43
sg7
I1
sg8
I4
sg9
I16
sg10
I770
ssg17
(dp39
g5
I1269
sg6
I43
sg7
I3
sg8
I2
sg9
I16
sg10
I910
sss.