(dp0
S'K_all3.csv'
p1
(dp2
S'machine'
p3
(dp4
S'count'
p5
I589
sS'truepos'
p6
I39
sS'falseneg'
p7
I0
sS'correction'
p8
I0
sS'unknownyes'
p9
I6
sS'falsepos'
p10
I0
sS'unique'
p11
I370
ssS'knee'
p12
(dp13
g5
I995
sg6
I43
sg7
I0
sg8
I0
sg9
I2
sg10
I0
sg11
I690
ssS'none'
p14
(dp15
g5
I420
sg6
I40
sg7
I0
sg8
I0
sg9
I5
sg10
I0
sg11
I420
ssS'three'
p16
(dp17
g5
I740
sg6
I38
sg7
I0
sg8
I0
sg9
I7
sg10
I0
sg11
I370
sssS'Wahono.csv'
p18
(dp19
g3
(dp20
g5
I1667
sg6
I59
sg7
I0
sg8
I0
sg9
I3
sg10
I0
sg11
I1120
ssg12
(dp21
g5
I46
sg6
I8
sg7
I0
sg8
I0
sg9
I54
sg10
I0
sg11
I40
ssg14
(dp22
g5
I1180
sg6
I59
sg7
I0
sg8
I0
sg9
I3
sg10
I0
sg11
I1180
ssg16
(dp23
g5
I2280
sg6
I59
sg7
I0
sg8
I0
sg9
I3
sg10
I0
sg11
I1140
sssS'Hall.csv'
p24
(dp25
g3
(dp26
g5
I694
sg6
I102
sg7
I0
sg8
I0
sg9
I2
sg10
I0
sg11
I530
ssg12
(dp27
g5
I38
sg6
I12
sg7
I0
sg8
I0
sg9
I92
sg10
I0
sg11
I30
ssg14
(dp28
g5
I460
sg6
I101
sg7
I0
sg8
I0
sg9
I3
sg10
I0
sg11
I460
ssg16
(dp29
g5
I940
sg6
I101
sg7
I0
sg8
I0
sg9
I3
sg10
I0
sg11
I470
sssS'Danijel.csv'
p30
(dp31
g3
(dp32
g5
I1294
sg6
I45
sg7
I0
sg8
I0
sg9
I3
sg10
I0
sg11
I790
ssg12
(dp33
g5
I712
sg6
I44
sg7
I0
sg8
I0
sg9
I4
sg10
I0
sg11
I460
ssg14
(dp34
g5
I760
sg6
I45
sg7
I0
sg8
I0
sg9
I3
sg10
I0
sg11
I760
ssg16
(dp35
g5
I1500
sg6
I45
sg7
I0
sg8
I0
sg9
I3
sg10
I0
sg11
I750
sss.(dp0
S'K_all3.csv'
p1
(dp2
S'machine'
p3
(dp4
S'count'
p5
I565
sS'truepos'
p6
I36
sS'falseneg'
p7
I0
sS'correction'
p8
I0
sS'unknownyes'
p9
I9
sS'falsepos'
p10
I0
sS'unique'
p11
I370
ssS'knee'
p12
(dp13
g5
I905
sg6
I43
sg7
I0
sg8
I0
sg9
I2
sg10
I0
sg11
I740
ssS'none'
p14
(dp15
g5
I410
sg6
I38
sg7
I0
sg8
I0
sg9
I7
sg10
I0
sg11
I410
ssS'three'
p16
(dp17
g5
I800
sg6
I39
sg7
I0
sg8
I0
sg9
I6
sg10
I0
sg11
I400
sssS'Wahono.csv'
p18
(dp19
g3
(dp20
g5
I1721
sg6
I59
sg7
I0
sg8
I0
sg9
I3
sg10
I0
sg11
I1140
ssg12
(dp21
g5
I35
sg6
I7
sg7
I0
sg8
I0
sg9
I55
sg10
I0
sg11
I30
ssg14
(dp22
g5
I1190
sg6
I59
sg7
I0
sg8
I0
sg9
I3
sg10
I0
sg11
I1190
ssg16
(dp23
g5
I2180
sg6
I59
sg7
I0
sg8
I0
sg9
I3
sg10
I0
sg11
I1090
sssS'Hall.csv'
p24
(dp25
g3
(dp26
g5
I577
sg6
I101
sg7
I0
sg8
I0
sg9
I3
sg10
I0
sg11
I430
ssg12
(dp27
g5
I533
sg6
I101
sg7
I0
sg8
I0
sg9
I3
sg10
I0
sg11
I380
ssg14
(dp28
g5
I480
sg6
I102
sg7
I0
sg8
I0
sg9
I2
sg10
I0
sg11
I480
ssg16
(dp29
g5
I1060
sg6
I102
sg7
I0
sg8
I0
sg9
I2
sg10
I0
sg11
I530
sssS'Danijel.csv'
p30
(dp31
g3
(dp32
g5
I1202
sg6
I45
sg7
I0
sg8
I0
sg9
I3
sg10
I0
sg11
I760
ssg12
(dp33
g5
I624
sg6
I42
sg7
I0
sg8
I0
sg9
I6
sg10
I0
sg11
I420
ssg14
(dp34
g5
I720
sg6
I45
sg7
I0
sg8
I0
sg9
I3
sg10
I0
sg11
I720
ssg16
(dp35
g5
I1520
sg6
I45
sg7
I0
sg8
I0
sg9
I3
sg10
I0
sg11
I760
sss.(dp0
S'K_all3.csv'
p1
(dp2
S'machine'
p3
(dp4
S'count'
p5
I565
sS'truepos'
p6
I37
sS'falseneg'
p7
I0
sS'correction'
p8
I0
sS'unknownyes'
p9
I8
sS'falsepos'
p10
I0
sS'unique'
p11
I370
ssS'knee'
p12
(dp13
g5
I1017
sg6
I43
sg7
I0
sg8
I0
sg9
I2
sg10
I0
sg11
I780
ssS'none'
p14
(dp15
g5
I360
sg6
I39
sg7
I0
sg8
I0
sg9
I6
sg10
I0
sg11
I360
ssS'three'
p16
(dp17
g5
I760
sg6
I40
sg7
I0
sg8
I0
sg9
I5
sg10
I0
sg11
I380
sssS'Wahono.csv'
p18
(dp19
g3
(dp20
g5
I1666
sg6
I60
sg7
I0
sg8
I0
sg9
I2
sg10
I0
sg11
I1120
ssg12
(dp21
g5
I24
sg6
I6
sg7
I0
sg8
I0
sg9
I56
sg10
I0
sg11
I20
ssg14
(dp22
g5
I1170
sg6
I60
sg7
I0
sg8
I0
sg9
I2
sg10
I0
sg11
I1170
ssg16
(dp23
g5
I2180
sg6
I59
sg7
I0
sg8
I0
sg9
I3
sg10
I0
sg11
I1090
sssS'Hall.csv'
p24
(dp25
g3
(dp26
g5
I556
sg6
I102
sg7
I0
sg8
I0
sg9
I2
sg10
I0
sg11
I410
ssg12
(dp27
g5
I573
sg6
I101
sg7
I0
sg8
I0
sg9
I3
sg10
I0
sg11
I400
ssg14
(dp28
g5
I480
sg6
I102
sg7
I0
sg8
I0
sg9
I2
sg10
I0
sg11
I480
ssg16
(dp29
g5
I960
sg6
I102
sg7
I0
sg8
I0
sg9
I2
sg10
I0
sg11
I480
sssS'Danijel.csv'
p30
(dp31
g3
(dp32
g5
I1255
sg6
I45
sg7
I0
sg8
I0
sg9
I3
sg10
I0
sg11
I780
ssg12
(dp33
g5
I724
sg6
I44
sg7
I0
sg8
I0
sg9
I4
sg10
I0
sg11
I510
ssg14
(dp34
g5
I720
sg6
I45
sg7
I0
sg8
I0
sg9
I3
sg10
I0
sg11
I720
ssg16
(dp35
g5
I1580
sg6
I45
sg7
I0
sg8
I0
sg9
I3
sg10
I0
sg11
I790
sss.(dp0
S'K_all3.csv'
p1
(dp2
S'machine'
p3
(dp4
S'count'
p5
I438
sS'truepos'
p6
I37
sS'falseneg'
p7
I0
sS'correction'
p8
I0
sS'unknownyes'
p9
I8
sS'falsepos'
p10
I0
sS'unique'
p11
I320
ssS'knee'
p12
(dp13
g5
I905
sg6
I43
sg7
I0
sg8
I0
sg9
I2
sg10
I0
sg11
I740
ssS'none'
p14
(dp15
g5
I380
sg6
I38
sg7
I0
sg8
I0
sg9
I7
sg10
I0
sg11
I380
ssS'three'
p16
(dp17
g5
I720
sg6
I38
sg7
I0
sg8
I0
sg9
I7
sg10
I0
sg11
I360
sssS'Wahono.csv'
p18
(dp19
g3
(dp20
g5
I1685
sg6
I59
sg7
I0
sg8
I0
sg9
I3
sg10
I0
sg11
I1120
ssg12
(dp21
g5
I24
sg6
I6
sg7
I0
sg8
I0
sg9
I56
sg10
I0
sg11
I20
ssg14
(dp22
g5
I1130
sg6
I59
sg7
I0
sg8
I0
sg9
I3
sg10
I0
sg11
I1130
ssg16
(dp23
g5
I2260
sg6
I59
sg7
I0
sg8
I0
sg9
I3
sg10
I0
sg11
I1130
sssS'Hall.csv'
p24
(dp25
g3
(dp26
g5
I667
sg6
I102
sg7
I0
sg8
I0
sg9
I2
sg10
I0
sg11
I490
ssg12
(dp27
g5
I551
sg6
I101
sg7
I0
sg8
I0
sg9
I3
sg10
I0
sg11
I410
ssg14
(dp28
g5
I480
sg6
I102
sg7
I0
sg8
I0
sg9
I2
sg10
I0
sg11
I480
ssg16
(dp29
g5
I960
sg6
I102
sg7
I0
sg8
I0
sg9
I2
sg10
I0
sg11
I480
sssS'Danijel.csv'
p30
(dp31
g3
(dp32
g5
I1288
sg6
I45
sg7
I0
sg8
I0
sg9
I3
sg10
I0
sg11
I830
ssg12
(dp33
g5
I800
sg6
I44
sg7
I0
sg8
I0
sg9
I4
sg10
I0
sg11
I580
ssg14
(dp34
g5
I820
sg6
I46
sg7
I0
sg8
I0
sg9
I2
sg10
I0
sg11
I820
ssg16
(dp35
g5
I1560
sg6
I45
sg7
I0
sg8
I0
sg9
I3
sg10
I0
sg11
I780
sss.(dp0
S'K_all3.csv'
p1
(dp2
S'machine'
p3
(dp4
S'count'
p5
I594
sS'truepos'
p6
I37
sS'falseneg'
p7
I0
sS'correction'
p8
I0
sS'unknownyes'
p9
I8
sS'falsepos'
p10
I0
sS'unique'
p11
I370
ssS'knee'
p12
(dp13
g5
I943
sg6
I43
sg7
I0
sg8
I0
sg9
I2
sg10
I0
sg11
I760
ssS'none'
p14
(dp15
g5
I350
sg6
I38
sg7
I0
sg8
I0
sg9
I7
sg10
I0
sg11
I350
ssS'three'
p16
(dp17
g5
I740
sg6
I39
sg7
I0
sg8
I0
sg9
I6
sg10
I0
sg11
I370
sssS'Wahono.csv'
p18
(dp19
g3
(dp20
g5
I1716
sg6
I59
sg7
I0
sg8
I0
sg9
I3
sg10
I0
sg11
I1190
ssg12
(dp21
g5
I24
sg6
I6
sg7
I0
sg8
I0
sg9
I56
sg10
I0
sg11
I20
ssg14
(dp22
g5
I1100
sg6
I59
sg7
I0
sg8
I0
sg9
I3
sg10
I0
sg11
I1100
ssg16
(dp23
g5
I2400
sg6
I59
sg7
I0
sg8
I0
sg9
I3
sg10
I0
sg11
I1200
sssS'Hall.csv'
p24
(dp25
g3
(dp26
g5
I651
sg6
I102
sg7
I0
sg8
I0
sg9
I2
sg10
I0
sg11
I480
ssg12
(dp27
g5
I512
sg6
I100
sg7
I0
sg8
I0
sg9
I4
sg10
I0
sg11
I380
ssg14
(dp28
g5
I510
sg6
I102
sg7
I0
sg8
I0
sg9
I2
sg10
I0
sg11
I510
ssg16
(dp29
g5
I980
sg6
I102
sg7
I0
sg8
I0
sg9
I2
sg10
I0
sg11
I490
sssS'Danijel.csv'
p30
(dp31
g3
(dp32
g5
I1262
sg6
I45
sg7
I0
sg8
I0
sg9
I3
sg10
I0
sg11
I790
ssg12
(dp33
g5
I665
sg6
I43
sg7
I0
sg8
I0
sg9
I5
sg10
I0
sg11
I450
ssg14
(dp34
g5
I740
sg6
I45
sg7
I0
sg8
I0
sg9
I3
sg10
I0
sg11
I740
ssg16
(dp35
g5
I1420
sg6
I45
sg7
I0
sg8
I0
sg9
I3
sg10
I0
sg11
I710
sss.(dp0
S'K_all3.csv'
p1
(dp2
S'machine'
p3
(dp4
S'count'
p5
I654
sS'truepos'
p6
I38
sS'falseneg'
p7
I0
sS'correction'
p8
I0
sS'unknownyes'
p9
I7
sS'falsepos'
p10
I0
sS'unique'
p11
I420
ssS'knee'
p12
(dp13
g5
I955
sg6
I43
sg7
I0
sg8
I0
sg9
I2
sg10
I0
sg11
I780
ssS'none'
p14
(dp15
g5
I390
sg6
I38
sg7
I0
sg8
I0
sg9
I7
sg10
I0
sg11
I390
ssS'three'
p16
(dp17
g5
I720
sg6
I38
sg7
I0
sg8
I0
sg9
I7
sg10
I0
sg11
I360
sssS'Wahono.csv'
p18
(dp19
g3
(dp20
g5
I1638
sg6
I59
sg7
I0
sg8
I0
sg9
I3
sg10
I0
sg11
I1110
ssg12
(dp21
g5
I24
sg6
I6
sg7
I0
sg8
I0
sg9
I56
sg10
I0
sg11
I20
ssg14
(dp22
g5
I1190
sg6
I59
sg7
I0
sg8
I0
sg9
I3
sg10
I0
sg11
I1190
ssg16
(dp23
g5
I2380
sg6
I59
sg7
I0
sg8
I0
sg9
I3
sg10
I0
sg11
I1190
sssS'Hall.csv'
p24
(dp25
g3
(dp26
g5
I616
sg6
I102
sg7
I0
sg8
I0
sg9
I2
sg10
I0
sg11
I460
ssg12
(dp27
g5
I626
sg6
I102
sg7
I0
sg8
I0
sg9
I2
sg10
I0
sg11
I470
ssg14
(dp28
g5
I460
sg6
I102
sg7
I0
sg8
I0
sg9
I2
sg10
I0
sg11
I460
ssg16
(dp29
g5
I1080
sg6
I102
sg7
I0
sg8
I0
sg9
I2
sg10
I0
sg11
I540
sssS'Danijel.csv'
p30
(dp31
g3
(dp32
g5
I1219
sg6
I45
sg7
I0
sg8
I0
sg9
I3
sg10
I0
sg11
I770
ssg12
(dp33
g5
I806
sg6
I44
sg7
I0
sg8
I0
sg9
I4
sg10
I0
sg11
I620
ssg14
(dp34
g5
I740
sg6
I45
sg7
I0
sg8
I0
sg9
I3
sg10
I0
sg11
I740
ssg16
(dp35
g5
I1560
sg6
I45
sg7
I0
sg8
I0
sg9
I3
sg10
I0
sg11
I780
sss.(dp0
S'K_all3.csv'
p1
(dp2
S'machine'
p3
(dp4
S'count'
p5
I632
sS'truepos'
p6
I40
sS'falseneg'
p7
I0
sS'correction'
p8
I0
sS'unknownyes'
p9
I5
sS'falsepos'
p10
I0
sS'unique'
p11
I400
ssS'knee'
p12
(dp13
g5
I731
sg6
I41
sg7
I0
sg8
I0
sg9
I4
sg10
I0
sg11
I580
ssS'none'
p14
(dp15
g5
I370
sg6
I39
sg7
I0
sg8
I0
sg9
I6
sg10
I0
sg11
I370
ssS'three'
p16
(dp17
g5
I720
sg6
I38
sg7
I0
sg8
I0
sg9
I7
sg10
I0
sg11
I360
sssS'Wahono.csv'
p18
(dp19
g3
(dp20
g5
I1689
sg6
I59
sg7
I0
sg8
I0
sg9
I3
sg10
I0
sg11
I1140
ssg12
(dp21
g5
I24
sg6
I6
sg7
I0
sg8
I0
sg9
I56
sg10
I0
sg11
I20
ssg14
(dp22
g5
I1060
sg6
I59
sg7
I0
sg8
I0
sg9
I3
sg10
I0
sg11
I1060
ssg16
(dp23
g5
I2200
sg6
I59
sg7
I0
sg8
I0
sg9
I3
sg10
I0
sg11
I1100
sssS'Hall.csv'
p24
(dp25
g3
(dp26
g5
I658
sg6
I102
sg7
I0
sg8
I0
sg9
I2
sg10
I0
sg11
I500
ssg12
(dp27
g5
I634
sg6
I102
sg7
I0
sg8
I0
sg9
I2
sg10
I0
sg11
I470
ssg14
(dp28
g5
I440
sg6
I101
sg7
I0
sg8
I0
sg9
I3
sg10
I0
sg11
I440
ssg16
(dp29
g5
I880
sg6
I101
sg7
I0
sg8
I0
sg9
I3
sg10
I0
sg11
I440
sssS'Danijel.csv'
p30
(dp31
g3
(dp32
g5
I1264
sg6
I45
sg7
I0
sg8
I0
sg9
I3
sg10
I0
sg11
I740
ssg12
(dp33
g5
I642
sg6
I44
sg7
I0
sg8
I0
sg9
I4
sg10
I0
sg11
I520
ssg14
(dp34
g5
I770
sg6
I45
sg7
I0
sg8
I0
sg9
I3
sg10
I0
sg11
I770
ssg16
(dp35
g5
I1600
sg6
I45
sg7
I0
sg8
I0
sg9
I3
sg10
I0
sg11
I800
sss.(dp0
S'K_all3.csv'
p1
(dp2
S'machine'
p3
(dp4
S'count'
p5
I620
sS'truepos'
p6
I38
sS'falseneg'
p7
I0
sS'correction'
p8
I0
sS'unknownyes'
p9
I7
sS'falsepos'
p10
I0
sS'unique'
p11
I410
ssS'knee'
p12
(dp13
g5
I1035
sg6
I43
sg7
I0
sg8
I0
sg9
I2
sg10
I0
sg11
I720
ssS'none'
p14
(dp15
g5
I380
sg6
I38
sg7
I0
sg8
I0
sg9
I7
sg10
I0
sg11
I380
ssS'three'
p16
(dp17
g5
I760
sg6
I38
sg7
I0
sg8
I0
sg9
I7
sg10
I0
sg11
I380
sssS'Wahono.csv'
p18
(dp19
g3
(dp20
g5
I1603
sg6
I59
sg7
I0
sg8
I0
sg9
I3
sg10
I0
sg11
I1070
ssg12
(dp21
g5
I35
sg6
I7
sg7
I0
sg8
I0
sg9
I55
sg10
I0
sg11
I30
ssg14
(dp22
g5
I1180
sg6
I59
sg7
I0
sg8
I0
sg9
I3
sg10
I0
sg11
I1180
ssg16
(dp23
g5
I2360
sg6
I60
sg7
I0
sg8
I0
sg9
I2
sg10
I0
sg11
I1180
sssS'Hall.csv'
p24
(dp25
g3
(dp26
g5
I663
sg6
I102
sg7
I0
sg8
I0
sg9
I2
sg10
I0
sg11
I490
ssg12
(dp27
g5
I657
sg6
I101
sg7
I0
sg8
I0
sg9
I3
sg10
I0
sg11
I470
ssg14
(dp28
g5
I480
sg6
I101
sg7
I0
sg8
I0
sg9
I3
sg10
I0
sg11
I480
ssg16
(dp29
g5
I1040
sg6
I102
sg7
I0
sg8
I0
sg9
I2
sg10
I0
sg11
I520
sssS'Danijel.csv'
p30
(dp31
g3
(dp32
g5
I1131
sg6
I45
sg7
I0
sg8
I0
sg9
I3
sg10
I0
sg11
I670
ssg12
(dp33
g5
I642
sg6
I42
sg7
I0
sg8
I0
sg9
I6
sg10
I0
sg11
I420
ssg14
(dp34
g5
I770
sg6
I45
sg7
I0
sg8
I0
sg9
I3
sg10
I0
sg11
I770
ssg16
(dp35
g5
I1480
sg6
I45
sg7
I0
sg8
I0
sg9
I3
sg10
I0
sg11
I740
sss.(dp0
S'K_all3.csv'
p1
(dp2
S'machine'
p3
(dp4
S'count'
p5
I624
sS'truepos'
p6
I39
sS'falseneg'
p7
I0
sS'correction'
p8
I0
sS'unknownyes'
p9
I6
sS'falsepos'
p10
I0
sS'unique'
p11
I390
ssS'knee'
p12
(dp13
g5
I955
sg6
I43
sg7
I0
sg8
I0
sg9
I2
sg10
I0
sg11
I780
ssS'none'
p14
(dp15
g5
I400
sg6
I38
sg7
I0
sg8
I0
sg9
I7
sg10
I0
sg11
I400
ssS'three'
p16
(dp17
g5
I820
sg6
I39
sg7
I0
sg8
I0
sg9
I6
sg10
I0
sg11
I410
sssS'Wahono.csv'
p18
(dp19
g3
(dp20
g5
I1728
sg6
I59
sg7
I0
sg8
I0
sg9
I3
sg10
I0
sg11
I1180
ssg12
(dp21
g5
I24
sg6
I6
sg7
I0
sg8
I0
sg9
I56
sg10
I0
sg11
I20
ssg14
(dp22
g5
I1200
sg6
I59
sg7
I0
sg8
I0
sg9
I3
sg10
I0
sg11
I1200
ssg16
(dp23
g5
I2340
sg6
I59
sg7
I0
sg8
I0
sg9
I3
sg10
I0
sg11
I1170
sssS'Hall.csv'
p24
(dp25
g3
(dp26
g5
I667
sg6
I102
sg7
I0
sg8
I0
sg9
I2
sg10
I0
sg11
I500
ssg12
(dp27
g5
I611
sg6
I101
sg7
I0
sg8
I0
sg9
I3
sg10
I0
sg11
I440
ssg14
(dp28
g5
I510
sg6
I102
sg7
I0
sg8
I0
sg9
I2
sg10
I0
sg11
I510
ssg16
(dp29
g5
I960
sg6
I102
sg7
I0
sg8
I0
sg9
I2
sg10
I0
sg11
I480
sssS'Danijel.csv'
p30
(dp31
g3
(dp32
g5
I1150
sg6
I45
sg7
I0
sg8
I0
sg9
I3
sg10
I0
sg11
I700
ssg12
(dp33
g5
I562
sg6
I40
sg7
I0
sg8
I0
sg9
I8
sg10
I0
sg11
I350
ssg14
(dp34
g5
I790
sg6
I45
sg7
I0
sg8
I0
sg9
I3
sg10
I0
sg11
I790
ssg16
(dp35
g5
I1540
sg6
I45
sg7
I0
sg8
I0
sg9
I3
sg10
I0
sg11
I770
sss.(dp0
S'K_all3.csv'
p1
(dp2
S'machine'
p3
(dp4
S'count'
p5
I613
sS'truepos'
p6
I39
sS'falseneg'
p7
I0
sS'correction'
p8
I0
sS'unknownyes'
p9
I6
sS'falsepos'
p10
I0
sS'unique'
p11
I400
ssS'knee'
p12
(dp13
g5
I1077
sg6
I43
sg7
I0
sg8
I0
sg9
I2
sg10
I0
sg11
I760
ssS'none'
p14
(dp15
g5
I400
sg6
I38
sg7
I0
sg8
I0
sg9
I7
sg10
I0
sg11
I400
ssS'three'
p16
(dp17
g5
I760
sg6
I39
sg7
I0
sg8
I0
sg9
I6
sg10
I0
sg11
I380
sssS'Wahono.csv'
p18
(dp19
g3
(dp20
g5
I1700
sg6
I60
sg7
I0
sg8
I0
sg9
I2
sg10
I0
sg11
I1160
ssg12
(dp21
g5
I960
sg6
I58
sg7
I0
sg8
I0
sg9
I4
sg10
I0
sg11
I690
ssg14
(dp22
g5
I1160
sg6
I59
sg7
I0
sg8
I0
sg9
I3
sg10
I0
sg11
I1160
ssg16
(dp23
g5
I2400
sg6
I60
sg7
I0
sg8
I0
sg9
I2
sg10
I0
sg11
I1200
sssS'Hall.csv'
p24
(dp25
g3
(dp26
g5
I625
sg6
I102
sg7
I0
sg8
I0
sg9
I2
sg10
I0
sg11
I460
ssg12
(dp27
g5
I503
sg6
I99
sg7
I0
sg8
I0
sg9
I5
sg10
I0
sg11
I350
ssg14
(dp28
g5
I480
sg6
I102
sg7
I0
sg8
I0
sg9
I2
sg10
I0
sg11
I480
ssg16
(dp29
g5
I1000
sg6
I102
sg7
I0
sg8
I0
sg9
I2
sg10
I0
sg11
I500
sssS'Danijel.csv'
p30
(dp31
g3
(dp32
g5
I1146
sg6
I45
sg7
I0
sg8
I0
sg9
I3
sg10
I0
sg11
I710
ssg12
(dp33
g5
I460
sg6
I38
sg7
I0
sg8
I0
sg9
I10
sg10
I0
sg11
I320
ssg14
(dp34
g5
I790
sg6
I45
sg7
I0
sg8
I0
sg9
I3
sg10
I0
sg11
I790
ssg16
(dp35
g5
I1560
sg6
I45
sg7
I0
sg8
I0
sg9
I3
sg10
I0
sg11
I780
sss.(dp0
S'K_all3.csv'
p1
(dp2
S'machine'
p3
(dp4
S'count'
p5
I616
sS'truepos'
p6
I39
sS'falseneg'
p7
I0
sS'correction'
p8
I0
sS'unknownyes'
p9
I6
sS'falsepos'
p10
I0
sS'unique'
p11
I400
ssS'knee'
p12
(dp13
g5
I977
sg6
I43
sg7
I0
sg8
I0
sg9
I2
sg10
I0
sg11
I750
ssS'none'
p14
(dp15
g5
I370
sg6
I39
sg7
I0
sg8
I0
sg9
I6
sg10
I0
sg11
I370
ssS'three'
p16
(dp17
g5
I780
sg6
I40
sg7
I0
sg8
I0
sg9
I5
sg10
I0
sg11
I390
sssS'Wahono.csv'
p18
(dp19
g3
(dp20
g5
I1734
sg6
I59
sg7
I0
sg8
I0
sg9
I3
sg10
I0
sg11
I1160
ssg12
(dp21
g5
I24
sg6
I6
sg7
I0
sg8
I0
sg9
I56
sg10
I0
sg11
I20
ssg14
(dp22
g5
I1210
sg6
I59
sg7
I0
sg8
I0
sg9
I3
sg10
I0
sg11
I1210
ssg16
(dp23
g5
I2220
sg6
I59
sg7
I0
sg8
I0
sg9
I3
sg10
I0
sg11
I1110
sssS'Hall.csv'
p24
(dp25
g3
(dp26
g5
I581
sg6
I101
sg7
I0
sg8
I0
sg9
I3
sg10
I0
sg11
I420
ssg12
(dp27
g5
I559
sg6
I101
sg7
I0
sg8
I0
sg9
I3
sg10
I0
sg11
I400
ssg14
(dp28
g5
I410
sg6
I99
sg7
I0
sg8
I0
sg9
I5
sg10
I0
sg11
I410
ssg16
(dp29
g5
I1060
sg6
I102
sg7
I0
sg8
I0
sg9
I2
sg10
I0
sg11
I530
sssS'Danijel.csv'
p30
(dp31
g3
(dp32
g5
I1189
sg6
I45
sg7
I0
sg8
I0
sg9
I3
sg10
I0
sg11
I710
ssg12
(dp33
g5
I764
sg6
I44
sg7
I0
sg8
I0
sg9
I4
sg10
I0
sg11
I530
ssg14
(dp34
g5
I790
sg6
I45
sg7
I0
sg8
I0
sg9
I3
sg10
I0
sg11
I790
ssg16
(dp35
g5
I1460
sg6
I45
sg7
I0
sg8
I0
sg9
I3
sg10
I0
sg11
I730
sss.(dp0
S'K_all3.csv'
p1
(dp2
S'machine'
p3
(dp4
S'count'
p5
I582
sS'truepos'
p6
I39
sS'falseneg'
p7
I0
sS'correction'
p8
I0
sS'unknownyes'
p9
I6
sS'falsepos'
p10
I0
sS'unique'
p11
I390
ssS'knee'
p12
(dp13
g5
I189
sg6
I21
sg7
I0
sg8
I0
sg9
I24
sg10
I0
sg11
I120
ssS'none'
p14
(dp15
g5
I380
sg6
I38
sg7
I0
sg8
I0
sg9
I7
sg10
I0
sg11
I380
ssS'three'
p16
(dp17
g5
I760
sg6
I38
sg7
I0
sg8
I0
sg9
I7
sg10
I0
sg11
I380
sssS'Wahono.csv'
p18
(dp19
g3
(dp20
g5
I1699
sg6
I59
sg7
I0
sg8
I0
sg9
I3
sg10
I0
sg11
I1140
ssg12
(dp21
g5
I24
sg6
I6
sg7
I0
sg8
I0
sg9
I56
sg10
I0
sg11
I20
ssg14
(dp22
g5
I1150
sg6
I59
sg7
I0
sg8
I0
sg9
I3
sg10
I0
sg11
I1150
ssg16
(dp23
g5
I2380
sg6
I59
sg7
I0
sg8
I0
sg9
I3
sg10
I0
sg11
I1190
sssS'Hall.csv'
p24
(dp25
g3
(dp26
g5
I625
sg6
I102
sg7
I0
sg8
I0
sg9
I2
sg10
I0
sg11
I460
ssg12
(dp27
g5
I612
sg6
I102
sg7
I0
sg8
I0
sg9
I2
sg10
I0
sg11
I450
ssg14
(dp28
g5
I500
sg6
I102
sg7
I0
sg8
I0
sg9
I2
sg10
I0
sg11
I500
ssg16
(dp29
g5
I960
sg6
I101
sg7
I0
sg8
I0
sg9
I3
sg10
I0
sg11
I480
sssS'Danijel.csv'
p30
(dp31
g3
(dp32
g5
I1261
sg6
I46
sg7
I0
sg8
I0
sg9
I2
sg10
I0
sg11
I800
ssg12
(dp33
g5
I587
sg6
I41
sg7
I0
sg8
I0
sg9
I7
sg10
I0
sg11
I400
ssg14
(dp34
g5
I740
sg6
I45
sg7
I0
sg8
I0
sg9
I3
sg10
I0
sg11
I740
ssg16
(dp35
g5
I1560
sg6
I45
sg7
I0
sg8
I0
sg9
I3
sg10
I0
sg11
I780
sss.(dp0
S'K_all3.csv'
p1
(dp2
S'machine'
p3
(dp4
S'count'
p5
I532
sS'truepos'
p6
I38
sS'falseneg'
p7
I0
sS'correction'
p8
I0
sS'unknownyes'
p9
I7
sS'falsepos'
p10
I0
sS'unique'
p11
I370
ssS'knee'
p12
(dp13
g5
I768
sg6
I42
sg7
I0
sg8
I0
sg9
I3
sg10
I0
sg11
I640
ssS'none'
p14
(dp15
g5
I360
sg6
I38
sg7
I0
sg8
I0
sg9
I7
sg10
I0
sg11
I360
ssS'three'
p16
(dp17
g5
I860
sg6
I38
sg7
I0
sg8
I0
sg9
I7
sg10
I0
sg11
I430
sssS'Wahono.csv'
p18
(dp19
g3
(dp20
g5
I1696
sg6
I59
sg7
I0
sg8
I0
sg9
I3
sg10
I0
sg11
I1140
ssg12
(dp21
g5
I35
sg6
I7
sg7
I0
sg8
I0
sg9
I55
sg10
I0
sg11
I30
ssg14
(dp22
g5
I1130
sg6
I60
sg7
I0
sg8
I0
sg9
I2
sg10
I0
sg11
I1130
ssg16
(dp23
g5
I2380
sg6
I60
sg7
I0
sg8
I0
sg9
I2
sg10
I0
sg11
I1190
sssS'Hall.csv'
p24
(dp25
g3
(dp26
g5
I675
sg6
I102
sg7
I0
sg8
I0
sg9
I2
sg10
I0
sg11
I500
ssg12
(dp27
g5
I587
sg6
I101
sg7
I0
sg8
I0
sg9
I3
sg10
I0
sg11
I440
ssg14
(dp28
g5
I410
sg6
I101
sg7
I0
sg8
I0
sg9
I3
sg10
I0
sg11
I410
ssg16
(dp29
g5
I860
sg6
I102
sg7
I0
sg8
I0
sg9
I2
sg10
I0
sg11
I430
sssS'Danijel.csv'
p30
(dp31
g3
(dp32
g5
I1163
sg6
I45
sg7
I0
sg8
I0
sg9
I3
sg10
I0
sg11
I710
ssg12
(dp33
g5
I838
sg6
I46
sg7
I0
sg8
I0
sg9
I2
sg10
I0
sg11
I660
ssg14
(dp34
g5
I790
sg6
I45
sg7
I0
sg8
I0
sg9
I3
sg10
I0
sg11
I790
ssg16
(dp35
g5
I1520
sg6
I45
sg7
I0
sg8
I0
sg9
I3
sg10
I0
sg11
I760
sss.(dp0
S'K_all3.csv'
p1
(dp2
S'machine'
p3
(dp4
S'count'
p5
I580
sS'truepos'
p6
I35
sS'falseneg'
p7
I0
sS'correction'
p8
I0
sS'unknownyes'
p9
I10
sS'falsepos'
p10
I0
sS'unique'
p11
I370
ssS'knee'
p12
(dp13
g5
I189
sg6
I21
sg7
I0
sg8
I0
sg9
I24
sg10
I0
sg11
I120
ssS'none'
p14
(dp15
g5
I380
sg6
I39
sg7
I0
sg8
I0
sg9
I6
sg10
I0
sg11
I380
ssS'three'
p16
(dp17
g5
I760
sg6
I38
sg7
I0
sg8
I0
sg9
I7
sg10
I0
sg11
I380
sssS'Wahono.csv'
p18
(dp19
g3
(dp20
g5
I1678
sg6
I59
sg7
I0
sg8
I0
sg9
I3
sg10
I0
sg11
I1100
ssg12
(dp21
g5
I660
sg6
I52
sg7
I0
sg8
I0
sg9
I10
sg10
I0
sg11
I540
ssg14
(dp22
g5
I1140
sg6
I59
sg7
I0
sg8
I0
sg9
I3
sg10
I0
sg11
I1140
ssg16
(dp23
g5
I2300
sg6
I59
sg7
I0
sg8
I0
sg9
I3
sg10
I0
sg11
I1150
sssS'Hall.csv'
p24
(dp25
g3
(dp26
g5
I686
sg6
I102
sg7
I0
sg8
I0
sg9
I2
sg10
I0
sg11
I510
ssg12
(dp27
g5
I638
sg6
I102
sg7
I0
sg8
I0
sg9
I2
sg10
I0
sg11
I470
ssg14
(dp28
g5
I510
sg6
I102
sg7
I0
sg8
I0
sg9
I2
sg10
I0
sg11
I510
ssg16
(dp29
g5
I980
sg6
I102
sg7
I0
sg8
I0
sg9
I2
sg10
I0
sg11
I490
sssS'Danijel.csv'
p30
(dp31
g3
(dp32
g5
I1199
sg6
I45
sg7
I0
sg8
I0
sg9
I3
sg10
I0
sg11
I740
ssg12
(dp33
g5
I750
sg6
I44
sg7
I0
sg8
I0
sg9
I4
sg10
I0
sg11
I510
ssg14
(dp34
g5
I820
sg6
I45
sg7
I0
sg8
I0
sg9
I3
sg10
I0
sg11
I820
ssg16
(dp35
g5
I1460
sg6
I46
sg7
I0
sg8
I0
sg9
I2
sg10
I0
sg11
I730
sss.(dp0
S'K_all3.csv'
p1
(dp2
S'machine'
p3
(dp4
S'count'
p5
I540
sS'truepos'
p6
I38
sS'falseneg'
p7
I0
sS'correction'
p8
I0
sS'unknownyes'
p9
I7
sS'falsepos'
p10
I0
sS'unique'
p11
I350
ssS'knee'
p12
(dp13
g5
I170
sg6
I20
sg7
I0
sg8
I0
sg9
I25
sg10
I0
sg11
I110
ssS'none'
p14
(dp15
g5
I380
sg6
I39
sg7
I0
sg8
I0
sg9
I6
sg10
I0
sg11
I380
ssS'three'
p16
(dp17
g5
I740
sg6
I38
sg7
I0
sg8
I0
sg9
I7
sg10
I0
sg11
I370
sssS'Wahono.csv'
p18
(dp19
g3
(dp20
g5
I1753
sg6
I59
sg7
I0
sg8
I0
sg9
I3
sg10
I0
sg11
I1190
ssg12
(dp21
g5
I1046
sg6
I58
sg7
I0
sg8
I0
sg9
I4
sg10
I0
sg11
I840
ssg14
(dp22
g5
I1190
sg6
I59
sg7
I0
sg8
I0
sg9
I3
sg10
I0
sg11
I1190
ssg16
(dp23
g5
I2120
sg6
I59
sg7
I0
sg8
I0
sg9
I3
sg10
I0
sg11
I1060
sssS'Hall.csv'
p24
(dp25
g3
(dp26
g5
I630
sg6
I102
sg7
I0
sg8
I0
sg9
I2
sg10
I0
sg11
I450
ssg12
(dp27
g5
I600
sg6
I102
sg7
I0
sg8
I0
sg9
I2
sg10
I0
sg11
I460
ssg14
(dp28
g5
I480
sg6
I102
sg7
I0
sg8
I0
sg9
I2
sg10
I0
sg11
I480
ssg16
(dp29
g5
I980
sg6
I102
sg7
I0
sg8
I0
sg9
I2
sg10
I0
sg11
I490
sssS'Danijel.csv'
p30
(dp31
g3
(dp32
g5
I1209
sg6
I45
sg7
I0
sg8
I0
sg9
I3
sg10
I0
sg11
I730
ssg12
(dp33
g5
I744
sg6
I44
sg7
I0
sg8
I0
sg9
I4
sg10
I0
sg11
I520
ssg14
(dp34
g5
I800
sg6
I45
sg7
I0
sg8
I0
sg9
I3
sg10
I0
sg11
I800
ssg16
(dp35
g5
I1540
sg6
I45
sg7
I0
sg8
I0
sg9
I3
sg10
I0
sg11
I770
sss.(dp0
S'K_all3.csv'
p1
(dp2
S'machine'
p3
(dp4
S'count'
p5
I678
sS'truepos'
p6
I39
sS'falseneg'
p7
I0
sS'correction'
p8
I0
sS'unknownyes'
p9
I6
sS'falsepos'
p10
I0
sS'unique'
p11
I430
ssS'knee'
p12
(dp13
g5
I903
sg6
I43
sg7
I0
sg8
I0
sg9
I2
sg10
I0
sg11
I730
ssS'none'
p14
(dp15
g5
I390
sg6
I39
sg7
I0
sg8
I0
sg9
I6
sg10
I0
sg11
I390
ssS'three'
p16
(dp17
g5
I820
sg6
I38
sg7
I0
sg8
I0
sg9
I7
sg10
I0
sg11
I410
sssS'Wahono.csv'
p18
(dp19
g3
(dp20
g5
I1669
sg6
I60
sg7
I0
sg8
I0
sg9
I2
sg10
I0
sg11
I1130
ssg12
(dp21
g5
I24
sg6
I6
sg7
I0
sg8
I0
sg9
I56
sg10
I0
sg11
I20
ssg14
(dp22
g5
I1240
sg6
I59
sg7
I0
sg8
I0
sg9
I3
sg10
I0
sg11
I1240
ssg16
(dp23
g5
I2300
sg6
I59
sg7
I0
sg8
I0
sg9
I3
sg10
I0
sg11
I1150
sssS'Hall.csv'
p24
(dp25
g3
(dp26
g5
I694
sg6
I102
sg7
I0
sg8
I0
sg9
I2
sg10
I0
sg11
I520
ssg12
(dp27
g5
I696
sg6
I102
sg7
I0
sg8
I0
sg9
I2
sg10
I0
sg11
I510
ssg14
(dp28
g5
I520
sg6
I102
sg7
I0
sg8
I0
sg9
I2
sg10
I0
sg11
I520
ssg16
(dp29
g5
I920
sg6
I102
sg7
I0
sg8
I0
sg9
I2
sg10
I0
sg11
I460
sssS'Danijel.csv'
p30
(dp31
g3
(dp32
g5
I1187
sg6
I45
sg7
I0
sg8
I0
sg9
I3
sg10
I0
sg11
I720
ssg12
(dp33
g5
I537
sg6
I43
sg7
I0
sg8
I0
sg9
I5
sg10
I0
sg11
I420
ssg14
(dp34
g5
I720
sg6
I45
sg7
I0
sg8
I0
sg9
I3
sg10
I0
sg11
I720
ssg16
(dp35
g5
I1480
sg6
I45
sg7
I0
sg8
I0
sg9
I3
sg10
I0
sg11
I740
sss.(dp0
S'K_all3.csv'
p1
(dp2
S'machine'
p3
(dp4
S'count'
p5
I484
sS'truepos'
p6
I34
sS'falseneg'
p7
I0
sS'correction'
p8
I0
sS'unknownyes'
p9
I11
sS'falsepos'
p10
I0
sS'unique'
p11
I320
ssS'knee'
p12
(dp13
g5
I857
sg6
I43
sg7
I0
sg8
I0
sg9
I2
sg10
I0
sg11
I710
ssS'none'
p14
(dp15
g5
I390
sg6
I40
sg7
I0
sg8
I0
sg9
I5
sg10
I0
sg11
I390
ssS'three'
p16
(dp17
g5
I720
sg6
I39
sg7
I0
sg8
I0
sg9
I6
sg10
I0
sg11
I360
sssS'Wahono.csv'
p18
(dp19
g3
(dp20
g5
I1633
sg6
I59
sg7
I0
sg8
I0
sg9
I3
sg10
I0
sg11
I1080
ssg12
(dp21
g5
I792
sg6
I52
sg7
I0
sg8
I0
sg9
I10
sg10
I0
sg11
I560
ssg14
(dp22
g5
I1110
sg6
I59
sg7
I0
sg8
I0
sg9
I3
sg10
I0
sg11
I1110
ssg16
(dp23
g5
I2380
sg6
I59
sg7
I0
sg8
I0
sg9
I3
sg10
I0
sg11
I1190
sssS'Hall.csv'
p24
(dp25
g3
(dp26
g5
I666
sg6
I102
sg7
I0
sg8
I0
sg9
I2
sg10
I0
sg11
I500
ssg12
(dp27
g5
I630
sg6
I102
sg7
I0
sg8
I0
sg9
I2
sg10
I0
sg11
I450
ssg14
(dp28
g5
I470
sg6
I102
sg7
I0
sg8
I0
sg9
I2
sg10
I0
sg11
I470
ssg16
(dp29
g5
I920
sg6
I102
sg7
I0
sg8
I0
sg9
I2
sg10
I0
sg11
I460
sssS'Danijel.csv'
p30
(dp31
g3
(dp32
g5
I1208
sg6
I45
sg7
I0
sg8
I0
sg9
I3
sg10
I0
sg11
I740
ssg12
(dp33
g5
I706
sg6
I44
sg7
I0
sg8
I0
sg9
I4
sg10
I0
sg11
I490
ssg14
(dp34
g5
I760
sg6
I45
sg7
I0
sg8
I0
sg9
I3
sg10
I0
sg11
I760
ssg16
(dp35
g5
I1560
sg6
I45
sg7
I0
sg8
I0
sg9
I3
sg10
I0
sg11
I780
sss.(dp0
S'K_all3.csv'
p1
(dp2
S'machine'
p3
(dp4
S'count'
p5
I625
sS'truepos'
p6
I39
sS'falseneg'
p7
I0
sS'correction'
p8
I0
sS'unknownyes'
p9
I6
sS'falsepos'
p10
I0
sS'unique'
p11
I390
ssS'knee'
p12
(dp13
g5
I943
sg6
I43
sg7
I0
sg8
I0
sg9
I2
sg10
I0
sg11
I760
ssS'none'
p14
(dp15
g5
I440
sg6
I40
sg7
I0
sg8
I0
sg9
I5
sg10
I0
sg11
I440
ssS'three'
p16
(dp17
g5
I800
sg6
I40
sg7
I0
sg8
I0
sg9
I5
sg10
I0
sg11
I400
sssS'Wahono.csv'
p18
(dp19
g3
(dp20
g5
I1781
sg6
I59
sg7
I0
sg8
I0
sg9
I3
sg10
I0
sg11
I1180
ssg12
(dp21
g5
I798
sg6
I52
sg7
I0
sg8
I0
sg9
I10
sg10
I0
sg11
I600
ssg14
(dp22
g5
I1160
sg6
I59
sg7
I0
sg8
I0
sg9
I3
sg10
I0
sg11
I1160
ssg16
(dp23
g5
I2320
sg6
I60
sg7
I0
sg8
I0
sg9
I2
sg10
I0
sg11
I1160
sssS'Hall.csv'
p24
(dp25
g3
(dp26
g5
I696
sg6
I102
sg7
I0
sg8
I0
sg9
I2
sg10
I0
sg11
I510
ssg12
(dp27
g5
I551
sg6
I101
sg7
I0
sg8
I0
sg9
I3
sg10
I0
sg11
I380
ssg14
(dp28
g5
I470
sg6
I102
sg7
I0
sg8
I0
sg9
I2
sg10
I0
sg11
I470
ssg16
(dp29
g5
I1120
sg6
I102
sg7
I0
sg8
I0
sg9
I2
sg10
I0
sg11
I560
sssS'Danijel.csv'
p30
(dp31
g3
(dp32
g5
I1126
sg6
I45
sg7
I0
sg8
I0
sg9
I3
sg10
I0
sg11
I700
ssg12
(dp33
g5
I242
sg6
I28
sg7
I0
sg8
I0
sg9
I20
sg10
I0
sg11
I150
ssg14
(dp34
g5
I770
sg6
I45
sg7
I0
sg8
I0
sg9
I3
sg10
I0
sg11
I770
ssg16
(dp35
g5
I1460
sg6
I45
sg7
I0
sg8
I0
sg9
I3
sg10
I0
sg11
I730
sss.(dp0
S'K_all3.csv'
p1
(dp2
S'machine'
p3
(dp4
S'count'
p5
I611
sS'truepos'
p6
I39
sS'falseneg'
p7
I0
sS'correction'
p8
I0
sS'unknownyes'
p9
I6
sS'falsepos'
p10
I0
sS'unique'
p11
I400
ssS'knee'
p12
(dp13
g5
I857
sg6
I43
sg7
I0
sg8
I0
sg9
I2
sg10
I0
sg11
I710
ssS'none'
p14
(dp15
g5
I400
sg6
I39
sg7
I0
sg8
I0
sg9
I6
sg10
I0
sg11
I400
ssS'three'
p16
(dp17
g5
I780
sg6
I38
sg7
I0
sg8
I0
sg9
I7
sg10
I0
sg11
I390
sssS'Wahono.csv'
p18
(dp19
g3
(dp20
g5
I1707
sg6
I59
sg7
I0
sg8
I0
sg9
I3
sg10
I0
sg11
I1150
ssg12
(dp21
g5
I1247
sg6
I59
sg7
I0
sg8
I0
sg9
I3
sg10
I0
sg11
I890
ssg14
(dp22
g5
I1190
sg6
I60
sg7
I0
sg8
I0
sg9
I2
sg10
I0
sg11
I1190
ssg16
(dp23
g5
I2260
sg6
I59
sg7
I0
sg8
I0
sg9
I3
sg10
I0
sg11
I1130
sssS'Hall.csv'
p24
(dp25
g3
(dp26
g5
I685
sg6
I102
sg7
I0
sg8
I0
sg9
I2
sg10
I0
sg11
I510
ssg12
(dp27
g5
I546
sg6
I100
sg7
I0
sg8
I0
sg9
I4
sg10
I0
sg11
I380
ssg14
(dp28
g5
I480
sg6
I102
sg7
I0
sg8
I0
sg9
I2
sg10
I0
sg11
I480
ssg16
(dp29
g5
I1020
sg6
I102
sg7
I0
sg8
I0
sg9
I2
sg10
I0
sg11
I510
sssS'Danijel.csv'
p30
(dp31
g3
(dp32
g5
I1270
sg6
I45
sg7
I0
sg8
I0
sg9
I3
sg10
I0
sg11
I760
ssg12
(dp33
g5
I624
sg6
I42
sg7
I0
sg8
I0
sg9
I6
sg10
I0
sg11
I470
ssg14
(dp34
g5
I700
sg6
I45
sg7
I0
sg8
I0
sg9
I3
sg10
I0
sg11
I700
ssg16
(dp35
g5
I1480
sg6
I46
sg7
I0
sg8
I0
sg9
I2
sg10
I0
sg11
I740
sss.(dp0
S'K_all3.csv'
p1
(dp2
S'machine'
p3
(dp4
S'count'
p5
I581
sS'truepos'
p6
I39
sS'falseneg'
p7
I0
sS'correction'
p8
I0
sS'unknownyes'
p9
I6
sS'falsepos'
p10
I0
sS'unique'
p11
I390
ssS'knee'
p12
(dp13
g5
I902
sg6
I42
sg7
I0
sg8
I0
sg9
I3
sg10
I0
sg11
I720
ssS'none'
p14
(dp15
g5
I410
sg6
I39
sg7
I0
sg8
I0
sg9
I6
sg10
I0
sg11
I410
ssS'three'
p16
(dp17
g5
I800
sg6
I39
sg7
I0
sg8
I0
sg9
I6
sg10
I0
sg11
I400
sssS'Wahono.csv'
p18
(dp19
g3
(dp20
g5
I1635
sg6
I60
sg7
I0
sg8
I0
sg9
I2
sg10
I0
sg11
I1090
ssg12
(dp21
g5
I24
sg6
I6
sg7
I0
sg8
I0
sg9
I56
sg10
I0
sg11
I20
ssg14
(dp22
g5
I1100
sg6
I59
sg7
I0
sg8
I0
sg9
I3
sg10
I0
sg11
I1100
ssg16
(dp23
g5
I2240
sg6
I59
sg7
I0
sg8
I0
sg9
I3
sg10
I0
sg11
I1120
sssS'Hall.csv'
p24
(dp25
g3
(dp26
g5
I572
sg6
I101
sg7
I0
sg8
I0
sg9
I3
sg10
I0
sg11
I430
ssg12
(dp27
g5
I501
sg6
I101
sg7
I0
sg8
I0
sg9
I3
sg10
I0
sg11
I350
ssg14
(dp28
g5
I500
sg6
I102
sg7
I0
sg8
I0
sg9
I2
sg10
I0
sg11
I500
ssg16
(dp29
g5
I900
sg6
I102
sg7
I0
sg8
I0
sg9
I2
sg10
I0
sg11
I450
sssS'Danijel.csv'
p30
(dp31
g3
(dp32
g5
I1240
sg6
I46
sg7
I0
sg8
I0
sg9
I2
sg10
I0
sg11
I740
ssg12
(dp33
g5
I348
sg6
I34
sg7
I0
sg8
I0
sg9
I14
sg10
I0
sg11
I220
ssg14
(dp34
g5
I740
sg6
I45
sg7
I0
sg8
I0
sg9
I3
sg10
I0
sg11
I740
ssg16
(dp35
g5
I1440
sg6
I45
sg7
I0
sg8
I0
sg9
I3
sg10
I0
sg11
I720
sss.(dp0
S'K_all3.csv'
p1
(dp2
S'machine'
p3
(dp4
S'count'
p5
I528
sS'truepos'
p6
I38
sS'falseneg'
p7
I0
sS'correction'
p8
I0
sS'unknownyes'
p9
I7
sS'falsepos'
p10
I0
sS'unique'
p11
I370
ssS'knee'
p12
(dp13
g5
I1021
sg6
I43
sg7
I0
sg8
I0
sg9
I2
sg10
I0
sg11
I810
ssS'none'
p14
(dp15
g5
I410
sg6
I38
sg7
I0
sg8
I0
sg9
I7
sg10
I0
sg11
I410
ssS'three'
p16
(dp17
g5
I740
sg6
I39
sg7
I0
sg8
I0
sg9
I6
sg10
I0
sg11
I370
sssS'Wahono.csv'
p18
(dp19
g3
(dp20
g5
I1718
sg6
I59
sg7
I0
sg8
I0
sg9
I3
sg10
I0
sg11
I1190
ssg12
(dp21
g5
I24
sg6
I6
sg7
I0
sg8
I0
sg9
I56
sg10
I0
sg11
I20
ssg14
(dp22
g5
I1050
sg6
I59
sg7
I0
sg8
I0
sg9
I3
sg10
I0
sg11
I1050
ssg16
(dp23
g5
I2260
sg6
I60
sg7
I0
sg8
I0
sg9
I2
sg10
I0
sg11
I1130
sssS'Hall.csv'
p24
(dp25
g3
(dp26
g5
I647
sg6
I101
sg7
I0
sg8
I0
sg9
I3
sg10
I0
sg11
I480
ssg12
(dp27
g5
I22
sg6
I8
sg7
I0
sg8
I0
sg9
I96
sg10
I0
sg11
I20
ssg14
(dp28
g5
I470
sg6
I102
sg7
I0
sg8
I0
sg9
I2
sg10
I0
sg11
I470
ssg16
(dp29
g5
I880
sg6
I101
sg7
I0
sg8
I0
sg9
I3
sg10
I0
sg11
I440
sssS'Danijel.csv'
p30
(dp31
g3
(dp32
g5
I1197
sg6
I45
sg7
I0
sg8
I0
sg9
I3
sg10
I0
sg11
I750
ssg12
(dp33
g5
I715
sg6
I45
sg7
I0
sg8
I0
sg9
I3
sg10
I0
sg11
I550
ssg14
(dp34
g5
I700
sg6
I45
sg7
I0
sg8
I0
sg9
I3
sg10
I0
sg11
I700
ssg16
(dp35
g5
I1480
sg6
I45
sg7
I0
sg8
I0
sg9
I3
sg10
I0
sg11
I740
sss.(dp0
S'K_all3.csv'
p1
(dp2
S'machine'
p3
(dp4
S'count'
p5
I601
sS'truepos'
p6
I38
sS'falseneg'
p7
I0
sS'correction'
p8
I0
sS'unknownyes'
p9
I7
sS'falsepos'
p10
I0
sS'unique'
p11
I390
ssS'knee'
p12
(dp13
g5
I189
sg6
I21
sg7
I0
sg8
I0
sg9
I24
sg10
I0
sg11
I120
ssS'none'
p14
(dp15
g5
I400
sg6
I38
sg7
I0
sg8
I0
sg9
I7
sg10
I0
sg11
I400
ssS'three'
p16
(dp17
g5
I800
sg6
I38
sg7
I0
sg8
I0
sg9
I7
sg10
I0
sg11
I400
sssS'Wahono.csv'
p18
(dp19
g3
(dp20
g5
I1770
sg6
I59
sg7
I0
sg8
I0
sg9
I3
sg10
I0
sg11
I1190
ssg12
(dp21
g5
I24
sg6
I6
sg7
I0
sg8
I0
sg9
I56
sg10
I0
sg11
I20
ssg14
(dp22
g5
I1130
sg6
I59
sg7
I0
sg8
I0
sg9
I3
sg10
I0
sg11
I1130
ssg16
(dp23
g5
I2160
sg6
I59
sg7
I0
sg8
I0
sg9
I3
sg10
I0
sg11
I1080
sssS'Hall.csv'
p24
(dp25
g3
(dp26
g5
I702
sg6
I102
sg7
I0
sg8
I0
sg9
I2
sg10
I0
sg11
I510
ssg12
(dp27
g5
I571
sg6
I101
sg7
I0
sg8
I0
sg9
I3
sg10
I0
sg11
I420
ssg14
(dp28
g5
I460
sg6
I101
sg7
I0
sg8
I0
sg9
I3
sg10
I0
sg11
I460
ssg16
(dp29
g5
I960
sg6
I102
sg7
I0
sg8
I0
sg9
I2
sg10
I0
sg11
I480
sssS'Danijel.csv'
p30
(dp31
g3
(dp32
g5
I1197
sg6
I45
sg7
I0
sg8
I0
sg9
I3
sg10
I0
sg11
I710
ssg12
(dp33
g5
I242
sg6
I28
sg7
I0
sg8
I0
sg9
I20
sg10
I0
sg11
I150
ssg14
(dp34
g5
I750
sg6
I45
sg7
I0
sg8
I0
sg9
I3
sg10
I0
sg11
I750
ssg16
(dp35
g5
I1520
sg6
I45
sg7
I0
sg8
I0
sg9
I3
sg10
I0
sg11
I760
sss.(dp0
S'K_all3.csv'
p1
(dp2
S'machine'
p3
(dp4
S'count'
p5
I572
sS'truepos'
p6
I38
sS'falseneg'
p7
I0
sS'correction'
p8
I0
sS'unknownyes'
p9
I7
sS'falsepos'
p10
I0
sS'unique'
p11
I370
ssS'knee'
p12
(dp13
g5
I677
sg6
I41
sg7
I0
sg8
I0
sg9
I4
sg10
I0
sg11
I590
ssS'none'
p14
(dp15
g5
I370
sg6
I39
sg7
I0
sg8
I0
sg9
I6
sg10
I0
sg11
I370
ssS'three'
p16
(dp17
g5
I760
sg6
I39
sg7
I0
sg8
I0
sg9
I6
sg10
I0
sg11
I380
sssS'Wahono.csv'
p18
(dp19
g3
(dp20
g5
I1749
sg6
I59
sg7
I0
sg8
I0
sg9
I3
sg10
I0
sg11
I1210
ssg12
(dp21
g5
I24
sg6
I6
sg7
I0
sg8
I0
sg9
I56
sg10
I0
sg11
I20
ssg14
(dp22
g5
I1060
sg6
I59
sg7
I0
sg8
I0
sg9
I3
sg10
I0
sg11
I1060
ssg16
(dp23
g5
I2360
sg6
I59
sg7
I0
sg8
I0
sg9
I3
sg10
I0
sg11
I1180
sssS'Hall.csv'
p24
(dp25
g3
(dp26
g5
I652
sg6
I102
sg7
I0
sg8
I0
sg9
I2
sg10
I0
sg11
I460
ssg12
(dp27
g5
I529
sg6
I99
sg7
I0
sg8
I0
sg9
I5
sg10
I0
sg11
I360
ssg14
(dp28
g5
I470
sg6
I102
sg7
I0
sg8
I0
sg9
I2
sg10
I0
sg11
I470
ssg16
(dp29
g5
I920
sg6
I102
sg7
I0
sg8
I0
sg9
I2
sg10
I0
sg11
I460
sssS'Danijel.csv'
p30
(dp31
g3
(dp32
g5
I999
sg6
I44
sg7
I0
sg8
I0
sg9
I4
sg10
I0
sg11
I600
ssg12
(dp33
g5
I686
sg6
I44
sg7
I0
sg8
I0
sg9
I4
sg10
I0
sg11
I530
ssg14
(dp34
g5
I690
sg6
I45
sg7
I0
sg8
I0
sg9
I3
sg10
I0
sg11
I690
ssg16
(dp35
g5
I1500
sg6
I45
sg7
I0
sg8
I0
sg9
I3
sg10
I0
sg11
I750
sss.(dp0
S'K_all3.csv'
p1
(dp2
S'machine'
p3
(dp4
S'count'
p5
I587
sS'truepos'
p6
I36
sS'falseneg'
p7
I0
sS'correction'
p8
I0
sS'unknownyes'
p9
I9
sS'falsepos'
p10
I0
sS'unique'
p11
I370
ssS'knee'
p12
(dp13
g5
I1105
sg6
I43
sg7
I0
sg8
I0
sg9
I2
sg10
I0
sg11
I770
ssS'none'
p14
(dp15
g5
I390
sg6
I38
sg7
I0
sg8
I0
sg9
I7
sg10
I0
sg11
I390
ssS'three'
p16
(dp17
g5
I820
sg6
I38
sg7
I0
sg8
I0
sg9
I7
sg10
I0
sg11
I410
sssS'Wahono.csv'
p18
(dp19
g3
(dp20
g5
I1549
sg6
I59
sg7
I0
sg8
I0
sg9
I3
sg10
I0
sg11
I1020
ssg12
(dp21
g5
I377
sg6
I37
sg7
I0
sg8
I0
sg9
I25
sg10
I0
sg11
I250
ssg14
(dp22
g5
I1170
sg6
I59
sg7
I0
sg8
I0
sg9
I3
sg10
I0
sg11
I1170
ssg16
(dp23
g5
I2460
sg6
I59
sg7
I0
sg8
I0
sg9
I3
sg10
I0
sg11
I1230
sssS'Hall.csv'
p24
(dp25
g3
(dp26
g5
I636
sg6
I101
sg7
I0
sg8
I0
sg9
I3
sg10
I0
sg11
I440
ssg12
(dp27
g5
I541
sg6
I101
sg7
I0
sg8
I0
sg9
I3
sg10
I0
sg11
I400
ssg14
(dp28
g5
I480
sg6
I102
sg7
I0
sg8
I0
sg9
I2
sg10
I0
sg11
I480
ssg16
(dp29
g5
I1040
sg6
I102
sg7
I0
sg8
I0
sg9
I2
sg10
I0
sg11
I520
sssS'Danijel.csv'
p30
(dp31
g3
(dp32
g5
I1177
sg6
I45
sg7
I0
sg8
I0
sg9
I3
sg10
I0
sg11
I730
ssg12
(dp33
g5
I36
sg6
I4
sg7
I0
sg8
I0
sg9
I44
sg10
I0
sg11
I30
ssg14
(dp34
g5
I750
sg6
I45
sg7
I0
sg8
I0
sg9
I3
sg10
I0
sg11
I750
ssg16
(dp35
g5
I1440
sg6
I46
sg7
I0
sg8
I0
sg9
I2
sg10
I0
sg11
I720
sss.(dp0
S'K_all3.csv'
p1
(dp2
S'machine'
p3
(dp4
S'count'
p5
I577
sS'truepos'
p6
I38
sS'falseneg'
p7
I0
sS'correction'
p8
I0
sS'unknownyes'
p9
I7
sS'falsepos'
p10
I0
sS'unique'
p11
I360
ssS'knee'
p12
(dp13
g5
I1181
sg6
I43
sg7
I0
sg8
I0
sg9
I2
sg10
I0
sg11
I860
ssS'none'
p14
(dp15
g5
I410
sg6
I39
sg7
I0
sg8
I0
sg9
I6
sg10
I0
sg11
I410
ssS'three'
p16
(dp17
g5
I780
sg6
I39
sg7
I0
sg8
I0
sg9
I6
sg10
I0
sg11
I390
sssS'Wahono.csv'
p18
(dp19
g3
(dp20
g5
I1660
sg6
I59
sg7
I0
sg8
I0
sg9
I3
sg10
I0
sg11
I1110
ssg12
(dp21
g5
I35
sg6
I7
sg7
I0
sg8
I0
sg9
I55
sg10
I0
sg11
I30
ssg14
(dp22
g5
I1120
sg6
I59
sg7
I0
sg8
I0
sg9
I3
sg10
I0
sg11
I1120
ssg16
(dp23
g5
I2200
sg6
I59
sg7
I0
sg8
I0
sg9
I3
sg10
I0
sg11
I1100
sssS'Hall.csv'
p24
(dp25
g3
(dp26
g5
I657
sg6
I102
sg7
I0
sg8
I0
sg9
I2
sg10
I0
sg11
I490
ssg12
(dp27
g5
I22
sg6
I8
sg7
I0
sg8
I0
sg9
I96
sg10
I0
sg11
I20
ssg14
(dp28
g5
I480
sg6
I102
sg7
I0
sg8
I0
sg9
I2
sg10
I0
sg11
I480
ssg16
(dp29
g5
I980
sg6
I102
sg7
I0
sg8
I0
sg9
I2
sg10
I0
sg11
I490
sssS'Danijel.csv'
p30
(dp31
g3
(dp32
g5
I1237
sg6
I46
sg7
I0
sg8
I0
sg9
I2
sg10
I0
sg11
I760
ssg12
(dp33
g5
I745
sg6
I43
sg7
I0
sg8
I0
sg9
I5
sg10
I0
sg11
I520
ssg14
(dp34
g5
I700
sg6
I45
sg7
I0
sg8
I0
sg9
I3
sg10
I0
sg11
I700
ssg16
(dp35
g5
I1540
sg6
I45
sg7
I0
sg8
I0
sg9
I3
sg10
I0
sg11
I770
sss.(dp0
S'K_all3.csv'
p1
(dp2
S'machine'
p3
(dp4
S'count'
p5
I614
sS'truepos'
p6
I38
sS'falseneg'
p7
I0
sS'correction'
p8
I0
sS'unknownyes'
p9
I7
sS'falsepos'
p10
I0
sS'unique'
p11
I400
ssS'knee'
p12
(dp13
g5
I1061
sg6
I43
sg7
I0
sg8
I0
sg9
I2
sg10
I0
sg11
I780
ssS'none'
p14
(dp15
g5
I370
sg6
I38
sg7
I0
sg8
I0
sg9
I7
sg10
I0
sg11
I370
ssS'three'
p16
(dp17
g5
I740
sg6
I38
sg7
I0
sg8
I0
sg9
I7
sg10
I0
sg11
I370
sssS'Wahono.csv'
p18
(dp19
g3
(dp20
g5
I1706
sg6
I59
sg7
I0
sg8
I0
sg9
I3
sg10
I0
sg11
I1120
ssg12
(dp21
g5
I46
sg6
I8
sg7
I0
sg8
I0
sg9
I54
sg10
I0
sg11
I40
ssg14
(dp22
g5
I1130
sg6
I59
sg7
I0
sg8
I0
sg9
I3
sg10
I0
sg11
I1130
ssg16
(dp23
g5
I2160
sg6
I59
sg7
I0
sg8
I0
sg9
I3
sg10
I0
sg11
I1080
sssS'Hall.csv'
p24
(dp25
g3
(dp26
g5
I616
sg6
I102
sg7
I0
sg8
I0
sg9
I2
sg10
I0
sg11
I460
ssg12
(dp27
g5
I649
sg6
I101
sg7
I0
sg8
I0
sg9
I3
sg10
I0
sg11
I480
ssg14
(dp28
g5
I510
sg6
I102
sg7
I0
sg8
I0
sg9
I2
sg10
I0
sg11
I510
ssg16
(dp29
g5
I1020
sg6
I102
sg7
I0
sg8
I0
sg9
I2
sg10
I0
sg11
I510
sssS'Danijel.csv'
p30
(dp31
g3
(dp32
g5
I1264
sg6
I45
sg7
I0
sg8
I0
sg9
I3
sg10
I0
sg11
I770
ssg12
(dp33
g5
I625
sg6
I43
sg7
I0
sg8
I0
sg9
I5
sg10
I0
sg11
I430
ssg14
(dp34
g5
I800
sg6
I45
sg7
I0
sg8
I0
sg9
I3
sg10
I0
sg11
I800
ssg16
(dp35
g5
I1560
sg6
I46
sg7
I0
sg8
I0
sg9
I2
sg10
I0
sg11
I780
sss.(dp0
S'K_all3.csv'
p1
(dp2
S'machine'
p3
(dp4
S'count'
p5
I552
sS'truepos'
p6
I37
sS'falseneg'
p7
I0
sS'correction'
p8
I0
sS'unknownyes'
p9
I8
sS'falsepos'
p10
I0
sS'unique'
p11
I370
ssS'knee'
p12
(dp13
g5
I857
sg6
I43
sg7
I0
sg8
I0
sg9
I2
sg10
I0
sg11
I710
ssS'none'
p14
(dp15
g5
I380
sg6
I39
sg7
I0
sg8
I0
sg9
I6
sg10
I0
sg11
I380
ssS'three'
p16
(dp17
g5
I820
sg6
I39
sg7
I0
sg8
I0
sg9
I6
sg10
I0
sg11
I410
sssS'Wahono.csv'
p18
(dp19
g3
(dp20
g5
I1667
sg6
I59
sg7
I0
sg8
I0
sg9
I3
sg10
I0
sg11
I1110
ssg12
(dp21
g5
I35
sg6
I7
sg7
I0
sg8
I0
sg9
I55
sg10
I0
sg11
I30
ssg14
(dp22
g5
I1130
sg6
I59
sg7
I0
sg8
I0
sg9
I3
sg10
I0
sg11
I1130
ssg16
(dp23
g5
I2280
sg6
I59
sg7
I0
sg8
I0
sg9
I3
sg10
I0
sg11
I1140
sssS'Hall.csv'
p24
(dp25
g3
(dp26
g5
I662
sg6
I102
sg7
I0
sg8
I0
sg9
I2
sg10
I0
sg11
I490
ssg12
(dp27
g5
I507
sg6
I101
sg7
I0
sg8
I0
sg9
I3
sg10
I0
sg11
I370
ssg14
(dp28
g5
I500
sg6
I102
sg7
I0
sg8
I0
sg9
I2
sg10
I0
sg11
I500
ssg16
(dp29
g5
I900
sg6
I101
sg7
I0
sg8
I0
sg9
I3
sg10
I0
sg11
I450
sssS'Danijel.csv'
p30
(dp31
g3
(dp32
g5
I1183
sg6
I45
sg7
I0
sg8
I0
sg9
I3
sg10
I0
sg11
I730
ssg12
(dp33
g5
I692
sg6
I44
sg7
I0
sg8
I0
sg9
I4
sg10
I0
sg11
I560
ssg14
(dp34
g5
I780
sg6
I45
sg7
I0
sg8
I0
sg9
I3
sg10
I0
sg11
I780
ssg16
(dp35
g5
I1560
sg6
I45
sg7
I0
sg8
I0
sg9
I3
sg10
I0
sg11
I780
sss.(dp0
S'K_all3.csv'
p1
(dp2
S'machine'
p3
(dp4
S'count'
p5
I654
sS'truepos'
p6
I37
sS'falseneg'
p7
I0
sS'correction'
p8
I0
sS'unknownyes'
p9
I8
sS'falsepos'
p10
I0
sS'unique'
p11
I420
ssS'knee'
p12
(dp13
g5
I943
sg6
I43
sg7
I0
sg8
I0
sg9
I2
sg10
I0
sg11
I760
ssS'none'
p14
(dp15
g5
I380
sg6
I39
sg7
I0
sg8
I0
sg9
I6
sg10
I0
sg11
I380
ssS'three'
p16
(dp17
g5
I800
sg6
I39
sg7
I0
sg8
I0
sg9
I6
sg10
I0
sg11
I400
sssS'Wahono.csv'
p18
(dp19
g3
(dp20
g5
I1665
sg6
I59
sg7
I0
sg8
I0
sg9
I3
sg10
I0
sg11
I1120
ssg12
(dp21
g5
I24
sg6
I6
sg7
I0
sg8
I0
sg9
I56
sg10
I0
sg11
I20
ssg14
(dp22
g5
I1200
sg6
I59
sg7
I0
sg8
I0
sg9
I3
sg10
I0
sg11
I1200
ssg16
(dp23
g5
I2400
sg6
I59
sg7
I0
sg8
I0
sg9
I3
sg10
I0
sg11
I1200
sssS'Hall.csv'
p24
(dp25
g3
(dp26
g5
I669
sg6
I102
sg7
I0
sg8
I0
sg9
I2
sg10
I0
sg11
I500
ssg12
(dp27
g5
I616
sg6
I102
sg7
I0
sg8
I0
sg9
I2
sg10
I0
sg11
I440
ssg14
(dp28
g5
I510
sg6
I102
sg7
I0
sg8
I0
sg9
I2
sg10
I0
sg11
I510
ssg16
(dp29
g5
I1020
sg6
I102
sg7
I0
sg8
I0
sg9
I2
sg10
I0
sg11
I510
sssS'Danijel.csv'
p30
(dp31
g3
(dp32
g5
I1183
sg6
I45
sg7
I0
sg8
I0
sg9
I3
sg10
I0
sg11
I750
ssg12
(dp33
g5
I688
sg6
I44
sg7
I0
sg8
I0
sg9
I4
sg10
I0
sg11
I490
ssg14
(dp34
g5
I790
sg6
I45
sg7
I0
sg8
I0
sg9
I3
sg10
I0
sg11
I790
ssg16
(dp35
g5
I1480
sg6
I45
sg7
I0
sg8
I0
sg9
I3
sg10
I0
sg11
I740
sss.(dp0
S'K_all3.csv'
p1
(dp2
S'machine'
p3
(dp4
S'count'
p5
I594
sS'truepos'
p6
I34
sS'falseneg'
p7
I0
sS'correction'
p8
I0
sS'unknownyes'
p9
I11
sS'falsepos'
p10
I0
sS'unique'
p11
I370
ssS'knee'
p12
(dp13
g5
I1185
sg6
I43
sg7
I0
sg8
I0
sg9
I2
sg10
I0
sg11
I820
ssS'none'
p14
(dp15
g5
I410
sg6
I39
sg7
I0
sg8
I0
sg9
I6
sg10
I0
sg11
I410
ssS'three'
p16
(dp17
g5
I760
sg6
I38
sg7
I0
sg8
I0
sg9
I7
sg10
I0
sg11
I380
sssS'Wahono.csv'
p18
(dp19
g3
(dp20
g5
I1665
sg6
I59
sg7
I0
sg8
I0
sg9
I3
sg10
I0
sg11
I1120
ssg12
(dp21
g5
I1044
sg6
I58
sg7
I0
sg8
I0
sg9
I4
sg10
I0
sg11
I830
ssg14
(dp22
g5
I1090
sg6
I59
sg7
I0
sg8
I0
sg9
I3
sg10
I0
sg11
I1090
ssg16
(dp23
g5
I2360
sg6
I59
sg7
I0
sg8
I0
sg9
I3
sg10
I0
sg11
I1180
sssS'Hall.csv'
p24
(dp25
g3
(dp26
g5
I643
sg6
I102
sg7
I0
sg8
I0
sg9
I2
sg10
I0
sg11
I480
ssg12
(dp27
g5
I544
sg6
I102
sg7
I0
sg8
I0
sg9
I2
sg10
I0
sg11
I410
ssg14
(dp28
g5
I470
sg6
I102
sg7
I0
sg8
I0
sg9
I2
sg10
I0
sg11
I470
ssg16
(dp29
g5
I960
sg6
I102
sg7
I0
sg8
I0
sg9
I2
sg10
I0
sg11
I480
sssS'Danijel.csv'
p30
(dp31
g3
(dp32
g5
I1126
sg6
I45
sg7
I0
sg8
I0
sg9
I3
sg10
I0
sg11
I700
ssg12
(dp33
g5
I617
sg6
I43
sg7
I0
sg8
I0
sg9
I5
sg10
I0
sg11
I480
ssg14
(dp34
g5
I760
sg6
I45
sg7
I0
sg8
I0
sg9
I3
sg10
I0
sg11
I760
ssg16
(dp35
g5
I1420
sg6
I45
sg7
I0
sg8
I0
sg9
I3
sg10
I0
sg11
I710
sss.(dp0
S'K_all3.csv'
p1
(dp2
S'machine'
p3
(dp4
S'count'
p5
I593
sS'truepos'
p6
I38
sS'falseneg'
p7
I0
sS'correction'
p8
I0
sS'unknownyes'
p9
I7
sS'falsepos'
p10
I0
sS'unique'
p11
I370
ssS'knee'
p12
(dp13
g5
I981
sg6
I43
sg7
I0
sg8
I0
sg9
I2
sg10
I0
sg11
I780
ssS'none'
p14
(dp15
g5
I390
sg6
I39
sg7
I0
sg8
I0
sg9
I6
sg10
I0
sg11
I390
ssS'three'
p16
(dp17
g5
I760
sg6
I38
sg7
I0
sg8
I0
sg9
I7
sg10
I0
sg11
I380
sssS'Wahono.csv'
p18
(dp19
g3
(dp20
g5
I1763
sg6
I59
sg7
I0
sg8
I0
sg9
I3
sg10
I0
sg11
I1220
ssg12
(dp21
g5
I744
sg6
I50
sg7
I0
sg8
I0
sg9
I12
sg10
I0
sg11
I530
ssg14
(dp22
g5
I1150
sg6
I59
sg7
I0
sg8
I0
sg9
I3
sg10
I0
sg11
I1150
ssg16
(dp23
g5
I2300
sg6
I60
sg7
I0
sg8
I0
sg9
I2
sg10
I0
sg11
I1150
sssS'Hall.csv'
p24
(dp25
g3
(dp26
g5
I715
sg6
I102
sg7
I0
sg8
I0
sg9
I2
sg10
I0
sg11
I530
ssg12
(dp27
g5
I696
sg6
I102
sg7
I0
sg8
I0
sg9
I2
sg10
I0
sg11
I510
ssg14
(dp28
g5
I540
sg6
I102
sg7
I0
sg8
I0
sg9
I2
sg10
I0
sg11
I540
ssg16
(dp29
g5
I1000
sg6
I102
sg7
I0
sg8
I0
sg9
I2
sg10
I0
sg11
I500
sssS'Danijel.csv'
p30
(dp31
g3
(dp32
g5
I1195
sg6
I45
sg7
I0
sg8
I0
sg9
I3
sg10
I0
sg11
I740
ssg12
(dp33
g5
I329
sg6
I31
sg7
I0
sg8
I0
sg9
I17
sg10
I0
sg11
I200
ssg14
(dp34
g5
I770
sg6
I46
sg7
I0
sg8
I0
sg9
I2
sg10
I0
sg11
I770
ssg16
(dp35
g5
I1440
sg6
I45
sg7
I0
sg8
I0
sg9
I3
sg10
I0
sg11
I720
sss.(dp0
S'K_all3.csv'
p1
(dp2
S'machine'
p3
(dp4
S'count'
p5
I616
sS'truepos'
p6
I39
sS'falseneg'
p7
I0
sS'correction'
p8
I0
sS'unknownyes'
p9
I6
sS'falsepos'
p10
I0
sS'unique'
p11
I400
ssS'knee'
p12
(dp13
g5
I434
sg6
I32
sg7
I0
sg8
I0
sg9
I13
sg10
I0
sg11
I300
ssS'none'
p14
(dp15
g5
I400
sg6
I38
sg7
I0
sg8
I0
sg9
I7
sg10
I0
sg11
I400
ssS'three'
p16
(dp17
g5
I740
sg6
I38
sg7
I0
sg8
I0
sg9
I7
sg10
I0
sg11
I370
sssS'Wahono.csv'
p18
(dp19
g3
(dp20
g5
I1737
sg6
I59
sg7
I0
sg8
I0
sg9
I3
sg10
I0
sg11
I1180
ssg12
(dp21
g5
I1075
sg6
I59
sg7
I0
sg8
I0
sg9
I3
sg10
I0
sg11
I860
ssg14
(dp22
g5
I1070
sg6
I60
sg7
I0
sg8
I0
sg9
I2
sg10
I0
sg11
I1070
ssg16
(dp23
g5
I2460
sg6
I59
sg7
I0
sg8
I0
sg9
I3
sg10
I0
sg11
I1230
sssS'Hall.csv'
p24
(dp25
g3
(dp26
g5
I664
sg6
I102
sg7
I0
sg8
I0
sg9
I2
sg10
I0
sg11
I510
ssg12
(dp27
g5
I648
sg6
I102
sg7
I0
sg8
I0
sg9
I2
sg10
I0
sg11
I480
ssg14
(dp28
g5
I490
sg6
I102
sg7
I0
sg8
I0
sg9
I2
sg10
I0
sg11
I490
ssg16
(dp29
g5
I960
sg6
I102
sg7
I0
sg8
I0
sg9
I2
sg10
I0
sg11
I480
sssS'Danijel.csv'
p30
(dp31
g3
(dp32
g5
I1185
sg6
I45
sg7
I0
sg8
I0
sg9
I3
sg10
I0
sg11
I750
ssg12
(dp33
g5
I624
sg6
I42
sg7
I0
sg8
I0
sg9
I6
sg10
I0
sg11
I420
ssg14
(dp34
g5
I690
sg6
I45
sg7
I0
sg8
I0
sg9
I3
sg10
I0
sg11
I690
ssg16
(dp35
g5
I1540
sg6
I45
sg7
I0
sg8
I0
sg9
I3
sg10
I0
sg11
I770
sss.