(dp0
S'K_all3.csv'
p1
(dp2
S'machine'
p3
(dp4
S'count'
p5
I675
sS'truepos'
p6
I37
sS'falseneg'
p7
I0
sS'correction'
p8
I0
sS'unknownyes'
p9
I8
sS'falsepos'
p10
I0
sS'unique'
p11
I440
ssS'knee'
p12
(dp13
g5
I484
sg6
I32
sg7
I0
sg8
I0
sg9
I13
sg10
I0
sg11
I330
ssS'none'
p14
(dp15
g5
I440
sg6
I38
sg7
I0
sg8
I0
sg9
I7
sg10
I0
sg11
I440
ssS'three'
p16
(dp17
g5
I820
sg6
I39
sg7
I0
sg8
I0
sg9
I6
sg10
I0
sg11
I410
sssS'Wahono.csv'
p18
(dp19
g3
(dp20
g5
I1646
sg6
I60
sg7
I0
sg8
I0
sg9
I2
sg10
I0
sg11
I1130
ssg12
(dp21
g5
I24
sg6
I6
sg7
I0
sg8
I0
sg9
I56
sg10
I0
sg11
I20
ssg14
(dp22
g5
I1090
sg6
I59
sg7
I0
sg8
I0
sg9
I3
sg10
I0
sg11
I1090
ssg16
(dp23
g5
I2280
sg6
I59
sg7
I0
sg8
I0
sg9
I3
sg10
I0
sg11
I1140
sssS'Hall.csv'
p24
(dp25
g3
(dp26
g5
I607
sg6
I101
sg7
I0
sg8
I0
sg9
I3
sg10
I0
sg11
I440
ssg12
(dp27
g5
I38
sg6
I12
sg7
I0
sg8
I0
sg9
I92
sg10
I0
sg11
I30
ssg14
(dp28
g5
I490
sg6
I102
sg7
I0
sg8
I0
sg9
I2
sg10
I0
sg11
I490
ssg16
(dp29
g5
I940
sg6
I102
sg7
I0
sg8
I0
sg9
I2
sg10
I0
sg11
I470
sssS'Danijel.csv'
p30
(dp31
g3
(dp32
g5
I1224
sg6
I45
sg7
I0
sg8
I0
sg9
I3
sg10
I0
sg11
I760
ssg12
(dp33
g5
I502
sg6
I40
sg7
I0
sg8
I0
sg9
I8
sg10
I0
sg11
I310
ssg14
(dp34
g5
I710
sg6
I45
sg7
I0
sg8
I0
sg9
I3
sg10
I0
sg11
I710
ssg16
(dp35
g5
I1440
sg6
I45
sg7
I0
sg8
I0
sg9
I3
sg10
I0
sg11
I720
sss.(dp0
S'K_all3.csv'
p1
(dp2
S'machine'
p3
(dp4
S'count'
p5
I590
sS'truepos'
p6
I38
sS'falseneg'
p7
I0
sS'correction'
p8
I0
sS'unknownyes'
p9
I7
sS'falsepos'
p10
I0
sS'unique'
p11
I390
ssS'knee'
p12
(dp13
g5
I769
sg6
I41
sg7
I0
sg8
I0
sg9
I4
sg10
I0
sg11
I600
ssS'none'
p14
(dp15
g5
I400
sg6
I38
sg7
I0
sg8
I0
sg9
I7
sg10
I0
sg11
I400
ssS'three'
p16
(dp17
g5
I760
sg6
I38
sg7
I0
sg8
I0
sg9
I7
sg10
I0
sg11
I380
sssS'Wahono.csv'
p18
(dp19
g3
(dp20
g5
I1732
sg6
I59
sg7
I0
sg8
I0
sg9
I3
sg10
I0
sg11
I1190
ssg12
(dp21
g5
I998
sg6
I58
sg7
I0
sg8
I0
sg9
I4
sg10
I0
sg11
I710
ssg14
(dp22
g5
I1100
sg6
I59
sg7
I0
sg8
I0
sg9
I3
sg10
I0
sg11
I1100
ssg16
(dp23
g5
I2340
sg6
I59
sg7
I0
sg8
I0
sg9
I3
sg10
I0
sg11
I1170
sssS'Hall.csv'
p24
(dp25
g3
(dp26
g5
I694
sg6
I102
sg7
I0
sg8
I0
sg9
I2
sg10
I0
sg11
I520
ssg12
(dp27
g5
I22
sg6
I8
sg7
I0
sg8
I0
sg9
I96
sg10
I0
sg11
I20
ssg14
(dp28
g5
I400
sg6
I99
sg7
I0
sg8
I0
sg9
I5
sg10
I0
sg11
I400
ssg16
(dp29
g5
I1000
sg6
I102
sg7
I0
sg8
I0
sg9
I2
sg10
I0
sg11
I500
sssS'Danijel.csv'
p30
(dp31
g3
(dp32
g5
I1167
sg6
I45
sg7
I0
sg8
I0
sg9
I3
sg10
I0
sg11
I720
ssg12
(dp33
g5
I366
sg6
I36
sg7
I0
sg8
I0
sg9
I12
sg10
I0
sg11
I230
ssg14
(dp34
g5
I740
sg6
I45
sg7
I0
sg8
I0
sg9
I3
sg10
I0
sg11
I740
ssg16
(dp35
g5
I1500
sg6
I45
sg7
I0
sg8
I0
sg9
I3
sg10
I0
sg11
I750
sss.(dp0
S'K_all3.csv'
p1
(dp2
S'machine'
p3
(dp4
S'count'
p5
I601
sS'truepos'
p6
I38
sS'falseneg'
p7
I0
sS'correction'
p8
I0
sS'unknownyes'
p9
I7
sS'falsepos'
p10
I0
sS'unique'
p11
I400
ssS'knee'
p12
(dp13
g5
I903
sg6
I43
sg7
I0
sg8
I0
sg9
I2
sg10
I0
sg11
I730
ssS'none'
p14
(dp15
g5
I410
sg6
I38
sg7
I0
sg8
I0
sg9
I7
sg10
I0
sg11
I410
ssS'three'
p16
(dp17
g5
I860
sg6
I39
sg7
I0
sg8
I0
sg9
I6
sg10
I0
sg11
I430
sssS'Wahono.csv'
p18
(dp19
g3
(dp20
g5
I1618
sg6
I59
sg7
I0
sg8
I0
sg9
I3
sg10
I0
sg11
I1110
ssg12
(dp21
g5
I24
sg6
I6
sg7
I0
sg8
I0
sg9
I56
sg10
I0
sg11
I20
ssg14
(dp22
g5
I1180
sg6
I59
sg7
I0
sg8
I0
sg9
I3
sg10
I0
sg11
I1180
ssg16
(dp23
g5
I2280
sg6
I60
sg7
I0
sg8
I0
sg9
I2
sg10
I0
sg11
I1140
sssS'Hall.csv'
p24
(dp25
g3
(dp26
g5
I584
sg6
I101
sg7
I0
sg8
I0
sg9
I3
sg10
I0
sg11
I430
ssg12
(dp27
g5
I623
sg6
I101
sg7
I0
sg8
I0
sg9
I3
sg10
I0
sg11
I440
ssg14
(dp28
g5
I410
sg6
I99
sg7
I0
sg8
I0
sg9
I5
sg10
I0
sg11
I410
ssg16
(dp29
g5
I1020
sg6
I102
sg7
I0
sg8
I0
sg9
I2
sg10
I0
sg11
I510
sssS'Danijel.csv'
p30
(dp31
g3
(dp32
g5
I1231
sg6
I45
sg7
I0
sg8
I0
sg9
I3
sg10
I0
sg11
I780
ssg12
(dp33
g5
I493
sg6
I41
sg7
I0
sg8
I0
sg9
I7
sg10
I0
sg11
I370
ssg14
(dp34
g5
I760
sg6
I45
sg7
I0
sg8
I0
sg9
I3
sg10
I0
sg11
I760
ssg16
(dp35
g5
I1680
sg6
I45
sg7
I0
sg8
I0
sg9
I3
sg10
I0
sg11
I840
sss.(dp0
S'K_all3.csv'
p1
(dp2
S'machine'
p3
(dp4
S'count'
p5
I653
sS'truepos'
p6
I38
sS'falseneg'
p7
I0
sS'correction'
p8
I0
sS'unknownyes'
p9
I7
sS'falsepos'
p10
I0
sS'unique'
p11
I410
ssS'knee'
p12
(dp13
g5
I879
sg6
I43
sg7
I0
sg8
I0
sg9
I2
sg10
I0
sg11
I690
ssS'none'
p14
(dp15
g5
I420
sg6
I39
sg7
I0
sg8
I0
sg9
I6
sg10
I0
sg11
I420
ssS'three'
p16
(dp17
g5
I900
sg6
I37
sg7
I0
sg8
I0
sg9
I8
sg10
I0
sg11
I450
sssS'Wahono.csv'
p18
(dp19
g3
(dp20
g5
I1696
sg6
I59
sg7
I0
sg8
I0
sg9
I3
sg10
I0
sg11
I1130
ssg12
(dp21
g5
I24
sg6
I6
sg7
I0
sg8
I0
sg9
I56
sg10
I0
sg11
I20
ssg14
(dp22
g5
I1170
sg6
I59
sg7
I0
sg8
I0
sg9
I3
sg10
I0
sg11
I1170
ssg16
(dp23
g5
I2380
sg6
I59
sg7
I0
sg8
I0
sg9
I3
sg10
I0
sg11
I1190
sssS'Hall.csv'
p24
(dp25
g3
(dp26
g5
I660
sg6
I102
sg7
I0
sg8
I0
sg9
I2
sg10
I0
sg11
I480
ssg12
(dp27
g5
I572
sg6
I102
sg7
I0
sg8
I0
sg9
I2
sg10
I0
sg11
I400
ssg14
(dp28
g5
I480
sg6
I102
sg7
I0
sg8
I0
sg9
I2
sg10
I0
sg11
I480
ssg16
(dp29
g5
I1000
sg6
I102
sg7
I0
sg8
I0
sg9
I2
sg10
I0
sg11
I500
sssS'Danijel.csv'
p30
(dp31
g3
(dp32
g5
I1230
sg6
I45
sg7
I0
sg8
I0
sg9
I3
sg10
I0
sg11
I750
ssg12
(dp33
g5
I477
sg6
I41
sg7
I0
sg8
I0
sg9
I7
sg10
I0
sg11
I330
ssg14
(dp34
g5
I770
sg6
I45
sg7
I0
sg8
I0
sg9
I3
sg10
I0
sg11
I770
ssg16
(dp35
g5
I1500
sg6
I46
sg7
I0
sg8
I0
sg9
I2
sg10
I0
sg11
I750
sss.(dp0
S'K_all3.csv'
p1
(dp2
S'machine'
p3
(dp4
S'count'
p5
I540
sS'truepos'
p6
I37
sS'falseneg'
p7
I0
sS'correction'
p8
I0
sS'unknownyes'
p9
I8
sS'falsepos'
p10
I0
sS'unique'
p11
I390
ssS'knee'
p12
(dp13
g5
I931
sg6
I43
sg7
I0
sg8
I0
sg9
I2
sg10
I0
sg11
I740
ssS'none'
p14
(dp15
g5
I400
sg6
I38
sg7
I0
sg8
I0
sg9
I7
sg10
I0
sg11
I400
ssS'three'
p16
(dp17
g5
I800
sg6
I39
sg7
I0
sg8
I0
sg9
I6
sg10
I0
sg11
I400
sssS'Wahono.csv'
p18
(dp19
g3
(dp20
g5
I1688
sg6
I59
sg7
I0
sg8
I0
sg9
I3
sg10
I0
sg11
I1110
ssg12
(dp21
g5
I24
sg6
I6
sg7
I0
sg8
I0
sg9
I56
sg10
I0
sg11
I20
ssg14
(dp22
g5
I1210
sg6
I59
sg7
I0
sg8
I0
sg9
I3
sg10
I0
sg11
I1210
ssg16
(dp23
g5
I2400
sg6
I59
sg7
I0
sg8
I0
sg9
I3
sg10
I0
sg11
I1200
sssS'Hall.csv'
p24
(dp25
g3
(dp26
g5
I692
sg6
I102
sg7
I0
sg8
I0
sg9
I2
sg10
I0
sg11
I500
ssg12
(dp27
g5
I497
sg6
I101
sg7
I0
sg8
I0
sg9
I3
sg10
I0
sg11
I340
ssg14
(dp28
g5
I450
sg6
I101
sg7
I0
sg8
I0
sg9
I3
sg10
I0
sg11
I450
ssg16
(dp29
g5
I1040
sg6
I102
sg7
I0
sg8
I0
sg9
I2
sg10
I0
sg11
I520
sssS'Danijel.csv'
p30
(dp31
g3
(dp32
g5
I1269
sg6
I45
sg7
I0
sg8
I0
sg9
I3
sg10
I0
sg11
I800
ssg12
(dp33
g5
I613
sg6
I43
sg7
I0
sg8
I0
sg9
I5
sg10
I0
sg11
I460
ssg14
(dp34
g5
I780
sg6
I45
sg7
I0
sg8
I0
sg9
I3
sg10
I0
sg11
I780
ssg16
(dp35
g5
I1520
sg6
I45
sg7
I0
sg8
I0
sg9
I3
sg10
I0
sg11
I760
sss.(dp0
S'K_all3.csv'
p1
(dp2
S'machine'
p3
(dp4
S'count'
p5
I540
sS'truepos'
p6
I38
sS'falseneg'
p7
I0
sS'correction'
p8
I0
sS'unknownyes'
p9
I7
sS'falsepos'
p10
I0
sS'unique'
p11
I390
ssS'knee'
p12
(dp13
g5
I483
sg6
I33
sg7
I0
sg8
I0
sg9
I12
sg10
I0
sg11
I330
ssS'none'
p14
(dp15
g5
I400
sg6
I40
sg7
I0
sg8
I0
sg9
I5
sg10
I0
sg11
I400
ssS'three'
p16
(dp17
g5
I860
sg6
I38
sg7
I0
sg8
I0
sg9
I7
sg10
I0
sg11
I430
sssS'Wahono.csv'
p18
(dp19
g3
(dp20
g5
I1694
sg6
I59
sg7
I0
sg8
I0
sg9
I3
sg10
I0
sg11
I1140
ssg12
(dp21
g5
I24
sg6
I6
sg7
I0
sg8
I0
sg9
I56
sg10
I0
sg11
I20
ssg14
(dp22
g5
I1190
sg6
I59
sg7
I0
sg8
I0
sg9
I3
sg10
I0
sg11
I1190
ssg16
(dp23
g5
I2300
sg6
I59
sg7
I0
sg8
I0
sg9
I3
sg10
I0
sg11
I1150
sssS'Hall.csv'
p24
(dp25
g3
(dp26
g5
I629
sg6
I102
sg7
I0
sg8
I0
sg9
I2
sg10
I0
sg11
I480
ssg12
(dp27
g5
I579
sg6
I101
sg7
I0
sg8
I0
sg9
I3
sg10
I0
sg11
I420
ssg14
(dp28
g5
I510
sg6
I102
sg7
I0
sg8
I0
sg9
I2
sg10
I0
sg11
I510
ssg16
(dp29
g5
I900
sg6
I101
sg7
I0
sg8
I0
sg9
I3
sg10
I0
sg11
I450
sssS'Danijel.csv'
p30
(dp31
g3
(dp32
g5
I1234
sg6
I45
sg7
I0
sg8
I0
sg9
I3
sg10
I0
sg11
I770
ssg12
(dp33
g5
I276
sg6
I34
sg7
I0
sg8
I0
sg9
I14
sg10
I0
sg11
I170
ssg14
(dp34
g5
I760
sg6
I45
sg7
I0
sg8
I0
sg9
I3
sg10
I0
sg11
I760
ssg16
(dp35
g5
I1420
sg6
I45
sg7
I0
sg8
I0
sg9
I3
sg10
I0
sg11
I710
sss.(dp0
S'K_all3.csv'
p1
(dp2
S'machine'
p3
(dp4
S'count'
p5
I601
sS'truepos'
p6
I39
sS'falseneg'
p7
I0
sS'correction'
p8
I0
sS'unknownyes'
p9
I6
sS'falsepos'
p10
I0
sS'unique'
p11
I400
ssS'knee'
p12
(dp13
g5
I919
sg6
I43
sg7
I0
sg8
I0
sg9
I2
sg10
I0
sg11
I720
ssS'none'
p14
(dp15
g5
I420
sg6
I38
sg7
I0
sg8
I0
sg9
I7
sg10
I0
sg11
I420
ssS'three'
p16
(dp17
g5
I780
sg6
I38
sg7
I0
sg8
I0
sg9
I7
sg10
I0
sg11
I390
sssS'Wahono.csv'
p18
(dp19
g3
(dp20
g5
I1782
sg6
I59
sg7
I0
sg8
I0
sg9
I3
sg10
I0
sg11
I1180
ssg12
(dp21
g5
I1117
sg6
I59
sg7
I0
sg8
I0
sg9
I3
sg10
I0
sg11
I850
ssg14
(dp22
g5
I1110
sg6
I59
sg7
I0
sg8
I0
sg9
I3
sg10
I0
sg11
I1110
ssg16
(dp23
g5
I2360
sg6
I59
sg7
I0
sg8
I0
sg9
I3
sg10
I0
sg11
I1180
sssS'Hall.csv'
p24
(dp25
g3
(dp26
g5
I714
sg6
I102
sg7
I0
sg8
I0
sg9
I2
sg10
I0
sg11
I530
ssg12
(dp27
g5
I45
sg6
I11
sg7
I0
sg8
I0
sg9
I93
sg10
I0
sg11
I40
ssg14
(dp28
g5
I530
sg6
I102
sg7
I0
sg8
I0
sg9
I2
sg10
I0
sg11
I530
ssg16
(dp29
g5
I880
sg6
I101
sg7
I0
sg8
I0
sg9
I3
sg10
I0
sg11
I440
sssS'Danijel.csv'
p30
(dp31
g3
(dp32
g5
I1190
sg6
I45
sg7
I0
sg8
I0
sg9
I3
sg10
I0
sg11
I740
ssg12
(dp33
g5
I100
sg6
I10
sg7
I0
sg8
I0
sg9
I38
sg10
I0
sg11
I70
ssg14
(dp34
g5
I750
sg6
I45
sg7
I0
sg8
I0
sg9
I3
sg10
I0
sg11
I750
ssg16
(dp35
g5
I1520
sg6
I45
sg7
I0
sg8
I0
sg9
I3
sg10
I0
sg11
I760
sss.(dp0
S'K_all3.csv'
p1
(dp2
S'machine'
p3
(dp4
S'count'
p5
I640
sS'truepos'
p6
I38
sS'falseneg'
p7
I0
sS'correction'
p8
I0
sS'unknownyes'
p9
I7
sS'falsepos'
p10
I0
sS'unique'
p11
I440
ssS'knee'
p12
(dp13
g5
I890
sg6
I42
sg7
I0
sg8
I0
sg9
I3
sg10
I0
sg11
I700
ssS'none'
p14
(dp15
g5
I450
sg6
I39
sg7
I0
sg8
I0
sg9
I6
sg10
I0
sg11
I450
ssS'three'
p16
(dp17
g5
I820
sg6
I38
sg7
I0
sg8
I0
sg9
I7
sg10
I0
sg11
I410
sssS'Wahono.csv'
p18
(dp19
g3
(dp20
g5
I1667
sg6
I59
sg7
I0
sg8
I0
sg9
I3
sg10
I0
sg11
I1140
ssg12
(dp21
g5
I24
sg6
I6
sg7
I0
sg8
I0
sg9
I56
sg10
I0
sg11
I20
ssg14
(dp22
g5
I1210
sg6
I59
sg7
I0
sg8
I0
sg9
I3
sg10
I0
sg11
I1210
ssg16
(dp23
g5
I2200
sg6
I59
sg7
I0
sg8
I0
sg9
I3
sg10
I0
sg11
I1100
sssS'Hall.csv'
p24
(dp25
g3
(dp26
g5
I661
sg6
I102
sg7
I0
sg8
I0
sg9
I2
sg10
I0
sg11
I510
ssg12
(dp27
g5
I590
sg6
I102
sg7
I0
sg8
I0
sg9
I2
sg10
I0
sg11
I430
ssg14
(dp28
g5
I430
sg6
I101
sg7
I0
sg8
I0
sg9
I3
sg10
I0
sg11
I430
ssg16
(dp29
g5
I900
sg6
I102
sg7
I0
sg8
I0
sg9
I2
sg10
I0
sg11
I450
sssS'Danijel.csv'
p30
(dp31
g3
(dp32
g5
I1209
sg6
I45
sg7
I0
sg8
I0
sg9
I3
sg10
I0
sg11
I770
ssg12
(dp33
g5
I646
sg6
I44
sg7
I0
sg8
I0
sg9
I4
sg10
I0
sg11
I500
ssg14
(dp34
g5
I770
sg6
I45
sg7
I0
sg8
I0
sg9
I3
sg10
I0
sg11
I770
ssg16
(dp35
g5
I1420
sg6
I45
sg7
I0
sg8
I0
sg9
I3
sg10
I0
sg11
I710
sss.(dp0
S'K_all3.csv'
p1
(dp2
S'machine'
p3
(dp4
S'count'
p5
I630
sS'truepos'
p6
I37
sS'falseneg'
p7
I0
sS'correction'
p8
I0
sS'unknownyes'
p9
I8
sS'falsepos'
p10
I0
sS'unique'
p11
I430
ssS'knee'
p12
(dp13
g5
I890
sg6
I42
sg7
I0
sg8
I0
sg9
I3
sg10
I0
sg11
I700
ssS'none'
p14
(dp15
g5
I400
sg6
I38
sg7
I0
sg8
I0
sg9
I7
sg10
I0
sg11
I400
ssS'three'
p16
(dp17
g5
I920
sg6
I38
sg7
I0
sg8
I0
sg9
I7
sg10
I0
sg11
I460
sssS'Wahono.csv'
p18
(dp19
g3
(dp20
g5
I1763
sg6
I60
sg7
I0
sg8
I0
sg9
I2
sg10
I0
sg11
I1220
ssg12
(dp21
g5
I24
sg6
I6
sg7
I0
sg8
I0
sg9
I56
sg10
I0
sg11
I20
ssg14
(dp22
g5
I1170
sg6
I59
sg7
I0
sg8
I0
sg9
I3
sg10
I0
sg11
I1170
ssg16
(dp23
g5
I2340
sg6
I59
sg7
I0
sg8
I0
sg9
I3
sg10
I0
sg11
I1170
sssS'Hall.csv'
p24
(dp25
g3
(dp26
g5
I712
sg6
I102
sg7
I0
sg8
I0
sg9
I2
sg10
I0
sg11
I530
ssg12
(dp27
g5
I573
sg6
I101
sg7
I0
sg8
I0
sg9
I3
sg10
I0
sg11
I400
ssg14
(dp28
g5
I490
sg6
I102
sg7
I0
sg8
I0
sg9
I2
sg10
I0
sg11
I490
ssg16
(dp29
g5
I960
sg6
I102
sg7
I0
sg8
I0
sg9
I2
sg10
I0
sg11
I480
sssS'Danijel.csv'
p30
(dp31
g3
(dp32
g5
I1230
sg6
I45
sg7
I0
sg8
I0
sg9
I3
sg10
I0
sg11
I760
ssg12
(dp33
g5
I686
sg6
I44
sg7
I0
sg8
I0
sg9
I4
sg10
I0
sg11
I530
ssg14
(dp34
g5
I790
sg6
I45
sg7
I0
sg8
I0
sg9
I3
sg10
I0
sg11
I790
ssg16
(dp35
g5
I1520
sg6
I45
sg7
I0
sg8
I0
sg9
I3
sg10
I0
sg11
I760
sss.(dp0
S'K_all3.csv'
p1
(dp2
S'machine'
p3
(dp4
S'count'
p5
I611
sS'truepos'
p6
I38
sS'falseneg'
p7
I0
sS'correction'
p8
I0
sS'unknownyes'
p9
I7
sS'falsepos'
p10
I0
sS'unique'
p11
I410
ssS'knee'
p12
(dp13
g5
I940
sg6
I42
sg7
I0
sg8
I0
sg9
I3
sg10
I0
sg11
I740
ssS'none'
p14
(dp15
g5
I420
sg6
I38
sg7
I0
sg8
I0
sg9
I7
sg10
I0
sg11
I420
ssS'three'
p16
(dp17
g5
I860
sg6
I38
sg7
I0
sg8
I0
sg9
I7
sg10
I0
sg11
I430
sssS'Wahono.csv'
p18
(dp19
g3
(dp20
g5
I1755
sg6
I59
sg7
I0
sg8
I0
sg9
I3
sg10
I0
sg11
I1190
ssg12
(dp21
g5
I24
sg6
I6
sg7
I0
sg8
I0
sg9
I56
sg10
I0
sg11
I20
ssg14
(dp22
g5
I1210
sg6
I59
sg7
I0
sg8
I0
sg9
I3
sg10
I0
sg11
I1210
ssg16
(dp23
g5
I2280
sg6
I59
sg7
I0
sg8
I0
sg9
I3
sg10
I0
sg11
I1140
sssS'Hall.csv'
p24
(dp25
g3
(dp26
g5
I669
sg6
I102
sg7
I0
sg8
I0
sg9
I2
sg10
I0
sg11
I510
ssg12
(dp27
g5
I511
sg6
I101
sg7
I0
sg8
I0
sg9
I3
sg10
I0
sg11
I360
ssg14
(dp28
g5
I540
sg6
I102
sg7
I0
sg8
I0
sg9
I2
sg10
I0
sg11
I540
ssg16
(dp29
g5
I940
sg6
I102
sg7
I0
sg8
I0
sg9
I2
sg10
I0
sg11
I470
sssS'Danijel.csv'
p30
(dp31
g3
(dp32
g5
I1217
sg6
I45
sg7
I0
sg8
I0
sg9
I3
sg10
I0
sg11
I770
ssg12
(dp33
g5
I700
sg6
I44
sg7
I0
sg8
I0
sg9
I4
sg10
I0
sg11
I520
ssg14
(dp34
g5
I750
sg6
I45
sg7
I0
sg8
I0
sg9
I3
sg10
I0
sg11
I750
ssg16
(dp35
g5
I1560
sg6
I45
sg7
I0
sg8
I0
sg9
I3
sg10
I0
sg11
I780
sss.(dp0
S'K_all3.csv'
p1
(dp2
S'machine'
p3
(dp4
S'count'
p5
I440
sS'truepos'
p6
I36
sS'falseneg'
p7
I0
sS'correction'
p8
I0
sS'unknownyes'
p9
I9
sS'falsepos'
p10
I0
sS'unique'
p11
I340
ssS'knee'
p12
(dp13
g5
I856
sg6
I42
sg7
I0
sg8
I0
sg9
I3
sg10
I0
sg11
I650
ssS'none'
p14
(dp15
g5
I410
sg6
I39
sg7
I0
sg8
I0
sg9
I6
sg10
I0
sg11
I410
ssS'three'
p16
(dp17
g5
I780
sg6
I38
sg7
I0
sg8
I0
sg9
I7
sg10
I0
sg11
I390
sssS'Wahono.csv'
p18
(dp19
g3
(dp20
g5
I1720
sg6
I59
sg7
I0
sg8
I0
sg9
I3
sg10
I0
sg11
I1160
ssg12
(dp21
g5
I371
sg6
I39
sg7
I0
sg8
I0
sg9
I23
sg10
I0
sg11
I220
ssg14
(dp22
g5
I1130
sg6
I59
sg7
I0
sg8
I0
sg9
I3
sg10
I0
sg11
I1130
ssg16
(dp23
g5
I2380
sg6
I59
sg7
I0
sg8
I0
sg9
I3
sg10
I0
sg11
I1190
sssS'Hall.csv'
p24
(dp25
g3
(dp26
g5
I669
sg6
I102
sg7
I0
sg8
I0
sg9
I2
sg10
I0
sg11
I510
ssg12
(dp27
g5
I531
sg6
I101
sg7
I0
sg8
I0
sg9
I3
sg10
I0
sg11
I370
ssg14
(dp28
g5
I500
sg6
I102
sg7
I0
sg8
I0
sg9
I2
sg10
I0
sg11
I500
ssg16
(dp29
g5
I980
sg6
I102
sg7
I0
sg8
I0
sg9
I2
sg10
I0
sg11
I490
sssS'Danijel.csv'
p30
(dp31
g3
(dp32
g5
I1172
sg6
I45
sg7
I0
sg8
I0
sg9
I3
sg10
I0
sg11
I760
ssg12
(dp33
g5
I602
sg6
I42
sg7
I0
sg8
I0
sg9
I6
sg10
I0
sg11
I420
ssg14
(dp34
g5
I740
sg6
I45
sg7
I0
sg8
I0
sg9
I3
sg10
I0
sg11
I740
ssg16
(dp35
g5
I1500
sg6
I45
sg7
I0
sg8
I0
sg9
I3
sg10
I0
sg11
I750
sss.(dp0
S'K_all3.csv'
p1
(dp2
S'machine'
p3
(dp4
S'count'
p5
I630
sS'truepos'
p6
I38
sS'falseneg'
p7
I0
sS'correction'
p8
I0
sS'unknownyes'
p9
I7
sS'falsepos'
p10
I0
sS'unique'
p11
I430
ssS'knee'
p12
(dp13
g5
I879
sg6
I43
sg7
I0
sg8
I0
sg9
I2
sg10
I0
sg11
I690
ssS'none'
p14
(dp15
g5
I400
sg6
I39
sg7
I0
sg8
I0
sg9
I6
sg10
I0
sg11
I400
ssS'three'
p16
(dp17
g5
I880
sg6
I37
sg7
I0
sg8
I0
sg9
I8
sg10
I0
sg11
I440
sssS'Wahono.csv'
p18
(dp19
g3
(dp20
g5
I1644
sg6
I59
sg7
I0
sg8
I0
sg9
I3
sg10
I0
sg11
I1130
ssg12
(dp21
g5
I974
sg6
I58
sg7
I0
sg8
I0
sg9
I4
sg10
I0
sg11
I730
ssg14
(dp22
g5
I1170
sg6
I59
sg7
I0
sg8
I0
sg9
I3
sg10
I0
sg11
I1170
ssg16
(dp23
g5
I2360
sg6
I59
sg7
I0
sg8
I0
sg9
I3
sg10
I0
sg11
I1180
sssS'Hall.csv'
p24
(dp25
g3
(dp26
g5
I691
sg6
I102
sg7
I0
sg8
I0
sg9
I2
sg10
I0
sg11
I520
ssg12
(dp27
g5
I487
sg6
I101
sg7
I0
sg8
I0
sg9
I3
sg10
I0
sg11
I340
ssg14
(dp28
g5
I520
sg6
I102
sg7
I0
sg8
I0
sg9
I2
sg10
I0
sg11
I520
ssg16
(dp29
g5
I980
sg6
I102
sg7
I0
sg8
I0
sg9
I2
sg10
I0
sg11
I490
sssS'Danijel.csv'
p30
(dp31
g3
(dp32
g5
I1109
sg6
I45
sg7
I0
sg8
I0
sg9
I3
sg10
I0
sg11
I720
ssg12
(dp33
g5
I588
sg6
I42
sg7
I0
sg8
I0
sg9
I6
sg10
I0
sg11
I420
ssg14
(dp34
g5
I730
sg6
I45
sg7
I0
sg8
I0
sg9
I3
sg10
I0
sg11
I730
ssg16
(dp35
g5
I1560
sg6
I45
sg7
I0
sg8
I0
sg9
I3
sg10
I0
sg11
I780
sss.(dp0
S'K_all3.csv'
p1
(dp2
S'machine'
p3
(dp4
S'count'
p5
I695
sS'truepos'
p6
I41
sS'falseneg'
p7
I0
sS'correction'
p8
I0
sS'unknownyes'
p9
I4
sS'falsepos'
p10
I0
sS'unique'
p11
I460
ssS'knee'
p12
(dp13
g5
I853
sg6
I43
sg7
I0
sg8
I0
sg9
I2
sg10
I0
sg11
I690
ssS'none'
p14
(dp15
g5
I440
sg6
I39
sg7
I0
sg8
I0
sg9
I6
sg10
I0
sg11
I440
ssS'three'
p16
(dp17
g5
I800
sg6
I38
sg7
I0
sg8
I0
sg9
I7
sg10
I0
sg11
I400
sssS'Wahono.csv'
p18
(dp19
g3
(dp20
g5
I1603
sg6
I59
sg7
I0
sg8
I0
sg9
I3
sg10
I0
sg11
I1070
ssg12
(dp21
g5
I1081
sg6
I59
sg7
I0
sg8
I0
sg9
I3
sg10
I0
sg11
I890
ssg14
(dp22
g5
I1170
sg6
I59
sg7
I0
sg8
I0
sg9
I3
sg10
I0
sg11
I1170
ssg16
(dp23
g5
I2200
sg6
I59
sg7
I0
sg8
I0
sg9
I3
sg10
I0
sg11
I1100
sssS'Hall.csv'
p24
(dp25
g3
(dp26
g5
I700
sg6
I102
sg7
I0
sg8
I0
sg9
I2
sg10
I0
sg11
I510
ssg12
(dp27
g5
I590
sg6
I102
sg7
I0
sg8
I0
sg9
I2
sg10
I0
sg11
I410
ssg14
(dp28
g5
I480
sg6
I102
sg7
I0
sg8
I0
sg9
I2
sg10
I0
sg11
I480
ssg16
(dp29
g5
I1060
sg6
I102
sg7
I0
sg8
I0
sg9
I2
sg10
I0
sg11
I530
sssS'Danijel.csv'
p30
(dp31
g3
(dp32
g5
I1200
sg6
I45
sg7
I0
sg8
I0
sg9
I3
sg10
I0
sg11
I760
ssg12
(dp33
g5
I742
sg6
I44
sg7
I0
sg8
I0
sg9
I4
sg10
I0
sg11
I550
ssg14
(dp34
g5
I720
sg6
I45
sg7
I0
sg8
I0
sg9
I3
sg10
I0
sg11
I720
ssg16
(dp35
g5
I1440
sg6
I46
sg7
I0
sg8
I0
sg9
I2
sg10
I0
sg11
I720
sss.(dp0
S'K_all3.csv'
p1
(dp2
S'machine'
p3
(dp4
S'count'
p5
I575
sS'truepos'
p6
I40
sS'falseneg'
p7
I0
sS'correction'
p8
I0
sS'unknownyes'
p9
I5
sS'falsepos'
p10
I0
sS'unique'
p11
I400
ssS'knee'
p12
(dp13
g5
I891
sg6
I43
sg7
I0
sg8
I0
sg9
I2
sg10
I0
sg11
I710
ssS'none'
p14
(dp15
g5
I400
sg6
I38
sg7
I0
sg8
I0
sg9
I7
sg10
I0
sg11
I400
ssS'three'
p16
(dp17
g5
I800
sg6
I39
sg7
I0
sg8
I0
sg9
I6
sg10
I0
sg11
I400
sssS'Wahono.csv'
p18
(dp19
g3
(dp20
g5
I1659
sg6
I59
sg7
I0
sg8
I0
sg9
I3
sg10
I0
sg11
I1140
ssg12
(dp21
g5
I24
sg6
I6
sg7
I0
sg8
I0
sg9
I56
sg10
I0
sg11
I20
ssg14
(dp22
g5
I1170
sg6
I59
sg7
I0
sg8
I0
sg9
I3
sg10
I0
sg11
I1170
ssg16
(dp23
g5
I2320
sg6
I59
sg7
I0
sg8
I0
sg9
I3
sg10
I0
sg11
I1160
sssS'Hall.csv'
p24
(dp25
g3
(dp26
g5
I673
sg6
I102
sg7
I0
sg8
I0
sg9
I2
sg10
I0
sg11
I510
ssg12
(dp27
g5
I605
sg6
I101
sg7
I0
sg8
I0
sg9
I3
sg10
I0
sg11
I430
ssg14
(dp28
g5
I480
sg6
I102
sg7
I0
sg8
I0
sg9
I2
sg10
I0
sg11
I480
ssg16
(dp29
g5
I1060
sg6
I102
sg7
I0
sg8
I0
sg9
I2
sg10
I0
sg11
I530
sssS'Danijel.csv'
p30
(dp31
g3
(dp32
g5
I1235
sg6
I45
sg7
I0
sg8
I0
sg9
I3
sg10
I0
sg11
I760
ssg12
(dp33
g5
I686
sg6
I44
sg7
I0
sg8
I0
sg9
I4
sg10
I0
sg11
I530
ssg14
(dp34
g5
I770
sg6
I46
sg7
I0
sg8
I0
sg9
I2
sg10
I0
sg11
I770
ssg16
(dp35
g5
I1500
sg6
I45
sg7
I0
sg8
I0
sg9
I3
sg10
I0
sg11
I750
sss.(dp0
S'K_all3.csv'
p1
(dp2
S'machine'
p3
(dp4
S'count'
p5
I640
sS'truepos'
p6
I38
sS'falseneg'
p7
I0
sS'correction'
p8
I0
sS'unknownyes'
p9
I7
sS'falsepos'
p10
I0
sS'unique'
p11
I440
ssS'knee'
p12
(dp13
g5
I959
sg6
I43
sg7
I0
sg8
I0
sg9
I2
sg10
I0
sg11
I750
ssS'none'
p14
(dp15
g5
I430
sg6
I38
sg7
I0
sg8
I0
sg9
I7
sg10
I0
sg11
I430
ssS'three'
p16
(dp17
g5
I840
sg6
I39
sg7
I0
sg8
I0
sg9
I6
sg10
I0
sg11
I420
sssS'Wahono.csv'
p18
(dp19
g3
(dp20
g5
I1741
sg6
I59
sg7
I0
sg8
I0
sg9
I3
sg10
I0
sg11
I1170
ssg12
(dp21
g5
I854
sg6
I58
sg7
I0
sg8
I0
sg9
I4
sg10
I0
sg11
I640
ssg14
(dp22
g5
I1190
sg6
I59
sg7
I0
sg8
I0
sg9
I3
sg10
I0
sg11
I1190
ssg16
(dp23
g5
I2420
sg6
I60
sg7
I0
sg8
I0
sg9
I2
sg10
I0
sg11
I1210
sssS'Hall.csv'
p24
(dp25
g3
(dp26
g5
I602
sg6
I101
sg7
I0
sg8
I0
sg9
I3
sg10
I0
sg11
I430
ssg12
(dp27
g5
I540
sg6
I100
sg7
I0
sg8
I0
sg9
I4
sg10
I0
sg11
I370
ssg14
(dp28
g5
I520
sg6
I102
sg7
I0
sg8
I0
sg9
I2
sg10
I0
sg11
I520
ssg16
(dp29
g5
I980
sg6
I102
sg7
I0
sg8
I0
sg9
I2
sg10
I0
sg11
I490
sssS'Danijel.csv'
p30
(dp31
g3
(dp32
g5
I1074
sg6
I45
sg7
I0
sg8
I0
sg9
I3
sg10
I0
sg11
I680
ssg12
(dp33
g5
I613
sg6
I43
sg7
I0
sg8
I0
sg9
I5
sg10
I0
sg11
I460
ssg14
(dp34
g5
I760
sg6
I45
sg7
I0
sg8
I0
sg9
I3
sg10
I0
sg11
I760
ssg16
(dp35
g5
I1420
sg6
I45
sg7
I0
sg8
I0
sg9
I3
sg10
I0
sg11
I710
sss.(dp0
S'K_all3.csv'
p1
(dp2
S'machine'
p3
(dp4
S'count'
p5
I540
sS'truepos'
p6
I37
sS'falseneg'
p7
I0
sS'correction'
p8
I0
sS'unknownyes'
p9
I8
sS'falsepos'
p10
I0
sS'unique'
p11
I390
ssS'knee'
p12
(dp13
g5
I570
sg6
I34
sg7
I0
sg8
I0
sg9
I11
sg10
I0
sg11
I380
ssS'none'
p14
(dp15
g5
I420
sg6
I38
sg7
I0
sg8
I0
sg9
I7
sg10
I0
sg11
I420
ssS'three'
p16
(dp17
g5
I820
sg6
I39
sg7
I0
sg8
I0
sg9
I6
sg10
I0
sg11
I410
sssS'Wahono.csv'
p18
(dp19
g3
(dp20
g5
I1732
sg6
I59
sg7
I0
sg8
I0
sg9
I3
sg10
I0
sg11
I1180
ssg12
(dp21
g5
I24
sg6
I6
sg7
I0
sg8
I0
sg9
I56
sg10
I0
sg11
I20
ssg14
(dp22
g5
I1140
sg6
I59
sg7
I0
sg8
I0
sg9
I3
sg10
I0
sg11
I1140
ssg16
(dp23
g5
I2380
sg6
I59
sg7
I0
sg8
I0
sg9
I3
sg10
I0
sg11
I1190
sssS'Hall.csv'
p24
(dp25
g3
(dp26
g5
I603
sg6
I101
sg7
I0
sg8
I0
sg9
I3
sg10
I0
sg11
I450
ssg12
(dp27
g5
I489
sg6
I99
sg7
I0
sg8
I0
sg9
I5
sg10
I0
sg11
I330
ssg14
(dp28
g5
I490
sg6
I102
sg7
I0
sg8
I0
sg9
I2
sg10
I0
sg11
I490
ssg16
(dp29
g5
I1040
sg6
I102
sg7
I0
sg8
I0
sg9
I2
sg10
I0
sg11
I520
sssS'Danijel.csv'
p30
(dp31
g3
(dp32
g5
I1221
sg6
I45
sg7
I0
sg8
I0
sg9
I3
sg10
I0
sg11
I770
ssg12
(dp33
g5
I607
sg6
I43
sg7
I0
sg8
I0
sg9
I5
sg10
I0
sg11
I430
ssg14
(dp34
g5
I760
sg6
I45
sg7
I0
sg8
I0
sg9
I3
sg10
I0
sg11
I760
ssg16
(dp35
g5
I1460
sg6
I45
sg7
I0
sg8
I0
sg9
I3
sg10
I0
sg11
I730
sss.(dp0
S'K_all3.csv'
p1
(dp2
S'machine'
p3
(dp4
S'count'
p5
I630
sS'truepos'
p6
I39
sS'falseneg'
p7
I0
sS'correction'
p8
I0
sS'unknownyes'
p9
I6
sS'falsepos'
p10
I0
sS'unique'
p11
I430
ssS'knee'
p12
(dp13
g5
I919
sg6
I43
sg7
I0
sg8
I0
sg9
I2
sg10
I0
sg11
I720
ssS'none'
p14
(dp15
g5
I390
sg6
I39
sg7
I0
sg8
I0
sg9
I6
sg10
I0
sg11
I390
ssS'three'
p16
(dp17
g5
I820
sg6
I39
sg7
I0
sg8
I0
sg9
I6
sg10
I0
sg11
I410
sssS'Wahono.csv'
p18
(dp19
g3
(dp20
g5
I1749
sg6
I59
sg7
I0
sg8
I0
sg9
I3
sg10
I0
sg11
I1200
ssg12
(dp21
g5
I24
sg6
I6
sg7
I0
sg8
I0
sg9
I56
sg10
I0
sg11
I20
ssg14
(dp22
g5
I1200
sg6
I59
sg7
I0
sg8
I0
sg9
I3
sg10
I0
sg11
I1200
ssg16
(dp23
g5
I2320
sg6
I59
sg7
I0
sg8
I0
sg9
I3
sg10
I0
sg11
I1160
sssS'Hall.csv'
p24
(dp25
g3
(dp26
g5
I649
sg6
I102
sg7
I0
sg8
I0
sg9
I2
sg10
I0
sg11
I480
ssg12
(dp27
g5
I587
sg6
I101
sg7
I0
sg8
I0
sg9
I3
sg10
I0
sg11
I420
ssg14
(dp28
g5
I500
sg6
I102
sg7
I0
sg8
I0
sg9
I2
sg10
I0
sg11
I500
ssg16
(dp29
g5
I1000
sg6
I102
sg7
I0
sg8
I0
sg9
I2
sg10
I0
sg11
I500
sssS'Danijel.csv'
p30
(dp31
g3
(dp32
g5
I1190
sg6
I45
sg7
I0
sg8
I0
sg9
I3
sg10
I0
sg11
I740
ssg12
(dp33
g5
I608
sg6
I44
sg7
I0
sg8
I0
sg9
I4
sg10
I0
sg11
I480
ssg14
(dp34
g5
I750
sg6
I44
sg7
I0
sg8
I0
sg9
I4
sg10
I0
sg11
I750
ssg16
(dp35
g5
I1360
sg6
I45
sg7
I0
sg8
I0
sg9
I3
sg10
I0
sg11
I680
sss.(dp0
S'K_all3.csv'
p1
(dp2
S'machine'
p3
(dp4
S'count'
p5
I640
sS'truepos'
p6
I38
sS'falseneg'
p7
I0
sS'correction'
p8
I0
sS'unknownyes'
p9
I7
sS'falsepos'
p10
I0
sS'unique'
p11
I440
ssS'knee'
p12
(dp13
g5
I874
sg6
I42
sg7
I0
sg8
I0
sg9
I3
sg10
I0
sg11
I710
ssS'none'
p14
(dp15
g5
I410
sg6
I38
sg7
I0
sg8
I0
sg9
I7
sg10
I0
sg11
I410
ssS'three'
p16
(dp17
g5
I780
sg6
I38
sg7
I0
sg8
I0
sg9
I7
sg10
I0
sg11
I390
sssS'Wahono.csv'
p18
(dp19
g3
(dp20
g5
I1691
sg6
I59
sg7
I0
sg8
I0
sg9
I3
sg10
I0
sg11
I1130
ssg12
(dp21
g5
I1113
sg6
I59
sg7
I0
sg8
I0
sg9
I3
sg10
I0
sg11
I880
ssg14
(dp22
g5
I1220
sg6
I59
sg7
I0
sg8
I0
sg9
I3
sg10
I0
sg11
I1220
ssg16
(dp23
g5
I2420
sg6
I59
sg7
I0
sg8
I0
sg9
I3
sg10
I0
sg11
I1210
sssS'Hall.csv'
p24
(dp25
g3
(dp26
g5
I555
sg6
I99
sg7
I0
sg8
I0
sg9
I5
sg10
I0
sg11
I380
ssg12
(dp27
g5
I618
sg6
I102
sg7
I0
sg8
I0
sg9
I2
sg10
I0
sg11
I460
ssg14
(dp28
g5
I490
sg6
I102
sg7
I0
sg8
I0
sg9
I2
sg10
I0
sg11
I490
ssg16
(dp29
g5
I980
sg6
I102
sg7
I0
sg8
I0
sg9
I2
sg10
I0
sg11
I490
sssS'Danijel.csv'
p30
(dp31
g3
(dp32
g5
I1204
sg6
I45
sg7
I0
sg8
I0
sg9
I3
sg10
I0
sg11
I760
ssg12
(dp33
g5
I615
sg6
I43
sg7
I0
sg8
I0
sg9
I5
sg10
I0
sg11
I430
ssg14
(dp34
g5
I740
sg6
I45
sg7
I0
sg8
I0
sg9
I3
sg10
I0
sg11
I740
ssg16
(dp35
g5
I1520
sg6
I45
sg7
I0
sg8
I0
sg9
I3
sg10
I0
sg11
I760
sss.(dp0
S'K_all3.csv'
p1
(dp2
S'machine'
p3
(dp4
S'count'
p5
I631
sS'truepos'
p6
I38
sS'falseneg'
p7
I0
sS'correction'
p8
I0
sS'unknownyes'
p9
I7
sS'falsepos'
p10
I0
sS'unique'
p11
I430
ssS'knee'
p12
(dp13
g5
I931
sg6
I43
sg7
I0
sg8
I0
sg9
I2
sg10
I0
sg11
I740
ssS'none'
p14
(dp15
g5
I410
sg6
I38
sg7
I0
sg8
I0
sg9
I7
sg10
I0
sg11
I410
ssS'three'
p16
(dp17
g5
I820
sg6
I39
sg7
I0
sg8
I0
sg9
I6
sg10
I0
sg11
I410
sssS'Wahono.csv'
p18
(dp19
g3
(dp20
g5
I1650
sg6
I59
sg7
I0
sg8
I0
sg9
I3
sg10
I0
sg11
I1110
ssg12
(dp21
g5
I1209
sg6
I59
sg7
I0
sg8
I0
sg9
I3
sg10
I0
sg11
I930
ssg14
(dp22
g5
I1190
sg6
I59
sg7
I0
sg8
I0
sg9
I3
sg10
I0
sg11
I1190
ssg16
(dp23
g5
I2400
sg6
I59
sg7
I0
sg8
I0
sg9
I3
sg10
I0
sg11
I1200
sssS'Hall.csv'
p24
(dp25
g3
(dp26
g5
I661
sg6
I102
sg7
I0
sg8
I0
sg9
I2
sg10
I0
sg11
I490
ssg12
(dp27
g5
I549
sg6
I101
sg7
I0
sg8
I0
sg9
I3
sg10
I0
sg11
I400
ssg14
(dp28
g5
I500
sg6
I102
sg7
I0
sg8
I0
sg9
I2
sg10
I0
sg11
I500
ssg16
(dp29
g5
I1040
sg6
I102
sg7
I0
sg8
I0
sg9
I2
sg10
I0
sg11
I520
sssS'Danijel.csv'
p30
(dp31
g3
(dp32
g5
I1190
sg6
I45
sg7
I0
sg8
I0
sg9
I3
sg10
I0
sg11
I730
ssg12
(dp33
g5
I711
sg6
I43
sg7
I0
sg8
I0
sg9
I5
sg10
I0
sg11
I480
ssg14
(dp34
g5
I750
sg6
I45
sg7
I0
sg8
I0
sg9
I3
sg10
I0
sg11
I750
ssg16
(dp35
g5
I1420
sg6
I45
sg7
I0
sg8
I0
sg9
I3
sg10
I0
sg11
I710
sss.(dp0
S'K_all3.csv'
p1
(dp2
S'machine'
p3
(dp4
S'count'
p5
I590
sS'truepos'
p6
I38
sS'falseneg'
p7
I0
sS'correction'
p8
I0
sS'unknownyes'
p9
I7
sS'falsepos'
p10
I0
sS'unique'
p11
I390
ssS'knee'
p12
(dp13
g5
I490
sg6
I32
sg7
I0
sg8
I0
sg9
I13
sg10
I0
sg11
I320
ssS'none'
p14
(dp15
g5
I430
sg6
I38
sg7
I0
sg8
I0
sg9
I7
sg10
I0
sg11
I430
ssS'three'
p16
(dp17
g5
I820
sg6
I38
sg7
I0
sg8
I0
sg9
I7
sg10
I0
sg11
I410
sssS'Wahono.csv'
p18
(dp19
g3
(dp20
g5
I1666
sg6
I59
sg7
I0
sg8
I0
sg9
I3
sg10
I0
sg11
I1100
ssg12
(dp21
g5
I24
sg6
I6
sg7
I0
sg8
I0
sg9
I56
sg10
I0
sg11
I20
ssg14
(dp22
g5
I1180
sg6
I59
sg7
I0
sg8
I0
sg9
I3
sg10
I0
sg11
I1180
ssg16
(dp23
g5
I2300
sg6
I59
sg7
I0
sg8
I0
sg9
I3
sg10
I0
sg11
I1150
sssS'Hall.csv'
p24
(dp25
g3
(dp26
g5
I667
sg6
I102
sg7
I0
sg8
I0
sg9
I2
sg10
I0
sg11
I470
ssg12
(dp27
g5
I592
sg6
I102
sg7
I0
sg8
I0
sg9
I2
sg10
I0
sg11
I440
ssg14
(dp28
g5
I500
sg6
I102
sg7
I0
sg8
I0
sg9
I2
sg10
I0
sg11
I500
ssg16
(dp29
g5
I1000
sg6
I102
sg7
I0
sg8
I0
sg9
I2
sg10
I0
sg11
I500
sssS'Danijel.csv'
p30
(dp31
g3
(dp32
g5
I1249
sg6
I45
sg7
I0
sg8
I0
sg9
I3
sg10
I0
sg11
I780
ssg12
(dp33
g5
I580
sg6
I42
sg7
I0
sg8
I0
sg9
I6
sg10
I0
sg11
I420
ssg14
(dp34
g5
I760
sg6
I46
sg7
I0
sg8
I0
sg9
I2
sg10
I0
sg11
I760
ssg16
(dp35
g5
I1520
sg6
I45
sg7
I0
sg8
I0
sg9
I3
sg10
I0
sg11
I760
sss.(dp0
S'K_all3.csv'
p1
(dp2
S'machine'
p3
(dp4
S'count'
p5
I631
sS'truepos'
p6
I37
sS'falseneg'
p7
I0
sS'correction'
p8
I0
sS'unknownyes'
p9
I8
sS'falsepos'
p10
I0
sS'unique'
p11
I430
ssS'knee'
p12
(dp13
g5
I905
sg6
I43
sg7
I0
sg8
I0
sg9
I2
sg10
I0
sg11
I740
ssS'none'
p14
(dp15
g5
I390
sg6
I38
sg7
I0
sg8
I0
sg9
I7
sg10
I0
sg11
I390
ssS'three'
p16
(dp17
g5
I880
sg6
I38
sg7
I0
sg8
I0
sg9
I7
sg10
I0
sg11
I440
sssS'Wahono.csv'
p18
(dp19
g3
(dp20
g5
I1691
sg6
I59
sg7
I0
sg8
I0
sg9
I3
sg10
I0
sg11
I1130
ssg12
(dp21
g5
I24
sg6
I6
sg7
I0
sg8
I0
sg9
I56
sg10
I0
sg11
I20
ssg14
(dp22
g5
I1120
sg6
I59
sg7
I0
sg8
I0
sg9
I3
sg10
I0
sg11
I1120
ssg16
(dp23
g5
I2260
sg6
I59
sg7
I0
sg8
I0
sg9
I3
sg10
I0
sg11
I1130
sssS'Hall.csv'
p24
(dp25
g3
(dp26
g5
I648
sg6
I102
sg7
I0
sg8
I0
sg9
I2
sg10
I0
sg11
I470
ssg12
(dp27
g5
I702
sg6
I102
sg7
I0
sg8
I0
sg9
I2
sg10
I0
sg11
I510
ssg14
(dp28
g5
I450
sg6
I101
sg7
I0
sg8
I0
sg9
I3
sg10
I0
sg11
I450
ssg16
(dp29
g5
I1020
sg6
I102
sg7
I0
sg8
I0
sg9
I2
sg10
I0
sg11
I510
sssS'Danijel.csv'
p30
(dp31
g3
(dp32
g5
I1163
sg6
I45
sg7
I0
sg8
I0
sg9
I3
sg10
I0
sg11
I730
ssg12
(dp33
g5
I397
sg6
I37
sg7
I0
sg8
I0
sg9
I11
sg10
I0
sg11
I260
ssg14
(dp34
g5
I760
sg6
I45
sg7
I0
sg8
I0
sg9
I3
sg10
I0
sg11
I760
ssg16
(dp35
g5
I1540
sg6
I45
sg7
I0
sg8
I0
sg9
I3
sg10
I0
sg11
I770
sss.(dp0
S'K_all3.csv'
p1
(dp2
S'machine'
p3
(dp4
S'count'
p5
I663
sS'truepos'
p6
I38
sS'falseneg'
p7
I0
sS'correction'
p8
I0
sS'unknownyes'
p9
I7
sS'falsepos'
p10
I0
sS'unique'
p11
I440
ssS'knee'
p12
(dp13
g5
I551
sg6
I35
sg7
I0
sg8
I0
sg9
I10
sg10
I0
sg11
I370
ssS'none'
p14
(dp15
g5
I410
sg6
I38
sg7
I0
sg8
I0
sg9
I7
sg10
I0
sg11
I410
ssS'three'
p16
(dp17
g5
I860
sg6
I38
sg7
I0
sg8
I0
sg9
I7
sg10
I0
sg11
I430
sssS'Wahono.csv'
p18
(dp19
g3
(dp20
g5
I1769
sg6
I59
sg7
I0
sg8
I0
sg9
I3
sg10
I0
sg11
I1210
ssg12
(dp21
g5
I35
sg6
I7
sg7
I0
sg8
I0
sg9
I55
sg10
I0
sg11
I30
ssg14
(dp22
g5
I1120
sg6
I59
sg7
I0
sg8
I0
sg9
I3
sg10
I0
sg11
I1120
ssg16
(dp23
g5
I2260
sg6
I59
sg7
I0
sg8
I0
sg9
I3
sg10
I0
sg11
I1130
sssS'Hall.csv'
p24
(dp25
g3
(dp26
g5
I714
sg6
I102
sg7
I0
sg8
I0
sg9
I2
sg10
I0
sg11
I520
ssg12
(dp27
g5
I538
sg6
I100
sg7
I0
sg8
I0
sg9
I4
sg10
I0
sg11
I410
ssg14
(dp28
g5
I480
sg6
I102
sg7
I0
sg8
I0
sg9
I2
sg10
I0
sg11
I480
ssg16
(dp29
g5
I900
sg6
I101
sg7
I0
sg8
I0
sg9
I3
sg10
I0
sg11
I450
sssS'Danijel.csv'
p30
(dp31
g3
(dp32
g5
I1223
sg6
I46
sg7
I0
sg8
I0
sg9
I2
sg10
I0
sg11
I750
ssg12
(dp33
g5
I826
sg6
I44
sg7
I0
sg8
I0
sg9
I4
sg10
I0
sg11
I590
ssg14
(dp34
g5
I740
sg6
I45
sg7
I0
sg8
I0
sg9
I3
sg10
I0
sg11
I740
ssg16
(dp35
g5
I1540
sg6
I45
sg7
I0
sg8
I0
sg9
I3
sg10
I0
sg11
I770
sss.(dp0
S'K_all3.csv'
p1
(dp2
S'machine'
p3
(dp4
S'count'
p5
I610
sS'truepos'
p6
I38
sS'falseneg'
p7
I0
sS'correction'
p8
I0
sS'unknownyes'
p9
I7
sS'falsepos'
p10
I0
sS'unique'
p11
I410
ssS'knee'
p12
(dp13
g5
I931
sg6
I43
sg7
I0
sg8
I0
sg9
I2
sg10
I0
sg11
I740
ssS'none'
p14
(dp15
g5
I420
sg6
I38
sg7
I0
sg8
I0
sg9
I7
sg10
I0
sg11
I420
ssS'three'
p16
(dp17
g5
I920
sg6
I38
sg7
I0
sg8
I0
sg9
I7
sg10
I0
sg11
I460
sssS'Wahono.csv'
p18
(dp19
g3
(dp20
g5
I1639
sg6
I59
sg7
I0
sg8
I0
sg9
I3
sg10
I0
sg11
I1080
ssg12
(dp21
g5
I35
sg6
I7
sg7
I0
sg8
I0
sg9
I55
sg10
I0
sg11
I30
ssg14
(dp22
g5
I1180
sg6
I60
sg7
I0
sg8
I0
sg9
I2
sg10
I0
sg11
I1180
ssg16
(dp23
g5
I2300
sg6
I59
sg7
I0
sg8
I0
sg9
I3
sg10
I0
sg11
I1150
sssS'Hall.csv'
p24
(dp25
g3
(dp26
g5
I631
sg6
I102
sg7
I0
sg8
I0
sg9
I2
sg10
I0
sg11
I460
ssg12
(dp27
g5
I575
sg6
I101
sg7
I0
sg8
I0
sg9
I3
sg10
I0
sg11
I430
ssg14
(dp28
g5
I490
sg6
I102
sg7
I0
sg8
I0
sg9
I2
sg10
I0
sg11
I490
ssg16
(dp29
g5
I1000
sg6
I102
sg7
I0
sg8
I0
sg9
I2
sg10
I0
sg11
I500
sssS'Danijel.csv'
p30
(dp31
g3
(dp32
g5
I1202
sg6
I45
sg7
I0
sg8
I0
sg9
I3
sg10
I0
sg11
I750
ssg12
(dp33
g5
I597
sg6
I43
sg7
I0
sg8
I0
sg9
I5
sg10
I0
sg11
I430
ssg14
(dp34
g5
I720
sg6
I45
sg7
I0
sg8
I0
sg9
I3
sg10
I0
sg11
I720
ssg16
(dp35
g5
I1580
sg6
I45
sg7
I0
sg8
I0
sg9
I3
sg10
I0
sg11
I790
sss.(dp0
S'K_all3.csv'
p1
(dp2
S'machine'
p3
(dp4
S'count'
p5
I610
sS'truepos'
p6
I38
sS'falseneg'
p7
I0
sS'correction'
p8
I0
sS'unknownyes'
p9
I7
sS'falsepos'
p10
I0
sS'unique'
p11
I410
ssS'knee'
p12
(dp13
g5
I890
sg6
I42
sg7
I0
sg8
I0
sg9
I3
sg10
I0
sg11
I700
ssS'none'
p14
(dp15
g5
I410
sg6
I39
sg7
I0
sg8
I0
sg9
I6
sg10
I0
sg11
I410
ssS'three'
p16
(dp17
g5
I840
sg6
I38
sg7
I0
sg8
I0
sg9
I7
sg10
I0
sg11
I420
sssS'Wahono.csv'
p18
(dp19
g3
(dp20
g5
I1729
sg6
I60
sg7
I0
sg8
I0
sg9
I2
sg10
I0
sg11
I1150
ssg12
(dp21
g5
I994
sg6
I58
sg7
I0
sg8
I0
sg9
I4
sg10
I0
sg11
I790
ssg14
(dp22
g5
I1150
sg6
I59
sg7
I0
sg8
I0
sg9
I3
sg10
I0
sg11
I1150
ssg16
(dp23
g5
I2300
sg6
I59
sg7
I0
sg8
I0
sg9
I3
sg10
I0
sg11
I1150
sssS'Hall.csv'
p24
(dp25
g3
(dp26
g5
I650
sg6
I102
sg7
I0
sg8
I0
sg9
I2
sg10
I0
sg11
I490
ssg12
(dp27
g5
I513
sg6
I101
sg7
I0
sg8
I0
sg9
I3
sg10
I0
sg11
I340
ssg14
(dp28
g5
I430
sg6
I101
sg7
I0
sg8
I0
sg9
I3
sg10
I0
sg11
I430
ssg16
(dp29
g5
I1040
sg6
I102
sg7
I0
sg8
I0
sg9
I2
sg10
I0
sg11
I520
sssS'Danijel.csv'
p30
(dp31
g3
(dp32
g5
I1208
sg6
I45
sg7
I0
sg8
I0
sg9
I3
sg10
I0
sg11
I780
ssg12
(dp33
g5
I553
sg6
I41
sg7
I0
sg8
I0
sg9
I7
sg10
I0
sg11
I370
ssg14
(dp34
g5
I750
sg6
I45
sg7
I0
sg8
I0
sg9
I3
sg10
I0
sg11
I750
ssg16
(dp35
g5
I1580
sg6
I45
sg7
I0
sg8
I0
sg9
I3
sg10
I0
sg11
I790
sss.(dp0
S'K_all3.csv'
p1
(dp2
S'machine'
p3
(dp4
S'count'
p5
I612
sS'truepos'
p6
I38
sS'falseneg'
p7
I0
sS'correction'
p8
I0
sS'unknownyes'
p9
I7
sS'falsepos'
p10
I0
sS'unique'
p11
I420
ssS'knee'
p12
(dp13
g5
I561
sg6
I33
sg7
I0
sg8
I0
sg9
I12
sg10
I0
sg11
I380
ssS'none'
p14
(dp15
g5
I430
sg6
I38
sg7
I0
sg8
I0
sg9
I7
sg10
I0
sg11
I430
ssS'three'
p16
(dp17
g5
I880
sg6
I39
sg7
I0
sg8
I0
sg9
I6
sg10
I0
sg11
I440
sssS'Wahono.csv'
p18
(dp19
g3
(dp20
g5
I1617
sg6
I59
sg7
I0
sg8
I0
sg9
I3
sg10
I0
sg11
I1090
ssg12
(dp21
g5
I950
sg6
I58
sg7
I0
sg8
I0
sg9
I4
sg10
I0
sg11
I740
ssg14
(dp22
g5
I1140
sg6
I59
sg7
I0
sg8
I0
sg9
I3
sg10
I0
sg11
I1140
ssg16
(dp23
g5
I2300
sg6
I59
sg7
I0
sg8
I0
sg9
I3
sg10
I0
sg11
I1150
sssS'Hall.csv'
p24
(dp25
g3
(dp26
g5
I646
sg6
I102
sg7
I0
sg8
I0
sg9
I2
sg10
I0
sg11
I470
ssg12
(dp27
g5
I664
sg6
I102
sg7
I0
sg8
I0
sg9
I2
sg10
I0
sg11
I480
ssg14
(dp28
g5
I480
sg6
I102
sg7
I0
sg8
I0
sg9
I2
sg10
I0
sg11
I480
ssg16
(dp29
g5
I960
sg6
I102
sg7
I0
sg8
I0
sg9
I2
sg10
I0
sg11
I480
sssS'Danijel.csv'
p30
(dp31
g3
(dp32
g5
I1252
sg6
I45
sg7
I0
sg8
I0
sg9
I3
sg10
I0
sg11
I770
ssg12
(dp33
g5
I523
sg6
I41
sg7
I0
sg8
I0
sg9
I7
sg10
I0
sg11
I390
ssg14
(dp34
g5
I770
sg6
I45
sg7
I0
sg8
I0
sg9
I3
sg10
I0
sg11
I770
ssg16
(dp35
g5
I1520
sg6
I45
sg7
I0
sg8
I0
sg9
I3
sg10
I0
sg11
I760
sss.(dp0
S'K_all3.csv'
p1
(dp2
S'machine'
p3
(dp4
S'count'
p5
I610
sS'truepos'
p6
I38
sS'falseneg'
p7
I0
sS'correction'
p8
I0
sS'unknownyes'
p9
I7
sS'falsepos'
p10
I0
sS'unique'
p11
I410
ssS'knee'
p12
(dp13
g5
I972
sg6
I44
sg7
I0
sg8
I0
sg9
I1
sg10
I0
sg11
I780
ssS'none'
p14
(dp15
g5
I420
sg6
I38
sg7
I0
sg8
I0
sg9
I7
sg10
I0
sg11
I420
ssS'three'
p16
(dp17
g5
I880
sg6
I39
sg7
I0
sg8
I0
sg9
I6
sg10
I0
sg11
I440
sssS'Wahono.csv'
p18
(dp19
g3
(dp20
g5
I1682
sg6
I59
sg7
I0
sg8
I0
sg9
I3
sg10
I0
sg11
I1120
ssg12
(dp21
g5
I1110
sg6
I58
sg7
I0
sg8
I0
sg9
I4
sg10
I0
sg11
I860
ssg14
(dp22
g5
I1140
sg6
I59
sg7
I0
sg8
I0
sg9
I3
sg10
I0
sg11
I1140
ssg16
(dp23
g5
I2380
sg6
I59
sg7
I0
sg8
I0
sg9
I3
sg10
I0
sg11
I1190
sssS'Hall.csv'
p24
(dp25
g3
(dp26
g5
I639
sg6
I102
sg7
I0
sg8
I0
sg9
I2
sg10
I0
sg11
I480
ssg12
(dp27
g5
I597
sg6
I101
sg7
I0
sg8
I0
sg9
I3
sg10
I0
sg11
I450
ssg14
(dp28
g5
I470
sg6
I102
sg7
I0
sg8
I0
sg9
I2
sg10
I0
sg11
I470
ssg16
(dp29
g5
I1040
sg6
I102
sg7
I0
sg8
I0
sg9
I2
sg10
I0
sg11
I520
sssS'Danijel.csv'
p30
(dp31
g3
(dp32
g5
I1162
sg6
I45
sg7
I0
sg8
I0
sg9
I3
sg10
I0
sg11
I740
ssg12
(dp33
g5
I335
sg6
I35
sg7
I0
sg8
I0
sg9
I13
sg10
I0
sg11
I200
ssg14
(dp34
g5
I710
sg6
I45
sg7
I0
sg8
I0
sg9
I3
sg10
I0
sg11
I710
ssg16
(dp35
g5
I1480
sg6
I45
sg7
I0
sg8
I0
sg9
I3
sg10
I0
sg11
I740
sss.(dp0
S'K_all3.csv'
p1
(dp2
S'machine'
p3
(dp4
S'count'
p5
I584
sS'truepos'
p6
I38
sS'falseneg'
p7
I0
sS'correction'
p8
I0
sS'unknownyes'
p9
I7
sS'falsepos'
p10
I0
sS'unique'
p11
I400
ssS'knee'
p12
(dp13
g5
I919
sg6
I43
sg7
I0
sg8
I0
sg9
I2
sg10
I0
sg11
I720
ssS'none'
p14
(dp15
g5
I440
sg6
I38
sg7
I0
sg8
I0
sg9
I7
sg10
I0
sg11
I440
ssS'three'
p16
(dp17
g5
I800
sg6
I38
sg7
I0
sg8
I0
sg9
I7
sg10
I0
sg11
I400
sssS'Wahono.csv'
p18
(dp19
g3
(dp20
g5
I1640
sg6
I59
sg7
I0
sg8
I0
sg9
I3
sg10
I0
sg11
I1070
ssg12
(dp21
g5
I956
sg6
I58
sg7
I0
sg8
I0
sg9
I4
sg10
I0
sg11
I770
ssg14
(dp22
g5
I1090
sg6
I59
sg7
I0
sg8
I0
sg9
I3
sg10
I0
sg11
I1090
ssg16
(dp23
g5
I2220
sg6
I59
sg7
I0
sg8
I0
sg9
I3
sg10
I0
sg11
I1110
sssS'Hall.csv'
p24
(dp25
g3
(dp26
g5
I639
sg6
I101
sg7
I0
sg8
I0
sg9
I3
sg10
I0
sg11
I470
ssg12
(dp27
g5
I563
sg6
I101
sg7
I0
sg8
I0
sg9
I3
sg10
I0
sg11
I420
ssg14
(dp28
g5
I500
sg6
I102
sg7
I0
sg8
I0
sg9
I2
sg10
I0
sg11
I500
ssg16
(dp29
g5
I960
sg6
I102
sg7
I0
sg8
I0
sg9
I2
sg10
I0
sg11
I480
sssS'Danijel.csv'
p30
(dp31
g3
(dp32
g5
I1152
sg6
I45
sg7
I0
sg8
I0
sg9
I3
sg10
I0
sg11
I750
ssg12
(dp33
g5
I580
sg6
I42
sg7
I0
sg8
I0
sg9
I6
sg10
I0
sg11
I420
ssg14
(dp34
g5
I770
sg6
I45
sg7
I0
sg8
I0
sg9
I3
sg10
I0
sg11
I770
ssg16
(dp35
g5
I1520
sg6
I45
sg7
I0
sg8
I0
sg9
I3
sg10
I0
sg11
I760
sss.(dp0
S'K_all3.csv'
p1
(dp2
S'machine'
p3
(dp4
S'count'
p5
I440
sS'truepos'
p6
I34
sS'falseneg'
p7
I0
sS'correction'
p8
I0
sS'unknownyes'
p9
I11
sS'falsepos'
p10
I0
sS'unique'
p11
I340
ssS'knee'
p12
(dp13
g5
I959
sg6
I43
sg7
I0
sg8
I0
sg9
I2
sg10
I0
sg11
I750
ssS'none'
p14
(dp15
g5
I430
sg6
I38
sg7
I0
sg8
I0
sg9
I7
sg10
I0
sg11
I430
ssS'three'
p16
(dp17
g5
I900
sg6
I38
sg7
I0
sg8
I0
sg9
I7
sg10
I0
sg11
I450
sssS'Wahono.csv'
p18
(dp19
g3
(dp20
g5
I1636
sg6
I59
sg7
I0
sg8
I0
sg9
I3
sg10
I0
sg11
I1100
ssg12
(dp21
g5
I1289
sg6
I59
sg7
I0
sg8
I0
sg9
I3
sg10
I0
sg11
I990
ssg14
(dp22
g5
I1160
sg6
I59
sg7
I0
sg8
I0
sg9
I3
sg10
I0
sg11
I1160
ssg16
(dp23
g5
I2240
sg6
I59
sg7
I0
sg8
I0
sg9
I3
sg10
I0
sg11
I1120
sssS'Hall.csv'
p24
(dp25
g3
(dp26
g5
I649
sg6
I102
sg7
I0
sg8
I0
sg9
I2
sg10
I0
sg11
I470
ssg12
(dp27
g5
I630
sg6
I102
sg7
I0
sg8
I0
sg9
I2
sg10
I0
sg11
I500
ssg14
(dp28
g5
I470
sg6
I102
sg7
I0
sg8
I0
sg9
I2
sg10
I0
sg11
I470
ssg16
(dp29
g5
I1000
sg6
I102
sg7
I0
sg8
I0
sg9
I2
sg10
I0
sg11
I500
sssS'Danijel.csv'
p30
(dp31
g3
(dp32
g5
I1257
sg6
I45
sg7
I0
sg8
I0
sg9
I3
sg10
I0
sg11
I770
ssg12
(dp33
g5
I523
sg6
I41
sg7
I0
sg8
I0
sg9
I7
sg10
I0
sg11
I390
ssg14
(dp34
g5
I760
sg6
I45
sg7
I0
sg8
I0
sg9
I3
sg10
I0
sg11
I760
ssg16
(dp35
g5
I1480
sg6
I45
sg7
I0
sg8
I0
sg9
I3
sg10
I0
sg11
I740
sss.(dp0
S'K_all3.csv'
p1
(dp2
S'machine'
p3
(dp4
S'count'
p5
I620
sS'truepos'
p6
I38
sS'falseneg'
p7
I0
sS'correction'
p8
I0
sS'unknownyes'
p9
I7
sS'falsepos'
p10
I0
sS'unique'
p11
I420
ssS'knee'
p12
(dp13
g5
I931
sg6
I43
sg7
I0
sg8
I0
sg9
I2
sg10
I0
sg11
I740
ssS'none'
p14
(dp15
g5
I410
sg6
I38
sg7
I0
sg8
I0
sg9
I7
sg10
I0
sg11
I410
ssS'three'
p16
(dp17
g5
I820
sg6
I39
sg7
I0
sg8
I0
sg9
I6
sg10
I0
sg11
I410
sssS'Wahono.csv'
p18
(dp19
g3
(dp20
g5
I1720
sg6
I59
sg7
I0
sg8
I0
sg9
I3
sg10
I0
sg11
I1160
ssg12
(dp21
g5
I24
sg6
I6
sg7
I0
sg8
I0
sg9
I56
sg10
I0
sg11
I20
ssg14
(dp22
g5
I1140
sg6
I59
sg7
I0
sg8
I0
sg9
I3
sg10
I0
sg11
I1140
ssg16
(dp23
g5
I2380
sg6
I59
sg7
I0
sg8
I0
sg9
I3
sg10
I0
sg11
I1190
sssS'Hall.csv'
p24
(dp25
g3
(dp26
g5
I637
sg6
I101
sg7
I0
sg8
I0
sg9
I3
sg10
I0
sg11
I460
ssg12
(dp27
g5
I571
sg6
I101
sg7
I0
sg8
I0
sg9
I3
sg10
I0
sg11
I420
ssg14
(dp28
g5
I480
sg6
I102
sg7
I0
sg8
I0
sg9
I2
sg10
I0
sg11
I480
ssg16
(dp29
g5
I1020
sg6
I102
sg7
I0
sg8
I0
sg9
I2
sg10
I0
sg11
I510
sssS'Danijel.csv'
p30
(dp31
g3
(dp32
g5
I1238
sg6
I46
sg7
I0
sg8
I0
sg9
I2
sg10
I0
sg11
I780
ssg12
(dp33
g5
I611
sg6
I43
sg7
I0
sg8
I0
sg9
I5
sg10
I0
sg11
I450
ssg14
(dp34
g5
I740
sg6
I45
sg7
I0
sg8
I0
sg9
I3
sg10
I0
sg11
I740
ssg16
(dp35
g5
I1500
sg6
I46
sg7
I0
sg8
I0
sg9
I2
sg10
I0
sg11
I750
sss.(dp0
S'K_all3.csv'
p1
(dp2
S'machine'
p3
(dp4
S'count'
p5
I630
sS'truepos'
p6
I39
sS'falseneg'
p7
I0
sS'correction'
p8
I0
sS'unknownyes'
p9
I6
sS'falsepos'
p10
I0
sS'unique'
p11
I430
ssS'knee'
p12
(dp13
g5
I862
sg6
I42
sg7
I0
sg8
I0
sg9
I3
sg10
I0
sg11
I690
ssS'none'
p14
(dp15
g5
I430
sg6
I39
sg7
I0
sg8
I0
sg9
I6
sg10
I0
sg11
I430
ssS'three'
p16
(dp17
g5
I800
sg6
I40
sg7
I0
sg8
I0
sg9
I5
sg10
I0
sg11
I400
sssS'Wahono.csv'
p18
(dp19
g3
(dp20
g5
I1666
sg6
I59
sg7
I0
sg8
I0
sg9
I3
sg10
I0
sg11
I1140
ssg12
(dp21
g5
I811
sg6
I57
sg7
I0
sg8
I0
sg9
I5
sg10
I0
sg11
I590
ssg14
(dp22
g5
I1150
sg6
I59
sg7
I0
sg8
I0
sg9
I3
sg10
I0
sg11
I1150
ssg16
(dp23
g5
I2360
sg6
I59
sg7
I0
sg8
I0
sg9
I3
sg10
I0
sg11
I1180
sssS'Hall.csv'
p24
(dp25
g3
(dp26
g5
I671
sg6
I102
sg7
I0
sg8
I0
sg9
I2
sg10
I0
sg11
I510
ssg12
(dp27
g5
I565
sg6
I99
sg7
I0
sg8
I0
sg9
I5
sg10
I0
sg11
I420
ssg14
(dp28
g5
I470
sg6
I101
sg7
I0
sg8
I0
sg9
I3
sg10
I0
sg11
I470
ssg16
(dp29
g5
I900
sg6
I102
sg7
I0
sg8
I0
sg9
I2
sg10
I0
sg11
I450
sssS'Danijel.csv'
p30
(dp31
g3
(dp32
g5
I1276
sg6
I46
sg7
I0
sg8
I0
sg9
I2
sg10
I0
sg11
I800
ssg12
(dp33
g5
I447
sg6
I37
sg7
I0
sg8
I0
sg9
I11
sg10
I0
sg11
I290
ssg14
(dp34
g5
I780
sg6
I45
sg7
I0
sg8
I0
sg9
I3
sg10
I0
sg11
I780
ssg16
(dp35
g5
I1460
sg6
I45
sg7
I0
sg8
I0
sg9
I3
sg10
I0
sg11
I730
sss.(dp0
S'K_all3.csv'
p1
(dp2
S'machine'
p3
(dp4
S'count'
p5
I610
sS'truepos'
p6
I38
sS'falseneg'
p7
I0
sS'correction'
p8
I0
sS'unknownyes'
p9
I7
sS'falsepos'
p10
I0
sS'unique'
p11
I410
ssS'knee'
p12
(dp13
g5
I896
sg6
I42
sg7
I0
sg8
I0
sg9
I3
sg10
I0
sg11
I680
ssS'none'
p14
(dp15
g5
I420
sg6
I39
sg7
I0
sg8
I0
sg9
I6
sg10
I0
sg11
I420
ssS'three'
p16
(dp17
g5
I820
sg6
I38
sg7
I0
sg8
I0
sg9
I7
sg10
I0
sg11
I410
sssS'Wahono.csv'
p18
(dp19
g3
(dp20
g5
I1682
sg6
I59
sg7
I0
sg8
I0
sg9
I3
sg10
I0
sg11
I1150
ssg12
(dp21
g5
I992
sg6
I58
sg7
I0
sg8
I0
sg9
I4
sg10
I0
sg11
I780
ssg14
(dp22
g5
I1140
sg6
I59
sg7
I0
sg8
I0
sg9
I3
sg10
I0
sg11
I1140
ssg16
(dp23
g5
I2280
sg6
I59
sg7
I0
sg8
I0
sg9
I3
sg10
I0
sg11
I1140
sssS'Hall.csv'
p24
(dp25
g3
(dp26
g5
I651
sg6
I102
sg7
I0
sg8
I0
sg9
I2
sg10
I0
sg11
I490
ssg12
(dp27
g5
I634
sg6
I102
sg7
I0
sg8
I0
sg9
I2
sg10
I0
sg11
I440
ssg14
(dp28
g5
I510
sg6
I102
sg7
I0
sg8
I0
sg9
I2
sg10
I0
sg11
I510
ssg16
(dp29
g5
I1000
sg6
I102
sg7
I0
sg8
I0
sg9
I2
sg10
I0
sg11
I500
sssS'Danijel.csv'
p30
(dp31
g3
(dp32
g5
I1200
sg6
I45
sg7
I0
sg8
I0
sg9
I3
sg10
I0
sg11
I800
ssg12
(dp33
g5
I646
sg6
I44
sg7
I0
sg8
I0
sg9
I4
sg10
I0
sg11
I500
ssg14
(dp34
g5
I770
sg6
I45
sg7
I0
sg8
I0
sg9
I3
sg10
I0
sg11
I770
ssg16
(dp35
g5
I1540
sg6
I45
sg7
I0
sg8
I0
sg9
I3
sg10
I0
sg11
I770
sss.