(dp0
S'K_all3.csv'
p1
(dp2
S'machine'
p3
(dp4
S'count'
p5
I586
sS'truepos'
p6
I33
sS'falseneg'
p7
I1
sS'unknownyes'
p8
I11
sS'falsepos'
p9
I0
sS'unique'
p10
I510
ssS'none'
p11
(dp12
g5
I470
sg6
I34
sg7
I0
sg8
I11
sg9
I4
sg10
I470
ssS'three'
p13
(dp14
g5
I977
sg6
I36
sg7
I0
sg8
I9
sg9
I0
sg10
I480
ssS'machine3'
p15
(dp16
g5
I587
sg6
I38
sg7
I0
sg8
I7
sg9
I0
sg10
I480
ssS'machine2'
p17
(dp18
g5
I557
sg6
I35
sg7
I0
sg8
I10
sg9
I0
sg10
I470
sssS'Wahono.csv'
p19
(dp20
g3
(dp21
g5
I1458
sg6
I59
sg7
I0
sg8
I3
sg9
I0
sg10
I1160
ssg11
(dp22
g5
I1060
sg6
I56
sg7
I4
sg8
I2
sg9
I22
sg10
I1060
ssg13
(dp23
g5
I2528
sg6
I59
sg7
I0
sg8
I3
sg9
I1
sg10
I1240
ssg15
(dp24
g5
I1463
sg6
I59
sg7
I0
sg8
I3
sg9
I2
sg10
I1130
ssg17
(dp25
g5
I1396
sg6
I59
sg7
I0
sg8
I3
sg9
I2
sg10
I1110
sssS'Hall.csv'
p26
(dp27
g3
(dp28
g5
I663
sg6
I99
sg7
I2
sg8
I5
sg9
I0
sg10
I470
ssg11
(dp29
g5
I760
sg6
I100
sg7
I3
sg8
I3
sg9
I7
sg10
I760
ssg13
(dp30
g5
I921
sg6
I101
sg7
I0
sg8
I5
sg9
I1
sg10
I450
ssg15
(dp31
g5
I666
sg6
I101
sg7
I0
sg8
I5
sg9
I0
sg10
I460
ssg17
(dp32
g5
I643
sg6
I100
sg7
I1
sg8
I5
sg9
I0
sg10
I460
sssS'Danijel.csv'
p33
(dp34
g3
(dp35
g5
I970
sg6
I46
sg7
I0
sg8
I2
sg9
I0
sg10
I770
ssg11
(dp36
g5
I850
sg6
I44
sg7
I0
sg8
I4
sg9
I18
sg10
I850
ssg13
(dp37
g5
I1587
sg6
I45
sg7
I0
sg8
I3
sg9
I2
sg10
I780
ssg15
(dp38
g5
I616
sg6
I44
sg7
I0
sg8
I4
sg9
I0
sg10
I470
ssg17
(dp39
g5
I839
sg6
I44
sg7
I0
sg8
I4
sg9
I1
sg10
I660
sss.(dp0
S'K_all3.csv'
p1
(dp2
S'machine'
p3
(dp4
S'count'
p5
I569
sS'truepos'
p6
I35
sS'falseneg'
p7
I1
sS'unknownyes'
p8
I9
sS'falsepos'
p9
I1
sS'unique'
p10
I490
ssS'none'
p11
(dp12
g5
I430
sg6
I32
sg7
I0
sg8
I13
sg9
I7
sg10
I430
ssS'three'
p13
(dp14
g5
I975
sg6
I38
sg7
I0
sg8
I7
sg9
I0
sg10
I480
ssS'machine3'
p15
(dp16
g5
I563
sg6
I38
sg7
I0
sg8
I7
sg9
I0
sg10
I470
ssS'machine2'
p17
(dp18
g5
I561
sg6
I33
sg7
I0
sg8
I12
sg9
I0
sg10
I470
sssS'Wahono.csv'
p19
(dp20
g3
(dp21
g5
I1017
sg6
I58
sg7
I1
sg8
I3
sg9
I0
sg10
I810
ssg11
(dp22
g5
I1430
sg6
I59
sg7
I1
sg8
I2
sg9
I36
sg10
I1430
ssg13
(dp23
g5
I2798
sg6
I60
sg7
I0
sg8
I2
sg9
I3
sg10
I1370
ssg15
(dp24
g5
I1489
sg6
I59
sg7
I0
sg8
I3
sg9
I1
sg10
I1180
ssg17
(dp25
g5
I1522
sg6
I59
sg7
I0
sg8
I3
sg9
I1
sg10
I1200
sssS'Hall.csv'
p26
(dp27
g3
(dp28
g5
I561
sg6
I100
sg7
I2
sg8
I4
sg9
I1
sg10
I410
ssg11
(dp29
g5
I830
sg6
I100
sg7
I2
sg8
I4
sg9
I13
sg10
I830
ssg13
(dp30
g5
I934
sg6
I101
sg7
I0
sg8
I5
sg9
I0
sg10
I460
ssg15
(dp31
g5
I674
sg6
I102
sg7
I0
sg8
I4
sg9
I0
sg10
I460
ssg17
(dp32
g5
I567
sg6
I101
sg7
I1
sg8
I4
sg9
I1
sg10
I410
sssS'Danijel.csv'
p33
(dp34
g3
(dp35
g5
I972
sg6
I46
sg7
I0
sg8
I2
sg9
I2
sg10
I760
ssg11
(dp36
g5
I930
sg6
I44
sg7
I0
sg8
I4
sg9
I14
sg10
I930
ssg13
(dp37
g5
I1552
sg6
I45
sg7
I0
sg8
I3
sg9
I0
sg10
I760
ssg15
(dp38
g5
I969
sg6
I45
sg7
I0
sg8
I3
sg9
I1
sg10
I750
ssg17
(dp39
g5
I736
sg6
I43
sg7
I0
sg8
I5
sg9
I2
sg10
I560
sss.(dp0
S'K_all3.csv'
p1
(dp2
S'machine'
p3
(dp4
S'count'
p5
I580
sS'truepos'
p6
I35
sS'falseneg'
p7
I0
sS'unknownyes'
p8
I10
sS'falsepos'
p9
I0
sS'unique'
p10
I500
ssS'none'
p11
(dp12
g5
I440
sg6
I35
sg7
I0
sg8
I10
sg9
I5
sg10
I440
ssS'three'
p13
(dp14
g5
I1023
sg6
I38
sg7
I0
sg8
I7
sg9
I0
sg10
I500
ssS'machine3'
p15
(dp16
g5
I616
sg6
I38
sg7
I0
sg8
I7
sg9
I1
sg10
I510
ssS'machine2'
p17
(dp18
g5
I617
sg6
I35
sg7
I0
sg8
I10
sg9
I1
sg10
I510
sssS'Wahono.csv'
p19
(dp20
g3
(dp21
g5
I1525
sg6
I59
sg7
I0
sg8
I3
sg9
I0
sg10
I1210
ssg11
(dp22
g5
I1260
sg6
I60
sg7
I0
sg8
I2
sg9
I18
sg10
I1260
ssg13
(dp23
g5
I2483
sg6
I60
sg7
I0
sg8
I2
sg9
I2
sg10
I1220
ssg15
(dp24
g5
I1378
sg6
I59
sg7
I0
sg8
I3
sg9
I0
sg10
I1090
ssg17
(dp25
g5
I1425
sg6
I59
sg7
I0
sg8
I3
sg9
I0
sg10
I1110
sssS'Hall.csv'
p26
(dp27
g3
(dp28
g5
I662
sg6
I98
sg7
I4
sg8
I4
sg9
I1
sg10
I470
ssg11
(dp29
g5
I510
sg6
I100
sg7
I2
sg8
I4
sg9
I5
sg10
I510
ssg13
(dp30
g5
I1041
sg6
I101
sg7
I1
sg8
I4
sg9
I1
sg10
I510
ssg15
(dp31
g5
I564
sg6
I96
sg7
I2
sg8
I8
sg9
I0
sg10
I380
ssg17
(dp32
g5
I568
sg6
I102
sg7
I0
sg8
I4
sg9
I0
sg10
I410
sssS'Danijel.csv'
p33
(dp34
g3
(dp35
g5
I913
sg6
I43
sg7
I2
sg8
I3
sg9
I1
sg10
I730
ssg11
(dp36
g5
I900
sg6
I45
sg7
I0
sg8
I3
sg9
I15
sg10
I900
ssg13
(dp37
g5
I1483
sg6
I45
sg7
I0
sg8
I3
sg9
I0
sg10
I730
ssg15
(dp38
g5
I946
sg6
I45
sg7
I0
sg8
I3
sg9
I0
sg10
I740
ssg17
(dp39
g5
I851
sg6
I44
sg7
I0
sg8
I4
sg9
I0
sg10
I680
sss.(dp0
S'K_all3.csv'
p1
(dp2
S'machine'
p3
(dp4
S'count'
p5
I578
sS'truepos'
p6
I33
sS'falseneg'
p7
I0
sS'unknownyes'
p8
I12
sS'falsepos'
p9
I0
sS'unique'
p10
I500
ssS'none'
p11
(dp12
g5
I400
sg6
I30
sg7
I2
sg8
I13
sg9
I8
sg10
I400
ssS'three'
p13
(dp14
g5
I987
sg6
I37
sg7
I0
sg8
I8
sg9
I0
sg10
I480
ssS'machine3'
p15
(dp16
g5
I620
sg6
I37
sg7
I0
sg8
I8
sg9
I0
sg10
I520
ssS'machine2'
p17
(dp18
g5
I427
sg6
I31
sg7
I0
sg8
I14
sg9
I0
sg10
I360
sssS'Wahono.csv'
p19
(dp20
g3
(dp21
g5
I1451
sg6
I59
sg7
I0
sg8
I3
sg9
I0
sg10
I1160
ssg11
(dp22
g5
I1600
sg6
I60
sg7
I0
sg8
I2
sg9
I35
sg10
I1600
ssg13
(dp23
g5
I2282
sg6
I60
sg7
I0
sg8
I2
sg9
I0
sg10
I1120
ssg15
(dp24
g5
I1459
sg6
I59
sg7
I0
sg8
I3
sg9
I1
sg10
I1140
ssg17
(dp25
g5
I1346
sg6
I59
sg7
I0
sg8
I3
sg9
I0
sg10
I1060
sssS'Hall.csv'
p26
(dp27
g3
(dp28
g5
I743
sg6
I102
sg7
I0
sg8
I4
sg9
I2
sg10
I530
ssg11
(dp29
g5
I620
sg6
I99
sg7
I3
sg8
I4
sg9
I8
sg10
I620
ssg13
(dp30
g5
I874
sg6
I101
sg7
I0
sg8
I5
sg9
I0
sg10
I430
ssg15
(dp31
g5
I672
sg6
I102
sg7
I0
sg8
I4
sg9
I1
sg10
I460
ssg17
(dp32
g5
I638
sg6
I101
sg7
I1
sg8
I4
sg9
I0
sg10
I460
sssS'Danijel.csv'
p33
(dp34
g3
(dp35
g5
I1032
sg6
I44
sg7
I1
sg8
I3
sg9
I2
sg10
I830
ssg11
(dp36
g5
I660
sg6
I43
sg7
I1
sg8
I4
sg9
I15
sg10
I660
ssg13
(dp37
g5
I1798
sg6
I44
sg7
I1
sg8
I3
sg9
I4
sg10
I880
ssg15
(dp38
g5
I1067
sg6
I45
sg7
I1
sg8
I2
sg9
I1
sg10
I840
ssg17
(dp39
g5
I999
sg6
I45
sg7
I0
sg8
I3
sg9
I0
sg10
I790
sss.(dp0
S'K_all3.csv'
p1
(dp2
S'machine'
p3
(dp4
S'count'
p5
I581
sS'truepos'
p6
I38
sS'falseneg'
p7
I0
sS'unknownyes'
p8
I7
sS'falsepos'
p9
I0
sS'unique'
p10
I490
ssS'none'
p11
(dp12
g5
I520
sg6
I34
sg7
I1
sg8
I10
sg9
I1
sg10
I520
ssS'three'
p13
(dp14
g5
I936
sg6
I37
sg7
I0
sg8
I8
sg9
I1
sg10
I460
ssS'machine3'
p15
(dp16
g5
I531
sg6
I35
sg7
I0
sg8
I10
sg9
I0
sg10
I450
ssS'machine2'
p17
(dp18
g5
I644
sg6
I37
sg7
I2
sg8
I6
sg9
I1
sg10
I560
sssS'Wahono.csv'
p19
(dp20
g3
(dp21
g5
I1286
sg6
I58
sg7
I1
sg8
I3
sg9
I1
sg10
I1020
ssg11
(dp22
g5
I1150
sg6
I54
sg7
I4
sg8
I4
sg9
I27
sg10
I1150
ssg13
(dp23
g5
I2494
sg6
I59
sg7
I0
sg8
I3
sg9
I1
sg10
I1220
ssg15
(dp24
g5
I1507
sg6
I59
sg7
I0
sg8
I3
sg9
I0
sg10
I1200
ssg17
(dp25
g5
I1632
sg6
I58
sg7
I1
sg8
I3
sg9
I2
sg10
I1270
sssS'Hall.csv'
p26
(dp27
g3
(dp28
g5
I581
sg6
I100
sg7
I2
sg8
I4
sg9
I4
sg10
I410
ssg11
(dp29
g5
I600
sg6
I100
sg7
I2
sg8
I4
sg9
I6
sg10
I600
ssg13
(dp30
g5
I995
sg6
I101
sg7
I1
sg8
I4
sg9
I0
sg10
I490
ssg15
(dp31
g5
I707
sg6
I102
sg7
I0
sg8
I4
sg9
I0
sg10
I490
ssg17
(dp32
g5
I711
sg6
I102
sg7
I0
sg8
I4
sg9
I1
sg10
I510
sssS'Danijel.csv'
p33
(dp34
g3
(dp35
g5
I955
sg6
I45
sg7
I0
sg8
I3
sg9
I0
sg10
I770
ssg11
(dp36
g5
I680
sg6
I45
sg7
I0
sg8
I3
sg9
I12
sg10
I680
ssg13
(dp37
g5
I1552
sg6
I45
sg7
I0
sg8
I3
sg9
I0
sg10
I760
ssg15
(dp38
g5
I1077
sg6
I46
sg7
I0
sg8
I2
sg9
I4
sg10
I840
ssg17
(dp39
g5
I971
sg6
I45
sg7
I0
sg8
I3
sg9
I1
sg10
I760
sss.(dp0
S'K_all3.csv'
p1
(dp2
S'machine'
p3
(dp4
S'count'
p5
I580
sS'truepos'
p6
I34
sS'falseneg'
p7
I0
sS'unknownyes'
p8
I11
sS'falsepos'
p9
I0
sS'unique'
p10
I490
ssS'none'
p11
(dp12
g5
I450
sg6
I33
sg7
I1
sg8
I11
sg9
I5
sg10
I450
ssS'three'
p13
(dp14
g5
I1037
sg6
I37
sg7
I0
sg8
I8
sg9
I0
sg10
I510
ssS'machine3'
p15
(dp16
g5
I620
sg6
I38
sg7
I1
sg8
I6
sg9
I0
sg10
I500
ssS'machine2'
p17
(dp18
g5
I546
sg6
I34
sg7
I0
sg8
I11
sg9
I1
sg10
I460
sssS'Wahono.csv'
p19
(dp20
g3
(dp21
g5
I1422
sg6
I58
sg7
I1
sg8
I3
sg9
I1
sg10
I1140
ssg11
(dp22
g5
I1700
sg6
I56
sg7
I3
sg8
I3
sg9
I32
sg10
I1700
ssg13
(dp23
g5
I2367
sg6
I59
sg7
I0
sg8
I3
sg9
I1
sg10
I1160
ssg15
(dp24
g5
I1394
sg6
I58
sg7
I1
sg8
I3
sg9
I1
sg10
I1100
ssg17
(dp25
g5
I1456
sg6
I59
sg7
I2
sg8
I1
sg9
I2
sg10
I1160
sssS'Hall.csv'
p26
(dp27
g3
(dp28
g5
I601
sg6
I100
sg7
I1
sg8
I5
sg9
I1
sg10
I430
ssg11
(dp29
g5
I550
sg6
I101
sg7
I1
sg8
I4
sg9
I13
sg10
I550
ssg13
(dp30
g5
I973
sg6
I102
sg7
I0
sg8
I4
sg9
I0
sg10
I480
ssg15
(dp31
g5
I698
sg6
I102
sg7
I0
sg8
I4
sg9
I0
sg10
I480
ssg17
(dp32
g5
I587
sg6
I100
sg7
I1
sg8
I5
sg9
I1
sg10
I410
sssS'Danijel.csv'
p33
(dp34
g3
(dp35
g5
I895
sg6
I44
sg7
I1
sg8
I3
sg9
I1
sg10
I710
ssg11
(dp36
g5
I780
sg6
I42
sg7
I2
sg8
I4
sg9
I18
sg10
I780
ssg13
(dp37
g5
I1470
sg6
I45
sg7
I0
sg8
I3
sg9
I1
sg10
I720
ssg15
(dp38
g5
I852
sg6
I44
sg7
I1
sg8
I3
sg9
I0
sg10
I670
ssg17
(dp39
g5
I988
sg6
I45
sg7
I0
sg8
I3
sg9
I1
sg10
I760
sss.(dp0
S'K_all3.csv'
p1
(dp2
S'machine'
p3
(dp4
S'count'
p5
I626
sS'truepos'
p6
I35
sS'falseneg'
p7
I3
sS'unknownyes'
p8
I7
sS'falsepos'
p9
I1
sS'unique'
p10
I520
ssS'none'
p11
(dp12
g5
I490
sg6
I34
sg7
I1
sg8
I10
sg9
I14
sg10
I490
ssS'three'
p13
(dp14
g5
I977
sg6
I36
sg7
I0
sg8
I9
sg9
I0
sg10
I480
ssS'machine3'
p15
(dp16
g5
I566
sg6
I37
sg7
I1
sg8
I7
sg9
I1
sg10
I490
ssS'machine2'
p17
(dp18
g5
I598
sg6
I38
sg7
I0
sg8
I7
sg9
I0
sg10
I490
sssS'Wahono.csv'
p19
(dp20
g3
(dp21
g5
I1550
sg6
I59
sg7
I0
sg8
I3
sg9
I0
sg10
I1240
ssg11
(dp22
g5
I1330
sg6
I59
sg7
I0
sg8
I3
sg9
I17
sg10
I1330
ssg13
(dp23
g5
I2392
sg6
I59
sg7
I0
sg8
I3
sg9
I2
sg10
I1170
ssg15
(dp24
g5
I1597
sg6
I59
sg7
I0
sg8
I3
sg9
I1
sg10
I1250
ssg17
(dp25
g5
I1347
sg6
I59
sg7
I0
sg8
I3
sg9
I3
sg10
I1070
sssS'Hall.csv'
p26
(dp27
g3
(dp28
g5
I491
sg6
I98
sg7
I2
sg8
I6
sg9
I1
sg10
I360
ssg11
(dp29
g5
I520
sg6
I97
sg7
I5
sg8
I4
sg9
I6
sg10
I520
ssg13
(dp30
g5
I1142
sg6
I102
sg7
I0
sg8
I4
sg9
I2
sg10
I560
ssg15
(dp31
g5
I649
sg6
I101
sg7
I1
sg8
I4
sg9
I0
sg10
I450
ssg17
(dp32
g5
I635
sg6
I102
sg7
I0
sg8
I4
sg9
I0
sg10
I450
sssS'Danijel.csv'
p33
(dp34
g3
(dp35
g5
I1016
sg6
I44
sg7
I1
sg8
I3
sg9
I3
sg10
I810
ssg11
(dp36
g5
I710
sg6
I45
sg7
I0
sg8
I3
sg9
I13
sg10
I710
ssg13
(dp37
g5
I1598
sg6
I45
sg7
I0
sg8
I3
sg9
I0
sg10
I780
ssg15
(dp38
g5
I941
sg6
I45
sg7
I0
sg8
I3
sg9
I0
sg10
I730
ssg17
(dp39
g5
I985
sg6
I45
sg7
I0
sg8
I3
sg9
I0
sg10
I770
sss.(dp0
S'K_all3.csv'
p1
(dp2
S'machine'
p3
(dp4
S'count'
p5
I547
sS'truepos'
p6
I36
sS'falseneg'
p7
I1
sS'unknownyes'
p8
I8
sS'falsepos'
p9
I0
sS'unique'
p10
I460
ssS'none'
p11
(dp12
g5
I450
sg6
I34
sg7
I1
sg8
I10
sg9
I7
sg10
I450
ssS'three'
p13
(dp14
g5
I1001
sg6
I37
sg7
I0
sg8
I8
sg9
I1
sg10
I490
ssS'machine3'
p15
(dp16
g5
I546
sg6
I33
sg7
I0
sg8
I12
sg9
I0
sg10
I450
ssS'machine2'
p17
(dp18
g5
I580
sg6
I36
sg7
I0
sg8
I9
sg9
I0
sg10
I460
sssS'Wahono.csv'
p19
(dp20
g3
(dp21
g5
I1271
sg6
I59
sg7
I0
sg8
I3
sg9
I1
sg10
I1010
ssg11
(dp22
g5
I1090
sg6
I60
sg7
I0
sg8
I2
sg9
I23
sg10
I1090
ssg13
(dp23
g5
I2522
sg6
I59
sg7
I0
sg8
I3
sg9
I2
sg10
I1240
ssg15
(dp24
g5
I1540
sg6
I59
sg7
I0
sg8
I3
sg9
I2
sg10
I1210
ssg17
(dp25
g5
I1573
sg6
I59
sg7
I0
sg8
I3
sg9
I1
sg10
I1230
sssS'Hall.csv'
p26
(dp27
g3
(dp28
g5
I671
sg6
I102
sg7
I0
sg8
I4
sg9
I1
sg10
I480
ssg11
(dp29
g5
I590
sg6
I99
sg7
I3
sg8
I4
sg9
I6
sg10
I590
ssg13
(dp30
g5
I954
sg6
I101
sg7
I0
sg8
I5
sg9
I0
sg10
I470
ssg15
(dp31
g5
I688
sg6
I102
sg7
I0
sg8
I4
sg9
I0
sg10
I470
ssg17
(dp32
g5
I661
sg6
I100
sg7
I1
sg8
I5
sg9
I1
sg10
I460
sssS'Danijel.csv'
p33
(dp34
g3
(dp35
g5
I934
sg6
I45
sg7
I0
sg8
I3
sg9
I0
sg10
I740
ssg11
(dp36
g5
I1140
sg6
I44
sg7
I2
sg8
I2
sg9
I13
sg10
I1140
ssg13
(dp37
g5
I1552
sg6
I45
sg7
I0
sg8
I3
sg9
I1
sg10
I760
ssg15
(dp38
g5
I999
sg6
I44
sg7
I1
sg8
I3
sg9
I0
sg10
I780
ssg17
(dp39
g5
I953
sg6
I45
sg7
I0
sg8
I3
sg9
I0
sg10
I750
sss.(dp0
S'K_all3.csv'
p1
(dp2
S'machine'
p3
(dp4
S'count'
p5
I608
sS'truepos'
p6
I35
sS'falseneg'
p7
I0
sS'unknownyes'
p8
I10
sS'falsepos'
p9
I0
sS'unique'
p10
I500
ssS'none'
p11
(dp12
g5
I490
sg6
I35
sg7
I1
sg8
I9
sg9
I3
sg10
I490
ssS'three'
p13
(dp14
g5
I1077
sg6
I36
sg7
I0
sg8
I9
sg9
I1
sg10
I530
ssS'machine3'
p15
(dp16
g5
I568
sg6
I38
sg7
I0
sg8
I7
sg9
I0
sg10
I480
ssS'machine2'
p17
(dp18
g5
I600
sg6
I36
sg7
I0
sg8
I9
sg9
I0
sg10
I510
sssS'Wahono.csv'
p19
(dp20
g3
(dp21
g5
I1431
sg6
I59
sg7
I0
sg8
I3
sg9
I0
sg10
I1140
ssg11
(dp22
g5
I1610
sg6
I60
sg7
I1
sg8
I1
sg9
I37
sg10
I1610
ssg13
(dp23
g5
I2532
sg6
I59
sg7
I0
sg8
I3
sg9
I3
sg10
I1240
ssg15
(dp24
g5
I1447
sg6
I59
sg7
I0
sg8
I3
sg9
I0
sg10
I1130
ssg17
(dp25
g5
I1338
sg6
I59
sg7
I0
sg8
I3
sg9
I1
sg10
I1050
sssS'Hall.csv'
p26
(dp27
g3
(dp28
g5
I633
sg6
I102
sg7
I0
sg8
I4
sg9
I2
sg10
I460
ssg11
(dp29
g5
I650
sg6
I101
sg7
I1
sg8
I4
sg9
I13
sg10
I650
ssg13
(dp30
g5
I1021
sg6
I102
sg7
I0
sg8
I4
sg9
I0
sg10
I500
ssg15
(dp31
g5
I691
sg6
I102
sg7
I0
sg8
I4
sg9
I0
sg10
I470
ssg17
(dp32
g5
I673
sg6
I101
sg7
I0
sg8
I5
sg9
I1
sg10
I470
sssS'Danijel.csv'
p33
(dp34
g3
(dp35
g5
I698
sg6
I44
sg7
I1
sg8
I3
sg9
I1
sg10
I560
ssg11
(dp36
g5
I930
sg6
I44
sg7
I1
sg8
I3
sg9
I11
sg10
I930
ssg13
(dp37
g5
I1725
sg6
I46
sg7
I0
sg8
I2
sg9
I1
sg10
I840
ssg15
(dp38
g5
I1058
sg6
I45
sg7
I0
sg8
I3
sg9
I0
sg10
I830
ssg17
(dp39
g5
I704
sg6
I45
sg7
I0
sg8
I3
sg9
I0
sg10
I560
sss.(dp0
S'K_all3.csv'
p1
(dp2
S'machine'
p3
(dp4
S'count'
p5
I559
sS'truepos'
p6
I35
sS'falseneg'
p7
I0
sS'unknownyes'
p8
I10
sS'falsepos'
p9
I0
sS'unique'
p10
I480
ssS'none'
p11
(dp12
g5
I470
sg6
I32
sg7
I1
sg8
I12
sg9
I6
sg10
I470
ssS'three'
p13
(dp14
g5
I1021
sg6
I36
sg7
I0
sg8
I9
sg9
I2
sg10
I500
ssS'machine3'
p15
(dp16
g5
I572
sg6
I37
sg7
I0
sg8
I8
sg9
I0
sg10
I480
ssS'machine2'
p17
(dp18
g5
I608
sg6
I34
sg7
I2
sg8
I9
sg9
I0
sg10
I510
sssS'Wahono.csv'
p19
(dp20
g3
(dp21
g5
I1378
sg6
I57
sg7
I2
sg8
I3
sg9
I0
sg10
I1110
ssg11
(dp22
g5
I1400
sg6
I58
sg7
I2
sg8
I2
sg9
I26
sg10
I1400
ssg13
(dp23
g5
I2433
sg6
I59
sg7
I0
sg8
I3
sg9
I2
sg10
I1190
ssg15
(dp24
g5
I1422
sg6
I58
sg7
I1
sg8
I3
sg9
I1
sg10
I1120
ssg17
(dp25
g5
I1440
sg6
I60
sg7
I0
sg8
I2
sg9
I1
sg10
I1130
sssS'Hall.csv'
p26
(dp27
g3
(dp28
g5
I632
sg6
I101
sg7
I1
sg8
I4
sg9
I0
sg10
I460
ssg11
(dp29
g5
I430
sg6
I101
sg7
I0
sg8
I5
sg9
I4
sg10
I430
ssg13
(dp30
g5
I1014
sg6
I102
sg7
I0
sg8
I4
sg9
I0
sg10
I500
ssg15
(dp31
g5
I770
sg6
I101
sg7
I1
sg8
I4
sg9
I1
sg10
I550
ssg17
(dp32
g5
I658
sg6
I100
sg7
I1
sg8
I5
sg9
I0
sg10
I460
sssS'Danijel.csv'
p33
(dp34
g3
(dp35
g5
I986
sg6
I45
sg7
I0
sg8
I3
sg9
I0
sg10
I790
ssg11
(dp36
g5
I900
sg6
I45
sg7
I1
sg8
I2
sg9
I19
sg10
I900
ssg13
(dp37
g5
I1596
sg6
I46
sg7
I0
sg8
I2
sg9
I1
sg10
I780
ssg15
(dp38
g5
I973
sg6
I44
sg7
I1
sg8
I3
sg9
I0
sg10
I780
ssg17
(dp39
g5
I968
sg6
I44
sg7
I1
sg8
I3
sg9
I1
sg10
I770
sss.(dp0
S'K_all3.csv'
p1
(dp2
S'machine'
p3
(dp4
S'count'
p5
I483
sS'truepos'
p6
I34
sS'falseneg'
p7
I0
sS'unknownyes'
p8
I11
sS'falsepos'
p9
I3
sS'unique'
p10
I420
ssS'none'
p11
(dp12
g5
I530
sg6
I35
sg7
I1
sg8
I9
sg9
I10
sg10
I530
ssS'three'
p13
(dp14
g5
I1000
sg6
I38
sg7
I0
sg8
I7
sg9
I0
sg10
I490
ssS'machine3'
p15
(dp16
g5
I597
sg6
I36
sg7
I1
sg8
I8
sg9
I2
sg10
I500
ssS'machine2'
p17
(dp18
g5
I503
sg6
I36
sg7
I0
sg8
I9
sg9
I0
sg10
I410
sssS'Wahono.csv'
p19
(dp20
g3
(dp21
g5
I1408
sg6
I59
sg7
I0
sg8
I3
sg9
I0
sg10
I1130
ssg11
(dp22
g5
I1560
sg6
I58
sg7
I1
sg8
I3
sg9
I36
sg10
I1560
ssg13
(dp23
g5
I2419
sg6
I59
sg7
I0
sg8
I3
sg9
I1
sg10
I1190
ssg15
(dp24
g5
I1404
sg6
I58
sg7
I1
sg8
I3
sg9
I1
sg10
I1110
ssg17
(dp25
g5
I1500
sg6
I58
sg7
I1
sg8
I3
sg9
I0
sg10
I1170
sssS'Hall.csv'
p26
(dp27
g3
(dp28
g5
I762
sg6
I102
sg7
I0
sg8
I4
sg9
I0
sg10
I550
ssg11
(dp29
g5
I520
sg6
I99
sg7
I2
sg8
I5
sg9
I6
sg10
I520
ssg13
(dp30
g5
I1018
sg6
I101
sg7
I0
sg8
I5
sg9
I0
sg10
I500
ssg15
(dp31
g5
I694
sg6
I102
sg7
I0
sg8
I4
sg9
I0
sg10
I490
ssg17
(dp32
g5
I571
sg6
I101
sg7
I0
sg8
I5
sg9
I2
sg10
I410
sssS'Danijel.csv'
p33
(dp34
g3
(dp35
g5
I918
sg6
I45
sg7
I0
sg8
I3
sg9
I1
sg10
I730
ssg11
(dp36
g5
I810
sg6
I44
sg7
I2
sg8
I2
sg9
I18
sg10
I810
ssg13
(dp37
g5
I1405
sg6
I45
sg7
I0
sg8
I3
sg9
I1
sg10
I690
ssg15
(dp38
g5
I923
sg6
I46
sg7
I0
sg8
I2
sg9
I0
sg10
I730
ssg17
(dp39
g5
I1039
sg6
I46
sg7
I0
sg8
I2
sg9
I1
sg10
I810
sss.(dp0
S'K_all3.csv'
p1
(dp2
S'machine'
p3
(dp4
S'count'
p5
I563
sS'truepos'
p6
I36
sS'falseneg'
p7
I0
sS'unknownyes'
p8
I9
sS'falsepos'
p9
I2
sS'unique'
p10
I460
ssS'none'
p11
(dp12
g5
I410
sg6
I30
sg7
I1
sg8
I14
sg9
I8
sg10
I410
ssS'three'
p13
(dp14
g5
I1018
sg6
I38
sg7
I0
sg8
I7
sg9
I0
sg10
I500
ssS'machine3'
p15
(dp16
g5
I602
sg6
I38
sg7
I0
sg8
I7
sg9
I0
sg10
I500
ssS'machine2'
p17
(dp18
g5
I553
sg6
I37
sg7
I1
sg8
I7
sg9
I0
sg10
I460
sssS'Wahono.csv'
p19
(dp20
g3
(dp21
g5
I842
sg6
I55
sg7
I0
sg8
I7
sg9
I0
sg10
I660
ssg11
(dp22
g5
I1640
sg6
I59
sg7
I0
sg8
I3
sg9
I32
sg10
I1640
ssg13
(dp23
g5
I2363
sg6
I60
sg7
I0
sg8
I2
sg9
I0
sg10
I1160
ssg15
(dp24
g5
I1641
sg6
I59
sg7
I0
sg8
I3
sg9
I2
sg10
I1280
ssg17
(dp25
g5
I1351
sg6
I59
sg7
I0
sg8
I3
sg9
I0
sg10
I1060
sssS'Hall.csv'
p26
(dp27
g3
(dp28
g5
I632
sg6
I100
sg7
I1
sg8
I5
sg9
I0
sg10
I460
ssg11
(dp29
g5
I840
sg6
I101
sg7
I1
sg8
I4
sg9
I11
sg10
I840
ssg13
(dp30
g5
I1021
sg6
I102
sg7
I0
sg8
I4
sg9
I0
sg10
I500
ssg15
(dp31
g5
I716
sg6
I102
sg7
I0
sg8
I4
sg9
I0
sg10
I500
ssg17
(dp32
g5
I745
sg6
I101
sg7
I1
sg8
I4
sg9
I1
sg10
I530
sssS'Danijel.csv'
p33
(dp34
g3
(dp35
g5
I877
sg6
I45
sg7
I0
sg8
I3
sg9
I0
sg10
I710
ssg11
(dp36
g5
I900
sg6
I41
sg7
I5
sg8
I2
sg9
I13
sg10
I900
ssg13
(dp37
g5
I1571
sg6
I45
sg7
I0
sg8
I3
sg9
I1
sg10
I770
ssg15
(dp38
g5
I939
sg6
I44
sg7
I1
sg8
I3
sg9
I1
sg10
I740
ssg17
(dp39
g5
I912
sg6
I44
sg7
I2
sg8
I2
sg9
I2
sg10
I710
sss.(dp0
S'K_all3.csv'
p1
(dp2
S'machine'
p3
(dp4
S'count'
p5
I559
sS'truepos'
p6
I32
sS'falseneg'
p7
I2
sS'unknownyes'
p8
I11
sS'falsepos'
p9
I1
sS'unique'
p10
I460
ssS'none'
p11
(dp12
g5
I490
sg6
I37
sg7
I0
sg8
I8
sg9
I8
sg10
I490
ssS'three'
p13
(dp14
g5
I1032
sg6
I36
sg7
I1
sg8
I8
sg9
I0
sg10
I510
ssS'machine3'
p15
(dp16
g5
I575
sg6
I37
sg7
I0
sg8
I8
sg9
I0
sg10
I490
ssS'machine2'
p17
(dp18
g5
I486
sg6
I34
sg7
I0
sg8
I11
sg9
I0
sg10
I410
sssS'Wahono.csv'
p19
(dp20
g3
(dp21
g5
I1399
sg6
I59
sg7
I0
sg8
I3
sg9
I1
sg10
I1120
ssg11
(dp22
g5
I1540
sg6
I56
sg7
I2
sg8
I4
sg9
I26
sg10
I1540
ssg13
(dp23
g5
I2405
sg6
I59
sg7
I0
sg8
I3
sg9
I1
sg10
I1180
ssg15
(dp24
g5
I1294
sg6
I57
sg7
I2
sg8
I3
sg9
I1
sg10
I1010
ssg17
(dp25
g5
I1456
sg6
I58
sg7
I1
sg8
I3
sg9
I4
sg10
I1140
sssS'Hall.csv'
p26
(dp27
g3
(dp28
g5
I721
sg6
I102
sg7
I0
sg8
I4
sg9
I1
sg10
I510
ssg11
(dp29
g5
I640
sg6
I99
sg7
I3
sg8
I4
sg9
I17
sg10
I640
ssg13
(dp30
g5
I1086
sg6
I102
sg7
I0
sg8
I4
sg9
I1
sg10
I530
ssg15
(dp31
g5
I736
sg6
I102
sg7
I0
sg8
I4
sg9
I0
sg10
I520
ssg17
(dp32
g5
I679
sg6
I100
sg7
I2
sg8
I4
sg9
I1
sg10
I480
sssS'Danijel.csv'
p33
(dp34
g3
(dp35
g5
I884
sg6
I45
sg7
I0
sg8
I3
sg9
I0
sg10
I710
ssg11
(dp36
g5
I910
sg6
I45
sg7
I0
sg8
I3
sg9
I15
sg10
I910
ssg13
(dp37
g5
I1512
sg6
I45
sg7
I0
sg8
I3
sg9
I1
sg10
I740
ssg15
(dp38
g5
I951
sg6
I45
sg7
I0
sg8
I3
sg9
I0
sg10
I750
ssg17
(dp39
g5
I947
sg6
I45
sg7
I0
sg8
I3
sg9
I0
sg10
I750
sss.(dp0
S'K_all3.csv'
p1
(dp2
S'machine'
p3
(dp4
S'count'
p5
I502
sS'truepos'
p6
I34
sS'falseneg'
p7
I2
sS'unknownyes'
p8
I9
sS'falsepos'
p9
I0
sS'unique'
p10
I420
ssS'none'
p11
(dp12
g5
I510
sg6
I33
sg7
I1
sg8
I11
sg9
I5
sg10
I510
ssS'three'
p13
(dp14
g5
I1058
sg6
I37
sg7
I0
sg8
I8
sg9
I0
sg10
I520
ssS'machine3'
p15
(dp16
g5
I521
sg6
I33
sg7
I1
sg8
I11
sg9
I0
sg10
I440
ssS'machine2'
p17
(dp18
g5
I668
sg6
I38
sg7
I0
sg8
I7
sg9
I0
sg10
I540
sssS'Wahono.csv'
p19
(dp20
g3
(dp21
g5
I1423
sg6
I57
sg7
I2
sg8
I3
sg9
I1
sg10
I1120
ssg11
(dp22
g5
I1530
sg6
I58
sg7
I1
sg8
I3
sg9
I27
sg10
I1530
ssg13
(dp23
g5
I2314
sg6
I59
sg7
I0
sg8
I3
sg9
I2
sg10
I1140
ssg15
(dp24
g5
I1401
sg6
I59
sg7
I0
sg8
I3
sg9
I0
sg10
I1090
ssg17
(dp25
g5
I1412
sg6
I59
sg7
I0
sg8
I3
sg9
I1
sg10
I1110
sssS'Hall.csv'
p26
(dp27
g3
(dp28
g5
I752
sg6
I102
sg7
I0
sg8
I4
sg9
I1
sg10
I540
ssg11
(dp29
g5
I730
sg6
I98
sg7
I4
sg8
I4
sg9
I10
sg10
I730
ssg13
(dp30
g5
I934
sg6
I101
sg7
I0
sg8
I5
sg9
I0
sg10
I460
ssg15
(dp31
g5
I770
sg6
I102
sg7
I0
sg8
I4
sg9
I1
sg10
I540
ssg17
(dp32
g5
I612
sg6
I99
sg7
I2
sg8
I5
sg9
I2
sg10
I430
sssS'Danijel.csv'
p33
(dp34
g3
(dp35
g5
I962
sg6
I44
sg7
I0
sg8
I4
sg9
I2
sg10
I770
ssg11
(dp36
g5
I770
sg6
I45
sg7
I1
sg8
I2
sg9
I12
sg10
I770
ssg13
(dp37
g5
I1525
sg6
I46
sg7
I0
sg8
I2
sg9
I0
sg10
I750
ssg15
(dp38
g5
I956
sg6
I44
sg7
I1
sg8
I3
sg9
I0
sg10
I750
ssg17
(dp39
g5
I1065
sg6
I43
sg7
I1
sg8
I4
sg9
I1
sg10
I850
sss.(dp0
S'K_all3.csv'
p1
(dp2
S'machine'
p3
(dp4
S'count'
p5
I539
sS'truepos'
p6
I35
sS'falseneg'
p7
I0
sS'unknownyes'
p8
I10
sS'falsepos'
p9
I0
sS'unique'
p10
I450
ssS'none'
p11
(dp12
g5
I440
sg6
I31
sg7
I1
sg8
I13
sg9
I7
sg10
I440
ssS'three'
p13
(dp14
g5
I983
sg6
I34
sg7
I0
sg8
I11
sg9
I1
sg10
I480
ssS'machine3'
p15
(dp16
g5
I576
sg6
I37
sg7
I0
sg8
I8
sg9
I0
sg10
I480
ssS'machine2'
p17
(dp18
g5
I597
sg6
I36
sg7
I1
sg8
I8
sg9
I0
sg10
I500
sssS'Wahono.csv'
p19
(dp20
g3
(dp21
g5
I1388
sg6
I59
sg7
I0
sg8
I3
sg9
I1
sg10
I1110
ssg11
(dp22
g5
I1720
sg6
I60
sg7
I0
sg8
I2
sg9
I36
sg10
I1720
ssg13
(dp23
g5
I2612
sg6
I59
sg7
I0
sg8
I3
sg9
I1
sg10
I1290
ssg15
(dp24
g5
I1444
sg6
I59
sg7
I0
sg8
I3
sg9
I0
sg10
I1150
ssg17
(dp25
g5
I1476
sg6
I59
sg7
I0
sg8
I3
sg9
I1
sg10
I1160
sssS'Hall.csv'
p26
(dp27
g3
(dp28
g5
I592
sg6
I101
sg7
I0
sg8
I5
sg9
I1
sg10
I420
ssg11
(dp29
g5
I720
sg6
I100
sg7
I2
sg8
I4
sg9
I10
sg10
I720
ssg13
(dp30
g5
I960
sg6
I102
sg7
I0
sg8
I4
sg9
I2
sg10
I470
ssg15
(dp31
g5
I676
sg6
I102
sg7
I0
sg8
I4
sg9
I0
sg10
I470
ssg17
(dp32
g5
I679
sg6
I101
sg7
I1
sg8
I4
sg9
I0
sg10
I480
sssS'Danijel.csv'
p33
(dp34
g3
(dp35
g5
I974
sg6
I45
sg7
I0
sg8
I3
sg9
I0
sg10
I770
ssg11
(dp36
g5
I830
sg6
I45
sg7
I0
sg8
I3
sg9
I14
sg10
I830
ssg13
(dp37
g5
I1531
sg6
I46
sg7
I0
sg8
I2
sg9
I1
sg10
I750
ssg15
(dp38
g5
I927
sg6
I45
sg7
I1
sg8
I2
sg9
I0
sg10
I730
ssg17
(dp39
g5
I1004
sg6
I45
sg7
I0
sg8
I3
sg9
I3
sg10
I780
sss.(dp0
S'K_all3.csv'
p1
(dp2
S'machine'
p3
(dp4
S'count'
p5
I502
sS'truepos'
p6
I36
sS'falseneg'
p7
I1
sS'unknownyes'
p8
I8
sS'falsepos'
p9
I0
sS'unique'
p10
I410
ssS'none'
p11
(dp12
g5
I450
sg6
I34
sg7
I1
sg8
I10
sg9
I4
sg10
I450
ssS'three'
p13
(dp14
g5
I1007
sg6
I38
sg7
I0
sg8
I7
sg9
I0
sg10
I490
ssS'machine3'
p15
(dp16
g5
I580
sg6
I38
sg7
I0
sg8
I7
sg9
I1
sg10
I480
ssS'machine2'
p17
(dp18
g5
I619
sg6
I35
sg7
I0
sg8
I10
sg9
I1
sg10
I500
sssS'Wahono.csv'
p19
(dp20
g3
(dp21
g5
I1341
sg6
I59
sg7
I0
sg8
I3
sg9
I1
sg10
I1060
ssg11
(dp22
g5
I1720
sg6
I59
sg7
I1
sg8
I2
sg9
I36
sg10
I1720
ssg13
(dp23
g5
I2315
sg6
I59
sg7
I0
sg8
I3
sg9
I1
sg10
I1140
ssg15
(dp24
g5
I1427
sg6
I59
sg7
I0
sg8
I3
sg9
I0
sg10
I1120
ssg17
(dp25
g5
I1463
sg6
I59
sg7
I0
sg8
I3
sg9
I0
sg10
I1150
sssS'Hall.csv'
p26
(dp27
g3
(dp28
g5
I543
sg6
I99
sg7
I2
sg8
I5
sg9
I1
sg10
I390
ssg11
(dp29
g5
I690
sg6
I100
sg7
I2
sg8
I4
sg9
I15
sg10
I690
ssg13
(dp30
g5
I898
sg6
I101
sg7
I0
sg8
I5
sg9
I0
sg10
I440
ssg15
(dp31
g5
I704
sg6
I102
sg7
I0
sg8
I4
sg9
I0
sg10
I490
ssg17
(dp32
g5
I673
sg6
I101
sg7
I1
sg8
I4
sg9
I0
sg10
I470
sssS'Danijel.csv'
p33
(dp34
g3
(dp35
g5
I1019
sg6
I45
sg7
I0
sg8
I3
sg9
I0
sg10
I810
ssg11
(dp36
g5
I880
sg6
I42
sg7
I4
sg8
I2
sg9
I18
sg10
I880
ssg13
(dp37
g5
I1565
sg6
I44
sg7
I2
sg8
I2
sg9
I1
sg10
I770
ssg15
(dp38
g5
I952
sg6
I45
sg7
I0
sg8
I3
sg9
I0
sg10
I750
ssg17
(dp39
g5
I978
sg6
I44
sg7
I1
sg8
I3
sg9
I1
sg10
I780
sss.(dp0
S'K_all3.csv'
p1
(dp2
S'machine'
p3
(dp4
S'count'
p5
I602
sS'truepos'
p6
I39
sS'falseneg'
p7
I0
sS'unknownyes'
p8
I6
sS'falsepos'
p9
I0
sS'unique'
p10
I490
ssS'none'
p11
(dp12
g5
I510
sg6
I31
sg7
I2
sg8
I12
sg9
I17
sg10
I510
ssS'three'
p13
(dp14
g5
I1055
sg6
I36
sg7
I0
sg8
I9
sg9
I0
sg10
I520
ssS'machine3'
p15
(dp16
g5
I659
sg6
I38
sg7
I0
sg8
I7
sg9
I0
sg10
I540
ssS'machine2'
p17
(dp18
g5
I630
sg6
I35
sg7
I1
sg8
I9
sg9
I0
sg10
I510
sssS'Wahono.csv'
p19
(dp20
g3
(dp21
g5
I1270
sg6
I59
sg7
I0
sg8
I3
sg9
I1
sg10
I1010
ssg11
(dp22
g5
I1380
sg6
I58
sg7
I1
sg8
I3
sg9
I27
sg10
I1380
ssg13
(dp23
g5
I2550
sg6
I59
sg7
I0
sg8
I3
sg9
I3
sg10
I1250
ssg15
(dp24
g5
I1397
sg6
I58
sg7
I1
sg8
I3
sg9
I0
sg10
I1110
ssg17
(dp25
g5
I1228
sg6
I59
sg7
I0
sg8
I3
sg9
I1
sg10
I960
sssS'Hall.csv'
p26
(dp27
g3
(dp28
g5
I582
sg6
I98
sg7
I3
sg8
I5
sg9
I2
sg10
I410
ssg11
(dp29
g5
I650
sg6
I101
sg7
I1
sg8
I4
sg9
I12
sg10
I650
ssg13
(dp30
g5
I1015
sg6
I102
sg7
I0
sg8
I4
sg9
I1
sg10
I500
ssg15
(dp31
g5
I671
sg6
I101
sg7
I1
sg8
I4
sg9
I0
sg10
I480
ssg17
(dp32
g5
I673
sg6
I102
sg7
I0
sg8
I4
sg9
I0
sg10
I470
sssS'Danijel.csv'
p33
(dp34
g3
(dp35
g5
I1066
sg6
I45
sg7
I0
sg8
I3
sg9
I2
sg10
I850
ssg11
(dp36
g5
I1440
sg6
I44
sg7
I1
sg8
I3
sg9
I31
sg10
I1440
ssg13
(dp37
g5
I1574
sg6
I45
sg7
I0
sg8
I3
sg9
I0
sg10
I770
ssg15
(dp38
g5
I1000
sg6
I45
sg7
I0
sg8
I3
sg9
I0
sg10
I780
ssg17
(dp39
g5
I1021
sg6
I44
sg7
I1
sg8
I3
sg9
I2
sg10
I810
sss.(dp0
S'K_all3.csv'
p1
(dp2
S'machine'
p3
(dp4
S'count'
p5
I606
sS'truepos'
p6
I37
sS'falseneg'
p7
I1
sS'unknownyes'
p8
I7
sS'falsepos'
p9
I0
sS'unique'
p10
I510
ssS'none'
p11
(dp12
g5
I410
sg6
I29
sg7
I1
sg8
I15
sg9
I9
sg10
I410
ssS'three'
p13
(dp14
g5
I1080
sg6
I35
sg7
I0
sg8
I10
sg9
I1
sg10
I530
ssS'machine3'
p15
(dp16
g5
I607
sg6
I37
sg7
I0
sg8
I8
sg9
I1
sg10
I510
ssS'machine2'
p17
(dp18
g5
I647
sg6
I37
sg7
I3
sg8
I5
sg9
I0
sg10
I530
sssS'Wahono.csv'
p19
(dp20
g3
(dp21
g5
I1354
sg6
I58
sg7
I0
sg8
I4
sg9
I1
sg10
I1070
ssg11
(dp22
g5
I1910
sg6
I58
sg7
I2
sg8
I2
sg9
I35
sg10
I1910
ssg13
(dp23
g5
I2282
sg6
I60
sg7
I0
sg8
I2
sg9
I3
sg10
I1120
ssg15
(dp24
g5
I1530
sg6
I58
sg7
I1
sg8
I3
sg9
I3
sg10
I1200
ssg17
(dp25
g5
I1787
sg6
I59
sg7
I1
sg8
I2
sg9
I2
sg10
I1380
sssS'Hall.csv'
p26
(dp27
g3
(dp28
g5
I632
sg6
I100
sg7
I2
sg8
I4
sg9
I0
sg10
I460
ssg11
(dp29
g5
I620
sg6
I101
sg7
I1
sg8
I4
sg9
I10
sg10
I620
ssg13
(dp30
g5
I880
sg6
I100
sg7
I1
sg8
I5
sg9
I0
sg10
I430
ssg15
(dp31
g5
I643
sg6
I101
sg7
I1
sg8
I4
sg9
I0
sg10
I440
ssg17
(dp32
g5
I802
sg6
I101
sg7
I1
sg8
I4
sg9
I1
sg10
I560
sssS'Danijel.csv'
p33
(dp34
g3
(dp35
g5
I919
sg6
I44
sg7
I0
sg8
I4
sg9
I0
sg10
I740
ssg11
(dp36
g5
I890
sg6
I45
sg7
I1
sg8
I2
sg9
I13
sg10
I890
ssg13
(dp37
g5
I1453
sg6
I45
sg7
I0
sg8
I3
sg9
I0
sg10
I710
ssg15
(dp38
g5
I866
sg6
I45
sg7
I0
sg8
I3
sg9
I0
sg10
I680
ssg17
(dp39
g5
I1009
sg6
I45
sg7
I0
sg8
I3
sg9
I2
sg10
I810
sss.(dp0
S'K_all3.csv'
p1
(dp2
S'machine'
p3
(dp4
S'count'
p5
I580
sS'truepos'
p6
I37
sS'falseneg'
p7
I0
sS'unknownyes'
p8
I8
sS'falsepos'
p9
I0
sS'unique'
p10
I490
ssS'none'
p11
(dp12
g5
I460
sg6
I30
sg7
I4
sg8
I11
sg9
I9
sg10
I460
ssS'three'
p13
(dp14
g5
I1038
sg6
I38
sg7
I0
sg8
I7
sg9
I0
sg10
I510
ssS'machine3'
p15
(dp16
g5
I598
sg6
I38
sg7
I0
sg8
I7
sg9
I0
sg10
I490
ssS'machine2'
p17
(dp18
g5
I633
sg6
I37
sg7
I1
sg8
I7
sg9
I0
sg10
I520
sssS'Wahono.csv'
p19
(dp20
g3
(dp21
g5
I1362
sg6
I59
sg7
I0
sg8
I3
sg9
I0
sg10
I1080
ssg11
(dp22
g5
I1520
sg6
I59
sg7
I1
sg8
I2
sg9
I28
sg10
I1520
ssg13
(dp23
g5
I2409
sg6
I59
sg7
I0
sg8
I3
sg9
I2
sg10
I1180
ssg15
(dp24
g5
I1652
sg6
I59
sg7
I0
sg8
I3
sg9
I3
sg10
I1290
ssg17
(dp25
g5
I1290
sg6
I59
sg7
I0
sg8
I3
sg9
I0
sg10
I1010
sssS'Hall.csv'
p26
(dp27
g3
(dp28
g5
I742
sg6
I102
sg7
I0
sg8
I4
sg9
I1
sg10
I530
ssg11
(dp29
g5
I930
sg6
I99
sg7
I3
sg8
I4
sg9
I17
sg10
I930
ssg13
(dp30
g5
I955
sg6
I100
sg7
I1
sg8
I5
sg9
I0
sg10
I470
ssg15
(dp31
g5
I646
sg6
I99
sg7
I2
sg8
I5
sg9
I0
sg10
I460
ssg17
(dp32
g5
I735
sg6
I102
sg7
I0
sg8
I4
sg9
I0
sg10
I520
sssS'Danijel.csv'
p33
(dp34
g3
(dp35
g5
I961
sg6
I44
sg7
I1
sg8
I3
sg9
I0
sg10
I750
ssg11
(dp36
g5
I950
sg6
I43
sg7
I2
sg8
I3
sg9
I19
sg10
I950
ssg13
(dp37
g5
I1623
sg6
I45
sg7
I0
sg8
I3
sg9
I2
sg10
I800
ssg15
(dp38
g5
I972
sg6
I45
sg7
I1
sg8
I2
sg9
I0
sg10
I770
ssg17
(dp39
g5
I998
sg6
I45
sg7
I0
sg8
I3
sg9
I1
sg10
I790
sss.(dp0
S'K_all3.csv'
p1
(dp2
S'machine'
p3
(dp4
S'count'
p5
I585
sS'truepos'
p6
I35
sS'falseneg'
p7
I2
sS'unknownyes'
p8
I8
sS'falsepos'
p9
I0
sS'unique'
p10
I520
ssS'none'
p11
(dp12
g5
I430
sg6
I34
sg7
I1
sg8
I10
sg9
I12
sg10
I430
ssS'three'
p13
(dp14
g5
I1003
sg6
I36
sg7
I0
sg8
I9
sg9
I0
sg10
I490
ssS'machine3'
p15
(dp16
g5
I583
sg6
I36
sg7
I0
sg8
I9
sg9
I0
sg10
I490
ssS'machine2'
p17
(dp18
g5
I592
sg6
I35
sg7
I1
sg8
I9
sg9
I1
sg10
I500
sssS'Wahono.csv'
p19
(dp20
g3
(dp21
g5
I1433
sg6
I59
sg7
I0
sg8
I3
sg9
I1
sg10
I1140
ssg11
(dp22
g5
I1690
sg6
I60
sg7
I0
sg8
I2
sg9
I35
sg10
I1690
ssg13
(dp23
g5
I2292
sg6
I59
sg7
I0
sg8
I3
sg9
I1
sg10
I1120
ssg15
(dp24
g5
I1395
sg6
I59
sg7
I0
sg8
I3
sg9
I0
sg10
I1090
ssg17
(dp25
g5
I1386
sg6
I59
sg7
I0
sg8
I3
sg9
I0
sg10
I1090
sssS'Hall.csv'
p26
(dp27
g3
(dp28
g5
I729
sg6
I101
sg7
I1
sg8
I4
sg9
I0
sg10
I520
ssg11
(dp29
g5
I480
sg6
I99
sg7
I3
sg8
I4
sg9
I6
sg10
I480
ssg13
(dp30
g5
I934
sg6
I102
sg7
I0
sg8
I4
sg9
I0
sg10
I460
ssg15
(dp31
g5
I695
sg6
I102
sg7
I0
sg8
I4
sg9
I0
sg10
I490
ssg17
(dp32
g5
I530
sg6
I98
sg7
I1
sg8
I7
sg9
I0
sg10
I370
sssS'Danijel.csv'
p33
(dp34
g3
(dp35
g5
I929
sg6
I44
sg7
I1
sg8
I3
sg9
I0
sg10
I750
ssg11
(dp36
g5
I1060
sg6
I43
sg7
I1
sg8
I4
sg9
I24
sg10
I1060
ssg13
(dp37
g5
I1639
sg6
I45
sg7
I0
sg8
I3
sg9
I3
sg10
I800
ssg15
(dp38
g5
I919
sg6
I45
sg7
I0
sg8
I3
sg9
I1
sg10
I730
ssg17
(dp39
g5
I1076
sg6
I46
sg7
I0
sg8
I2
sg9
I2
sg10
I850
sss.(dp0
S'K_all3.csv'
p1
(dp2
S'machine'
p3
(dp4
S'count'
p5
I592
sS'truepos'
p6
I35
sS'falseneg'
p7
I0
sS'unknownyes'
p8
I10
sS'falsepos'
p9
I0
sS'unique'
p10
I500
ssS'none'
p11
(dp12
g5
I460
sg6
I35
sg7
I2
sg8
I8
sg9
I10
sg10
I460
ssS'three'
p13
(dp14
g5
I1074
sg6
I37
sg7
I1
sg8
I7
sg9
I0
sg10
I530
ssS'machine3'
p15
(dp16
g5
I641
sg6
I35
sg7
I1
sg8
I9
sg9
I0
sg10
I520
ssS'machine2'
p17
(dp18
g5
I501
sg6
I35
sg7
I0
sg8
I10
sg9
I0
sg10
I410
sssS'Wahono.csv'
p19
(dp20
g3
(dp21
g5
I1337
sg6
I59
sg7
I0
sg8
I3
sg9
I0
sg10
I1060
ssg11
(dp22
g5
I1580
sg6
I61
sg7
I0
sg8
I1
sg9
I38
sg10
I1580
ssg13
(dp23
g5
I2317
sg6
I59
sg7
I0
sg8
I3
sg9
I0
sg10
I1140
ssg15
(dp24
g5
I1444
sg6
I58
sg7
I1
sg8
I3
sg9
I0
sg10
I1130
ssg17
(dp25
g5
I1429
sg6
I60
sg7
I0
sg8
I2
sg9
I1
sg10
I1110
sssS'Hall.csv'
p26
(dp27
g3
(dp28
g5
I692
sg6
I99
sg7
I3
sg8
I4
sg9
I0
sg10
I500
ssg11
(dp29
g5
I770
sg6
I101
sg7
I1
sg8
I4
sg9
I13
sg10
I770
ssg13
(dp30
g5
I1023
sg6
I102
sg7
I0
sg8
I4
sg9
I1
sg10
I500
ssg15
(dp31
g5
I686
sg6
I101
sg7
I0
sg8
I5
sg9
I0
sg10
I480
ssg17
(dp32
g5
I620
sg6
I101
sg7
I0
sg8
I5
sg9
I1
sg10
I440
sssS'Danijel.csv'
p33
(dp34
g3
(dp35
g5
I895
sg6
I42
sg7
I2
sg8
I4
sg9
I1
sg10
I710
ssg11
(dp36
g5
I1050
sg6
I46
sg7
I0
sg8
I2
sg9
I25
sg10
I1050
ssg13
(dp37
g5
I1711
sg6
I45
sg7
I1
sg8
I2
sg9
I2
sg10
I840
ssg15
(dp38
g5
I1133
sg6
I45
sg7
I0
sg8
I3
sg9
I3
sg10
I890
ssg17
(dp39
g5
I952
sg6
I44
sg7
I0
sg8
I4
sg9
I1
sg10
I750
sss.(dp0
S'K_all3.csv'
p1
(dp2
S'machine'
p3
(dp4
S'count'
p5
I489
sS'truepos'
p6
I33
sS'falseneg'
p7
I3
sS'unknownyes'
p8
I9
sS'falsepos'
p9
I0
sS'unique'
p10
I410
ssS'none'
p11
(dp12
g5
I450
sg6
I29
sg7
I1
sg8
I15
sg9
I7
sg10
I450
ssS'three'
p13
(dp14
g5
I1011
sg6
I38
sg7
I0
sg8
I7
sg9
I0
sg10
I500
ssS'machine3'
p15
(dp16
g5
I528
sg6
I36
sg7
I1
sg8
I8
sg9
I1
sg10
I440
ssS'machine2'
p17
(dp18
g5
I607
sg6
I36
sg7
I2
sg8
I7
sg9
I0
sg10
I500
sssS'Wahono.csv'
p19
(dp20
g3
(dp21
g5
I1364
sg6
I59
sg7
I0
sg8
I3
sg9
I2
sg10
I1090
ssg11
(dp22
g5
I1590
sg6
I57
sg7
I1
sg8
I4
sg9
I27
sg10
I1590
ssg13
(dp23
g5
I2630
sg6
I60
sg7
I1
sg8
I1
sg9
I3
sg10
I1290
ssg15
(dp24
g5
I1499
sg6
I59
sg7
I0
sg8
I3
sg9
I0
sg10
I1170
ssg17
(dp25
g5
I1487
sg6
I60
sg7
I0
sg8
I2
sg9
I2
sg10
I1160
sssS'Hall.csv'
p26
(dp27
g3
(dp28
g5
I633
sg6
I102
sg7
I0
sg8
I4
sg9
I0
sg10
I460
ssg11
(dp29
g5
I830
sg6
I97
sg7
I5
sg8
I4
sg9
I13
sg10
I830
ssg13
(dp30
g5
I967
sg6
I102
sg7
I0
sg8
I4
sg9
I1
sg10
I470
ssg15
(dp31
g5
I702
sg6
I102
sg7
I0
sg8
I4
sg9
I1
sg10
I490
ssg17
(dp32
g5
I621
sg6
I101
sg7
I0
sg8
I5
sg9
I2
sg10
I440
sssS'Danijel.csv'
p33
(dp34
g3
(dp35
g5
I1031
sg6
I45
sg7
I0
sg8
I3
sg9
I0
sg10
I820
ssg11
(dp36
g5
I1170
sg6
I45
sg7
I1
sg8
I2
sg9
I19
sg10
I1170
ssg13
(dp37
g5
I1544
sg6
I45
sg7
I0
sg8
I3
sg9
I0
sg10
I760
ssg15
(dp38
g5
I743
sg6
I43
sg7
I1
sg8
I4
sg9
I1
sg10
I580
ssg17
(dp39
g5
I975
sg6
I46
sg7
I0
sg8
I2
sg9
I0
sg10
I760
sss.(dp0
S'K_all3.csv'
p1
(dp2
S'machine'
p3
(dp4
S'count'
p5
I617
sS'truepos'
p6
I33
sS'falseneg'
p7
I6
sS'unknownyes'
p8
I6
sS'falsepos'
p9
I0
sS'unique'
p10
I510
ssS'none'
p11
(dp12
g5
I410
sg6
I33
sg7
I0
sg8
I12
sg9
I6
sg10
I410
ssS'three'
p13
(dp14
g5
I1096
sg6
I35
sg7
I1
sg8
I9
sg9
I0
sg10
I540
ssS'machine3'
p15
(dp16
g5
I505
sg6
I32
sg7
I2
sg8
I11
sg9
I0
sg10
I430
ssS'machine2'
p17
(dp18
g5
I575
sg6
I36
sg7
I0
sg8
I9
sg9
I0
sg10
I490
sssS'Wahono.csv'
p19
(dp20
g3
(dp21
g5
I1504
sg6
I59
sg7
I1
sg8
I2
sg9
I2
sg10
I1210
ssg11
(dp22
g5
I1500
sg6
I57
sg7
I3
sg8
I2
sg9
I32
sg10
I1500
ssg13
(dp23
g5
I2476
sg6
I58
sg7
I0
sg8
I4
sg9
I1
sg10
I1220
ssg15
(dp24
g5
I1440
sg6
I59
sg7
I0
sg8
I3
sg9
I0
sg10
I1120
ssg17
(dp25
g5
I1620
sg6
I59
sg7
I0
sg8
I3
sg9
I2
sg10
I1260
sssS'Hall.csv'
p26
(dp27
g3
(dp28
g5
I663
sg6
I101
sg7
I0
sg8
I5
sg9
I1
sg10
I470
ssg11
(dp29
g5
I650
sg6
I102
sg7
I0
sg8
I4
sg9
I14
sg10
I650
ssg13
(dp30
g5
I958
sg6
I102
sg7
I0
sg8
I4
sg9
I0
sg10
I470
ssg15
(dp31
g5
I653
sg6
I101
sg7
I0
sg8
I5
sg9
I0
sg10
I450
ssg17
(dp32
g5
I621
sg6
I101
sg7
I1
sg8
I4
sg9
I3
sg10
I440
sssS'Danijel.csv'
p33
(dp34
g3
(dp35
g5
I945
sg6
I46
sg7
I0
sg8
I2
sg9
I0
sg10
I760
ssg11
(dp36
g5
I1340
sg6
I43
sg7
I2
sg8
I3
sg9
I29
sg10
I1340
ssg13
(dp37
g5
I1512
sg6
I45
sg7
I0
sg8
I3
sg9
I1
sg10
I740
ssg15
(dp38
g5
I982
sg6
I45
sg7
I0
sg8
I3
sg9
I0
sg10
I780
ssg17
(dp39
g5
I1026
sg6
I44
sg7
I1
sg8
I3
sg9
I2
sg10
I810
sss.(dp0
S'K_all3.csv'
p1
(dp2
S'machine'
p3
(dp4
S'count'
p5
I486
sS'truepos'
p6
I34
sS'falseneg'
p7
I2
sS'unknownyes'
p8
I9
sS'falsepos'
p9
I0
sS'unique'
p10
I410
ssS'none'
p11
(dp12
g5
I440
sg6
I33
sg7
I1
sg8
I11
sg9
I8
sg10
I440
ssS'three'
p13
(dp14
g5
I894
sg6
I37
sg7
I0
sg8
I8
sg9
I1
sg10
I440
ssS'machine3'
p15
(dp16
g5
I601
sg6
I38
sg7
I0
sg8
I7
sg9
I0
sg10
I480
ssS'machine2'
p17
(dp18
g5
I562
sg6
I37
sg7
I0
sg8
I8
sg9
I0
sg10
I460
sssS'Wahono.csv'
p19
(dp20
g3
(dp21
g5
I1350
sg6
I59
sg7
I0
sg8
I3
sg9
I1
sg10
I1080
ssg11
(dp22
g5
I1790
sg6
I58
sg7
I2
sg8
I2
sg9
I36
sg10
I1790
ssg13
(dp23
g5
I2309
sg6
I59
sg7
I0
sg8
I3
sg9
I1
sg10
I1130
ssg15
(dp24
g5
I1531
sg6
I59
sg7
I0
sg8
I3
sg9
I3
sg10
I1180
ssg17
(dp25
g5
I1490
sg6
I59
sg7
I0
sg8
I3
sg9
I2
sg10
I1160
sssS'Hall.csv'
p26
(dp27
g3
(dp28
g5
I582
sg6
I98
sg7
I3
sg8
I5
sg9
I0
sg10
I410
ssg11
(dp29
g5
I480
sg6
I100
sg7
I2
sg8
I4
sg9
I6
sg10
I480
ssg13
(dp30
g5
I961
sg6
I102
sg7
I0
sg8
I4
sg9
I1
sg10
I470
ssg15
(dp31
g5
I675
sg6
I101
sg7
I1
sg8
I4
sg9
I0
sg10
I460
ssg17
(dp32
g5
I634
sg6
I100
sg7
I2
sg8
I4
sg9
I3
sg10
I450
sssS'Danijel.csv'
p33
(dp34
g3
(dp35
g5
I952
sg6
I45
sg7
I0
sg8
I3
sg9
I0
sg10
I760
ssg11
(dp36
g5
I1160
sg6
I45
sg7
I1
sg8
I2
sg9
I33
sg10
I1160
ssg13
(dp37
g5
I1610
sg6
I46
sg7
I0
sg8
I2
sg9
I2
sg10
I790
ssg15
(dp38
g5
I1061
sg6
I46
sg7
I0
sg8
I2
sg9
I2
sg10
I840
ssg17
(dp39
g5
I1022
sg6
I44
sg7
I1
sg8
I3
sg9
I0
sg10
I810
sss.(dp0
S'K_all3.csv'
p1
(dp2
S'machine'
p3
(dp4
S'count'
p5
I623
sS'truepos'
p6
I36
sS'falseneg'
p7
I1
sS'unknownyes'
p8
I8
sS'falsepos'
p9
I0
sS'unique'
p10
I520
ssS'none'
p11
(dp12
g5
I460
sg6
I32
sg7
I0
sg8
I13
sg9
I4
sg10
I460
ssS'three'
p13
(dp14
g5
I1003
sg6
I36
sg7
I0
sg8
I9
sg9
I0
sg10
I490
ssS'machine3'
p15
(dp16
g5
I660
sg6
I37
sg7
I2
sg8
I6
sg9
I0
sg10
I540
ssS'machine2'
p17
(dp18
g5
I608
sg6
I37
sg7
I0
sg8
I8
sg9
I1
sg10
I510
sssS'Wahono.csv'
p19
(dp20
g3
(dp21
g5
I1372
sg6
I59
sg7
I0
sg8
I3
sg9
I0
sg10
I1090
ssg11
(dp22
g5
I1980
sg6
I57
sg7
I2
sg8
I3
sg9
I34
sg10
I1980
ssg13
(dp23
g5
I2217
sg6
I59
sg7
I0
sg8
I3
sg9
I1
sg10
I1090
ssg15
(dp24
g5
I1395
sg6
I59
sg7
I0
sg8
I3
sg9
I0
sg10
I1090
ssg17
(dp25
g5
I1362
sg6
I59
sg7
I0
sg8
I3
sg9
I1
sg10
I1060
sssS'Hall.csv'
p26
(dp27
g3
(dp28
g5
I622
sg6
I97
sg7
I5
sg8
I4
sg9
I2
sg10
I450
ssg11
(dp29
g5
I720
sg6
I99
sg7
I3
sg8
I4
sg9
I18
sg10
I720
ssg13
(dp30
g5
I992
sg6
I102
sg7
I0
sg8
I4
sg9
I1
sg10
I490
ssg15
(dp31
g5
I644
sg6
I102
sg7
I0
sg8
I4
sg9
I0
sg10
I440
ssg17
(dp32
g5
I761
sg6
I100
sg7
I2
sg8
I4
sg9
I1
sg10
I540
sssS'Danijel.csv'
p33
(dp34
g3
(dp35
g5
I906
sg6
I44
sg7
I0
sg8
I4
sg9
I1
sg10
I720
ssg11
(dp36
g5
I940
sg6
I44
sg7
I0
sg8
I4
sg9
I17
sg10
I940
ssg13
(dp37
g5
I1467
sg6
I45
sg7
I0
sg8
I3
sg9
I0
sg10
I720
ssg15
(dp38
g5
I890
sg6
I45
sg7
I0
sg8
I3
sg9
I0
sg10
I690
ssg17
(dp39
g5
I994
sg6
I45
sg7
I0
sg8
I3
sg9
I0
sg10
I780
sss.(dp0
S'K_all3.csv'
p1
(dp2
S'machine'
p3
(dp4
S'count'
p5
I598
sS'truepos'
p6
I35
sS'falseneg'
p7
I1
sS'unknownyes'
p8
I9
sS'falsepos'
p9
I0
sS'unique'
p10
I520
ssS'none'
p11
(dp12
g5
I470
sg6
I38
sg7
I0
sg8
I7
sg9
I7
sg10
I470
ssS'three'
p13
(dp14
g5
I984
sg6
I37
sg7
I0
sg8
I8
sg9
I1
sg10
I480
ssS'machine3'
p15
(dp16
g5
I596
sg6
I35
sg7
I3
sg8
I7
sg9
I0
sg10
I510
ssS'machine2'
p17
(dp18
g5
I557
sg6
I36
sg7
I0
sg8
I9
sg9
I0
sg10
I460
sssS'Wahono.csv'
p19
(dp20
g3
(dp21
g5
I1471
sg6
I59
sg7
I0
sg8
I3
sg9
I1
sg10
I1180
ssg11
(dp22
g5
I1650
sg6
I58
sg7
I1
sg8
I3
sg9
I37
sg10
I1650
ssg13
(dp23
g5
I2328
sg6
I60
sg7
I0
sg8
I2
sg9
I2
sg10
I1140
ssg15
(dp24
g5
I1462
sg6
I59
sg7
I0
sg8
I3
sg9
I0
sg10
I1160
ssg17
(dp25
g5
I1222
sg6
I59
sg7
I0
sg8
I3
sg9
I1
sg10
I960
sssS'Hall.csv'
p26
(dp27
g3
(dp28
g5
I623
sg6
I101
sg7
I0
sg8
I5
sg9
I0
sg10
I450
ssg11
(dp29
g5
I570
sg6
I100
sg7
I2
sg8
I4
sg9
I6
sg10
I570
ssg13
(dp30
g5
I1016
sg6
I102
sg7
I0
sg8
I4
sg9
I1
sg10
I500
ssg15
(dp31
g5
I654
sg6
I101
sg7
I1
sg8
I4
sg9
I0
sg10
I450
ssg17
(dp32
g5
I620
sg6
I101
sg7
I0
sg8
I5
sg9
I1
sg10
I440
sssS'Danijel.csv'
p33
(dp34
g3
(dp35
g5
I975
sg6
I45
sg7
I0
sg8
I3
sg9
I0
sg10
I770
ssg11
(dp36
g5
I880
sg6
I42
sg7
I4
sg8
I2
sg9
I17
sg10
I880
ssg13
(dp37
g5
I1569
sg6
I45
sg7
I0
sg8
I3
sg9
I0
sg10
I770
ssg15
(dp38
g5
I931
sg6
I45
sg7
I0
sg8
I3
sg9
I0
sg10
I730
ssg17
(dp39
g5
I864
sg6
I44
sg7
I1
sg8
I3
sg9
I2
sg10
I670
sss.(dp0
S'K_all3.csv'
p1
(dp2
S'machine'
p3
(dp4
S'count'
p5
I547
sS'truepos'
p6
I33
sS'falseneg'
p7
I2
sS'unknownyes'
p8
I10
sS'falsepos'
p9
I0
sS'unique'
p10
I460
ssS'none'
p11
(dp12
g5
I430
sg6
I36
sg7
I0
sg8
I9
sg9
I17
sg10
I430
ssS'three'
p13
(dp14
g5
I1038
sg6
I38
sg7
I0
sg8
I7
sg9
I0
sg10
I510
ssS'machine3'
p15
(dp16
g5
I621
sg6
I34
sg7
I0
sg8
I11
sg9
I0
sg10
I540
ssS'machine2'
p17
(dp18
g5
I545
sg6
I34
sg7
I1
sg8
I10
sg9
I1
sg10
I460
sssS'Wahono.csv'
p19
(dp20
g3
(dp21
g5
I1590
sg6
I59
sg7
I0
sg8
I3
sg9
I2
sg10
I1260
ssg11
(dp22
g5
I1890
sg6
I59
sg7
I1
sg8
I2
sg9
I42
sg10
I1890
ssg13
(dp23
g5
I2037
sg6
I58
sg7
I0
sg8
I4
sg9
I1
sg10
I1000
ssg15
(dp24
g5
I1551
sg6
I59
sg7
I0
sg8
I3
sg9
I1
sg10
I1220
ssg17
(dp25
g5
I1507
sg6
I59
sg7
I0
sg8
I3
sg9
I1
sg10
I1160
sssS'Hall.csv'
p26
(dp27
g3
(dp28
g5
I607
sg6
I99
sg7
I2
sg8
I5
sg9
I1
sg10
I430
ssg11
(dp29
g5
I580
sg6
I100
sg7
I2
sg8
I4
sg9
I9
sg10
I580
ssg13
(dp30
g5
I999
sg6
I102
sg7
I0
sg8
I4
sg9
I0
sg10
I490
ssg15
(dp31
g5
I690
sg6
I102
sg7
I0
sg8
I4
sg9
I0
sg10
I490
ssg17
(dp32
g5
I699
sg6
I102
sg7
I0
sg8
I4
sg9
I1
sg10
I500
sssS'Danijel.csv'
p33
(dp34
g3
(dp35
g5
I872
sg6
I44
sg7
I1
sg8
I3
sg9
I0
sg10
I690
ssg11
(dp36
g5
I750
sg6
I44
sg7
I1
sg8
I3
sg9
I14
sg10
I750
ssg13
(dp37
g5
I1530
sg6
I46
sg7
I0
sg8
I2
sg9
I3
sg10
I750
ssg15
(dp38
g5
I963
sg6
I45
sg7
I0
sg8
I3
sg9
I0
sg10
I760
ssg17
(dp39
g5
I1158
sg6
I46
sg7
I0
sg8
I2
sg9
I2
sg10
I910
sss.(dp0
S'K_all3.csv'
p1
(dp2
S'machine'
p3
(dp4
S'count'
p5
I537
sS'truepos'
p6
I36
sS'falseneg'
p7
I0
sS'unknownyes'
p8
I9
sS'falsepos'
p9
I0
sS'unique'
p10
I470
ssS'none'
p11
(dp12
g5
I450
sg6
I31
sg7
I1
sg8
I13
sg9
I6
sg10
I450
ssS'three'
p13
(dp14
g5
I996
sg6
I38
sg7
I0
sg8
I7
sg9
I0
sg10
I490
ssS'machine3'
p15
(dp16
g5
I643
sg6
I36
sg7
I2
sg8
I7
sg9
I0
sg10
I550
ssS'machine2'
p17
(dp18
g5
I493
sg6
I33
sg7
I0
sg8
I12
sg9
I0
sg10
I410
sssS'Wahono.csv'
p19
(dp20
g3
(dp21
g5
I1420
sg6
I58
sg7
I1
sg8
I3
sg9
I0
sg10
I1120
ssg11
(dp22
g5
I1920
sg6
I58
sg7
I2
sg8
I2
sg9
I42
sg10
I1920
ssg13
(dp23
g5
I2782
sg6
I61
sg7
I0
sg8
I1
sg9
I5
sg10
I1360
ssg15
(dp24
g5
I1514
sg6
I59
sg7
I0
sg8
I3
sg9
I0
sg10
I1180
ssg17
(dp25
g5
I1451
sg6
I58
sg7
I0
sg8
I4
sg9
I1
sg10
I1140
sssS'Hall.csv'
p26
(dp27
g3
(dp28
g5
I722
sg6
I103
sg7
I0
sg8
I3
sg9
I2
sg10
I510
ssg11
(dp29
g5
I610
sg6
I97
sg7
I5
sg8
I4
sg9
I7
sg10
I610
ssg13
(dp30
g5
I1017
sg6
I102
sg7
I0
sg8
I4
sg9
I0
sg10
I500
ssg15
(dp31
g5
I695
sg6
I101
sg7
I1
sg8
I4
sg9
I1
sg10
I480
ssg17
(dp32
g5
I640
sg6
I101
sg7
I0
sg8
I5
sg9
I0
sg10
I460
sssS'Danijel.csv'
p33
(dp34
g3
(dp35
g5
I757
sg6
I45
sg7
I0
sg8
I3
sg9
I2
sg10
I610
ssg11
(dp36
g5
I770
sg6
I44
sg7
I1
sg8
I3
sg9
I12
sg10
I770
ssg13
(dp37
g5
I1455
sg6
I45
sg7
I0
sg8
I3
sg9
I1
sg10
I710
ssg15
(dp38
g5
I880
sg6
I44
sg7
I1
sg8
I3
sg9
I1
sg10
I690
ssg17
(dp39
g5
I1107
sg6
I45
sg7
I0
sg8
I3
sg9
I3
sg10
I870
sss.(dp0
S'K_all3.csv'
p1
(dp2
S'machine'
p3
(dp4
S'count'
p5
I553
sS'truepos'
p6
I32
sS'falseneg'
p7
I1
sS'unknownyes'
p8
I12
sS'falsepos'
p9
I1
sS'unique'
p10
I480
ssS'none'
p11
(dp12
g5
I470
sg6
I33
sg7
I1
sg8
I11
sg9
I11
sg10
I470
ssS'three'
p13
(dp14
g5
I1001
sg6
I36
sg7
I0
sg8
I9
sg9
I0
sg10
I490
ssS'machine3'
p15
(dp16
g5
I534
sg6
I36
sg7
I0
sg8
I9
sg9
I1
sg10
I440
ssS'machine2'
p17
(dp18
g5
I636
sg6
I35
sg7
I1
sg8
I9
sg9
I0
sg10
I510
sssS'Wahono.csv'
p19
(dp20
g3
(dp21
g5
I1381
sg6
I58
sg7
I1
sg8
I3
sg9
I1
sg10
I1110
ssg11
(dp22
g5
I1940
sg6
I58
sg7
I1
sg8
I3
sg9
I42
sg10
I1940
ssg13
(dp23
g5
I2629
sg6
I59
sg7
I0
sg8
I3
sg9
I4
sg10
I1290
ssg15
(dp24
g5
I1517
sg6
I59
sg7
I1
sg8
I2
sg9
I2
sg10
I1180
ssg17
(dp25
g5
I1514
sg6
I60
sg7
I0
sg8
I2
sg9
I1
sg10
I1210
sssS'Hall.csv'
p26
(dp27
g3
(dp28
g5
I542
sg6
I98
sg7
I3
sg8
I5
sg9
I2
sg10
I390
ssg11
(dp29
g5
I630
sg6
I102
sg7
I0
sg8
I4
sg9
I10
sg10
I630
ssg13
(dp30
g5
I1075
sg6
I102
sg7
I0
sg8
I4
sg9
I0
sg10
I530
ssg15
(dp31
g5
I733
sg6
I102
sg7
I0
sg8
I4
sg9
I0
sg10
I510
ssg17
(dp32
g5
I627
sg6
I101
sg7
I0
sg8
I5
sg9
I2
sg10
I450
sssS'Danijel.csv'
p33
(dp34
g3
(dp35
g5
I888
sg6
I44
sg7
I1
sg8
I3
sg9
I0
sg10
I710
ssg11
(dp36
g5
I900
sg6
I45
sg7
I1
sg8
I2
sg9
I12
sg10
I900
ssg13
(dp37
g5
I1537
sg6
I44
sg7
I1
sg8
I3
sg9
I0
sg10
I760
ssg15
(dp38
g5
I952
sg6
I44
sg7
I1
sg8
I3
sg9
I1
sg10
I750
ssg17
(dp39
g5
I1073
sg6
I45
sg7
I0
sg8
I3
sg9
I3
sg10
I830
sss.(dp0
S'K_all3.csv'
p1
(dp2
S'machine'
p3
(dp4
S'count'
p5
I493
sS'truepos'
p6
I32
sS'falseneg'
p7
I0
sS'unknownyes'
p8
I13
sS'falsepos'
p9
I1
sS'unique'
p10
I410
ssS'none'
p11
(dp12
g5
I400
sg6
I34
sg7
I0
sg8
I11
sg9
I5
sg10
I400
ssS'three'
p13
(dp14
g5
I1019
sg6
I38
sg7
I0
sg8
I7
sg9
I0
sg10
I500
ssS'machine3'
p15
(dp16
g5
I506
sg6
I32
sg7
I0
sg8
I13
sg9
I1
sg10
I430
ssS'machine2'
p17
(dp18
g5
I596
sg6
I33
sg7
I3
sg8
I9
sg9
I0
sg10
I510
sssS'Wahono.csv'
p19
(dp20
g3
(dp21
g5
I1387
sg6
I59
sg7
I0
sg8
I3
sg9
I0
sg10
I1100
ssg11
(dp22
g5
I1900
sg6
I60
sg7
I0
sg8
I2
sg9
I36
sg10
I1900
ssg13
(dp23
g5
I2322
sg6
I59
sg7
I0
sg8
I3
sg9
I2
sg10
I1140
ssg15
(dp24
g5
I1499
sg6
I59
sg7
I0
sg8
I3
sg9
I1
sg10
I1180
ssg17
(dp25
g5
I1440
sg6
I58
sg7
I1
sg8
I3
sg9
I1
sg10
I1130
sssS'Hall.csv'
p26
(dp27
g3
(dp28
g5
I718
sg6
I100
sg7
I1
sg8
I5
sg9
I0
sg10
I510
ssg11
(dp29
g5
I1190
sg6
I97
sg7
I6
sg8
I3
sg9
I22
sg10
I1190
ssg13
(dp30
g5
I946
sg6
I101
sg7
I1
sg8
I4
sg9
I1
sg10
I460
ssg15
(dp31
g5
I687
sg6
I101
sg7
I1
sg8
I4
sg9
I0
sg10
I480
ssg17
(dp32
g5
I357
sg6
I89
sg7
I2
sg8
I15
sg9
I1
sg10
I260
sssS'Danijel.csv'
p33
(dp34
g3
(dp35
g5
I977
sg6
I45
sg7
I0
sg8
I3
sg9
I0
sg10
I780
ssg11
(dp36
g5
I900
sg6
I45
sg7
I1
sg8
I2
sg9
I15
sg10
I900
ssg13
(dp37
g5
I1800
sg6
I45
sg7
I0
sg8
I3
sg9
I1
sg10
I880
ssg15
(dp38
g5
I1005
sg6
I42
sg7
I2
sg8
I4
sg9
I0
sg10
I800
ssg17
(dp39
g5
I885
sg6
I44
sg7
I1
sg8
I3
sg9
I0
sg10
I710
sss.(dp0
S'K_all3.csv'
p1
(dp2
S'machine'
p3
(dp4
S'count'
p5
I619
sS'truepos'
p6
I36
sS'falseneg'
p7
I1
sS'unknownyes'
p8
I8
sS'falsepos'
p9
I1
sS'unique'
p10
I530
ssS'none'
p11
(dp12
g5
I370
sg6
I34
sg7
I0
sg8
I11
sg9
I4
sg10
I370
ssS'three'
p13
(dp14
g5
I998
sg6
I38
sg7
I0
sg8
I7
sg9
I0
sg10
I490
ssS'machine3'
p15
(dp16
g5
I521
sg6
I36
sg7
I0
sg8
I9
sg9
I0
sg10
I450
ssS'machine2'
p17
(dp18
g5
I550
sg6
I35
sg7
I0
sg8
I10
sg9
I1
sg10
I460
sssS'Wahono.csv'
p19
(dp20
g3
(dp21
g5
I1350
sg6
I59
sg7
I0
sg8
I3
sg9
I1
sg10
I1070
ssg11
(dp22
g5
I1940
sg6
I59
sg7
I1
sg8
I2
sg9
I36
sg10
I1940
ssg13
(dp23
g5
I2486
sg6
I59
sg7
I0
sg8
I3
sg9
I1
sg10
I1220
ssg15
(dp24
g5
I1518
sg6
I59
sg7
I0
sg8
I3
sg9
I0
sg10
I1190
ssg17
(dp25
g5
I1517
sg6
I59
sg7
I0
sg8
I3
sg9
I1
sg10
I1200
sssS'Hall.csv'
p26
(dp27
g3
(dp28
g5
I702
sg6
I100
sg7
I2
sg8
I4
sg9
I0
sg10
I510
ssg11
(dp29
g5
I560
sg6
I100
sg7
I1
sg8
I5
sg9
I14
sg10
I560
ssg13
(dp30
g5
I1079
sg6
I102
sg7
I0
sg8
I4
sg9
I0
sg10
I530
ssg15
(dp31
g5
I654
sg6
I102
sg7
I0
sg8
I4
sg9
I1
sg10
I450
ssg17
(dp32
g5
I658
sg6
I102
sg7
I0
sg8
I4
sg9
I0
sg10
I460
sssS'Danijel.csv'
p33
(dp34
g3
(dp35
g5
I765
sg6
I44
sg7
I1
sg8
I3
sg9
I0
sg10
I610
ssg11
(dp36
g5
I1000
sg6
I43
sg7
I2
sg8
I3
sg9
I18
sg10
I1000
ssg13
(dp37
g5
I1578
sg6
I45
sg7
I0
sg8
I3
sg9
I0
sg10
I770
ssg15
(dp38
g5
I863
sg6
I46
sg7
I0
sg8
I2
sg9
I0
sg10
I680
ssg17
(dp39
g5
I925
sg6
I45
sg7
I0
sg8
I3
sg9
I2
sg10
I710
sss.