(dp0
S'K_all3.csv'
p1
(dp2
S'machine'
p3
(dp4
S'count'
p5
I580
sS'truepos'
p6
I32
sS'falseneg'
p7
I1
sS'correction'
p8
I9
sS'unknownyes'
p9
I12
sS'falsepos'
p10
I6
sS'unique'
p11
I380
ssS'knee'
p12
(dp13
g5
I101
sg6
I12
sg7
I1
sg8
I3
sg9
I32
sg10
I0
sg11
I70
ssS'none'
p14
(dp15
g5
I460
sg6
I29
sg7
I11
sg8
I0
sg9
I5
sg10
I5
sg11
I460
ssS'three'
p16
(dp17
g5
I1085
sg6
I31
sg7
I10
sg8
I23
sg9
I4
sg10
I0
sg11
I530
sssS'Wahono.csv'
p18
(dp19
g3
(dp20
g5
I1859
sg6
I58
sg7
I3
sg8
I13
sg9
I1
sg10
I4
sg11
I1340
ssg12
(dp21
g5
I96
sg6
I9
sg7
I8
sg8
I1
sg9
I45
sg10
I0
sg11
I80
ssg14
(dp22
g5
I1390
sg6
I42
sg7
I18
sg8
I0
sg9
I2
sg10
I0
sg11
I1390
ssg16
(dp23
g5
I2956
sg6
I43
sg7
I16
sg8
I30
sg9
I3
sg10
I0
sg11
I1460
sssS'Hall.csv'
p24
(dp25
g3
(dp26
g5
I1047
sg6
I87
sg7
I15
sg8
I16
sg9
I2
sg10
I2
sg11
I840
ssg12
(dp27
g5
I912
sg6
I91
sg7
I11
sg8
I17
sg9
I2
sg10
I4
sg11
I630
ssg14
(dp28
g5
I1180
sg6
I64
sg7
I39
sg8
I0
sg9
I1
sg10
I3
sg11
I1180
ssg16
(dp29
g5
I1147
sg6
I82
sg7
I20
sg8
I40
sg9
I2
sg10
I0
sg11
I550
sssS'Danijel.csv'
p30
(dp31
g3
(dp32
g5
I1167
sg6
I39
sg7
I5
sg8
I11
sg9
I4
sg10
I3
sg11
I810
ssg12
(dp33
g5
I1214
sg6
I43
sg7
I3
sg8
I10
sg9
I2
sg10
I3
sg11
I940
ssg14
(dp34
g5
I950
sg6
I34
sg7
I11
sg8
I0
sg9
I3
sg10
I0
sg11
I950
ssg16
(dp35
g5
I2383
sg6
I35
sg7
I11
sg8
I20
sg9
I2
sg10
I0
sg11
I1180
sss.(dp0
S'K_all3.csv'
p1
(dp2
S'machine'
p3
(dp4
S'count'
p5
I755
sS'truepos'
p6
I32
sS'falseneg'
p7
I8
sS'correction'
p8
I5
sS'unknownyes'
p9
I5
sS'falsepos'
p10
I2
sS'unique'
p11
I530
ssS'knee'
p12
(dp13
g5
I542
sg6
I28
sg7
I7
sg8
I4
sg9
I10
sg10
I1
sg11
I440
ssS'none'
p14
(dp15
g5
I590
sg6
I22
sg7
I18
sg8
I0
sg9
I5
sg10
I4
sg11
I590
ssS'three'
p16
(dp17
g5
I1164
sg6
I33
sg7
I8
sg8
I22
sg9
I4
sg10
I0
sg11
I570
sssS'Wahono.csv'
p18
(dp19
g3
(dp20
g5
I1841
sg6
I52
sg7
I6
sg8
I3
sg9
I4
sg10
I6
sg11
I1340
ssg12
(dp21
g5
I37
sg6
I4
sg7
I4
sg8
I1
sg9
I54
sg10
I0
sg11
I30
ssg14
(dp22
g5
I1630
sg6
I43
sg7
I16
sg8
I0
sg9
I3
sg10
I4
sg11
I1630
ssg16
(dp23
g5
I3493
sg6
I47
sg7
I14
sg8
I31
sg9
I1
sg10
I0
sg11
I1730
sssS'Hall.csv'
p24
(dp25
g3
(dp26
g5
I744
sg6
I90
sg7
I12
sg8
I21
sg9
I2
sg10
I3
sg11
I560
ssg12
(dp27
g5
I782
sg6
I87
sg7
I15
sg8
I23
sg9
I2
sg10
I3
sg11
I590
ssg14
(dp28
g5
I670
sg6
I75
sg7
I27
sg8
I0
sg9
I2
sg10
I1
sg11
I670
ssg16
(dp29
g5
I1268
sg6
I84
sg7
I18
sg8
I40
sg9
I2
sg10
I0
sg11
I610
sssS'Danijel.csv'
p30
(dp31
g3
(dp32
g5
I1194
sg6
I39
sg7
I6
sg8
I6
sg9
I3
sg10
I2
sg11
I810
ssg12
(dp33
g5
I857
sg6
I39
sg7
I7
sg8
I9
sg9
I2
sg10
I0
sg11
I590
ssg14
(dp34
g5
I1530
sg6
I32
sg7
I15
sg8
I0
sg9
I1
sg10
I5
sg11
I1530
ssg16
(dp35
g5
I1672
sg6
I40
sg7
I6
sg8
I9
sg9
I2
sg10
I0
sg11
I830
sss.(dp0
S'K_all3.csv'
p1
(dp2
S'machine'
p3
(dp4
S'count'
p5
I683
sS'truepos'
p6
I33
sS'falseneg'
p7
I3
sS'correction'
p8
I5
sS'unknownyes'
p9
I9
sS'falsepos'
p10
I5
sS'unique'
p11
I480
ssS'knee'
p12
(dp13
g5
I1643
sg6
I41
sg7
I3
sg8
I6
sg9
I1
sg10
I11
sg11
I1080
ssS'none'
p14
(dp15
g5
I560
sg6
I30
sg7
I12
sg8
I0
sg9
I3
sg10
I4
sg11
I560
ssS'three'
p16
(dp17
g5
I1040
sg6
I28
sg7
I13
sg8
I18
sg9
I4
sg10
I0
sg11
I510
sssS'Wahono.csv'
p18
(dp19
g3
(dp20
g5
I1877
sg6
I51
sg7
I7
sg8
I10
sg9
I4
sg10
I8
sg11
I1280
ssg12
(dp21
g5
I24
sg6
I6
sg7
I0
sg8
I0
sg9
I56
sg10
I0
sg11
I20
ssg14
(dp22
g5
I1560
sg6
I41
sg7
I18
sg8
I0
sg9
I3
sg10
I5
sg11
I1560
ssg16
(dp23
g5
I3274
sg6
I44
sg7
I16
sg8
I30
sg9
I2
sg10
I0
sg11
I1620
sssS'Hall.csv'
p24
(dp25
g3
(dp26
g5
I694
sg6
I87
sg7
I15
sg8
I14
sg9
I2
sg10
I3
sg11
I530
ssg12
(dp27
g5
I24
sg6
I8
sg7
I0
sg8
I2
sg9
I96
sg10
I0
sg11
I20
ssg14
(dp28
g5
I760
sg6
I68
sg7
I34
sg8
I0
sg9
I2
sg10
I3
sg11
I760
ssg16
(dp29
g5
I1285
sg6
I80
sg7
I22
sg8
I42
sg9
I2
sg10
I0
sg11
I620
sssS'Danijel.csv'
p30
(dp31
g3
(dp32
g5
I1232
sg6
I36
sg7
I9
sg8
I6
sg9
I3
sg10
I1
sg11
I910
ssg12
(dp33
g5
I682
sg6
I35
sg7
I8
sg8
I7
sg9
I5
sg10
I0
sg11
I560
ssg14
(dp34
g5
I820
sg6
I38
sg7
I7
sg8
I0
sg9
I3
sg10
I0
sg11
I820
ssg16
(dp35
g5
I2108
sg6
I36
sg7
I10
sg8
I23
sg9
I2
sg10
I0
sg11
I1040
sss.(dp0
S'K_all3.csv'
p1
(dp2
S'machine'
p3
(dp4
S'count'
p5
I500
sS'truepos'
p6
I26
sS'falseneg'
p7
I4
sS'correction'
p8
I4
sS'unknownyes'
p9
I15
sS'falsepos'
p10
I4
sS'unique'
p11
I400
ssS'knee'
p12
(dp13
g5
I363
sg6
I27
sg7
I3
sg8
I4
sg9
I15
sg10
I0
sg11
I260
ssS'none'
p14
(dp15
g5
I530
sg6
I26
sg7
I16
sg8
I0
sg9
I3
sg10
I3
sg11
I530
ssS'three'
p16
(dp17
g5
I1001
sg6
I33
sg7
I6
sg8
I18
sg9
I6
sg10
I0
sg11
I490
sssS'Wahono.csv'
p18
(dp19
g3
(dp20
g5
I2115
sg6
I52
sg7
I7
sg8
I12
sg9
I3
sg10
I4
sg11
I1610
ssg12
(dp21
g5
I475
sg6
I33
sg7
I8
sg8
I7
sg9
I21
sg10
I2
sg11
I300
ssg14
(dp22
g5
I1460
sg6
I41
sg7
I19
sg8
I0
sg9
I2
sg10
I4
sg11
I1460
ssg16
(dp23
g5
I2710
sg6
I51
sg7
I9
sg8
I26
sg9
I2
sg10
I0
sg11
I1340
sssS'Hall.csv'
p24
(dp25
g3
(dp26
g5
I633
sg6
I88
sg7
I14
sg8
I23
sg9
I2
sg10
I1
sg11
I470
ssg12
(dp27
g5
I679
sg6
I93
sg7
I9
sg8
I24
sg9
I2
sg10
I2
sg11
I490
ssg14
(dp28
g5
I1950
sg6
I68
sg7
I35
sg8
I0
sg9
I1
sg10
I7
sg11
I1950
ssg16
(dp29
g5
I1025
sg6
I86
sg7
I15
sg8
I39
sg9
I3
sg10
I0
sg11
I490
sssS'Danijel.csv'
p30
(dp31
g3
(dp32
g5
I1119
sg6
I41
sg7
I5
sg8
I7
sg9
I2
sg10
I4
sg11
I740
ssg12
(dp33
g5
I535
sg6
I36
sg7
I5
sg8
I7
sg9
I7
sg10
I0
sg11
I350
ssg14
(dp34
g5
I840
sg6
I35
sg7
I11
sg8
I0
sg9
I2
sg10
I3
sg11
I840
ssg16
(dp35
g5
I2325
sg6
I33
sg7
I13
sg8
I21
sg9
I2
sg10
I0
sg11
I1150
sss.(dp0
S'K_all3.csv'
p1
(dp2
S'machine'
p3
(dp4
S'count'
p5
I682
sS'truepos'
p6
I34
sS'falseneg'
p7
I7
sS'correction'
p8
I3
sS'unknownyes'
p9
I4
sS'falsepos'
p10
I2
sS'unique'
p11
I480
ssS'knee'
p12
(dp13
g5
I1191
sg6
I39
sg7
I4
sg8
I8
sg9
I2
sg10
I3
sg11
I770
ssS'none'
p14
(dp15
g5
I490
sg6
I32
sg7
I10
sg8
I0
sg9
I3
sg10
I3
sg11
I490
ssS'three'
p16
(dp17
g5
I1267
sg6
I30
sg7
I12
sg8
I26
sg9
I3
sg10
I0
sg11
I620
sssS'Wahono.csv'
p18
(dp19
g3
(dp20
g5
I2201
sg6
I55
sg7
I6
sg8
I15
sg9
I1
sg10
I10
sg11
I1570
ssg12
(dp21
g5
I101
sg6
I15
sg7
I4
sg8
I6
sg9
I43
sg10
I0
sg11
I70
ssg14
(dp22
g5
I1700
sg6
I50
sg7
I11
sg8
I0
sg9
I1
sg10
I3
sg11
I1700
ssg16
(dp23
g5
I2508
sg6
I46
sg7
I14
sg8
I26
sg9
I2
sg10
I0
sg11
I1240
sssS'Hall.csv'
p24
(dp25
g3
(dp26
g5
I642
sg6
I93
sg7
I9
sg8
I15
sg9
I2
sg10
I0
sg11
I480
ssg12
(dp27
g5
I610
sg6
I83
sg7
I19
sg8
I19
sg9
I2
sg10
I0
sg11
I460
ssg14
(dp28
g5
I1530
sg6
I63
sg7
I40
sg8
I0
sg9
I1
sg10
I6
sg11
I1530
ssg16
(dp29
g5
I1406
sg6
I84
sg7
I18
sg8
I37
sg9
I2
sg10
I0
sg11
I680
sssS'Danijel.csv'
p30
(dp31
g3
(dp32
g5
I1249
sg6
I38
sg7
I7
sg8
I10
sg9
I3
sg10
I3
sg11
I860
ssg12
(dp33
g5
I991
sg6
I35
sg7
I11
sg8
I8
sg9
I2
sg10
I2
sg11
I790
ssg14
(dp34
g5
I1210
sg6
I31
sg7
I13
sg8
I0
sg9
I4
sg10
I6
sg11
I1210
ssg16
(dp35
g5
I2537
sg6
I36
sg7
I11
sg8
I15
sg9
I1
sg10
I0
sg11
I1260
sss.(dp0
S'K_all3.csv'
p1
(dp2
S'machine'
p3
(dp4
S'count'
p5
I681
sS'truepos'
p6
I33
sS'falseneg'
p7
I9
sS'correction'
p8
I5
sS'unknownyes'
p9
I3
sS'falsepos'
p10
I6
sS'unique'
p11
I480
ssS'knee'
p12
(dp13
g5
I1808
sg6
I38
sg7
I6
sg8
I16
sg9
I1
sg10
I9
sg11
I1190
ssS'none'
p14
(dp15
g5
I610
sg6
I29
sg7
I14
sg8
I0
sg9
I2
sg10
I5
sg11
I610
ssS'three'
p16
(dp17
g5
I939
sg6
I32
sg7
I8
sg8
I15
sg9
I5
sg10
I0
sg11
I460
sssS'Wahono.csv'
p18
(dp19
g3
(dp20
g5
I2045
sg6
I49
sg7
I11
sg8
I8
sg9
I2
sg10
I7
sg11
I1500
ssg12
(dp21
g5
I1618
sg6
I56
sg7
I5
sg8
I16
sg9
I1
sg10
I4
sg11
I1210
ssg14
(dp22
g5
I1670
sg6
I45
sg7
I16
sg8
I0
sg9
I1
sg10
I7
sg11
I1670
ssg16
(dp23
g5
I2857
sg6
I46
sg7
I15
sg8
I34
sg9
I1
sg10
I0
sg11
I1410
sssS'Hall.csv'
p24
(dp25
g3
(dp26
g5
I893
sg6
I91
sg7
I11
sg8
I18
sg9
I2
sg10
I1
sg11
I700
ssg12
(dp27
g5
I867
sg6
I88
sg7
I14
sg8
I19
sg9
I2
sg10
I3
sg11
I600
ssg14
(dp28
g5
I810
sg6
I72
sg7
I30
sg8
I0
sg9
I2
sg10
I1
sg11
I810
ssg16
(dp29
g5
I1163
sg6
I80
sg7
I22
sg8
I35
sg9
I2
sg10
I0
sg11
I560
sssS'Danijel.csv'
p30
(dp31
g3
(dp32
g5
I1480
sg6
I42
sg7
I3
sg8
I10
sg9
I3
sg10
I5
sg11
I1110
ssg12
(dp33
g5
I737
sg6
I32
sg7
I12
sg8
I5
sg9
I4
sg10
I1
sg11
I570
ssg14
(dp34
g5
I1060
sg6
I35
sg7
I11
sg8
I0
sg9
I2
sg10
I0
sg11
I1060
ssg16
(dp35
g5
I2921
sg6
I31
sg7
I15
sg8
I16
sg9
I2
sg10
I0
sg11
I1450
sss.(dp0
S'K_all3.csv'
p1
(dp2
S'machine'
p3
(dp4
S'count'
p5
I652
sS'truepos'
p6
I33
sS'falseneg'
p7
I5
sS'correction'
p8
I5
sS'unknownyes'
p9
I7
sS'falsepos'
p10
I3
sS'unique'
p11
I440
ssS'knee'
p12
(dp13
g5
I833
sg6
I35
sg7
I7
sg8
I11
sg9
I3
sg10
I1
sg11
I710
ssS'none'
p14
(dp15
g5
I510
sg6
I32
sg7
I9
sg8
I0
sg9
I4
sg10
I5
sg11
I510
ssS'three'
p16
(dp17
g5
I1040
sg6
I32
sg7
I6
sg8
I20
sg9
I7
sg10
I0
sg11
I510
sssS'Wahono.csv'
p18
(dp19
g3
(dp20
g5
I1325
sg6
I54
sg7
I5
sg8
I11
sg9
I3
sg10
I3
sg11
I990
ssg12
(dp21
g5
I544
sg6
I36
sg7
I7
sg8
I12
sg9
I19
sg10
I1
sg11
I400
ssg14
(dp22
g5
I1460
sg6
I42
sg7
I19
sg8
I0
sg9
I1
sg10
I2
sg11
I1460
ssg16
(dp23
g5
I2649
sg6
I50
sg7
I9
sg8
I25
sg9
I3
sg10
I0
sg11
I1310
sssS'Hall.csv'
p24
(dp25
g3
(dp26
g5
I895
sg6
I89
sg7
I13
sg8
I17
sg9
I2
sg10
I3
sg11
I700
ssg12
(dp27
g5
I581
sg6
I92
sg7
I9
sg8
I17
sg9
I3
sg10
I1
sg11
I380
ssg14
(dp28
g5
I950
sg6
I64
sg7
I39
sg8
I0
sg9
I1
sg10
I4
sg11
I950
ssg16
(dp29
g5
I1293
sg6
I72
sg7
I30
sg8
I45
sg9
I2
sg10
I0
sg11
I620
sssS'Danijel.csv'
p30
(dp31
g3
(dp32
g5
I1052
sg6
I37
sg7
I7
sg8
I9
sg9
I4
sg10
I2
sg11
I720
ssg12
(dp33
g5
I341
sg6
I26
sg7
I6
sg8
I5
sg9
I16
sg10
I0
sg11
I220
ssg14
(dp34
g5
I940
sg6
I39
sg7
I7
sg8
I0
sg9
I2
sg10
I3
sg11
I940
ssg16
(dp35
g5
I2367
sg6
I37
sg7
I9
sg8
I24
sg9
I2
sg10
I0
sg11
I1170
sss.(dp0
S'K_all3.csv'
p1
(dp2
S'machine'
p3
(dp4
S'count'
p5
I557
sS'truepos'
p6
I35
sS'falseneg'
p7
I4
sS'correction'
p8
I6
sS'unknownyes'
p9
I6
sS'falsepos'
p10
I3
sS'unique'
p11
I390
ssS'knee'
p12
(dp13
g5
I1805
sg6
I40
sg7
I5
sg8
I17
sg9
I0
sg10
I6
sg11
I1480
ssS'none'
p14
(dp15
g5
I480
sg6
I28
sg7
I11
sg8
I0
sg9
I6
sg10
I4
sg11
I480
ssS'three'
p16
(dp17
g5
I1182
sg6
I35
sg7
I7
sg8
I21
sg9
I3
sg10
I0
sg11
I580
sssS'Wahono.csv'
p18
(dp19
g3
(dp20
g5
I1817
sg6
I57
sg7
I2
sg8
I11
sg9
I3
sg10
I5
sg11
I1290
ssg12
(dp21
g5
I136
sg6
I15
sg7
I6
sg8
I1
sg9
I41
sg10
I0
sg11
I90
ssg14
(dp22
g5
I1490
sg6
I44
sg7
I16
sg8
I0
sg9
I2
sg10
I0
sg11
I1490
ssg16
(dp23
g5
I2411
sg6
I48
sg7
I11
sg8
I28
sg9
I3
sg10
I0
sg11
I1190
sssS'Hall.csv'
p24
(dp25
g3
(dp26
g5
I753
sg6
I90
sg7
I12
sg8
I16
sg9
I2
sg10
I2
sg11
I580
ssg12
(dp27
g5
I721
sg6
I91
sg7
I11
sg8
I20
sg9
I2
sg10
I0
sg11
I500
ssg14
(dp28
g5
I950
sg6
I75
sg7
I27
sg8
I0
sg9
I2
sg10
I3
sg11
I950
ssg16
(dp29
g5
I1283
sg6
I84
sg7
I18
sg8
I37
sg9
I2
sg10
I0
sg11
I620
sssS'Danijel.csv'
p30
(dp31
g3
(dp32
g5
I1302
sg6
I37
sg7
I9
sg8
I5
sg9
I2
sg10
I4
sg11
I870
ssg12
(dp33
g5
I316
sg6
I26
sg7
I2
sg8
I3
sg9
I20
sg10
I3
sg11
I190
ssg14
(dp34
g5
I1300
sg6
I32
sg7
I14
sg8
I0
sg9
I2
sg10
I6
sg11
I1300
ssg16
(dp35
g5
I2590
sg6
I36
sg7
I10
sg8
I27
sg9
I2
sg10
I0
sg11
I1280
sss.(dp0
S'K_all3.csv'
p1
(dp2
S'machine'
p3
(dp4
S'count'
p5
I578
sS'truepos'
p6
I32
sS'falseneg'
p7
I4
sS'correction'
p8
I5
sS'unknownyes'
p9
I9
sS'falsepos'
p10
I7
sS'unique'
p11
I410
ssS'knee'
p12
(dp13
g5
I1209
sg6
I37
sg7
I5
sg8
I14
sg9
I3
sg10
I6
sg11
I830
ssS'none'
p14
(dp15
g5
I600
sg6
I28
sg7
I14
sg8
I0
sg9
I3
sg10
I5
sg11
I600
ssS'three'
p16
(dp17
g5
I1165
sg6
I31
sg7
I10
sg8
I18
sg9
I4
sg10
I0
sg11
I570
sssS'Wahono.csv'
p18
(dp19
g3
(dp20
g5
I1752
sg6
I48
sg7
I11
sg8
I10
sg9
I3
sg10
I4
sg11
I1330
ssg12
(dp21
g5
I248
sg6
I23
sg7
I7
sg8
I7
sg9
I32
sg10
I1
sg11
I180
ssg14
(dp22
g5
I1680
sg6
I44
sg7
I16
sg8
I0
sg9
I2
sg10
I4
sg11
I1680
ssg16
(dp23
g5
I2956
sg6
I46
sg7
I13
sg8
I30
sg9
I3
sg10
I0
sg11
I1460
sssS'Hall.csv'
p24
(dp25
g3
(dp26
g5
I677
sg6
I91
sg7
I11
sg8
I18
sg9
I2
sg10
I1
sg11
I510
ssg12
(dp27
g5
I744
sg6
I87
sg7
I15
sg8
I18
sg9
I2
sg10
I3
sg11
I550
ssg14
(dp28
g5
I1030
sg6
I69
sg7
I34
sg8
I0
sg9
I1
sg10
I3
sg11
I1030
ssg16
(dp29
g5
I1632
sg6
I83
sg7
I19
sg8
I48
sg9
I2
sg10
I0
sg11
I790
sssS'Danijel.csv'
p30
(dp31
g3
(dp32
g5
I1250
sg6
I40
sg7
I5
sg8
I10
sg9
I3
sg10
I2
sg11
I870
ssg12
(dp33
g5
I497
sg6
I30
sg7
I8
sg8
I7
sg9
I10
sg10
I0
sg11
I290
ssg14
(dp34
g5
I1040
sg6
I33
sg7
I11
sg8
I0
sg9
I4
sg10
I9
sg11
I1040
ssg16
(dp35
g5
I1739
sg6
I40
sg7
I6
sg8
I19
sg9
I2
sg10
I0
sg11
I860
sss.(dp0
S'K_all3.csv'
p1
(dp2
S'machine'
p3
(dp4
S'count'
p5
I700
sS'truepos'
p6
I32
sS'falseneg'
p7
I8
sS'correction'
p8
I4
sS'unknownyes'
p9
I5
sS'falsepos'
p10
I8
sS'unique'
p11
I480
ssS'knee'
p12
(dp13
g5
I1308
sg6
I40
sg7
I3
sg8
I14
sg9
I2
sg10
I4
sg11
I890
ssS'none'
p14
(dp15
g5
I550
sg6
I26
sg7
I14
sg8
I0
sg9
I5
sg10
I3
sg11
I550
ssS'three'
p16
(dp17
g5
I1083
sg6
I36
sg7
I6
sg8
I21
sg9
I3
sg10
I0
sg11
I530
sssS'Wahono.csv'
p18
(dp19
g3
(dp20
g5
I1941
sg6
I51
sg7
I9
sg8
I7
sg9
I2
sg10
I4
sg11
I1470
ssg12
(dp21
g5
I24
sg6
I6
sg7
I0
sg8
I0
sg9
I56
sg10
I0
sg11
I20
ssg14
(dp22
g5
I1510
sg6
I44
sg7
I16
sg8
I0
sg9
I2
sg10
I5
sg11
I1510
ssg16
(dp23
g5
I3215
sg6
I47
sg7
I14
sg8
I31
sg9
I1
sg10
I0
sg11
I1590
sssS'Hall.csv'
p24
(dp25
g3
(dp26
g5
I671
sg6
I94
sg7
I8
sg8
I20
sg9
I2
sg10
I2
sg11
I500
ssg12
(dp27
g5
I593
sg6
I84
sg7
I15
sg8
I18
sg9
I5
sg10
I2
sg11
I400
ssg14
(dp28
g5
I860
sg6
I73
sg7
I29
sg8
I0
sg9
I2
sg10
I3
sg11
I860
ssg16
(dp29
g5
I1389
sg6
I82
sg7
I20
sg8
I45
sg9
I2
sg10
I0
sg11
I670
sssS'Danijel.csv'
p30
(dp31
g3
(dp32
g5
I1148
sg6
I40
sg7
I6
sg8
I7
sg9
I2
sg10
I4
sg11
I790
ssg12
(dp33
g5
I114
sg6
I8
sg7
I3
sg8
I2
sg9
I37
sg10
I0
sg11
I80
ssg14
(dp34
g5
I1470
sg6
I32
sg7
I14
sg8
I0
sg9
I2
sg10
I1
sg11
I1470
ssg16
(dp35
g5
I1642
sg6
I38
sg7
I7
sg8
I17
sg9
I3
sg10
I0
sg11
I810
sss.(dp0
S'K_all3.csv'
p1
(dp2
S'machine'
p3
(dp4
S'count'
p5
I601
sS'truepos'
p6
I33
sS'falseneg'
p7
I5
sS'correction'
p8
I7
sS'unknownyes'
p9
I7
sS'falsepos'
p10
I6
sS'unique'
p11
I410
ssS'knee'
p12
(dp13
g5
I755
sg6
I30
sg7
I4
sg8
I13
sg9
I11
sg10
I4
sg11
I510
ssS'none'
p14
(dp15
g5
I470
sg6
I29
sg7
I13
sg8
I0
sg9
I3
sg10
I2
sg11
I470
ssS'three'
p16
(dp17
g5
I959
sg6
I32
sg7
I9
sg8
I18
sg9
I4
sg10
I0
sg11
I470
sssS'Wahono.csv'
p18
(dp19
g3
(dp20
g5
I1783
sg6
I57
sg7
I3
sg8
I13
sg9
I2
sg10
I5
sg11
I1340
ssg12
(dp21
g5
I642
sg6
I40
sg7
I8
sg8
I6
sg9
I14
sg10
I0
sg11
I490
ssg14
(dp22
g5
I1610
sg6
I47
sg7
I13
sg8
I0
sg9
I2
sg10
I5
sg11
I1610
ssg16
(dp23
g5
I2893
sg6
I43
sg7
I18
sg8
I31
sg9
I1
sg10
I0
sg11
I1430
sssS'Hall.csv'
p24
(dp25
g3
(dp26
g5
I694
sg6
I95
sg7
I7
sg8
I22
sg9
I2
sg10
I3
sg11
I530
ssg12
(dp27
g5
I676
sg6
I89
sg7
I12
sg8
I24
sg9
I3
sg10
I1
sg11
I500
ssg14
(dp28
g5
I1160
sg6
I75
sg7
I27
sg8
I0
sg9
I2
sg10
I4
sg11
I1160
ssg16
(dp29
g5
I1149
sg6
I83
sg7
I19
sg8
I44
sg9
I2
sg10
I0
sg11
I550
sssS'Danijel.csv'
p30
(dp31
g3
(dp32
g5
I1348
sg6
I36
sg7
I10
sg8
I13
sg9
I2
sg10
I2
sg11
I1060
ssg12
(dp33
g5
I610
sg6
I35
sg7
I6
sg8
I9
sg9
I7
sg10
I0
sg11
I490
ssg14
(dp34
g5
I840
sg6
I37
sg7
I9
sg8
I0
sg9
I2
sg10
I3
sg11
I840
ssg16
(dp35
g5
I1583
sg6
I41
sg7
I5
sg8
I22
sg9
I2
sg10
I0
sg11
I780
sss.(dp0
S'K_all3.csv'
p1
(dp2
S'machine'
p3
(dp4
S'count'
p5
I631
sS'truepos'
p6
I34
sS'falseneg'
p7
I6
sS'correction'
p8
I6
sS'unknownyes'
p9
I5
sS'falsepos'
p10
I6
sS'unique'
p11
I440
ssS'knee'
p12
(dp13
g5
I181
sg6
I13
sg7
I2
sg8
I4
sg9
I30
sg10
I0
sg11
I120
ssS'none'
p14
(dp15
g5
I540
sg6
I26
sg7
I14
sg8
I0
sg9
I5
sg10
I6
sg11
I540
ssS'three'
p16
(dp17
g5
I978
sg6
I27
sg7
I15
sg8
I16
sg9
I3
sg10
I0
sg11
I480
sssS'Wahono.csv'
p18
(dp19
g3
(dp20
g5
I1522
sg6
I55
sg7
I5
sg8
I13
sg9
I2
sg10
I9
sg11
I1020
ssg12
(dp21
g5
I24
sg6
I6
sg7
I0
sg8
I0
sg9
I56
sg10
I0
sg11
I20
ssg14
(dp22
g5
I1690
sg6
I47
sg7
I13
sg8
I0
sg9
I2
sg10
I8
sg11
I1690
ssg16
(dp23
g5
I3155
sg6
I39
sg7
I22
sg8
I32
sg9
I1
sg10
I0
sg11
I1560
sssS'Hall.csv'
p24
(dp25
g3
(dp26
g5
I659
sg6
I89
sg7
I12
sg8
I13
sg9
I3
sg10
I1
sg11
I500
ssg12
(dp27
g5
I650
sg6
I93
sg7
I8
sg8
I24
sg9
I3
sg10
I4
sg11
I440
ssg14
(dp28
g5
I820
sg6
I68
sg7
I34
sg8
I0
sg9
I2
sg10
I1
sg11
I820
ssg16
(dp29
g5
I1602
sg6
I73
sg7
I29
sg8
I35
sg9
I2
sg10
I0
sg11
I780
sssS'Danijel.csv'
p30
(dp31
g3
(dp32
g5
I1286
sg6
I39
sg7
I6
sg8
I12
sg9
I3
sg10
I2
sg11
I860
ssg12
(dp33
g5
I662
sg6
I35
sg7
I8
sg8
I9
sg9
I5
sg10
I1
sg11
I470
ssg14
(dp34
g5
I1720
sg6
I31
sg7
I16
sg8
I0
sg9
I1
sg10
I7
sg11
I1720
ssg16
(dp35
g5
I2205
sg6
I35
sg7
I11
sg8
I22
sg9
I2
sg10
I0
sg11
I1090
sss.(dp0
S'K_all3.csv'
p1
(dp2
S'machine'
p3
(dp4
S'count'
p5
I583
sS'truepos'
p6
I32
sS'falseneg'
p7
I7
sS'correction'
p8
I5
sS'unknownyes'
p9
I6
sS'falsepos'
p10
I6
sS'unique'
p11
I410
ssS'knee'
p12
(dp13
g5
I155
sg6
I17
sg7
I3
sg8
I3
sg9
I25
sg10
I1
sg11
I100
ssS'none'
p14
(dp15
g5
I480
sg6
I30
sg7
I10
sg8
I0
sg9
I5
sg10
I2
sg11
I480
ssS'three'
p16
(dp17
g5
I1072
sg6
I35
sg7
I7
sg8
I29
sg9
I3
sg10
I0
sg11
I520
sssS'Wahono.csv'
p18
(dp19
g3
(dp20
g5
I1723
sg6
I54
sg7
I5
sg8
I12
sg9
I3
sg10
I4
sg11
I1230
ssg12
(dp21
g5
I539
sg6
I39
sg7
I7
sg8
I7
sg9
I16
sg10
I2
sg11
I330
ssg14
(dp22
g5
I1780
sg6
I43
sg7
I18
sg8
I0
sg9
I1
sg10
I3
sg11
I1780
ssg16
(dp23
g5
I2957
sg6
I45
sg7
I14
sg8
I30
sg9
I3
sg10
I1
sg11
I1460
sssS'Hall.csv'
p24
(dp25
g3
(dp26
g5
I740
sg6
I87
sg7
I15
sg8
I16
sg9
I2
sg10
I2
sg11
I530
ssg12
(dp27
g5
I23
sg6
I8
sg7
I2
sg8
I1
sg9
I94
sg10
I0
sg11
I20
ssg14
(dp28
g5
I1060
sg6
I60
sg7
I42
sg8
I0
sg9
I2
sg10
I2
sg11
I1060
ssg16
(dp29
g5
I1505
sg6
I86
sg7
I16
sg8
I39
sg9
I2
sg10
I0
sg11
I730
sssS'Danijel.csv'
p30
(dp31
g3
(dp32
g5
I974
sg6
I37
sg7
I9
sg8
I10
sg9
I2
sg10
I1
sg11
I720
ssg12
(dp33
g5
I834
sg6
I36
sg7
I8
sg8
I9
sg9
I4
sg10
I3
sg11
I630
ssg14
(dp34
g5
I1780
sg6
I29
sg7
I19
sg8
I0
sg9
I0
sg10
I3
sg11
I1780
ssg16
(dp35
g5
I2065
sg6
I36
sg7
I10
sg8
I22
sg9
I2
sg10
I0
sg11
I1020
sss.(dp0
S'K_all3.csv'
p1
(dp2
S'machine'
p3
(dp4
S'count'
p5
I681
sS'truepos'
p6
I33
sS'falseneg'
p7
I8
sS'correction'
p8
I2
sS'unknownyes'
p9
I4
sS'falsepos'
p10
I5
sS'unique'
p11
I450
ssS'knee'
p12
(dp13
g5
I642
sg6
I33
sg7
I8
sg8
I7
sg9
I4
sg10
I1
sg11
I550
ssS'none'
p14
(dp15
g5
I420
sg6
I31
sg7
I4
sg8
I0
sg9
I10
sg10
I7
sg11
I420
ssS'three'
p16
(dp17
g5
I1117
sg6
I32
sg7
I9
sg8
I14
sg9
I4
sg10
I0
sg11
I550
sssS'Wahono.csv'
p18
(dp19
g3
(dp20
g5
I1941
sg6
I53
sg7
I8
sg8
I10
sg9
I1
sg10
I4
sg11
I1490
ssg12
(dp21
g5
I997
sg6
I45
sg7
I8
sg8
I8
sg9
I9
sg10
I1
sg11
I680
ssg14
(dp22
g5
I1500
sg6
I42
sg7
I18
sg8
I0
sg9
I2
sg10
I4
sg11
I1500
ssg16
(dp23
g5
I2797
sg6
I48
sg7
I13
sg8
I33
sg9
I1
sg10
I0
sg11
I1380
sssS'Hall.csv'
p24
(dp25
g3
(dp26
g5
I682
sg6
I98
sg7
I4
sg8
I20
sg9
I2
sg10
I1
sg11
I490
ssg12
(dp27
g5
I525
sg6
I88
sg7
I10
sg8
I19
sg9
I6
sg10
I1
sg11
I350
ssg14
(dp28
g5
I1030
sg6
I79
sg7
I23
sg8
I0
sg9
I2
sg10
I5
sg11
I1030
ssg16
(dp29
g5
I1473
sg6
I81
sg7
I21
sg8
I44
sg9
I2
sg10
I0
sg11
I710
sssS'Danijel.csv'
p30
(dp31
g3
(dp32
g5
I1409
sg6
I40
sg7
I6
sg8
I10
sg9
I2
sg10
I3
sg11
I1010
ssg12
(dp33
g5
I682
sg6
I40
sg7
I3
sg8
I8
sg9
I5
sg10
I0
sg11
I520
ssg14
(dp34
g5
I930
sg6
I36
sg7
I10
sg8
I0
sg9
I2
sg10
I3
sg11
I930
ssg16
(dp35
g5
I2822
sg6
I38
sg7
I9
sg8
I19
sg9
I1
sg10
I0
sg11
I1400
sss.(dp0
S'K_all3.csv'
p1
(dp2
S'machine'
p3
(dp4
S'count'
p5
I578
sS'truepos'
p6
I28
sS'falseneg'
p7
I7
sS'correction'
p8
I5
sS'unknownyes'
p9
I10
sS'falsepos'
p10
I8
sS'unique'
p11
I380
ssS'knee'
p12
(dp13
g5
I1385
sg6
I36
sg7
I8
sg8
I11
sg9
I1
sg10
I4
sg11
I1030
ssS'none'
p14
(dp15
g5
I500
sg6
I31
sg7
I9
sg8
I0
sg9
I5
sg10
I2
sg11
I500
ssS'three'
p16
(dp17
g5
I1103
sg6
I32
sg7
I9
sg8
I22
sg9
I4
sg10
I0
sg11
I540
sssS'Wahono.csv'
p18
(dp19
g3
(dp20
g5
I1869
sg6
I54
sg7
I5
sg8
I14
sg9
I3
sg10
I5
sg11
I1450
ssg12
(dp21
g5
I24
sg6
I6
sg7
I0
sg8
I0
sg9
I56
sg10
I0
sg11
I20
ssg14
(dp22
g5
I1690
sg6
I40
sg7
I19
sg8
I0
sg9
I3
sg10
I7
sg11
I1690
ssg16
(dp23
g5
I3008
sg6
I48
sg7
I11
sg8
I26
sg9
I3
sg10
I0
sg11
I1490
sssS'Hall.csv'
p24
(dp25
g3
(dp26
g5
I764
sg6
I93
sg7
I9
sg8
I24
sg9
I2
sg10
I0
sg11
I590
ssg12
(dp27
g5
I743
sg6
I89
sg7
I13
sg8
I21
sg9
I2
sg10
I0
sg11
I570
ssg14
(dp28
g5
I1100
sg6
I72
sg7
I30
sg8
I0
sg9
I2
sg10
I4
sg11
I1100
ssg16
(dp29
g5
I1428
sg6
I89
sg7
I13
sg8
I44
sg9
I2
sg10
I0
sg11
I690
sssS'Danijel.csv'
p30
(dp31
g3
(dp32
g5
I1174
sg6
I38
sg7
I5
sg8
I6
sg9
I5
sg10
I6
sg11
I790
ssg12
(dp33
g5
I768
sg6
I38
sg7
I6
sg8
I8
sg9
I4
sg10
I0
sg11
I610
ssg14
(dp34
g5
I1170
sg6
I31
sg7
I14
sg8
I0
sg9
I3
sg10
I2
sg11
I1170
ssg16
(dp35
g5
I1541
sg6
I38
sg7
I7
sg8
I18
sg9
I3
sg10
I0
sg11
I760
sss.(dp0
S'K_all3.csv'
p1
(dp2
S'machine'
p3
(dp4
S'count'
p5
I574
sS'truepos'
p6
I33
sS'falseneg'
p7
I7
sS'correction'
p8
I8
sS'unknownyes'
p9
I5
sS'falsepos'
p10
I6
sS'unique'
p11
I420
ssS'knee'
p12
(dp13
g5
I381
sg6
I24
sg7
I1
sg8
I8
sg9
I20
sg10
I5
sg11
I230
ssS'none'
p14
(dp15
g5
I630
sg6
I28
sg7
I14
sg8
I0
sg9
I3
sg10
I9
sg11
I630
ssS'three'
p16
(dp17
g5
I1006
sg6
I33
sg7
I6
sg8
I21
sg9
I6
sg10
I2
sg11
I490
sssS'Wahono.csv'
p18
(dp19
g3
(dp20
g5
I1893
sg6
I52
sg7
I7
sg8
I7
sg9
I3
sg10
I6
sg11
I1320
ssg12
(dp21
g5
I1089
sg6
I45
sg7
I11
sg8
I8
sg9
I6
sg10
I2
sg11
I820
ssg14
(dp22
g5
I1590
sg6
I41
sg7
I18
sg8
I0
sg9
I3
sg10
I3
sg11
I1590
ssg16
(dp23
g5
I3171
sg6
I49
sg7
I12
sg8
I27
sg9
I1
sg10
I0
sg11
I1570
sssS'Hall.csv'
p24
(dp25
g3
(dp26
g5
I994
sg6
I86
sg7
I16
sg8
I22
sg9
I2
sg10
I3
sg11
I780
ssg12
(dp27
g5
I256
sg6
I59
sg7
I4
sg8
I16
sg9
I41
sg10
I2
sg11
I160
ssg14
(dp28
g5
I1490
sg6
I67
sg7
I36
sg8
I0
sg9
I1
sg10
I4
sg11
I1490
ssg16
(dp29
g5
I1141
sg6
I86
sg7
I16
sg8
I34
sg9
I2
sg10
I0
sg11
I550
sssS'Danijel.csv'
p30
(dp31
g3
(dp32
g5
I1087
sg6
I41
sg7
I5
sg8
I8
sg9
I2
sg10
I2
sg11
I770
ssg12
(dp33
g5
I79
sg6
I4
sg7
I1
sg8
I3
sg9
I43
sg10
I0
sg11
I70
ssg14
(dp34
g5
I1450
sg6
I34
sg7
I12
sg8
I0
sg9
I2
sg10
I4
sg11
I1450
ssg16
(dp35
g5
I1689
sg6
I40
sg7
I6
sg8
I26
sg9
I2
sg10
I0
sg11
I830
sss.(dp0
S'K_all3.csv'
p1
(dp2
S'machine'
p3
(dp4
S'count'
p5
I651
sS'truepos'
p6
I30
sS'falseneg'
p7
I6
sS'correction'
p8
I5
sS'unknownyes'
p9
I9
sS'falsepos'
p10
I6
sS'unique'
p11
I460
ssS'knee'
p12
(dp13
g5
I539
sg6
I29
sg7
I4
sg8
I7
sg9
I12
sg10
I2
sg11
I340
ssS'none'
p14
(dp15
g5
I590
sg6
I28
sg7
I7
sg8
I0
sg9
I10
sg10
I8
sg11
I590
ssS'three'
p16
(dp17
g5
I1086
sg6
I28
sg7
I12
sg8
I23
sg9
I5
sg10
I0
sg11
I530
sssS'Wahono.csv'
p18
(dp19
g3
(dp20
g5
I2035
sg6
I53
sg7
I8
sg8
I10
sg9
I1
sg10
I4
sg11
I1460
ssg12
(dp21
g5
I623
sg6
I40
sg7
I7
sg8
I6
sg9
I15
sg10
I2
sg11
I430
ssg14
(dp22
g5
I2210
sg6
I43
sg7
I16
sg8
I0
sg9
I3
sg10
I6
sg11
I2210
ssg16
(dp23
g5
I2450
sg6
I43
sg7
I16
sg8
I25
sg9
I3
sg10
I0
sg11
I1210
sssS'Hall.csv'
p24
(dp25
g3
(dp26
g5
I808
sg6
I89
sg7
I13
sg8
I18
sg9
I2
sg10
I1
sg11
I640
ssg12
(dp27
g5
I562
sg6
I92
sg7
I8
sg8
I24
sg9
I4
sg10
I1
sg11
I380
ssg14
(dp28
g5
I1130
sg6
I70
sg7
I33
sg8
I0
sg9
I1
sg10
I2
sg11
I1130
ssg16
(dp29
g5
I1556
sg6
I78
sg7
I24
sg8
I47
sg9
I2
sg10
I0
sg11
I750
sssS'Danijel.csv'
p30
(dp31
g3
(dp32
g5
I1215
sg6
I39
sg7
I6
sg8
I6
sg9
I3
sg10
I6
sg11
I820
ssg12
(dp33
g5
I1183
sg6
I41
sg7
I5
sg8
I11
sg9
I2
sg10
I2
sg11
I750
ssg14
(dp34
g5
I910
sg6
I37
sg7
I9
sg8
I0
sg9
I2
sg10
I2
sg11
I910
ssg16
(dp35
g5
I2604
sg6
I34
sg7
I12
sg8
I23
sg9
I2
sg10
I0
sg11
I1290
sss.(dp0
S'K_all3.csv'
p1
(dp2
S'machine'
p3
(dp4
S'count'
p5
I674
sS'truepos'
p6
I31
sS'falseneg'
p7
I9
sS'correction'
p8
I7
sS'unknownyes'
p9
I5
sS'falsepos'
p10
I4
sS'unique'
p11
I490
ssS'knee'
p12
(dp13
g5
I2001
sg6
I39
sg7
I6
sg8
I18
sg9
I0
sg10
I14
sg11
I1470
ssS'none'
p14
(dp15
g5
I420
sg6
I26
sg7
I11
sg8
I0
sg9
I8
sg10
I1
sg11
I420
ssS'three'
p16
(dp17
g5
I1020
sg6
I34
sg7
I7
sg8
I19
sg9
I4
sg10
I0
sg11
I500
sssS'Wahono.csv'
p18
(dp19
g3
(dp20
g5
I1760
sg6
I52
sg7
I7
sg8
I10
sg9
I3
sg10
I4
sg11
I1290
ssg12
(dp21
g5
I1559
sg6
I47
sg7
I13
sg8
I13
sg9
I2
sg10
I2
sg11
I1250
ssg14
(dp22
g5
I1940
sg6
I46
sg7
I15
sg8
I0
sg9
I1
sg10
I6
sg11
I1940
ssg16
(dp23
g5
I3072
sg6
I53
sg7
I7
sg8
I30
sg9
I2
sg10
I0
sg11
I1520
sssS'Hall.csv'
p24
(dp25
g3
(dp26
g5
I600
sg6
I87
sg7
I14
sg8
I22
sg9
I3
sg10
I0
sg11
I430
ssg12
(dp27
g5
I652
sg6
I92
sg7
I10
sg8
I21
sg9
I2
sg10
I0
sg11
I450
ssg14
(dp28
g5
I950
sg6
I69
sg7
I33
sg8
I0
sg9
I2
sg10
I2
sg11
I950
ssg16
(dp29
g5
I2144
sg6
I76
sg7
I27
sg8
I36
sg9
I1
sg10
I0
sg11
I1050
sssS'Danijel.csv'
p30
(dp31
g3
(dp32
g5
I1171
sg6
I37
sg7
I9
sg8
I7
sg9
I2
sg10
I2
sg11
I830
ssg12
(dp33
g5
I796
sg6
I40
sg7
I3
sg8
I6
sg9
I5
sg10
I0
sg11
I570
ssg14
(dp34
g5
I1030
sg6
I37
sg7
I9
sg8
I0
sg9
I2
sg10
I4
sg11
I1030
ssg16
(dp35
g5
I1659
sg6
I38
sg7
I8
sg8
I18
sg9
I2
sg10
I0
sg11
I820
sss.(dp0
S'K_all3.csv'
p1
(dp2
S'machine'
p3
(dp4
S'count'
p5
I621
sS'truepos'
p6
I33
sS'falseneg'
p7
I5
sS'correction'
p8
I5
sS'unknownyes'
p9
I7
sS'falsepos'
p10
I5
sS'unique'
p11
I430
ssS'knee'
p12
(dp13
g5
I237
sg6
I19
sg7
I3
sg8
I6
sg9
I23
sg10
I0
sg11
I150
ssS'none'
p14
(dp15
g5
I530
sg6
I32
sg7
I10
sg8
I0
sg9
I3
sg10
I3
sg11
I530
ssS'three'
p16
(dp17
g5
I992
sg6
I30
sg7
I8
sg8
I29
sg9
I7
sg10
I0
sg11
I480
sssS'Wahono.csv'
p18
(dp19
g3
(dp20
g5
I1788
sg6
I53
sg7
I5
sg8
I7
sg9
I4
sg10
I6
sg11
I1270
ssg12
(dp21
g5
I974
sg6
I40
sg7
I10
sg8
I12
sg9
I12
sg10
I1
sg11
I620
ssg14
(dp22
g5
I1420
sg6
I42
sg7
I18
sg8
I0
sg9
I2
sg10
I3
sg11
I1420
ssg16
(dp23
g5
I3109
sg6
I53
sg7
I8
sg8
I26
sg9
I1
sg10
I0
sg11
I1540
sssS'Hall.csv'
p24
(dp25
g3
(dp26
g5
I731
sg6
I89
sg7
I13
sg8
I16
sg9
I2
sg10
I2
sg11
I540
ssg12
(dp27
g5
I762
sg6
I90
sg7
I12
sg8
I25
sg9
I2
sg10
I1
sg11
I580
ssg14
(dp28
g5
I850
sg6
I74
sg7
I28
sg8
I0
sg9
I2
sg10
I3
sg11
I850
ssg16
(dp29
g5
I1087
sg6
I81
sg7
I20
sg8
I39
sg9
I3
sg10
I0
sg11
I520
sssS'Danijel.csv'
p30
(dp31
g3
(dp32
g5
I1232
sg6
I43
sg7
I3
sg8
I9
sg9
I2
sg10
I4
sg11
I840
ssg12
(dp33
g5
I559
sg6
I33
sg7
I10
sg8
I9
sg9
I5
sg10
I1
sg11
I380
ssg14
(dp34
g5
I1280
sg6
I32
sg7
I14
sg8
I0
sg9
I2
sg10
I6
sg11
I1280
ssg16
(dp35
g5
I2435
sg6
I33
sg7
I13
sg8
I32
sg9
I2
sg10
I0
sg11
I1200
sss.(dp0
S'K_all3.csv'
p1
(dp2
S'machine'
p3
(dp4
S'count'
p5
I675
sS'truepos'
p6
I26
sS'falseneg'
p7
I11
sS'correction'
p8
I3
sS'unknownyes'
p9
I8
sS'falsepos'
p10
I3
sS'unique'
p11
I470
ssS'knee'
p12
(dp13
g5
I181
sg6
I11
sg7
I7
sg8
I3
sg9
I27
sg10
I4
sg11
I120
ssS'none'
p14
(dp15
g5
I620
sg6
I30
sg7
I12
sg8
I0
sg9
I3
sg10
I6
sg11
I620
ssS'three'
p16
(dp17
g5
I979
sg6
I32
sg7
I6
sg8
I18
sg9
I7
sg10
I0
sg11
I480
sssS'Wahono.csv'
p18
(dp19
g3
(dp20
g5
I1983
sg6
I59
sg7
I2
sg8
I10
sg9
I1
sg10
I6
sg11
I1460
ssg12
(dp21
g5
I47
sg6
I7
sg7
I1
sg8
I0
sg9
I54
sg10
I0
sg11
I40
ssg14
(dp22
g5
I1420
sg6
I45
sg7
I14
sg8
I0
sg9
I3
sg10
I2
sg11
I1420
ssg16
(dp23
g5
I3115
sg6
I48
sg7
I13
sg8
I32
sg9
I1
sg10
I0
sg11
I1540
sssS'Hall.csv'
p24
(dp25
g3
(dp26
g5
I690
sg6
I94
sg7
I8
sg8
I12
sg9
I2
sg10
I2
sg11
I540
ssg12
(dp27
g5
I680
sg6
I88
sg7
I14
sg8
I19
sg9
I2
sg10
I0
sg11
I520
ssg14
(dp28
g5
I810
sg6
I79
sg7
I23
sg8
I0
sg9
I2
sg10
I2
sg11
I810
ssg16
(dp29
g5
I1176
sg6
I79
sg7
I23
sg8
I50
sg9
I2
sg10
I0
sg11
I560
sssS'Danijel.csv'
p30
(dp31
g3
(dp32
g5
I1090
sg6
I40
sg7
I5
sg8
I6
sg9
I3
sg10
I6
sg11
I720
ssg12
(dp33
g5
I701
sg6
I39
sg7
I1
sg8
I9
sg9
I8
sg10
I3
sg11
I460
ssg14
(dp34
g5
I1130
sg6
I34
sg7
I13
sg8
I0
sg9
I1
sg10
I2
sg11
I1130
ssg16
(dp35
g5
I1543
sg6
I39
sg7
I6
sg8
I18
sg9
I3
sg10
I0
sg11
I760
sss.(dp0
S'K_all3.csv'
p1
(dp2
S'machine'
p3
(dp4
S'count'
p5
I706
sS'truepos'
p6
I31
sS'falseneg'
p7
I7
sS'correction'
p8
I1
sS'unknownyes'
p9
I7
sS'falsepos'
p10
I3
sS'unique'
p11
I480
ssS'knee'
p12
(dp13
g5
I725
sg6
I31
sg7
I10
sg8
I5
sg9
I4
sg10
I0
sg11
I630
ssS'none'
p14
(dp15
g5
I450
sg6
I26
sg7
I13
sg8
I0
sg9
I6
sg10
I3
sg11
I450
ssS'three'
p16
(dp17
g5
I1214
sg6
I30
sg7
I10
sg8
I31
sg9
I5
sg10
I0
sg11
I590
sssS'Wahono.csv'
p18
(dp19
g3
(dp20
g5
I1621
sg6
I52
sg7
I8
sg8
I10
sg9
I2
sg10
I3
sg11
I1170
ssg12
(dp21
g5
I1157
sg6
I48
sg7
I10
sg8
I9
sg9
I4
sg10
I2
sg11
I870
ssg14
(dp22
g5
I1410
sg6
I42
sg7
I17
sg8
I0
sg9
I3
sg10
I2
sg11
I1410
ssg16
(dp23
g5
I3113
sg6
I46
sg7
I13
sg8
I29
sg9
I3
sg10
I0
sg11
I1540
sssS'Hall.csv'
p24
(dp25
g3
(dp26
g5
I789
sg6
I86
sg7
I16
sg8
I19
sg9
I2
sg10
I2
sg11
I590
ssg12
(dp27
g5
I632
sg6
I87
sg7
I15
sg8
I16
sg9
I2
sg10
I2
sg11
I450
ssg14
(dp28
g5
I1610
sg6
I71
sg7
I32
sg8
I0
sg9
I1
sg10
I3
sg11
I1610
ssg16
(dp29
g5
I1127
sg6
I82
sg7
I20
sg8
I40
sg9
I2
sg10
I0
sg11
I540
sssS'Danijel.csv'
p30
(dp31
g3
(dp32
g5
I1126
sg6
I42
sg7
I4
sg8
I11
sg9
I2
sg10
I3
sg11
I780
ssg12
(dp33
g5
I265
sg6
I21
sg7
I8
sg8
I4
sg9
I19
sg10
I0
sg11
I180
ssg14
(dp34
g5
I1960
sg6
I31
sg7
I15
sg8
I0
sg9
I2
sg10
I6
sg11
I1960
ssg16
(dp35
g5
I2810
sg6
I33
sg7
I15
sg8
I28
sg9
I0
sg10
I0
sg11
I1390
sss.(dp0
S'K_all3.csv'
p1
(dp2
S'machine'
p3
(dp4
S'count'
p5
I589
sS'truepos'
p6
I32
sS'falseneg'
p7
I8
sS'correction'
p8
I4
sS'unknownyes'
p9
I5
sS'falsepos'
p10
I6
sS'unique'
p11
I420
ssS'knee'
p12
(dp13
g5
I1057
sg6
I31
sg7
I10
sg8
I7
sg9
I4
sg10
I9
sg11
I740
ssS'none'
p14
(dp15
g5
I540
sg6
I34
sg7
I9
sg8
I0
sg9
I2
sg10
I4
sg11
I540
ssS'three'
p16
(dp17
g5
I1109
sg6
I35
sg7
I6
sg8
I26
sg9
I4
sg10
I0
sg11
I540
sssS'Wahono.csv'
p18
(dp19
g3
(dp20
g5
I1932
sg6
I51
sg7
I10
sg8
I13
sg9
I1
sg10
I2
sg11
I1500
ssg12
(dp21
g5
I168
sg6
I19
sg7
I3
sg8
I7
sg9
I40
sg10
I0
sg11
I110
ssg14
(dp22
g5
I1690
sg6
I34
sg7
I25
sg8
I0
sg9
I3
sg10
I9
sg11
I1690
ssg16
(dp23
g5
I2768
sg6
I56
sg7
I3
sg8
I27
sg9
I3
sg10
I0
sg11
I1370
sssS'Hall.csv'
p24
(dp25
g3
(dp26
g5
I1039
sg6
I89
sg7
I13
sg8
I14
sg9
I2
sg10
I5
sg11
I850
ssg12
(dp27
g5
I23
sg6
I8
sg7
I0
sg8
I1
sg9
I96
sg10
I0
sg11
I20
ssg14
(dp28
g5
I1220
sg6
I69
sg7
I34
sg8
I0
sg9
I1
sg10
I3
sg11
I1220
ssg16
(dp29
g5
I1436
sg6
I84
sg7
I18
sg8
I48
sg9
I2
sg10
I0
sg11
I690
sssS'Danijel.csv'
p30
(dp31
g3
(dp32
g5
I1066
sg6
I39
sg7
I7
sg8
I7
sg9
I2
sg10
I2
sg11
I750
ssg12
(dp33
g5
I66
sg6
I4
sg7
I4
sg8
I0
sg9
I40
sg10
I0
sg11
I50
ssg14
(dp34
g5
I880
sg6
I35
sg7
I10
sg8
I0
sg9
I3
sg10
I4
sg11
I880
ssg16
(dp35
g5
I1739
sg6
I39
sg7
I7
sg8
I17
sg9
I2
sg10
I0
sg11
I860
sss.(dp0
S'K_all3.csv'
p1
(dp2
S'machine'
p3
(dp4
S'count'
p5
I668
sS'truepos'
p6
I31
sS'falseneg'
p7
I7
sS'correction'
p8
I5
sS'unknownyes'
p9
I7
sS'falsepos'
p10
I8
sS'unique'
p11
I460
ssS'knee'
p12
(dp13
g5
I77
sg6
I6
sg7
I3
sg8
I3
sg9
I36
sg10
I0
sg11
I60
ssS'none'
p14
(dp15
g5
I520
sg6
I29
sg7
I13
sg8
I0
sg9
I3
sg10
I3
sg11
I520
ssS'three'
p16
(dp17
g5
I1044
sg6
I34
sg7
I7
sg8
I23
sg9
I4
sg10
I0
sg11
I510
sssS'Wahono.csv'
p18
(dp19
g3
(dp20
g5
I1464
sg6
I55
sg7
I4
sg8
I11
sg9
I3
sg10
I2
sg11
I1080
ssg12
(dp21
g5
I985
sg6
I48
sg7
I10
sg8
I11
sg9
I4
sg10
I0
sg11
I710
ssg14
(dp22
g5
I1470
sg6
I41
sg7
I19
sg8
I0
sg9
I2
sg10
I2
sg11
I1470
ssg16
(dp23
g5
I2835
sg6
I44
sg7
I15
sg8
I32
sg9
I3
sg10
I0
sg11
I1400
sssS'Hall.csv'
p24
(dp25
g3
(dp26
g5
I941
sg6
I88
sg7
I15
sg8
I21
sg9
I1
sg10
I7
sg11
I730
ssg12
(dp27
g5
I690
sg6
I93
sg7
I8
sg8
I18
sg9
I3
sg10
I1
sg11
I480
ssg14
(dp28
g5
I620
sg6
I75
sg7
I27
sg8
I0
sg9
I2
sg10
I0
sg11
I620
ssg16
(dp29
g5
I1515
sg6
I79
sg7
I23
sg8
I44
sg9
I2
sg10
I0
sg11
I730
sssS'Danijel.csv'
p30
(dp31
g3
(dp32
g5
I1214
sg6
I40
sg7
I6
sg8
I10
sg9
I2
sg10
I1
sg11
I840
ssg12
(dp33
g5
I672
sg6
I31
sg7
I12
sg8
I6
sg9
I5
sg10
I1
sg11
I540
ssg14
(dp34
g5
I1260
sg6
I32
sg7
I14
sg8
I0
sg9
I2
sg10
I3
sg11
I1260
ssg16
(dp35
g5
I2422
sg6
I34
sg7
I12
sg8
I18
sg9
I2
sg10
I0
sg11
I1200
sss.(dp0
S'K_all3.csv'
p1
(dp2
S'machine'
p3
(dp4
S'count'
p5
I531
sS'truepos'
p6
I30
sS'falseneg'
p7
I3
sS'correction'
p8
I5
sS'unknownyes'
p9
I12
sS'falsepos'
p10
I3
sS'unique'
p11
I380
ssS'knee'
p12
(dp13
g5
I1532
sg6
I40
sg7
I5
sg8
I11
sg9
I0
sg10
I14
sg11
I1040
ssS'none'
p14
(dp15
g5
I600
sg6
I27
sg7
I15
sg8
I0
sg9
I3
sg10
I3
sg11
I600
ssS'three'
p16
(dp17
g5
I922
sg6
I35
sg7
I6
sg8
I20
sg9
I4
sg10
I0
sg11
I450
sssS'Wahono.csv'
p18
(dp19
g3
(dp20
g5
I1956
sg6
I49
sg7
I10
sg8
I7
sg9
I3
sg10
I2
sg11
I1470
ssg12
(dp21
g5
I606
sg6
I35
sg7
I8
sg8
I10
sg9
I19
sg10
I1
sg11
I460
ssg14
(dp22
g5
I1760
sg6
I40
sg7
I20
sg8
I0
sg9
I2
sg10
I2
sg11
I1760
ssg16
(dp23
g5
I3212
sg6
I46
sg7
I14
sg8
I30
sg9
I2
sg10
I0
sg11
I1590
sssS'Hall.csv'
p24
(dp25
g3
(dp26
g5
I652
sg6
I94
sg7
I8
sg8
I13
sg9
I2
sg10
I4
sg11
I490
ssg12
(dp27
g5
I678
sg6
I88
sg7
I14
sg8
I30
sg9
I2
sg10
I2
sg11
I520
ssg14
(dp28
g5
I1280
sg6
I74
sg7
I29
sg8
I0
sg9
I1
sg10
I7
sg11
I1280
ssg16
(dp29
g5
I1913
sg6
I78
sg7
I24
sg8
I45
sg9
I2
sg10
I0
sg11
I930
sssS'Danijel.csv'
p30
(dp31
g3
(dp32
g5
I1294
sg6
I40
sg7
I6
sg8
I9
sg9
I2
sg10
I2
sg11
I900
ssg12
(dp33
g5
I511
sg6
I23
sg7
I5
sg8
I4
sg9
I20
sg10
I2
sg11
I320
ssg14
(dp34
g5
I1320
sg6
I34
sg7
I12
sg8
I0
sg9
I2
sg10
I2
sg11
I1320
ssg16
(dp35
g5
I1761
sg6
I38
sg7
I8
sg8
I16
sg9
I2
sg10
I0
sg11
I870
sss.(dp0
S'K_all3.csv'
p1
(dp2
S'machine'
p3
(dp4
S'count'
p5
I664
sS'truepos'
p6
I34
sS'falseneg'
p7
I4
sS'correction'
p8
I6
sS'unknownyes'
p9
I7
sS'falsepos'
p10
I4
sS'unique'
p11
I450
ssS'knee'
p12
(dp13
g5
I1404
sg6
I39
sg7
I6
sg8
I10
sg9
I0
sg10
I7
sg11
I1080
ssS'none'
p14
(dp15
g5
I490
sg6
I25
sg7
I13
sg8
I0
sg9
I7
sg10
I4
sg11
I490
ssS'three'
p16
(dp17
g5
I1066
sg6
I23
sg7
I14
sg8
I20
sg9
I8
sg10
I0
sg11
I520
sssS'Wahono.csv'
p18
(dp19
g3
(dp20
g5
I1738
sg6
I53
sg7
I7
sg8
I12
sg9
I2
sg10
I5
sg11
I1260
ssg12
(dp21
g5
I421
sg6
I35
sg7
I5
sg8
I6
sg9
I22
sg10
I0
sg11
I260
ssg14
(dp22
g5
I1510
sg6
I44
sg7
I15
sg8
I0
sg9
I3
sg10
I4
sg11
I1510
ssg16
(dp23
g5
I2786
sg6
I46
sg7
I14
sg8
I23
sg9
I2
sg10
I0
sg11
I1380
sssS'Hall.csv'
p24
(dp25
g3
(dp26
g5
I729
sg6
I88
sg7
I14
sg8
I21
sg9
I2
sg10
I3
sg11
I550
ssg12
(dp27
g5
I36
sg6
I9
sg7
I5
sg8
I3
sg9
I90
sg10
I0
sg11
I30
ssg14
(dp28
g5
I1100
sg6
I69
sg7
I34
sg8
I0
sg9
I1
sg10
I6
sg11
I1100
ssg16
(dp29
g5
I1217
sg6
I80
sg7
I22
sg8
I36
sg9
I2
sg10
I0
sg11
I590
sssS'Danijel.csv'
p30
(dp31
g3
(dp32
g5
I1166
sg6
I39
sg7
I6
sg8
I7
sg9
I3
sg10
I2
sg11
I800
ssg12
(dp33
g5
I969
sg6
I38
sg7
I7
sg8
I7
sg9
I3
sg10
I0
sg11
I790
ssg14
(dp34
g5
I1630
sg6
I31
sg7
I15
sg8
I0
sg9
I2
sg10
I5
sg11
I1630
ssg16
(dp35
g5
I1419
sg6
I39
sg7
I5
sg8
I19
sg9
I4
sg10
I0
sg11
I700
sss.(dp0
S'K_all3.csv'
p1
(dp2
S'machine'
p3
(dp4
S'count'
p5
I639
sS'truepos'
p6
I31
sS'falseneg'
p7
I11
sS'correction'
p8
I3
sS'unknownyes'
p9
I3
sS'falsepos'
p10
I5
sS'unique'
p11
I470
ssS'knee'
p12
(dp13
g5
I187
sg6
I17
sg7
I2
sg8
I7
sg9
I26
sg10
I3
sg11
I120
ssS'none'
p14
(dp15
g5
I510
sg6
I30
sg7
I10
sg8
I0
sg9
I5
sg10
I3
sg11
I510
ssS'three'
p16
(dp17
g5
I1105
sg6
I23
sg7
I13
sg8
I20
sg9
I9
sg10
I0
sg11
I540
sssS'Wahono.csv'
p18
(dp19
g3
(dp20
g5
I1768
sg6
I55
sg7
I4
sg8
I7
sg9
I3
sg10
I3
sg11
I1300
ssg12
(dp21
g5
I988
sg6
I43
sg7
I10
sg8
I12
sg9
I9
sg10
I0
sg11
I780
ssg14
(dp22
g5
I1480
sg6
I45
sg7
I14
sg8
I0
sg9
I3
sg10
I3
sg11
I1480
ssg16
(dp23
g5
I2533
sg6
I41
sg7
I18
sg8
I28
sg9
I3
sg10
I0
sg11
I1250
sssS'Hall.csv'
p24
(dp25
g3
(dp26
g5
I778
sg6
I95
sg7
I7
sg8
I27
sg9
I2
sg10
I6
sg11
I570
ssg12
(dp27
g5
I789
sg6
I89
sg7
I13
sg8
I28
sg9
I2
sg10
I1
sg11
I540
ssg14
(dp28
g5
I970
sg6
I73
sg7
I29
sg8
I0
sg9
I2
sg10
I7
sg11
I970
ssg16
(dp29
g5
I1448
sg6
I79
sg7
I23
sg8
I39
sg9
I2
sg10
I0
sg11
I700
sssS'Danijel.csv'
p30
(dp31
g3
(dp32
g5
I1149
sg6
I41
sg7
I4
sg8
I10
sg9
I3
sg10
I3
sg11
I860
ssg12
(dp33
g5
I1261
sg6
I38
sg7
I8
sg8
I12
sg9
I2
sg10
I0
sg11
I1010
ssg14
(dp34
g5
I1390
sg6
I29
sg7
I17
sg8
I0
sg9
I2
sg10
I4
sg11
I1390
ssg16
(dp35
g5
I1504
sg6
I41
sg7
I3
sg8
I23
sg9
I4
sg10
I0
sg11
I740
sss.(dp0
S'K_all3.csv'
p1
(dp2
S'machine'
p3
(dp4
S'count'
p5
I480
sS'truepos'
p6
I28
sS'falseneg'
p7
I6
sS'correction'
p8
I1
sS'unknownyes'
p9
I11
sS'falsepos'
p10
I1
sS'unique'
p11
I330
ssS'knee'
p12
(dp13
g5
I2250
sg6
I39
sg7
I5
sg8
I12
sg9
I1
sg10
I17
sg11
I1500
ssS'none'
p14
(dp15
g5
I460
sg6
I30
sg7
I10
sg8
I0
sg9
I5
sg10
I2
sg11
I460
ssS'three'
p16
(dp17
g5
I1000
sg6
I32
sg7
I9
sg8
I15
sg9
I4
sg10
I0
sg11
I490
sssS'Wahono.csv'
p18
(dp19
g3
(dp20
g5
I1608
sg6
I51
sg7
I9
sg8
I8
sg9
I2
sg10
I1
sg11
I1190
ssg12
(dp21
g5
I1142
sg6
I49
sg7
I4
sg8
I13
sg9
I9
sg10
I5
sg11
I670
ssg14
(dp22
g5
I1560
sg6
I45
sg7
I13
sg8
I0
sg9
I4
sg10
I8
sg11
I1560
ssg16
(dp23
g5
I2628
sg6
I48
sg7
I12
sg8
I24
sg9
I2
sg10
I0
sg11
I1300
sssS'Hall.csv'
p24
(dp25
g3
(dp26
g5
I773
sg6
I91
sg7
I11
sg8
I22
sg9
I2
sg10
I1
sg11
I580
ssg12
(dp27
g5
I709
sg6
I85
sg7
I17
sg8
I22
sg9
I2
sg10
I2
sg11
I490
ssg14
(dp28
g5
I1610
sg6
I61
sg7
I42
sg8
I0
sg9
I1
sg10
I8
sg11
I1610
ssg16
(dp29
g5
I1350
sg6
I81
sg7
I21
sg8
I44
sg9
I2
sg10
I0
sg11
I650
sssS'Danijel.csv'
p30
(dp31
g3
(dp32
g5
I1097
sg6
I40
sg7
I6
sg8
I8
sg9
I2
sg10
I2
sg11
I740
ssg12
(dp33
g5
I1080
sg6
I41
sg7
I4
sg8
I9
sg9
I3
sg10
I1
sg11
I790
ssg14
(dp34
g5
I1150
sg6
I33
sg7
I13
sg8
I0
sg9
I2
sg10
I3
sg11
I1150
ssg16
(dp35
g5
I2359
sg6
I33
sg7
I13
sg8
I18
sg9
I2
sg10
I0
sg11
I1170
sss.(dp0
S'K_all3.csv'
p1
(dp2
S'machine'
p3
(dp4
S'count'
p5
I424
sS'truepos'
p6
I32
sS'falseneg'
p7
I4
sS'correction'
p8
I5
sS'unknownyes'
p9
I9
sS'falsepos'
p10
I4
sS'unique'
p11
I320
ssS'knee'
p12
(dp13
g5
I1277
sg6
I38
sg7
I5
sg8
I8
sg9
I2
sg10
I10
sg11
I920
ssS'none'
p14
(dp15
g5
I430
sg6
I28
sg7
I10
sg8
I0
sg9
I7
sg10
I3
sg11
I430
ssS'three'
p16
(dp17
g5
I1001
sg6
I30
sg7
I8
sg8
I19
sg9
I7
sg10
I0
sg11
I490
sssS'Wahono.csv'
p18
(dp19
g3
(dp20
g5
I2093
sg6
I46
sg7
I13
sg8
I15
sg9
I3
sg10
I2
sg11
I1550
ssg12
(dp21
g5
I910
sg6
I43
sg7
I7
sg8
I14
sg9
I12
sg10
I3
sg11
I600
ssg14
(dp22
g5
I1650
sg6
I43
sg7
I19
sg8
I0
sg9
I0
sg10
I1
sg11
I1650
ssg16
(dp23
g5
I3455
sg6
I46
sg7
I14
sg8
I32
sg9
I2
sg10
I0
sg11
I1710
sssS'Hall.csv'
p24
(dp25
g3
(dp26
g5
I796
sg6
I92
sg7
I10
sg8
I22
sg9
I2
sg10
I1
sg11
I610
ssg12
(dp27
g5
I766
sg6
I88
sg7
I13
sg8
I23
sg9
I3
sg10
I2
sg11
I480
ssg14
(dp28
g5
I1020
sg6
I71
sg7
I32
sg8
I0
sg9
I1
sg10
I1
sg11
I1020
ssg16
(dp29
g5
I1390
sg6
I79
sg7
I23
sg8
I46
sg9
I2
sg10
I0
sg11
I670
sssS'Danijel.csv'
p30
(dp31
g3
(dp32
g5
I1215
sg6
I37
sg7
I8
sg8
I6
sg9
I3
sg10
I3
sg11
I900
ssg12
(dp33
g5
I1254
sg6
I41
sg7
I4
sg8
I17
sg9
I3
sg10
I1
sg11
I920
ssg14
(dp34
g5
I1320
sg6
I33
sg7
I14
sg8
I0
sg9
I1
sg10
I2
sg11
I1320
ssg16
(dp35
g5
I2793
sg6
I31
sg7
I15
sg8
I11
sg9
I2
sg10
I0
sg11
I1390
sss.(dp0
S'K_all3.csv'
p1
(dp2
S'machine'
p3
(dp4
S'count'
p5
I560
sS'truepos'
p6
I28
sS'falseneg'
p7
I9
sS'correction'
p8
I4
sS'unknownyes'
p9
I8
sS'falsepos'
p10
I5
sS'unique'
p11
I460
ssS'knee'
p12
(dp13
g5
I1448
sg6
I40
sg7
I4
sg8
I13
sg9
I1
sg10
I0
sg11
I1120
ssS'none'
p14
(dp15
g5
I620
sg6
I27
sg7
I11
sg8
I0
sg9
I7
sg10
I5
sg11
I620
ssS'three'
p16
(dp17
g5
I1167
sg6
I33
sg7
I9
sg8
I27
sg9
I3
sg10
I0
sg11
I570
sssS'Wahono.csv'
p18
(dp19
g3
(dp20
g5
I1646
sg6
I52
sg7
I8
sg8
I7
sg9
I2
sg10
I6
sg11
I1230
ssg12
(dp21
g5
I114
sg6
I10
sg7
I6
sg8
I5
sg9
I46
sg10
I1
sg11
I80
ssg14
(dp22
g5
I2190
sg6
I41
sg7
I19
sg8
I0
sg9
I2
sg10
I13
sg11
I2190
ssg16
(dp23
g5
I2730
sg6
I54
sg7
I6
sg8
I28
sg9
I2
sg10
I0
sg11
I1350
sssS'Hall.csv'
p24
(dp25
g3
(dp26
g5
I1022
sg6
I81
sg7
I21
sg8
I18
sg9
I2
sg10
I1
sg11
I840
ssg12
(dp27
g5
I801
sg6
I91
sg7
I11
sg8
I28
sg9
I2
sg10
I2
sg11
I630
ssg14
(dp28
g5
I860
sg6
I74
sg7
I29
sg8
I0
sg9
I1
sg10
I2
sg11
I860
ssg16
(dp29
g5
I1367
sg6
I83
sg7
I19
sg8
I41
sg9
I2
sg10
I0
sg11
I660
sssS'Danijel.csv'
p30
(dp31
g3
(dp32
g5
I1455
sg6
I42
sg7
I3
sg8
I8
sg9
I3
sg10
I3
sg11
I1080
ssg12
(dp33
g5
I1043
sg6
I37
sg7
I7
sg8
I8
sg9
I4
sg10
I2
sg11
I700
ssg14
(dp34
g5
I1140
sg6
I35
sg7
I11
sg8
I0
sg9
I2
sg10
I1
sg11
I1140
ssg16
(dp35
g5
I2605
sg6
I34
sg7
I13
sg8
I22
sg9
I1
sg10
I0
sg11
I1290
sss.