(dp0
S'K_all3.csv'
p1
(dp2
S'machine'
p3
(dp4
S'count'
p5
I1050
sS'truepos'
p6
I34
sS'falseneg'
p7
I6
sS'correction'
p8
I28
sS'unknownyes'
p9
I5
sS'falsepos'
p10
I0
sS'unique'
p11
I510
ssS'knee'
p12
(dp13
g5
I545
sg6
I20
sg7
I6
sg8
I16
sg9
I19
sg10
I3
sg11
I230
ssS'none'
p14
(dp15
g5
I1184
sg6
I33
sg7
I9
sg8
I22
sg9
I3
sg10
I1
sg11
I580
ssS'three'
p16
(dp17
g5
I1858
sg6
I31
sg7
I10
sg8
I33
sg9
I4
sg10
I6
sg11
I610
sssS'Wahono.csv'
p18
(dp19
g3
(dp20
g5
I2931
sg6
I51
sg7
I10
sg8
I28
sg9
I1
sg10
I1
sg11
I1450
ssg12
(dp21
g5
I1262
sg6
I47
sg7
I4
sg8
I31
sg9
I11
sg10
I0
sg11
I470
ssg14
(dp22
g5
I2907
sg6
I44
sg7
I17
sg8
I22
sg9
I1
sg10
I0
sg11
I1440
ssg16
(dp23
g5
I4982
sg6
I45
sg7
I15
sg8
I40
sg9
I2
sg10
I4
sg11
I1650
sssS'Hall.csv'
p24
(dp25
g3
(dp26
g5
I1050
sg6
I78
sg7
I24
sg8
I43
sg9
I2
sg10
I0
sg11
I500
ssg12
(dp27
g5
I45
sg6
I8
sg7
I0
sg8
I3
sg9
I96
sg10
I0
sg11
I20
ssg14
(dp28
g5
I1323
sg6
I79
sg7
I23
sg8
I37
sg9
I2
sg10
I0
sg11
I640
ssg16
(dp29
g5
I2357
sg6
I83
sg7
I19
sg8
I64
sg9
I2
sg10
I1
sg11
I770
sssS'Danijel.csv'
p30
(dp31
g3
(dp32
g5
I2150
sg6
I37
sg7
I9
sg8
I26
sg9
I2
sg10
I0
sg11
I1060
ssg12
(dp33
g5
I718
sg6
I34
sg7
I5
sg8
I17
sg9
I9
sg10
I0
sg11
I270
ssg14
(dp34
g5
I2528
sg6
I35
sg7
I12
sg8
I26
sg9
I1
sg10
I0
sg11
I1250
ssg16
(dp35
g5
I3048
sg6
I34
sg7
I11
sg8
I21
sg9
I3
sg10
I0
sg11
I1010
sss.(dp0
S'K_all3.csv'
p1
(dp2
S'machine'
p3
(dp4
S'count'
p5
I1063
sS'truepos'
p6
I36
sS'falseneg'
p7
I5
sS'correction'
p8
I20
sS'unknownyes'
p9
I4
sS'falsepos'
p10
I0
sS'unique'
p11
I520
ssS'knee'
p12
(dp13
g5
I2026
sg6
I37
sg7
I7
sg8
I26
sg9
I1
sg10
I2
sg11
I860
ssS'none'
p14
(dp15
g5
I1081
sg6
I33
sg7
I6
sg8
I19
sg9
I6
sg10
I0
sg11
I530
ssS'three'
p16
(dp17
g5
I2038
sg6
I29
sg7
I11
sg8
I35
sg9
I5
sg10
I3
sg11
I670
sssS'Wahono.csv'
p18
(dp19
g3
(dp20
g5
I2689
sg6
I48
sg7
I11
sg8
I25
sg9
I3
sg10
I0
sg11
I1330
ssg12
(dp21
g5
I67
sg6
I6
sg7
I0
sg8
I3
sg9
I56
sg10
I0
sg11
I30
ssg14
(dp22
g5
I2750
sg6
I48
sg7
I12
sg8
I28
sg9
I2
sg10
I0
sg11
I1360
ssg16
(dp23
g5
I4235
sg6
I41
sg7
I18
sg8
I40
sg9
I3
sg10
I2
sg11
I1400
sssS'Hall.csv'
p24
(dp25
g3
(dp26
g5
I1223
sg6
I82
sg7
I20
sg8
I40
sg9
I2
sg10
I0
sg11
I590
ssg12
(dp27
g5
I1269
sg6
I84
sg7
I18
sg8
I44
sg9
I2
sg10
I1
sg11
I540
ssg14
(dp28
g5
I1411
sg6
I80
sg7
I22
sg8
I42
sg9
I2
sg10
I0
sg11
I680
ssg16
(dp29
g5
I3449
sg6
I71
sg7
I31
sg8
I61
sg9
I2
sg10
I3
sg11
I1130
sssS'Danijel.csv'
p30
(dp31
g3
(dp32
g5
I1858
sg6
I37
sg7
I9
sg8
I15
sg9
I2
sg10
I0
sg11
I920
ssg12
(dp33
g5
I2495
sg6
I40
sg7
I8
sg8
I31
sg9
I0
sg10
I0
sg11
I990
ssg14
(dp34
g5
I2041
sg6
I37
sg7
I9
sg8
I19
sg9
I2
sg10
I0
sg11
I1010
ssg16
(dp35
g5
I3604
sg6
I33
sg7
I13
sg8
I39
sg9
I2
sg10
I5
sg11
I1190
sss.(dp0
S'K_all3.csv'
p1
(dp2
S'machine'
p3
(dp4
S'count'
p5
I1492
sS'truepos'
p6
I29
sS'falseneg'
p7
I13
sS'correction'
p8
I28
sS'unknownyes'
p9
I3
sS'falsepos'
p10
I1
sS'unique'
p11
I730
ssS'knee'
p12
(dp13
g5
I1366
sg6
I39
sg7
I2
sg8
I27
sg9
I4
sg10
I0
sg11
I540
ssS'none'
p14
(dp15
g5
I1059
sg6
I33
sg7
I9
sg8
I15
sg9
I3
sg10
I0
sg11
I520
ssS'three'
p16
(dp17
g5
I2395
sg6
I24
sg7
I17
sg8
I28
sg9
I4
sg10
I7
sg11
I790
sssS'Wahono.csv'
p18
(dp19
g3
(dp20
g5
I2864
sg6
I55
sg7
I4
sg8
I24
sg9
I3
sg10
I0
sg11
I1420
ssg12
(dp21
g5
I96
sg6
I9
sg7
I0
sg8
I4
sg9
I53
sg10
I0
sg11
I40
ssg14
(dp22
g5
I3512
sg6
I51
sg7
I10
sg8
I30
sg9
I1
sg10
I1
sg11
I1740
ssg16
(dp23
g5
I4143
sg6
I41
sg7
I20
sg8
I37
sg9
I1
sg10
I2
sg11
I1370
sssS'Hall.csv'
p24
(dp25
g3
(dp26
g5
I1048
sg6
I86
sg7
I16
sg8
I45
sg9
I2
sg10
I0
sg11
I500
ssg12
(dp27
g5
I991
sg6
I92
sg7
I9
sg8
I55
sg9
I3
sg10
I1
sg11
I390
ssg14
(dp28
g5
I1414
sg6
I69
sg7
I33
sg8
I44
sg9
I2
sg10
I0
sg11
I680
ssg16
(dp29
g5
I2523
sg6
I73
sg7
I29
sg8
I67
sg9
I2
sg10
I4
sg11
I820
sssS'Danijel.csv'
p30
(dp31
g3
(dp32
g5
I2604
sg6
I37
sg7
I9
sg8
I21
sg9
I2
sg10
I0
sg11
I1290
ssg12
(dp33
g5
I798
sg6
I30
sg7
I7
sg8
I22
sg9
I11
sg10
I0
sg11
I310
ssg14
(dp34
g5
I1599
sg6
I40
sg7
I5
sg8
I16
sg9
I3
sg10
I0
sg11
I790
ssg16
(dp35
g5
I3415
sg6
I32
sg7
I14
sg8
I29
sg9
I2
sg10
I0
sg11
I1130
sss.(dp0
S'K_all3.csv'
p1
(dp2
S'machine'
p3
(dp4
S'count'
p5
I1588
sS'truepos'
p6
I30
sS'falseneg'
p7
I13
sS'correction'
p8
I23
sS'unknownyes'
p9
I2
sS'falsepos'
p10
I0
sS'unique'
p11
I780
ssS'knee'
p12
(dp13
g5
I1066
sg6
I35
sg7
I2
sg8
I27
sg9
I8
sg10
I0
sg11
I420
ssS'none'
p14
(dp15
g5
I1122
sg6
I33
sg7
I9
sg8
I19
sg9
I3
sg10
I0
sg11
I550
ssS'three'
p16
(dp17
g5
I2831
sg6
I27
sg7
I14
sg8
I42
sg9
I4
sg10
I3
sg11
I930
sssS'Wahono.csv'
p18
(dp19
g3
(dp20
g5
I2774
sg6
I39
sg7
I19
sg8
I26
sg9
I4
sg10
I0
sg11
I1370
ssg12
(dp21
g5
I809
sg6
I39
sg7
I7
sg8
I25
sg9
I16
sg10
I1
sg11
I300
ssg14
(dp22
g5
I2933
sg6
I47
sg7
I12
sg8
I30
sg9
I3
sg10
I0
sg11
I1450
ssg16
(dp23
g5
I4149
sg6
I40
sg7
I21
sg8
I47
sg9
I1
sg10
I2
sg11
I1370
sssS'Hall.csv'
p24
(dp25
g3
(dp26
g5
I1152
sg6
I79
sg7
I23
sg8
I46
sg9
I2
sg10
I0
sg11
I550
ssg12
(dp27
g5
I1058
sg6
I89
sg7
I12
sg8
I52
sg9
I3
sg10
I1
sg11
I430
ssg14
(dp28
g5
I1555
sg6
I77
sg7
I25
sg8
I48
sg9
I2
sg10
I0
sg11
I750
ssg16
(dp29
g5
I2300
sg6
I69
sg7
I33
sg8
I55
sg9
I2
sg10
I1
sg11
I750
sssS'Danijel.csv'
p30
(dp31
g3
(dp32
g5
I2006
sg6
I36
sg7
I9
sg8
I24
sg9
I3
sg10
I0
sg11
I990
ssg12
(dp33
g5
I68
sg6
I4
sg7
I0
sg8
I2
sg9
I44
sg10
I0
sg11
I30
ssg14
(dp34
g5
I1777
sg6
I39
sg7
I6
sg8
I15
sg9
I3
sg10
I0
sg11
I880
ssg16
(dp35
g5
I3776
sg6
I29
sg7
I17
sg8
I27
sg9
I2
sg10
I4
sg11
I1250
sss.(dp0
S'K_all3.csv'
p1
(dp2
S'machine'
p3
(dp4
S'count'
p5
I1120
sS'truepos'
p6
I29
sS'falseneg'
p7
I8
sS'correction'
p8
I18
sS'unknownyes'
p9
I8
sS'falsepos'
p10
I1
sS'unique'
p11
I550
ssS'knee'
p12
(dp13
g5
I1569
sg6
I37
sg7
I5
sg8
I24
sg9
I3
sg10
I2
sg11
I650
ssS'none'
p14
(dp15
g5
I1106
sg6
I30
sg7
I10
sg8
I25
sg9
I5
sg10
I0
sg11
I540
ssS'three'
p16
(dp17
g5
I2062
sg6
I25
sg7
I15
sg8
I26
sg9
I5
sg10
I6
sg11
I680
sssS'Wahono.csv'
p18
(dp19
g3
(dp20
g5
I2854
sg6
I43
sg7
I17
sg8
I29
sg9
I2
sg10
I0
sg11
I1410
ssg12
(dp21
g5
I2050
sg6
I48
sg7
I11
sg8
I34
sg9
I3
sg10
I0
sg11
I890
ssg14
(dp22
g5
I2947
sg6
I44
sg7
I15
sg8
I26
sg9
I3
sg10
I0
sg11
I1460
ssg16
(dp23
g5
I4707
sg6
I40
sg7
I19
sg8
I34
sg9
I3
sg10
I2
sg11
I1560
sssS'Hall.csv'
p24
(dp25
g3
(dp26
g5
I1738
sg6
I81
sg7
I21
sg8
I54
sg9
I2
sg10
I0
sg11
I840
ssg12
(dp27
g5
I1021
sg6
I89
sg7
I12
sg8
I55
sg9
I3
sg10
I0
sg11
I380
ssg14
(dp28
g5
I1382
sg6
I77
sg7
I25
sg8
I34
sg9
I2
sg10
I0
sg11
I670
ssg16
(dp29
g5
I2362
sg6
I66
sg7
I36
sg8
I59
sg9
I2
sg10
I2
sg11
I770
sssS'Danijel.csv'
p30
(dp31
g3
(dp32
g5
I2466
sg6
I37
sg7
I10
sg8
I23
sg9
I1
sg10
I0
sg11
I1220
ssg12
(dp33
g5
I1134
sg6
I38
sg7
I4
sg8
I22
sg9
I6
sg10
I0
sg11
I470
ssg14
(dp34
g5
I2541
sg6
I36
sg7
I10
sg8
I19
sg9
I2
sg10
I0
sg11
I1260
ssg16
(dp35
g5
I3418
sg6
I33
sg7
I13
sg8
I33
sg9
I2
sg10
I1
sg11
I1130
sss.(dp0
S'K_all3.csv'
p1
(dp2
S'machine'
p3
(dp4
S'count'
p5
I1186
sS'truepos'
p6
I34
sS'falseneg'
p7
I7
sS'correction'
p8
I23
sS'unknownyes'
p9
I4
sS'falsepos'
p10
I0
sS'unique'
p11
I580
ssS'knee'
p12
(dp13
g5
I1412
sg6
I37
sg7
I4
sg8
I27
sg9
I4
sg10
I1
sg11
I580
ssS'none'
p14
(dp15
g5
I1060
sg6
I33
sg7
I7
sg8
I20
sg9
I5
sg10
I0
sg11
I520
ssS'three'
p16
(dp17
g5
I1982
sg6
I26
sg7
I12
sg8
I37
sg9
I7
sg10
I7
sg11
I650
sssS'Wahono.csv'
p18
(dp19
g3
(dp20
g5
I2935
sg6
I47
sg7
I12
sg8
I33
sg9
I3
sg10
I0
sg11
I1450
ssg12
(dp21
g5
I1749
sg6
I51
sg7
I7
sg8
I34
sg9
I4
sg10
I0
sg11
I760
ssg14
(dp22
g5
I2690
sg6
I47
sg7
I12
sg8
I26
sg9
I3
sg10
I0
sg11
I1330
ssg16
(dp23
g5
I4177
sg6
I49
sg7
I11
sg8
I46
sg9
I2
sg10
I2
sg11
I1380
sssS'Hall.csv'
p24
(dp25
g3
(dp26
g5
I1493
sg6
I83
sg7
I19
sg8
I47
sg9
I2
sg10
I0
sg11
I720
ssg12
(dp27
g5
I1177
sg6
I87
sg7
I15
sg8
I45
sg9
I2
sg10
I0
sg11
I490
ssg14
(dp28
g5
I1174
sg6
I78
sg7
I24
sg8
I49
sg9
I2
sg10
I0
sg11
I560
ssg16
(dp29
g5
I2056
sg6
I72
sg7
I30
sg8
I62
sg9
I2
sg10
I5
sg11
I670
sssS'Danijel.csv'
p30
(dp31
g3
(dp32
g5
I2121
sg6
I38
sg7
I8
sg8
I21
sg9
I2
sg10
I0
sg11
I1050
ssg12
(dp33
g5
I1311
sg6
I37
sg7
I7
sg8
I31
sg9
I4
sg10
I1
sg11
I530
ssg14
(dp34
g5
I2563
sg6
I33
sg7
I11
sg8
I19
sg9
I4
sg10
I0
sg11
I1270
ssg16
(dp35
g5
I2967
sg6
I34
sg7
I12
sg8
I32
sg9
I2
sg10
I4
sg11
I980
sss.(dp0
S'K_all3.csv'
p1
(dp2
S'machine'
p3
(dp4
S'count'
p5
I1143
sS'truepos'
p6
I33
sS'falseneg'
p7
I8
sS'correction'
p8
I21
sS'unknownyes'
p9
I4
sS'falsepos'
p10
I1
sS'unique'
p11
I560
ssS'knee'
p12
(dp13
g5
I2155
sg6
I33
sg7
I11
sg8
I29
sg9
I1
sg10
I1
sg11
I940
ssS'none'
p14
(dp15
g5
I1144
sg6
I35
sg7
I7
sg8
I21
sg9
I3
sg10
I0
sg11
I560
ssS'three'
p16
(dp17
g5
I2341
sg6
I26
sg7
I15
sg8
I34
sg9
I4
sg10
I4
sg11
I770
sssS'Wahono.csv'
p18
(dp19
g3
(dp20
g5
I2857
sg6
I55
sg7
I4
sg8
I36
sg9
I3
sg10
I0
sg11
I1410
ssg12
(dp21
g5
I318
sg6
I19
sg7
I7
sg8
I13
sg9
I36
sg10
I0
sg11
I120
ssg14
(dp22
g5
I3146
sg6
I41
sg7
I20
sg8
I20
sg9
I1
sg10
I0
sg11
I1560
ssg16
(dp23
g5
I5219
sg6
I46
sg7
I13
sg8
I37
sg9
I3
sg10
I2
sg11
I1730
sssS'Hall.csv'
p24
(dp25
g3
(dp26
g5
I1341
sg6
I81
sg7
I20
sg8
I34
sg9
I3
sg10
I0
sg11
I650
ssg12
(dp27
g5
I989
sg6
I89
sg7
I11
sg8
I51
sg9
I4
sg10
I1
sg11
I380
ssg14
(dp28
g5
I1809
sg6
I76
sg7
I26
sg8
I43
sg9
I2
sg10
I0
sg11
I880
ssg16
(dp29
g5
I3175
sg6
I67
sg7
I35
sg8
I62
sg9
I2
sg10
I6
sg11
I1040
sssS'Danijel.csv'
p30
(dp31
g3
(dp32
g5
I1456
sg6
I38
sg7
I7
sg8
I15
sg9
I3
sg10
I0
sg11
I720
ssg12
(dp33
g5
I88
sg6
I4
sg7
I0
sg8
I2
sg9
I44
sg10
I0
sg11
I40
ssg14
(dp34
g5
I2409
sg6
I33
sg7
I13
sg8
I25
sg9
I2
sg10
I0
sg11
I1190
ssg16
(dp35
g5
I3471
sg6
I33
sg7
I13
sg8
I25
sg9
I2
sg10
I5
sg11
I1150
sss.(dp0
S'K_all3.csv'
p1
(dp2
S'machine'
p3
(dp4
S'count'
p5
I1271
sS'truepos'
p6
I33
sS'falseneg'
p7
I9
sS'correction'
p8
I30
sS'unknownyes'
p9
I3
sS'falsepos'
p10
I0
sS'unique'
p11
I620
ssS'knee'
p12
(dp13
g5
I1173
sg6
I32
sg7
I9
sg8
I30
sg9
I4
sg10
I2
sg11
I510
ssS'none'
p14
(dp15
g5
I1310
sg6
I30
sg7
I10
sg8
I26
sg9
I5
sg10
I0
sg11
I640
ssS'three'
p16
(dp17
g5
I1824
sg6
I28
sg7
I11
sg8
I26
sg9
I6
sg10
I3
sg11
I600
sssS'Wahono.csv'
p18
(dp19
g3
(dp20
g5
I2366
sg6
I47
sg7
I13
sg8
I22
sg9
I2
sg10
I0
sg11
I1170
ssg12
(dp21
g5
I1356
sg6
I49
sg7
I5
sg8
I32
sg9
I8
sg10
I1
sg11
I540
ssg14
(dp22
g5
I2990
sg6
I49
sg7
I12
sg8
I27
sg9
I1
sg10
I0
sg11
I1480
ssg16
(dp23
g5
I4563
sg6
I44
sg7
I16
sg8
I40
sg9
I2
sg10
I2
sg11
I1510
sssS'Hall.csv'
p24
(dp25
g3
(dp26
g5
I2167
sg6
I75
sg7
I28
sg8
I39
sg9
I1
sg10
I0
sg11
I1060
ssg12
(dp27
g5
I1049
sg6
I83
sg7
I17
sg8
I56
sg9
I4
sg10
I0
sg11
I430
ssg14
(dp28
g5
I1204
sg6
I82
sg7
I20
sg8
I37
sg9
I2
sg10
I0
sg11
I580
ssg16
(dp29
g5
I2864
sg6
I72
sg7
I31
sg8
I50
sg9
I1
sg10
I1
sg11
I940
sssS'Danijel.csv'
p30
(dp31
g3
(dp32
g5
I2454
sg6
I37
sg7
I9
sg8
I32
sg9
I2
sg10
I0
sg11
I1210
ssg12
(dp33
g5
I1346
sg6
I38
sg7
I5
sg8
I26
sg9
I5
sg10
I0
sg11
I520
ssg14
(dp34
g5
I2472
sg6
I32
sg7
I14
sg8
I26
sg9
I2
sg10
I0
sg11
I1220
ssg16
(dp35
g5
I2638
sg6
I36
sg7
I10
sg8
I31
sg9
I2
sg10
I5
sg11
I870
sss.(dp0
S'K_all3.csv'
p1
(dp2
S'machine'
p3
(dp4
S'count'
p5
I2289
sS'truepos'
p6
I30
sS'falseneg'
p7
I14
sS'correction'
p8
I42
sS'unknownyes'
p9
I1
sS'falsepos'
p10
I0
sS'unique'
p11
I1120
ssS'knee'
p12
(dp13
g5
I1168
sg6
I29
sg7
I10
sg8
I23
sg9
I6
sg10
I0
sg11
I520
ssS'none'
p14
(dp15
g5
I1044
sg6
I35
sg7
I5
sg8
I21
sg9
I5
sg10
I0
sg11
I510
ssS'three'
p16
(dp17
g5
I2496
sg6
I27
sg7
I15
sg8
I40
sg9
I3
sg10
I5
sg11
I820
sssS'Wahono.csv'
p18
(dp19
g3
(dp20
g5
I3192
sg6
I47
sg7
I12
sg8
I30
sg9
I3
sg10
I0
sg11
I1580
ssg12
(dp21
g5
I1639
sg6
I48
sg7
I7
sg8
I30
sg9
I7
sg10
I0
sg11
I680
ssg14
(dp22
g5
I3075
sg6
I49
sg7
I10
sg8
I30
sg9
I3
sg10
I0
sg11
I1520
ssg16
(dp23
g5
I4533
sg6
I42
sg7
I18
sg8
I43
sg9
I2
sg10
I2
sg11
I1500
sssS'Hall.csv'
p24
(dp25
g3
(dp26
g5
I1192
sg6
I81
sg7
I21
sg8
I46
sg9
I2
sg10
I0
sg11
I570
ssg12
(dp27
g5
I45
sg6
I7
sg7
I1
sg8
I2
sg9
I96
sg10
I0
sg11
I20
ssg14
(dp28
g5
I1372
sg6
I77
sg7
I25
sg8
I46
sg9
I2
sg10
I0
sg11
I660
ssg16
(dp29
g5
I2206
sg6
I76
sg7
I26
sg8
I57
sg9
I2
sg10
I3
sg11
I720
sssS'Danijel.csv'
p30
(dp31
g3
(dp32
g5
I2225
sg6
I37
sg7
I9
sg8
I23
sg9
I2
sg10
I0
sg11
I1100
ssg12
(dp33
g5
I1206
sg6
I36
sg7
I7
sg8
I13
sg9
I5
sg10
I0
sg11
I490
ssg14
(dp34
g5
I2516
sg6
I32
sg7
I14
sg8
I29
sg9
I2
sg10
I0
sg11
I1240
ssg16
(dp35
g5
I2697
sg6
I36
sg7
I10
sg8
I30
sg9
I2
sg10
I2
sg11
I890
sss.(dp0
S'K_all3.csv'
p1
(dp2
S'machine'
p3
(dp4
S'count'
p5
I1199
sS'truepos'
p6
I30
sS'falseneg'
p7
I10
sS'correction'
p8
I17
sS'unknownyes'
p9
I5
sS'falsepos'
p10
I1
sS'unique'
p11
I590
ssS'knee'
p12
(dp13
g5
I1698
sg6
I35
sg7
I8
sg8
I30
sg9
I2
sg10
I1
sg11
I750
ssS'none'
p14
(dp15
g5
I945
sg6
I35
sg7
I5
sg8
I24
sg9
I5
sg10
I0
sg11
I460
ssS'three'
p16
(dp17
g5
I1736
sg6
I29
sg7
I11
sg8
I26
sg9
I5
sg10
I4
sg11
I570
sssS'Wahono.csv'
p18
(dp19
g3
(dp20
g5
I2372
sg6
I41
sg7
I18
sg8
I27
sg9
I3
sg10
I0
sg11
I1170
ssg12
(dp21
g5
I2053
sg6
I52
sg7
I6
sg8
I30
sg9
I4
sg10
I2
sg11
I890
ssg14
(dp22
g5
I2571
sg6
I50
sg7
I10
sg8
I28
sg9
I2
sg10
I0
sg11
I1270
ssg16
(dp23
g5
I6940
sg6
I47
sg7
I14
sg8
I45
sg9
I1
sg10
I9
sg11
I2300
sssS'Hall.csv'
p24
(dp25
g3
(dp26
g5
I1381
sg6
I84
sg7
I18
sg8
I34
sg9
I2
sg10
I0
sg11
I670
ssg12
(dp27
g5
I1157
sg6
I88
sg7
I14
sg8
I54
sg9
I2
sg10
I0
sg11
I460
ssg14
(dp28
g5
I1345
sg6
I84
sg7
I18
sg8
I41
sg9
I2
sg10
I0
sg11
I650
ssg16
(dp29
g5
I3858
sg6
I70
sg7
I33
sg8
I54
sg9
I1
sg10
I6
sg11
I1270
sssS'Danijel.csv'
p30
(dp31
g3
(dp32
g5
I1906
sg6
I36
sg7
I10
sg8
I22
sg9
I2
sg10
I0
sg11
I940
ssg12
(dp33
g5
I69
sg6
I4
sg7
I0
sg8
I3
sg9
I44
sg10
I0
sg11
I30
ssg14
(dp34
g5
I2111
sg6
I35
sg7
I11
sg8
I26
sg9
I2
sg10
I0
sg11
I1040
ssg16
(dp35
g5
I4284
sg6
I30
sg7
I15
sg8
I28
sg9
I3
sg10
I5
sg11
I1420
sss.(dp0
S'K_all3.csv'
p1
(dp2
S'machine'
p3
(dp4
S'count'
p5
I1249
sS'truepos'
p6
I35
sS'falseneg'
p7
I8
sS'correction'
p8
I26
sS'unknownyes'
p9
I2
sS'falsepos'
p10
I0
sS'unique'
p11
I610
ssS'knee'
p12
(dp13
g5
I2252
sg6
I36
sg7
I9
sg8
I46
sg9
I0
sg10
I2
sg11
I980
ssS'none'
p14
(dp15
g5
I1484
sg6
I30
sg7
I13
sg8
I20
sg9
I2
sg10
I0
sg11
I730
ssS'three'
p16
(dp17
g5
I1711
sg6
I30
sg7
I9
sg8
I37
sg9
I6
sg10
I6
sg11
I560
sssS'Wahono.csv'
p18
(dp19
g3
(dp20
g5
I2695
sg6
I46
sg7
I13
sg8
I30
sg9
I3
sg10
I0
sg11
I1330
ssg12
(dp21
g5
I46
sg6
I6
sg7
I0
sg8
I2
sg9
I56
sg10
I0
sg11
I20
ssg14
(dp22
g5
I3253
sg6
I46
sg7
I15
sg8
I28
sg9
I1
sg10
I0
sg11
I1610
ssg16
(dp23
g5
I5069
sg6
I33
sg7
I24
sg8
I32
sg9
I5
sg10
I8
sg11
I1680
sssS'Hall.csv'
p24
(dp25
g3
(dp26
g5
I1488
sg6
I78
sg7
I24
sg8
I40
sg9
I2
sg10
I0
sg11
I720
ssg12
(dp27
g5
I1438
sg6
I85
sg7
I17
sg8
I48
sg9
I2
sg10
I1
sg11
I610
ssg14
(dp28
g5
I1246
sg6
I76
sg7
I26
sg8
I40
sg9
I2
sg10
I0
sg11
I600
ssg16
(dp29
g5
I4281
sg6
I74
sg7
I29
sg8
I60
sg9
I1
sg10
I8
sg11
I1410
sssS'Danijel.csv'
p30
(dp31
g3
(dp32
g5
I2305
sg6
I35
sg7
I11
sg8
I22
sg9
I2
sg10
I0
sg11
I1140
ssg12
(dp33
g5
I1669
sg6
I40
sg7
I5
sg8
I24
sg9
I3
sg10
I0
sg11
I750
ssg14
(dp34
g5
I2146
sg6
I38
sg7
I8
sg8
I22
sg9
I2
sg10
I0
sg11
I1060
ssg16
(dp35
g5
I3195
sg6
I35
sg7
I11
sg8
I20
sg9
I2
sg10
I0
sg11
I1060
sss.(dp0
S'K_all3.csv'
p1
(dp2
S'machine'
p3
(dp4
S'count'
p5
I1448
sS'truepos'
p6
I29
sS'falseneg'
p7
I12
sS'correction'
p8
I24
sS'unknownyes'
p9
I4
sS'falsepos'
p10
I1
sS'unique'
p11
I710
ssS'knee'
p12
(dp13
g5
I1026
sg6
I27
sg7
I5
sg8
I27
sg9
I13
sg10
I1
sg11
I400
ssS'none'
p14
(dp15
g5
I1116
sg6
I32
sg7
I7
sg8
I15
sg9
I6
sg10
I0
sg11
I550
ssS'three'
p16
(dp17
g5
I1955
sg6
I28
sg7
I11
sg8
I37
sg9
I6
sg10
I3
sg11
I640
sssS'Wahono.csv'
p18
(dp19
g3
(dp20
g5
I3317
sg6
I52
sg7
I9
sg8
I35
sg9
I1
sg10
I0
sg11
I1640
ssg12
(dp21
g5
I456
sg6
I25
sg7
I3
sg8
I18
sg9
I34
sg10
I0
sg11
I170
ssg14
(dp22
g5
I2932
sg6
I47
sg7
I12
sg8
I29
sg9
I3
sg10
I0
sg11
I1450
ssg16
(dp23
g5
I5487
sg6
I41
sg7
I20
sg8
I37
sg9
I1
sg10
I4
sg11
I1820
sssS'Hall.csv'
p24
(dp25
g3
(dp26
g5
I1457
sg6
I85
sg7
I17
sg8
I35
sg9
I2
sg10
I0
sg11
I710
ssg12
(dp27
g5
I1268
sg6
I91
sg7
I11
sg8
I57
sg9
I2
sg10
I0
sg11
I510
ssg14
(dp28
g5
I1047
sg6
I76
sg7
I25
sg8
I41
sg9
I3
sg10
I0
sg11
I500
ssg16
(dp29
g5
I3304
sg6
I71
sg7
I32
sg8
I74
sg9
I1
sg10
I5
sg11
I1080
sssS'Danijel.csv'
p30
(dp31
g3
(dp32
g5
I1482
sg6
I40
sg7
I6
sg8
I20
sg9
I2
sg10
I0
sg11
I730
ssg12
(dp33
g5
I857
sg6
I31
sg7
I4
sg8
I15
sg9
I13
sg10
I0
sg11
I320
ssg14
(dp34
g5
I2105
sg6
I36
sg7
I11
sg8
I23
sg9
I1
sg10
I0
sg11
I1040
ssg16
(dp35
g5
I4130
sg6
I31
sg7
I15
sg8
I20
sg9
I2
sg10
I3
sg11
I1370
sss.(dp0
S'K_all3.csv'
p1
(dp2
S'machine'
p3
(dp4
S'count'
p5
I1265
sS'truepos'
p6
I34
sS'falseneg'
p7
I8
sS'correction'
p8
I21
sS'unknownyes'
p9
I3
sS'falsepos'
p10
I0
sS'unique'
p11
I620
ssS'knee'
p12
(dp13
g5
I601
sg6
I25
sg7
I3
sg8
I13
sg9
I17
sg10
I2
sg11
I230
ssS'none'
p14
(dp15
g5
I1402
sg6
I30
sg7
I10
sg8
I19
sg9
I5
sg10
I0
sg11
I690
ssS'three'
p16
(dp17
g5
I3094
sg6
I27
sg7
I14
sg8
I39
sg9
I4
sg10
I3
sg11
I1020
sssS'Wahono.csv'
p18
(dp19
g3
(dp20
g5
I3050
sg6
I45
sg7
I15
sg8
I24
sg9
I2
sg10
I0
sg11
I1510
ssg12
(dp21
g5
I1844
sg6
I51
sg7
I7
sg8
I24
sg9
I4
sg10
I1
sg11
I790
ssg14
(dp22
g5
I2971
sg6
I46
sg7
I12
sg8
I27
sg9
I4
sg10
I0
sg11
I1470
ssg16
(dp23
g5
I4497
sg6
I39
sg7
I19
sg8
I33
sg9
I4
sg10
I4
sg11
I1490
sssS'Hall.csv'
p24
(dp25
g3
(dp26
g5
I1415
sg6
I76
sg7
I26
sg8
I46
sg9
I2
sg10
I0
sg11
I680
ssg12
(dp27
g5
I880
sg6
I88
sg7
I11
sg8
I47
sg9
I5
sg10
I0
sg11
I350
ssg14
(dp28
g5
I1401
sg6
I85
sg7
I17
sg8
I38
sg9
I2
sg10
I0
sg11
I680
ssg16
(dp29
g5
I2925
sg6
I71
sg7
I31
sg8
I59
sg9
I2
sg10
I4
sg11
I960
sssS'Danijel.csv'
p30
(dp31
g3
(dp32
g5
I2127
sg6
I33
sg7
I13
sg8
I24
sg9
I2
sg10
I0
sg11
I1050
ssg12
(dp33
g5
I1162
sg6
I38
sg7
I6
sg8
I20
sg9
I4
sg10
I1
sg11
I480
ssg14
(dp34
g5
I2528
sg6
I36
sg7
I10
sg8
I25
sg9
I2
sg10
I0
sg11
I1250
ssg16
(dp35
g5
I2722
sg6
I39
sg7
I7
sg8
I27
sg9
I2
sg10
I2
sg11
I900
sss.(dp0
S'K_all3.csv'
p1
(dp2
S'machine'
p3
(dp4
S'count'
p5
I1082
sS'truepos'
p6
I32
sS'falseneg'
p7
I10
sS'correction'
p8
I19
sS'unknownyes'
p9
I3
sS'falsepos'
p10
I0
sS'unique'
p11
I530
ssS'knee'
p12
(dp13
g5
I1348
sg6
I38
sg7
I4
sg8
I27
sg9
I3
sg10
I1
sg11
I550
ssS'none'
p14
(dp15
g5
I2361
sg6
I30
sg7
I13
sg8
I39
sg9
I2
sg10
I0
sg11
I1160
ssS'three'
p16
(dp17
g5
I1683
sg6
I28
sg7
I10
sg8
I41
sg9
I7
sg10
I2
sg11
I550
sssS'Wahono.csv'
p18
(dp19
g3
(dp20
g5
I2952
sg6
I46
sg7
I13
sg8
I30
sg9
I3
sg10
I0
sg11
I1460
ssg12
(dp21
g5
I1295
sg6
I41
sg7
I7
sg8
I25
sg9
I14
sg10
I0
sg11
I540
ssg14
(dp22
g5
I3228
sg6
I49
sg7
I12
sg8
I28
sg9
I1
sg10
I0
sg11
I1600
ssg16
(dp23
g5
I4958
sg6
I42
sg7
I19
sg8
I37
sg9
I1
sg10
I5
sg11
I1640
sssS'Hall.csv'
p24
(dp25
g3
(dp26
g5
I1894
sg6
I71
sg7
I31
sg8
I48
sg9
I2
sg10
I0
sg11
I920
ssg12
(dp27
g5
I1055
sg6
I85
sg7
I16
sg8
I53
sg9
I3
sg10
I1
sg11
I430
ssg14
(dp28
g5
I993
sg6
I83
sg7
I19
sg8
I46
sg9
I2
sg10
I0
sg11
I470
ssg16
(dp29
g5
I2716
sg6
I76
sg7
I26
sg8
I56
sg9
I2
sg10
I2
sg11
I890
sssS'Danijel.csv'
p30
(dp31
g3
(dp32
g5
I1962
sg6
I38
sg7
I8
sg8
I18
sg9
I2
sg10
I0
sg11
I970
ssg12
(dp33
g5
I461
sg6
I31
sg7
I1
sg8
I12
sg9
I16
sg10
I0
sg11
I170
ssg14
(dp34
g5
I2646
sg6
I33
sg7
I13
sg8
I20
sg9
I2
sg10
I0
sg11
I1310
ssg16
(dp35
g5
I3297
sg6
I32
sg7
I13
sg8
I29
sg9
I3
sg10
I3
sg11
I1090
sss.(dp0
S'K_all3.csv'
p1
(dp2
S'machine'
p3
(dp4
S'count'
p5
I1222
sS'truepos'
p6
I31
sS'falseneg'
p7
I10
sS'correction'
p8
I18
sS'unknownyes'
p9
I4
sS'falsepos'
p10
I0
sS'unique'
p11
I600
ssS'knee'
p12
(dp13
g5
I1637
sg6
I36
sg7
I3
sg8
I24
sg9
I6
sg10
I4
sg11
I620
ssS'none'
p14
(dp15
g5
I1716
sg6
I30
sg7
I14
sg8
I36
sg9
I1
sg10
I0
sg11
I840
ssS'three'
p16
(dp17
g5
I1917
sg6
I32
sg7
I11
sg8
I35
sg9
I2
sg10
I3
sg11
I630
sssS'Wahono.csv'
p18
(dp19
g3
(dp20
g5
I3457
sg6
I43
sg7
I17
sg8
I30
sg9
I2
sg10
I0
sg11
I1710
ssg12
(dp21
g5
I1779
sg6
I47
sg7
I12
sg8
I34
sg9
I3
sg10
I0
sg11
I800
ssg14
(dp22
g5
I2632
sg6
I39
sg7
I20
sg8
I28
sg9
I3
sg10
I0
sg11
I1300
ssg16
(dp23
g5
I4591
sg6
I43
sg7
I16
sg8
I39
sg9
I3
sg10
I5
sg11
I1520
sssS'Hall.csv'
p24
(dp25
g3
(dp26
g5
I1344
sg6
I80
sg7
I22
sg8
I38
sg9
I2
sg10
I0
sg11
I650
ssg12
(dp27
g5
I1174
sg6
I88
sg7
I13
sg8
I48
sg9
I3
sg10
I1
sg11
I480
ssg14
(dp28
g5
I1446
sg6
I88
sg7
I14
sg8
I42
sg9
I2
sg10
I0
sg11
I700
ssg16
(dp29
g5
I3532
sg6
I70
sg7
I33
sg8
I61
sg9
I1
sg10
I3
sg11
I1160
sssS'Danijel.csv'
p30
(dp31
g3
(dp32
g5
I2290
sg6
I34
sg7
I12
sg8
I27
sg9
I2
sg10
I0
sg11
I1130
ssg12
(dp33
g5
I480
sg6
I26
sg7
I4
sg8
I13
sg9
I18
sg10
I1
sg11
I180
ssg14
(dp34
g5
I1527
sg6
I39
sg7
I6
sg8
I25
sg9
I3
sg10
I0
sg11
I750
ssg16
(dp35
g5
I3347
sg6
I30
sg7
I16
sg8
I22
sg9
I2
sg10
I4
sg11
I1110
sss.(dp0
S'K_all3.csv'
p1
(dp2
S'machine'
p3
(dp4
S'count'
p5
I2175
sS'truepos'
p6
I30
sS'falseneg'
p7
I14
sS'correction'
p8
I32
sS'unknownyes'
p9
I1
sS'falsepos'
p10
I0
sS'unique'
p11
I1070
ssS'knee'
p12
(dp13
g5
I994
sg6
I32
sg7
I3
sg8
I25
sg9
I10
sg10
I1
sg11
I380
ssS'none'
p14
(dp15
g5
I1203
sg6
I31
sg7
I10
sg8
I20
sg9
I4
sg10
I0
sg11
I590
ssS'three'
p16
(dp17
g5
I1767
sg6
I29
sg7
I10
sg8
I31
sg9
I6
sg10
I2
sg11
I580
sssS'Wahono.csv'
p18
(dp19
g3
(dp20
g5
I3049
sg6
I51
sg7
I10
sg8
I26
sg9
I1
sg10
I0
sg11
I1510
ssg12
(dp21
g5
I46
sg6
I6
sg7
I0
sg8
I2
sg9
I56
sg10
I0
sg11
I20
ssg14
(dp22
g5
I3350
sg6
I47
sg7
I13
sg8
I27
sg9
I2
sg10
I0
sg11
I1660
ssg16
(dp23
g5
I5826
sg6
I35
sg7
I23
sg8
I40
sg9
I4
sg10
I12
sg11
I1930
sssS'Hall.csv'
p24
(dp25
g3
(dp26
g5
I1189
sg6
I77
sg7
I25
sg8
I46
sg9
I2
sg10
I0
sg11
I570
ssg12
(dp27
g5
I1365
sg6
I89
sg7
I13
sg8
I53
sg9
I2
sg10
I1
sg11
I570
ssg14
(dp28
g5
I1587
sg6
I82
sg7
I20
sg8
I41
sg9
I2
sg10
I0
sg11
I770
ssg16
(dp29
g5
I3280
sg6
I73
sg7
I30
sg8
I47
sg9
I1
sg10
I1
sg11
I1080
sssS'Danijel.csv'
p30
(dp31
g3
(dp32
g5
I2084
sg6
I36
sg7
I8
sg8
I22
sg9
I4
sg10
I0
sg11
I1030
ssg12
(dp33
g5
I91
sg6
I3
sg7
I2
sg8
I3
sg9
I43
sg10
I0
sg11
I40
ssg14
(dp34
g5
I2042
sg6
I32
sg7
I14
sg8
I18
sg9
I2
sg10
I0
sg11
I1010
ssg16
(dp35
g5
I2965
sg6
I34
sg7
I12
sg8
I30
sg9
I2
sg10
I4
sg11
I980
sss.(dp0
S'K_all3.csv'
p1
(dp2
S'machine'
p3
(dp4
S'count'
p5
I1125
sS'truepos'
p6
I30
sS'falseneg'
p7
I8
sS'correction'
p8
I24
sS'unknownyes'
p9
I7
sS'falsepos'
p10
I0
sS'unique'
p11
I550
ssS'knee'
p12
(dp13
g5
I1163
sg6
I29
sg7
I8
sg8
I24
sg9
I8
sg10
I1
sg11
I520
ssS'none'
p14
(dp15
g5
I1367
sg6
I31
sg7
I9
sg8
I21
sg9
I5
sg10
I0
sg11
I670
ssS'three'
p16
(dp17
g5
I1977
sg6
I23
sg7
I9
sg8
I29
sg9
I13
sg10
I11
sg11
I650
sssS'Wahono.csv'
p18
(dp19
g3
(dp20
g5
I2633
sg6
I46
sg7
I13
sg8
I31
sg9
I3
sg10
I1
sg11
I1300
ssg12
(dp21
g5
I2064
sg6
I49
sg7
I9
sg8
I31
sg9
I4
sg10
I0
sg11
I920
ssg14
(dp22
g5
I3071
sg6
I52
sg7
I8
sg8
I30
sg9
I2
sg10
I0
sg11
I1520
ssg16
(dp23
g5
I5228
sg6
I38
sg7
I21
sg8
I45
sg9
I3
sg10
I2
sg11
I1730
sssS'Hall.csv'
p24
(dp25
g3
(dp26
g5
I1282
sg6
I74
sg7
I28
sg8
I37
sg9
I2
sg10
I0
sg11
I620
ssg12
(dp27
g5
I1207
sg6
I88
sg7
I13
sg8
I52
sg9
I3
sg10
I0
sg11
I510
ssg14
(dp28
g5
I1182
sg6
I86
sg7
I16
sg8
I39
sg9
I2
sg10
I0
sg11
I570
ssg16
(dp29
g5
I2986
sg6
I73
sg7
I29
sg8
I55
sg9
I2
sg10
I5
sg11
I980
sssS'Danijel.csv'
p30
(dp31
g3
(dp32
g5
I2323
sg6
I32
sg7
I14
sg8
I19
sg9
I2
sg10
I0
sg11
I1150
ssg12
(dp33
g5
I70
sg6
I4
sg7
I1
sg8
I4
sg9
I43
sg10
I0
sg11
I30
ssg14
(dp34
g5
I2801
sg6
I37
sg7
I9
sg8
I18
sg9
I2
sg10
I0
sg11
I1390
ssg16
(dp35
g5
I3510
sg6
I34
sg7
I12
sg8
I35
sg9
I2
sg10
I4
sg11
I1160
sss.(dp0
S'K_all3.csv'
p1
(dp2
S'machine'
p3
(dp4
S'count'
p5
I1386
sS'truepos'
p6
I32
sS'falseneg'
p7
I11
sS'correction'
p8
I22
sS'unknownyes'
p9
I2
sS'falsepos'
p10
I0
sS'unique'
p11
I680
ssS'knee'
p12
(dp13
g5
I1923
sg6
I35
sg7
I7
sg8
I37
sg9
I3
sg10
I4
sg11
I850
ssS'none'
p14
(dp15
g5
I1186
sg6
I30
sg7
I12
sg8
I23
sg9
I3
sg10
I0
sg11
I580
ssS'three'
p16
(dp17
g5
I1798
sg6
I28
sg7
I9
sg8
I36
sg9
I8
sg10
I3
sg11
I590
sssS'Wahono.csv'
p18
(dp19
g3
(dp20
g5
I3599
sg6
I45
sg7
I14
sg8
I35
sg9
I3
sg10
I1
sg11
I1780
ssg12
(dp21
g5
I1122
sg6
I43
sg7
I2
sg8
I24
sg9
I17
sg10
I2
sg11
I450
ssg14
(dp22
g5
I2549
sg6
I50
sg7
I9
sg8
I23
sg9
I3
sg10
I0
sg11
I1260
ssg16
(dp23
g5
I5613
sg6
I42
sg7
I18
sg8
I42
sg9
I2
sg10
I6
sg11
I1860
sssS'Hall.csv'
p24
(dp25
g3
(dp26
g5
I1178
sg6
I80
sg7
I22
sg8
I35
sg9
I2
sg10
I0
sg11
I570
ssg12
(dp27
g5
I1231
sg6
I87
sg7
I14
sg8
I47
sg9
I3
sg10
I0
sg11
I500
ssg14
(dp28
g5
I1837
sg6
I76
sg7
I26
sg8
I50
sg9
I2
sg10
I0
sg11
I890
ssg16
(dp29
g5
I3323
sg6
I69
sg7
I33
sg8
I60
sg9
I2
sg10
I5
sg11
I1090
sssS'Danijel.csv'
p30
(dp31
g3
(dp32
g5
I2405
sg6
I35
sg7
I11
sg8
I21
sg9
I2
sg10
I0
sg11
I1190
ssg12
(dp33
g5
I1254
sg6
I38
sg7
I7
sg8
I24
sg9
I3
sg10
I0
sg11
I510
ssg14
(dp34
g5
I2308
sg6
I37
sg7
I9
sg8
I27
sg9
I2
sg10
I0
sg11
I1140
ssg16
(dp35
g5
I4410
sg6
I32
sg7
I14
sg8
I35
sg9
I2
sg10
I2
sg11
I1460
sss.(dp0
S'K_all3.csv'
p1
(dp2
S'machine'
p3
(dp4
S'count'
p5
I1101
sS'truepos'
p6
I37
sS'falseneg'
p7
I4
sS'correction'
p8
I19
sS'unknownyes'
p9
I4
sS'falsepos'
p10
I0
sS'unique'
p11
I540
ssS'knee'
p12
(dp13
g5
I1738
sg6
I37
sg7
I5
sg8
I24
sg9
I3
sg10
I1
sg11
I710
ssS'none'
p14
(dp15
g5
I1001
sg6
I30
sg7
I10
sg8
I17
sg9
I5
sg10
I1
sg11
I490
ssS'three'
p16
(dp17
g5
I3493
sg6
I25
sg7
I18
sg8
I48
sg9
I2
sg10
I5
sg11
I1150
sssS'Wahono.csv'
p18
(dp19
g3
(dp20
g5
I2452
sg6
I52
sg7
I7
sg8
I31
sg9
I3
sg10
I0
sg11
I1210
ssg12
(dp21
g5
I1589
sg6
I49
sg7
I7
sg8
I28
sg9
I6
sg10
I0
sg11
I680
ssg14
(dp22
g5
I2471
sg6
I49
sg7
I12
sg8
I31
sg9
I1
sg10
I0
sg11
I1220
ssg16
(dp23
g5
I5374
sg6
I44
sg7
I16
sg8
I42
sg9
I2
sg10
I4
sg11
I1780
sssS'Hall.csv'
p24
(dp25
g3
(dp26
g5
I1506
sg6
I83
sg7
I19
sg8
I37
sg9
I2
sg10
I0
sg11
I730
ssg12
(dp27
g5
I1177
sg6
I93
sg7
I8
sg8
I44
sg9
I3
sg10
I1
sg11
I480
ssg14
(dp28
g5
I1795
sg6
I78
sg7
I24
sg8
I46
sg9
I2
sg10
I0
sg11
I870
ssg16
(dp29
g5
I2756
sg6
I66
sg7
I36
sg8
I65
sg9
I2
sg10
I2
sg11
I900
sssS'Danijel.csv'
p30
(dp31
g3
(dp32
g5
I2348
sg6
I37
sg7
I9
sg8
I24
sg9
I2
sg10
I0
sg11
I1160
ssg12
(dp33
g5
I898
sg6
I34
sg7
I7
sg8
I21
sg9
I7
sg10
I0
sg11
I390
ssg14
(dp34
g5
I2522
sg6
I35
sg7
I11
sg8
I19
sg9
I2
sg10
I0
sg11
I1250
ssg16
(dp35
g5
I3409
sg6
I34
sg7
I11
sg8
I22
sg9
I3
sg10
I4
sg11
I1130
sss.(dp0
S'K_all3.csv'
p1
(dp2
S'machine'
p3
(dp4
S'count'
p5
I1829
sS'truepos'
p6
I29
sS'falseneg'
p7
I13
sS'correction'
p8
I26
sS'unknownyes'
p9
I3
sS'falsepos'
p10
I1
sS'unique'
p11
I900
ssS'knee'
p12
(dp13
g5
I1146
sg6
I32
sg7
I9
sg8
I26
sg9
I4
sg10
I1
sg11
I510
ssS'none'
p14
(dp15
g5
I998
sg6
I34
sg7
I5
sg8
I17
sg9
I6
sg10
I0
sg11
I490
ssS'three'
p16
(dp17
g5
I1789
sg6
I31
sg7
I11
sg8
I23
sg9
I3
sg10
I5
sg11
I590
sssS'Wahono.csv'
p18
(dp19
g3
(dp20
g5
I3478
sg6
I48
sg7
I13
sg8
I33
sg9
I1
sg10
I0
sg11
I1720
ssg12
(dp21
g5
I2543
sg6
I57
sg7
I1
sg8
I50
sg9
I4
sg10
I4
sg11
I970
ssg14
(dp22
g5
I2592
sg6
I45
sg7
I14
sg8
I30
sg9
I3
sg10
I0
sg11
I1280
ssg16
(dp23
g5
I4973
sg6
I37
sg7
I23
sg8
I28
sg9
I2
sg10
I5
sg11
I1650
sssS'Hall.csv'
p24
(dp25
g3
(dp26
g5
I1627
sg6
I77
sg7
I25
sg8
I37
sg9
I2
sg10
I0
sg11
I790
ssg12
(dp27
g5
I1010
sg6
I92
sg7
I9
sg8
I50
sg9
I3
sg10
I3
sg11
I390
ssg14
(dp28
g5
I1026
sg6
I83
sg7
I18
sg8
I43
sg9
I3
sg10
I0
sg11
I490
ssg16
(dp29
g5
I4901
sg6
I69
sg7
I34
sg8
I75
sg9
I1
sg10
I7
sg11
I1610
sssS'Danijel.csv'
p30
(dp31
g3
(dp32
g5
I2431
sg6
I34
sg7
I12
sg8
I26
sg9
I2
sg10
I0
sg11
I1200
ssg12
(dp33
g5
I514
sg6
I28
sg7
I5
sg8
I18
sg9
I15
sg10
I0
sg11
I190
ssg14
(dp34
g5
I1578
sg6
I38
sg7
I7
sg8
I16
sg9
I3
sg10
I0
sg11
I780
ssg16
(dp35
g5
I3775
sg6
I32
sg7
I14
sg8
I29
sg9
I2
sg10
I4
sg11
I1250
sss.(dp0
S'K_all3.csv'
p1
(dp2
S'machine'
p3
(dp4
S'count'
p5
I1828
sS'truepos'
p6
I30
sS'falseneg'
p7
I13
sS'correction'
p8
I27
sS'unknownyes'
p9
I2
sS'falsepos'
p10
I0
sS'unique'
p11
I900
ssS'knee'
p12
(dp13
g5
I548
sg6
I23
sg7
I2
sg8
I19
sg9
I20
sg10
I1
sg11
I200
ssS'none'
p14
(dp15
g5
I2117
sg6
I30
sg7
I15
sg8
I33
sg9
I0
sg10
I0
sg11
I1040
ssS'three'
p16
(dp17
g5
I1973
sg6
I27
sg7
I11
sg8
I28
sg9
I7
sg10
I5
sg11
I650
sssS'Wahono.csv'
p18
(dp19
g3
(dp20
g5
I2832
sg6
I50
sg7
I10
sg8
I29
sg9
I2
sg10
I0
sg11
I1400
ssg12
(dp21
g5
I1312
sg6
I41
sg7
I8
sg8
I32
sg9
I13
sg10
I0
sg11
I530
ssg14
(dp22
g5
I2828
sg6
I55
sg7
I6
sg8
I28
sg9
I1
sg10
I0
sg11
I1400
ssg16
(dp23
g5
I5071
sg6
I43
sg7
I18
sg8
I35
sg9
I1
sg10
I9
sg11
I1680
sssS'Hall.csv'
p24
(dp25
g3
(dp26
g5
I1096
sg6
I83
sg7
I19
sg8
I33
sg9
I2
sg10
I0
sg11
I530
ssg12
(dp27
g5
I1107
sg6
I90
sg7
I11
sg8
I48
sg9
I3
sg10
I0
sg11
I450
ssg14
(dp28
g5
I1247
sg6
I81
sg7
I21
sg8
I40
sg9
I2
sg10
I0
sg11
I600
ssg16
(dp29
g5
I2028
sg6
I75
sg7
I27
sg8
I55
sg9
I2
sg10
I0
sg11
I660
sssS'Danijel.csv'
p30
(dp31
g3
(dp32
g5
I2348
sg6
I32
sg7
I14
sg8
I25
sg9
I2
sg10
I0
sg11
I1160
ssg12
(dp33
g5
I628
sg6
I29
sg7
I6
sg8
I20
sg9
I13
sg10
I0
sg11
I250
ssg14
(dp34
g5
I2321
sg6
I35
sg7
I11
sg8
I17
sg9
I2
sg10
I0
sg11
I1150
ssg16
(dp35
g5
I5707
sg6
I32
sg7
I16
sg8
I42
sg9
I0
sg10
I3
sg11
I1890
sss.(dp0
S'K_all3.csv'
p1
(dp2
S'machine'
p3
(dp4
S'count'
p5
I1084
sS'truepos'
p6
I34
sS'falseneg'
p7
I6
sS'correction'
p8
I24
sS'unknownyes'
p9
I5
sS'falsepos'
p10
I0
sS'unique'
p11
I530
ssS'knee'
p12
(dp13
g5
I704
sg6
I25
sg7
I7
sg8
I24
sg9
I13
sg10
I0
sg11
I270
ssS'none'
p14
(dp15
g5
I1066
sg6
I36
sg7
I5
sg8
I26
sg9
I4
sg10
I1
sg11
I520
ssS'three'
p16
(dp17
g5
I2513
sg6
I27
sg7
I11
sg8
I28
sg9
I7
sg10
I3
sg11
I830
sssS'Wahono.csv'
p18
(dp19
g3
(dp20
g5
I3313
sg6
I51
sg7
I10
sg8
I32
sg9
I1
sg10
I0
sg11
I1640
ssg12
(dp21
g5
I1566
sg6
I45
sg7
I9
sg8
I27
sg9
I8
sg10
I0
sg11
I620
ssg14
(dp22
g5
I2812
sg6
I44
sg7
I15
sg8
I29
sg9
I3
sg10
I0
sg11
I1390
ssg16
(dp23
g5
I6000
sg6
I32
sg7
I29
sg8
I32
sg9
I1
sg10
I4
sg11
I1990
sssS'Hall.csv'
p24
(dp25
g3
(dp26
g5
I1182
sg6
I83
sg7
I19
sg8
I35
sg9
I2
sg10
I0
sg11
I570
ssg12
(dp27
g5
I848
sg6
I88
sg7
I9
sg8
I56
sg9
I7
sg10
I0
sg11
I320
ssg14
(dp28
g5
I1258
sg6
I76
sg7
I26
sg8
I49
sg9
I2
sg10
I0
sg11
I600
ssg16
(dp29
g5
I5434
sg6
I65
sg7
I37
sg8
I68
sg9
I2
sg10
I9
sg11
I1790
sssS'Danijel.csv'
p30
(dp31
g3
(dp32
g5
I2269
sg6
I38
sg7
I9
sg8
I28
sg9
I1
sg10
I0
sg11
I1120
ssg12
(dp33
g5
I1297
sg6
I41
sg7
I3
sg8
I30
sg9
I4
sg10
I0
sg11
I550
ssg14
(dp34
g5
I2508
sg6
I36
sg7
I10
sg8
I26
sg9
I2
sg10
I0
sg11
I1240
ssg16
(dp35
g5
I3625
sg6
I33
sg7
I13
sg8
I27
sg9
I2
sg10
I2
sg11
I1200
sss.(dp0
S'K_all3.csv'
p1
(dp2
S'machine'
p3
(dp4
S'count'
p5
I1272
sS'truepos'
p6
I30
sS'falseneg'
p7
I12
sS'correction'
p8
I30
sS'unknownyes'
p9
I3
sS'falsepos'
p10
I0
sS'unique'
p11
I620
ssS'knee'
p12
(dp13
g5
I1154
sg6
I33
sg7
I7
sg8
I29
sg9
I5
sg10
I1
sg11
I460
ssS'none'
p14
(dp15
g5
I1287
sg6
I32
sg7
I10
sg8
I24
sg9
I3
sg10
I1
sg11
I630
ssS'three'
p16
(dp17
g5
I2124
sg6
I28
sg7
I16
sg8
I25
sg9
I1
sg10
I7
sg11
I700
sssS'Wahono.csv'
p18
(dp19
g3
(dp20
g5
I3272
sg6
I49
sg7
I11
sg8
I28
sg9
I2
sg10
I0
sg11
I1620
ssg12
(dp21
g5
I3122
sg6
I53
sg7
I6
sg8
I39
sg9
I3
sg10
I2
sg11
I1260
ssg14
(dp22
g5
I3090
sg6
I47
sg7
I14
sg8
I24
sg9
I1
sg10
I0
sg11
I1530
ssg16
(dp23
g5
I4689
sg6
I36
sg7
I23
sg8
I48
sg9
I3
sg10
I3
sg11
I1550
sssS'Hall.csv'
p24
(dp25
g3
(dp26
g5
I1138
sg6
I74
sg7
I27
sg8
I31
sg9
I3
sg10
I0
sg11
I550
ssg12
(dp27
g5
I1202
sg6
I84
sg7
I17
sg8
I49
sg9
I3
sg10
I0
sg11
I500
ssg14
(dp28
g5
I1730
sg6
I76
sg7
I27
sg8
I43
sg9
I1
sg10
I0
sg11
I840
ssg16
(dp29
g5
I4098
sg6
I69
sg7
I34
sg8
I60
sg9
I1
sg10
I4
sg11
I1350
sssS'Danijel.csv'
p30
(dp31
g3
(dp32
g5
I2383
sg6
I36
sg7
I10
sg8
I20
sg9
I2
sg10
I0
sg11
I1180
ssg12
(dp33
g5
I1688
sg6
I41
sg7
I5
sg8
I20
sg9
I2
sg10
I0
sg11
I730
ssg14
(dp34
g5
I2464
sg6
I36
sg7
I10
sg8
I18
sg9
I2
sg10
I0
sg11
I1220
ssg16
(dp35
g5
I4228
sg6
I33
sg7
I14
sg8
I33
sg9
I1
sg10
I2
sg11
I1400
sss.(dp0
S'K_all3.csv'
p1
(dp2
S'machine'
p3
(dp4
S'count'
p5
I1485
sS'truepos'
p6
I30
sS'falseneg'
p7
I11
sS'correction'
p8
I24
sS'unknownyes'
p9
I4
sS'falsepos'
p10
I0
sS'unique'
p11
I730
ssS'knee'
p12
(dp13
g5
I2179
sg6
I34
sg7
I10
sg8
I39
sg9
I1
sg10
I1
sg11
I920
ssS'none'
p14
(dp15
g5
I1180
sg6
I32
sg7
I9
sg8
I19
sg9
I4
sg10
I0
sg11
I580
ssS'three'
p16
(dp17
g5
I1798
sg6
I32
sg7
I7
sg8
I31
sg9
I6
sg10
I7
sg11
I590
sssS'Wahono.csv'
p18
(dp19
g3
(dp20
g5
I2763
sg6
I46
sg7
I14
sg8
I20
sg9
I2
sg10
I0
sg11
I1370
ssg12
(dp21
g5
I539
sg6
I27
sg7
I5
sg8
I15
sg9
I30
sg10
I0
sg11
I220
ssg14
(dp22
g5
I2494
sg6
I50
sg7
I10
sg8
I31
sg9
I2
sg10
I0
sg11
I1230
ssg16
(dp23
g5
I4209
sg6
I38
sg7
I22
sg8
I42
sg9
I2
sg10
I4
sg11
I1390
sssS'Hall.csv'
p24
(dp25
g3
(dp26
g5
I1832
sg6
I74
sg7
I28
sg8
I25
sg9
I2
sg10
I0
sg11
I900
ssg12
(dp27
g5
I1135
sg6
I87
sg7
I15
sg8
I57
sg9
I2
sg10
I1
sg11
I470
ssg14
(dp28
g5
I1728
sg6
I79
sg7
I23
sg8
I44
sg9
I2
sg10
I0
sg11
I840
ssg16
(dp29
g5
I3959
sg6
I71
sg7
I32
sg8
I73
sg9
I1
sg10
I3
sg11
I1300
sssS'Danijel.csv'
p30
(dp31
g3
(dp32
g5
I2464
sg6
I34
sg7
I12
sg8
I19
sg9
I2
sg10
I0
sg11
I1220
ssg12
(dp33
g5
I1233
sg6
I38
sg7
I5
sg8
I25
sg9
I5
sg10
I0
sg11
I530
ssg14
(dp34
g5
I2831
sg6
I37
sg7
I11
sg8
I27
sg9
I0
sg10
I1
sg11
I1400
ssg16
(dp35
g5
I4795
sg6
I30
sg7
I16
sg8
I29
sg9
I2
sg10
I7
sg11
I1590
sss.(dp0
S'K_all3.csv'
p1
(dp2
S'machine'
p3
(dp4
S'count'
p5
I1986
sS'truepos'
p6
I30
sS'falseneg'
p7
I11
sS'correction'
p8
I25
sS'unknownyes'
p9
I4
sS'falsepos'
p10
I0
sS'unique'
p11
I980
ssS'knee'
p12
(dp13
g5
I1964
sg6
I36
sg7
I7
sg8
I28
sg9
I2
sg10
I2
sg11
I870
ssS'none'
p14
(dp15
g5
I1493
sg6
I29
sg7
I14
sg8
I32
sg9
I2
sg10
I1
sg11
I730
ssS'three'
p16
(dp17
g5
I1792
sg6
I31
sg7
I9
sg8
I29
sg9
I5
sg10
I2
sg11
I590
sssS'Wahono.csv'
p18
(dp19
g3
(dp20
g5
I2649
sg6
I46
sg7
I13
sg8
I28
sg9
I3
sg10
I0
sg11
I1310
ssg12
(dp21
g5
I2666
sg6
I49
sg7
I10
sg8
I32
sg9
I3
sg10
I0
sg11
I1140
ssg14
(dp22
g5
I2847
sg6
I52
sg7
I8
sg8
I26
sg9
I2
sg10
I0
sg11
I1410
ssg16
(dp23
g5
I5187
sg6
I43
sg7
I17
sg8
I35
sg9
I2
sg10
I3
sg11
I1720
sssS'Hall.csv'
p24
(dp25
g3
(dp26
g5
I2835
sg6
I73
sg7
I30
sg8
I45
sg9
I1
sg10
I0
sg11
I1390
ssg12
(dp27
g5
I1080
sg6
I94
sg7
I7
sg8
I58
sg9
I3
sg10
I1
sg11
I420
ssg14
(dp28
g5
I1319
sg6
I82
sg7
I20
sg8
I32
sg9
I2
sg10
I0
sg11
I640
ssg16
(dp29
g5
I2205
sg6
I73
sg7
I29
sg8
I62
sg9
I2
sg10
I3
sg11
I720
sssS'Danijel.csv'
p30
(dp31
g3
(dp32
g5
I2149
sg6
I36
sg7
I10
sg8
I26
sg9
I2
sg10
I0
sg11
I1060
ssg12
(dp33
g5
I70
sg6
I4
sg7
I2
sg8
I1
sg9
I42
sg10
I0
sg11
I30
ssg14
(dp34
g5
I2144
sg6
I38
sg7
I8
sg8
I22
sg9
I2
sg10
I0
sg11
I1060
ssg16
(dp35
g5
I4098
sg6
I32
sg7
I14
sg8
I22
sg9
I2
sg10
I1
sg11
I1360
sss.(dp0
S'K_all3.csv'
p1
(dp2
S'machine'
p3
(dp4
S'count'
p5
I1027
sS'truepos'
p6
I32
sS'falseneg'
p7
I6
sS'correction'
p8
I25
sS'unknownyes'
p9
I7
sS'falsepos'
p10
I0
sS'unique'
p11
I500
ssS'knee'
p12
(dp13
g5
I1132
sg6
I34
sg7
I6
sg8
I23
sg9
I5
sg10
I2
sg11
I480
ssS'none'
p14
(dp15
g5
I1081
sg6
I35
sg7
I7
sg8
I20
sg9
I3
sg10
I0
sg11
I530
ssS'three'
p16
(dp17
g5
I2848
sg6
I24
sg7
I16
sg8
I30
sg9
I5
sg10
I7
sg11
I940
sssS'Wahono.csv'
p18
(dp19
g3
(dp20
g5
I3476
sg6
I51
sg7
I11
sg8
I31
sg9
I0
sg10
I0
sg11
I1720
ssg12
(dp21
g5
I46
sg6
I6
sg7
I0
sg8
I2
sg9
I56
sg10
I0
sg11
I20
ssg14
(dp22
g5
I2765
sg6
I46
sg7
I13
sg8
I22
sg9
I3
sg10
I0
sg11
I1370
ssg16
(dp23
g5
I3725
sg6
I37
sg7
I22
sg8
I39
sg9
I3
sg10
I2
sg11
I1230
sssS'Hall.csv'
p24
(dp25
g3
(dp26
g5
I1538
sg6
I80
sg7
I22
sg8
I54
sg9
I2
sg10
I0
sg11
I740
ssg12
(dp27
g5
I1160
sg6
I89
sg7
I13
sg8
I51
sg9
I2
sg10
I1
sg11
I460
ssg14
(dp28
g5
I1446
sg6
I85
sg7
I17
sg8
I43
sg9
I2
sg10
I0
sg11
I700
ssg16
(dp29
g5
I3534
sg6
I73
sg7
I30
sg8
I66
sg9
I1
sg10
I3
sg11
I1160
sssS'Danijel.csv'
p30
(dp31
g3
(dp32
g5
I2832
sg6
I32
sg7
I15
sg8
I25
sg9
I1
sg10
I0
sg11
I1400
ssg12
(dp33
g5
I1259
sg6
I38
sg7
I5
sg8
I25
sg9
I5
sg10
I1
sg11
I520
ssg14
(dp34
g5
I2428
sg6
I37
sg7
I9
sg8
I25
sg9
I2
sg10
I0
sg11
I1200
ssg16
(dp35
g5
I5397
sg6
I30
sg7
I18
sg8
I30
sg9
I0
sg10
I4
sg11
I1790
sss.(dp0
S'K_all3.csv'
p1
(dp2
S'machine'
p3
(dp4
S'count'
p5
I986
sS'truepos'
p6
I33
sS'falseneg'
p7
I8
sS'correction'
p8
I22
sS'unknownyes'
p9
I4
sS'falsepos'
p10
I0
sS'unique'
p11
I480
ssS'knee'
p12
(dp13
g5
I1374
sg6
I33
sg7
I5
sg8
I30
sg9
I7
sg10
I1
sg11
I540
ssS'none'
p14
(dp15
g5
I1081
sg6
I35
sg7
I8
sg8
I18
sg9
I2
sg10
I0
sg11
I530
ssS'three'
p16
(dp17
g5
I1550
sg6
I32
sg7
I8
sg8
I23
sg9
I5
sg10
I6
sg11
I510
sssS'Wahono.csv'
p18
(dp19
g3
(dp20
g5
I2690
sg6
I43
sg7
I16
sg8
I24
sg9
I3
sg10
I0
sg11
I1330
ssg12
(dp21
g5
I48
sg6
I6
sg7
I0
sg8
I4
sg9
I56
sg10
I0
sg11
I20
ssg14
(dp22
g5
I2792
sg6
I45
sg7
I14
sg8
I31
sg9
I3
sg10
I0
sg11
I1380
ssg16
(dp23
g5
I4352
sg6
I41
sg7
I21
sg8
I35
sg9
I0
sg10
I4
sg11
I1440
sssS'Hall.csv'
p24
(dp25
g3
(dp26
g5
I2209
sg6
I84
sg7
I19
sg8
I45
sg9
I1
sg10
I0
sg11
I1080
ssg12
(dp27
g5
I1113
sg6
I93
sg7
I8
sg8
I44
sg9
I3
sg10
I3
sg11
I440
ssg14
(dp28
g5
I2312
sg6
I73
sg7
I30
sg8
I44
sg9
I1
sg10
I0
sg11
I1130
ssg16
(dp29
g5
I3513
sg6
I69
sg7
I34
sg8
I71
sg9
I1
sg10
I4
sg11
I1150
sssS'Danijel.csv'
p30
(dp31
g3
(dp32
g5
I1763
sg6
I42
sg7
I4
sg8
I21
sg9
I2
sg10
I0
sg11
I870
ssg12
(dp33
g5
I1339
sg6
I36
sg7
I6
sg8
I17
sg9
I6
sg10
I1
sg11
I540
ssg14
(dp34
g5
I2442
sg6
I31
sg7
I15
sg8
I17
sg9
I2
sg10
I0
sg11
I1210
ssg16
(dp35
g5
I6428
sg6
I27
sg7
I20
sg8
I44
sg9
I1
sg10
I4
sg11
I2130
sss.(dp0
S'K_all3.csv'
p1
(dp2
S'machine'
p3
(dp4
S'count'
p5
I1815
sS'truepos'
p6
I29
sS'falseneg'
p7
I14
sS'correction'
p8
I28
sS'unknownyes'
p9
I2
sS'falsepos'
p10
I1
sS'unique'
p11
I890
ssS'knee'
p12
(dp13
g5
I973
sg6
I28
sg7
I7
sg8
I21
sg9
I10
sg10
I2
sg11
I410
ssS'none'
p14
(dp15
g5
I1112
sg6
I32
sg7
I9
sg8
I29
sg9
I4
sg10
I0
sg11
I540
ssS'three'
p16
(dp17
g5
I2304
sg6
I26
sg7
I15
sg8
I30
sg9
I4
sg10
I4
sg11
I760
sssS'Wahono.csv'
p18
(dp19
g3
(dp20
g5
I2966
sg6
I48
sg7
I13
sg8
I21
sg9
I1
sg10
I0
sg11
I1470
ssg12
(dp21
g5
I1876
sg6
I53
sg7
I5
sg8
I31
sg9
I4
sg10
I0
sg11
I810
ssg14
(dp22
g5
I2795
sg6
I46
sg7
I14
sg8
I29
sg9
I2
sg10
I0
sg11
I1380
ssg16
(dp23
g5
I4643
sg6
I45
sg7
I16
sg8
I31
sg9
I1
sg10
I7
sg11
I1540
sssS'Hall.csv'
p24
(dp25
g3
(dp26
g5
I1294
sg6
I83
sg7
I19
sg8
I46
sg9
I2
sg10
I0
sg11
I620
ssg12
(dp27
g5
I1075
sg6
I92
sg7
I9
sg8
I44
sg9
I3
sg10
I1
sg11
I430
ssg14
(dp28
g5
I1669
sg6
I87
sg7
I16
sg8
I47
sg9
I1
sg10
I0
sg11
I810
ssg16
(dp29
g5
I3378
sg6
I70
sg7
I32
sg8
I58
sg9
I2
sg10
I7
sg11
I1110
sssS'Danijel.csv'
p30
(dp31
g3
(dp32
g5
I1595
sg6
I40
sg7
I6
sg8
I13
sg9
I2
sg10
I0
sg11
I790
ssg12
(dp33
g5
I1324
sg6
I36
sg7
I9
sg8
I27
sg9
I3
sg10
I0
sg11
I550
ssg14
(dp34
g5
I3537
sg6
I33
sg7
I14
sg8
I32
sg9
I1
sg10
I0
sg11
I1750
ssg16
(dp35
g5
I5784
sg6
I28
sg7
I17
sg8
I26
sg9
I3
sg10
I2
sg11
I1920
sss.