(dp0
S'K_all3.csv'
p1
(dp2
S'machine'
p3
(dp4
S'count'
p5
I607
sS'truepos'
p6
I36
sS'falseneg'
p7
I0
sS'correction'
p8
I8
sS'unknownyes'
p9
I9
sS'falsepos'
p10
I4
sS'unique'
p11
I370
ssS'knee'
p12
(dp13
g5
I332
sg6
I25
sg7
I2
sg8
I7
sg9
I18
sg10
I0
sg11
I200
ssS'none'
p14
(dp15
g5
I430
sg6
I31
sg7
I5
sg8
I0
sg9
I9
sg10
I3
sg11
I430
ssS'three'
p16
(dp17
g5
I960
sg6
I38
sg7
I2
sg8
I19
sg9
I5
sg10
I0
sg11
I470
sssS'Wahono.csv'
p18
(dp19
g3
(dp20
g5
I2044
sg6
I56
sg7
I3
sg8
I6
sg9
I3
sg10
I5
sg11
I1280
ssg12
(dp21
g5
I786
sg6
I44
sg7
I6
sg8
I5
sg9
I12
sg10
I1
sg11
I540
ssg14
(dp22
g5
I1170
sg6
I50
sg7
I9
sg8
I0
sg9
I3
sg10
I0
sg11
I1170
ssg16
(dp23
g5
I2321
sg6
I57
sg7
I2
sg8
I20
sg9
I3
sg10
I0
sg11
I1150
sssS'Hall.csv'
p24
(dp25
g3
(dp26
g5
I722
sg6
I98
sg7
I4
sg8
I19
sg9
I2
sg10
I1
sg11
I520
ssg12
(dp27
g5
I612
sg6
I95
sg7
I6
sg8
I13
sg9
I3
sg10
I1
sg11
I430
ssg14
(dp28
g5
I510
sg6
I83
sg7
I19
sg8
I0
sg9
I2
sg10
I0
sg11
I510
ssg16
(dp29
g5
I1070
sg6
I91
sg7
I11
sg8
I28
sg9
I2
sg10
I0
sg11
I520
sssS'Danijel.csv'
p30
(dp31
g3
(dp32
g5
I1261
sg6
I43
sg7
I3
sg8
I5
sg9
I2
sg10
I1
sg11
I770
ssg12
(dp33
g5
I864
sg6
I41
sg7
I4
sg8
I8
sg9
I3
sg10
I1
sg11
I610
ssg14
(dp34
g5
I820
sg6
I38
sg7
I7
sg8
I0
sg9
I3
sg10
I5
sg11
I820
ssg16
(dp35
g5
I1708
sg6
I38
sg7
I8
sg8
I7
sg9
I2
sg10
I0
sg11
I850
sss.(dp0
S'K_all3.csv'
p1
(dp2
S'machine'
p3
(dp4
S'count'
p5
I580
sS'truepos'
p6
I32
sS'falseneg'
p7
I3
sS'correction'
p8
I4
sS'unknownyes'
p9
I10
sS'falsepos'
p10
I1
sS'unique'
p11
I380
ssS'knee'
p12
(dp13
g5
I1141
sg6
I34
sg7
I8
sg8
I7
sg9
I3
sg10
I4
sg11
I890
ssS'none'
p14
(dp15
g5
I410
sg6
I27
sg7
I8
sg8
I0
sg9
I10
sg10
I1
sg11
I410
ssS'three'
p16
(dp17
g5
I858
sg6
I35
sg7
I5
sg8
I16
sg9
I5
sg10
I0
sg11
I420
sssS'Wahono.csv'
p18
(dp19
g3
(dp20
g5
I1979
sg6
I55
sg7
I4
sg8
I6
sg9
I3
sg10
I3
sg11
I1350
ssg12
(dp21
g5
I24
sg6
I6
sg7
I1
sg8
I0
sg9
I55
sg10
I0
sg11
I20
ssg14
(dp22
g5
I1410
sg6
I46
sg7
I15
sg8
I0
sg9
I1
sg10
I2
sg11
I1410
ssg16
(dp23
g5
I2566
sg6
I54
sg7
I5
sg8
I25
sg9
I3
sg10
I0
sg11
I1270
sssS'Hall.csv'
p24
(dp25
g3
(dp26
g5
I685
sg6
I96
sg7
I6
sg8
I14
sg9
I2
sg10
I1
sg11
I460
ssg12
(dp27
g5
I650
sg6
I96
sg7
I5
sg8
I18
sg9
I3
sg10
I0
sg11
I440
ssg14
(dp28
g5
I800
sg6
I79
sg7
I23
sg8
I0
sg9
I2
sg10
I1
sg11
I800
ssg16
(dp29
g5
I1093
sg6
I92
sg7
I10
sg8
I25
sg9
I2
sg10
I0
sg11
I530
sssS'Danijel.csv'
p30
(dp31
g3
(dp32
g5
I1172
sg6
I42
sg7
I2
sg8
I8
sg9
I4
sg10
I1
sg11
I740
ssg12
(dp33
g5
I295
sg6
I28
sg7
I1
sg8
I3
sg9
I19
sg10
I0
sg11
I180
ssg14
(dp34
g5
I1280
sg6
I33
sg7
I14
sg8
I0
sg9
I1
sg10
I3
sg11
I1280
ssg16
(dp35
g5
I1536
sg6
I41
sg7
I4
sg8
I16
sg9
I3
sg10
I0
sg11
I760
sss.(dp0
S'K_all3.csv'
p1
(dp2
S'machine'
p3
(dp4
S'count'
p5
I706
sS'truepos'
p6
I34
sS'falseneg'
p7
I2
sS'correction'
p8
I9
sS'unknownyes'
p9
I9
sS'falsepos'
p10
I4
sS'unique'
p11
I470
ssS'knee'
p12
(dp13
g5
I1190
sg6
I41
sg7
I2
sg8
I6
sg9
I2
sg10
I4
sg11
I820
ssS'none'
p14
(dp15
g5
I490
sg6
I32
sg7
I7
sg8
I0
sg9
I6
sg10
I4
sg11
I490
ssS'three'
p16
(dp17
g5
I920
sg6
I38
sg7
I3
sg8
I19
sg9
I4
sg10
I0
sg11
I450
sssS'Wahono.csv'
p18
(dp19
g3
(dp20
g5
I1916
sg6
I59
sg7
I1
sg8
I8
sg9
I2
sg10
I5
sg11
I1310
ssg12
(dp21
g5
I756
sg6
I48
sg7
I3
sg8
I13
sg9
I11
sg10
I1
sg11
I460
ssg14
(dp22
g5
I1400
sg6
I45
sg7
I14
sg8
I0
sg9
I3
sg10
I2
sg11
I1400
ssg16
(dp23
g5
I2458
sg6
I56
sg7
I3
sg8
I18
sg9
I3
sg10
I0
sg11
I1220
sssS'Hall.csv'
p24
(dp25
g3
(dp26
g5
I674
sg6
I97
sg7
I5
sg8
I22
sg9
I2
sg10
I0
sg11
I480
ssg12
(dp27
g5
I454
sg6
I87
sg7
I11
sg8
I6
sg9
I6
sg10
I1
sg11
I310
ssg14
(dp28
g5
I620
sg6
I80
sg7
I22
sg8
I0
sg9
I2
sg10
I1
sg11
I620
ssg16
(dp29
g5
I1068
sg6
I94
sg7
I8
sg8
I25
sg9
I2
sg10
I0
sg11
I520
sssS'Danijel.csv'
p30
(dp31
g3
(dp32
g5
I1309
sg6
I42
sg7
I3
sg8
I9
sg9
I3
sg10
I0
sg11
I850
ssg12
(dp33
g5
I58
sg6
I5
sg7
I2
sg8
I1
sg9
I41
sg10
I0
sg11
I50
ssg14
(dp34
g5
I1090
sg6
I36
sg7
I10
sg8
I0
sg9
I2
sg10
I0
sg11
I1090
ssg16
(dp35
g5
I1574
sg6
I38
sg7
I7
sg8
I9
sg9
I3
sg10
I0
sg11
I780
sss.(dp0
S'K_all3.csv'
p1
(dp2
S'machine'
p3
(dp4
S'count'
p5
I658
sS'truepos'
p6
I34
sS'falseneg'
p7
I2
sS'correction'
p8
I7
sS'unknownyes'
p9
I9
sS'falsepos'
p10
I4
sS'unique'
p11
I410
ssS'knee'
p12
(dp13
g5
I1568
sg6
I39
sg7
I6
sg8
I10
sg9
I0
sg10
I6
sg11
I1220
ssS'none'
p14
(dp15
g5
I450
sg6
I34
sg7
I4
sg8
I0
sg9
I7
sg10
I3
sg11
I450
ssS'three'
p16
(dp17
g5
I958
sg6
I35
sg7
I5
sg8
I17
sg9
I5
sg10
I1
sg11
I470
sssS'Wahono.csv'
p18
(dp19
g3
(dp20
g5
I1904
sg6
I58
sg7
I3
sg8
I9
sg9
I1
sg10
I2
sg11
I1270
ssg12
(dp21
g5
I1210
sg6
I53
sg7
I5
sg8
I7
sg9
I4
sg10
I0
sg11
I890
ssg14
(dp22
g5
I1310
sg6
I42
sg7
I18
sg8
I0
sg9
I2
sg10
I0
sg11
I1310
ssg16
(dp23
g5
I2726
sg6
I56
sg7
I4
sg8
I23
sg9
I2
sg10
I0
sg11
I1350
sssS'Hall.csv'
p24
(dp25
g3
(dp26
g5
I727
sg6
I98
sg7
I4
sg8
I12
sg9
I2
sg10
I2
sg11
I520
ssg12
(dp27
g5
I633
sg6
I96
sg7
I6
sg8
I6
sg9
I2
sg10
I1
sg11
I460
ssg14
(dp28
g5
I820
sg6
I76
sg7
I26
sg8
I0
sg9
I2
sg10
I2
sg11
I820
ssg16
(dp29
g5
I1520
sg6
I91
sg7
I11
sg8
I34
sg9
I2
sg10
I0
sg11
I740
sssS'Danijel.csv'
p30
(dp31
g3
(dp32
g5
I1117
sg6
I42
sg7
I2
sg8
I7
sg9
I4
sg10
I2
sg11
I670
ssg12
(dp33
g5
I551
sg6
I39
sg7
I2
sg8
I4
sg9
I7
sg10
I1
sg11
I370
ssg14
(dp34
g5
I820
sg6
I36
sg7
I10
sg8
I0
sg9
I2
sg10
I0
sg11
I820
ssg16
(dp35
g5
I1502
sg6
I42
sg7
I4
sg8
I20
sg9
I2
sg10
I0
sg11
I740
sss.(dp0
S'K_all3.csv'
p1
(dp2
S'machine'
p3
(dp4
S'count'
p5
I631
sS'truepos'
p6
I32
sS'falseneg'
p7
I5
sS'correction'
p8
I3
sS'unknownyes'
p9
I8
sS'falsepos'
p10
I2
sS'unique'
p11
I430
ssS'knee'
p12
(dp13
g5
I1016
sg6
I36
sg7
I6
sg8
I5
sg9
I3
sg10
I4
sg11
I760
ssS'none'
p14
(dp15
g5
I490
sg6
I33
sg7
I5
sg8
I0
sg9
I7
sg10
I2
sg11
I490
ssS'three'
p16
(dp17
g5
I1014
sg6
I37
sg7
I5
sg8
I12
sg9
I3
sg10
I0
sg11
I500
sssS'Wahono.csv'
p18
(dp19
g3
(dp20
g5
I2030
sg6
I56
sg7
I3
sg8
I10
sg9
I3
sg10
I4
sg11
I1340
ssg12
(dp21
g5
I481
sg6
I40
sg7
I3
sg8
I9
sg9
I19
sg10
I0
sg11
I310
ssg14
(dp22
g5
I1560
sg6
I53
sg7
I6
sg8
I0
sg9
I3
sg10
I1
sg11
I1560
ssg16
(dp23
g5
I2302
sg6
I58
sg7
I1
sg8
I22
sg9
I3
sg10
I0
sg11
I1140
sssS'Hall.csv'
p24
(dp25
g3
(dp26
g5
I795
sg6
I100
sg7
I2
sg8
I14
sg9
I2
sg10
I3
sg11
I570
ssg12
(dp27
g5
I620
sg6
I93
sg7
I8
sg8
I11
sg9
I3
sg10
I0
sg11
I460
ssg14
(dp28
g5
I760
sg6
I85
sg7
I17
sg8
I0
sg9
I2
sg10
I1
sg11
I760
ssg16
(dp29
g5
I1243
sg6
I90
sg7
I12
sg8
I36
sg9
I2
sg10
I0
sg11
I600
sssS'Danijel.csv'
p30
(dp31
g3
(dp32
g5
I1382
sg6
I45
sg7
I1
sg8
I6
sg9
I2
sg10
I4
sg11
I850
ssg12
(dp33
g5
I891
sg6
I42
sg7
I2
sg8
I11
sg9
I4
sg10
I0
sg11
I570
ssg14
(dp34
g5
I860
sg6
I34
sg7
I12
sg8
I0
sg9
I2
sg10
I4
sg11
I860
ssg16
(dp35
g5
I1634
sg6
I41
sg7
I5
sg8
I13
sg9
I2
sg10
I0
sg11
I810
sss.(dp0
S'K_all3.csv'
p1
(dp2
S'machine'
p3
(dp4
S'count'
p5
I655
sS'truepos'
p6
I34
sS'falseneg'
p7
I6
sS'correction'
p8
I3
sS'unknownyes'
p9
I5
sS'falsepos'
p10
I4
sS'unique'
p11
I420
ssS'knee'
p12
(dp13
g5
I1488
sg6
I37
sg7
I7
sg8
I7
sg9
I1
sg10
I8
sg11
I1050
ssS'none'
p14
(dp15
g5
I530
sg6
I31
sg7
I9
sg8
I0
sg9
I5
sg10
I2
sg11
I530
ssS'three'
p16
(dp17
g5
I940
sg6
I38
sg7
I2
sg8
I19
sg9
I5
sg10
I0
sg11
I460
sssS'Wahono.csv'
p18
(dp19
g3
(dp20
g5
I1869
sg6
I58
sg7
I1
sg8
I11
sg9
I3
sg10
I3
sg11
I1270
ssg12
(dp21
g5
I348
sg6
I37
sg7
I1
sg8
I5
sg9
I24
sg10
I0
sg11
I210
ssg14
(dp22
g5
I1670
sg6
I52
sg7
I8
sg8
I0
sg9
I2
sg10
I1
sg11
I1670
ssg16
(dp23
g5
I2465
sg6
I56
sg7
I3
sg8
I24
sg9
I3
sg10
I0
sg11
I1220
sssS'Hall.csv'
p24
(dp25
g3
(dp26
g5
I747
sg6
I95
sg7
I7
sg8
I14
sg9
I2
sg10
I2
sg11
I550
ssg12
(dp27
g5
I23
sg6
I8
sg7
I1
sg8
I1
sg9
I95
sg10
I0
sg11
I20
ssg14
(dp28
g5
I680
sg6
I84
sg7
I18
sg8
I0
sg9
I2
sg10
I1
sg11
I680
ssg16
(dp29
g5
I1255
sg6
I90
sg7
I12
sg8
I33
sg9
I2
sg10
I0
sg11
I610
sssS'Danijel.csv'
p30
(dp31
g3
(dp32
g5
I1313
sg6
I41
sg7
I5
sg8
I7
sg9
I2
sg10
I0
sg11
I820
ssg12
(dp33
g5
I65
sg6
I5
sg7
I3
sg8
I0
sg9
I40
sg10
I0
sg11
I50
ssg14
(dp34
g5
I1210
sg6
I35
sg7
I11
sg8
I0
sg9
I2
sg10
I2
sg11
I1210
ssg16
(dp35
g5
I1734
sg6
I41
sg7
I5
sg8
I12
sg9
I2
sg10
I0
sg11
I860
sss.(dp0
S'K_all3.csv'
p1
(dp2
S'machine'
p3
(dp4
S'count'
p5
I603
sS'truepos'
p6
I37
sS'falseneg'
p7
I1
sS'correction'
p8
I5
sS'unknownyes'
p9
I7
sS'falsepos'
p10
I2
sS'unique'
p11
I390
ssS'knee'
p12
(dp13
g5
I1509
sg6
I38
sg7
I6
sg8
I11
sg9
I1
sg10
I3
sg11
I1160
ssS'none'
p14
(dp15
g5
I570
sg6
I28
sg7
I13
sg8
I0
sg9
I4
sg10
I7
sg11
I570
ssS'three'
p16
(dp17
g5
I1112
sg6
I37
sg7
I5
sg8
I9
sg9
I3
sg10
I0
sg11
I550
sssS'Wahono.csv'
p18
(dp19
g3
(dp20
g5
I1996
sg6
I56
sg7
I3
sg8
I8
sg9
I3
sg10
I3
sg11
I1330
ssg12
(dp21
g5
I908
sg6
I46
sg7
I10
sg8
I5
sg9
I6
sg10
I2
sg11
I760
ssg14
(dp22
g5
I1760
sg6
I44
sg7
I17
sg8
I0
sg9
I1
sg10
I3
sg11
I1760
ssg16
(dp23
g5
I2542
sg6
I50
sg7
I9
sg8
I21
sg9
I3
sg10
I0
sg11
I1260
sssS'Hall.csv'
p24
(dp25
g3
(dp26
g5
I613
sg6
I96
sg7
I5
sg8
I12
sg9
I3
sg10
I0
sg11
I420
ssg12
(dp27
g5
I606
sg6
I93
sg7
I8
sg8
I13
sg9
I3
sg10
I1
sg11
I440
ssg14
(dp28
g5
I530
sg6
I84
sg7
I18
sg8
I0
sg9
I2
sg10
I2
sg11
I530
ssg16
(dp29
g5
I1254
sg6
I89
sg7
I13
sg8
I28
sg9
I2
sg10
I0
sg11
I610
sssS'Danijel.csv'
p30
(dp31
g3
(dp32
g5
I1135
sg6
I42
sg7
I2
sg8
I10
sg9
I4
sg10
I0
sg11
I700
ssg12
(dp33
g5
I667
sg6
I43
sg7
I1
sg8
I6
sg9
I4
sg10
I0
sg11
I500
ssg14
(dp34
g5
I880
sg6
I38
sg7
I8
sg8
I0
sg9
I2
sg10
I4
sg11
I880
ssg16
(dp35
g5
I1480
sg6
I38
sg7
I8
sg8
I17
sg9
I2
sg10
I0
sg11
I730
sss.(dp0
S'K_all3.csv'
p1
(dp2
S'machine'
p3
(dp4
S'count'
p5
I725
sS'truepos'
p6
I37
sS'falseneg'
p7
I4
sS'correction'
p8
I9
sS'unknownyes'
p9
I4
sS'falsepos'
p10
I7
sS'unique'
p11
I490
ssS'knee'
p12
(dp13
g5
I681
sg6
I32
sg7
I5
sg8
I5
sg9
I8
sg10
I1
sg11
I510
ssS'none'
p14
(dp15
g5
I480
sg6
I34
sg7
I6
sg8
I0
sg9
I5
sg10
I0
sg11
I480
ssS'three'
p16
(dp17
g5
I1078
sg6
I37
sg7
I4
sg8
I17
sg9
I4
sg10
I1
sg11
I530
sssS'Wahono.csv'
p18
(dp19
g3
(dp20
g5
I1925
sg6
I56
sg7
I3
sg8
I11
sg9
I3
sg10
I2
sg11
I1220
ssg12
(dp21
g5
I922
sg6
I48
sg7
I3
sg8
I9
sg9
I11
sg10
I1
sg11
I680
ssg14
(dp22
g5
I1450
sg6
I44
sg7
I15
sg8
I0
sg9
I3
sg10
I3
sg11
I1450
ssg16
(dp23
g5
I2826
sg6
I51
sg7
I8
sg8
I22
sg9
I3
sg10
I0
sg11
I1400
sssS'Hall.csv'
p24
(dp25
g3
(dp26
g5
I625
sg6
I97
sg7
I4
sg8
I18
sg9
I3
sg10
I1
sg11
I440
ssg12
(dp27
g5
I606
sg6
I97
sg7
I4
sg8
I16
sg9
I3
sg10
I0
sg11
I420
ssg14
(dp28
g5
I630
sg6
I82
sg7
I20
sg8
I0
sg9
I2
sg10
I2
sg11
I630
ssg16
(dp29
g5
I1132
sg6
I87
sg7
I15
sg8
I26
sg9
I2
sg10
I0
sg11
I550
sssS'Danijel.csv'
p30
(dp31
g3
(dp32
g5
I1328
sg6
I46
sg7
I0
sg8
I7
sg9
I2
sg10
I1
sg11
I810
ssg12
(dp33
g5
I308
sg6
I28
sg7
I1
sg8
I4
sg9
I19
sg10
I1
sg11
I200
ssg14
(dp34
g5
I780
sg6
I38
sg7
I7
sg8
I0
sg9
I3
sg10
I1
sg11
I780
ssg16
(dp35
g5
I1613
sg6
I43
sg7
I2
sg8
I13
sg9
I3
sg10
I0
sg11
I800
sss.(dp0
S'K_all3.csv'
p1
(dp2
S'machine'
p3
(dp4
S'count'
p5
I747
sS'truepos'
p6
I36
sS'falseneg'
p7
I6
sS'correction'
p8
I5
sS'unknownyes'
p9
I3
sS'falsepos'
p10
I2
sS'unique'
p11
I500
ssS'knee'
p12
(dp13
g5
I1026
sg6
I41
sg7
I1
sg8
I4
sg9
I3
sg10
I2
sg11
I670
ssS'none'
p14
(dp15
g5
I510
sg6
I30
sg7
I9
sg8
I0
sg9
I6
sg10
I3
sg11
I510
ssS'three'
p16
(dp17
g5
I856
sg6
I37
sg7
I2
sg8
I15
sg9
I6
sg10
I0
sg11
I420
sssS'Wahono.csv'
p18
(dp19
g3
(dp20
g5
I2006
sg6
I56
sg7
I4
sg8
I8
sg9
I2
sg10
I4
sg11
I1330
ssg12
(dp21
g5
I949
sg6
I46
sg7
I12
sg8
I2
sg9
I4
sg10
I0
sg11
I800
ssg14
(dp22
g5
I1440
sg6
I47
sg7
I12
sg8
I0
sg9
I3
sg10
I3
sg11
I1440
ssg16
(dp23
g5
I2640
sg6
I54
sg7
I5
sg8
I19
sg9
I3
sg10
I0
sg11
I1310
sssS'Hall.csv'
p24
(dp25
g3
(dp26
g5
I680
sg6
I100
sg7
I2
sg8
I18
sg9
I2
sg10
I0
sg11
I490
ssg12
(dp27
g5
I609
sg6
I94
sg7
I7
sg8
I18
sg9
I3
sg10
I0
sg11
I410
ssg14
(dp28
g5
I560
sg6
I84
sg7
I18
sg8
I0
sg9
I2
sg10
I0
sg11
I560
ssg16
(dp29
g5
I1227
sg6
I92
sg7
I10
sg8
I44
sg9
I2
sg10
I0
sg11
I590
sssS'Danijel.csv'
p30
(dp31
g3
(dp32
g5
I1396
sg6
I41
sg7
I5
sg8
I7
sg9
I2
sg10
I3
sg11
I880
ssg12
(dp33
g5
I885
sg6
I39
sg7
I6
sg8
I7
sg9
I3
sg10
I3
sg11
I640
ssg14
(dp34
g5
I740
sg6
I39
sg7
I5
sg8
I0
sg9
I4
sg10
I0
sg11
I740
ssg16
(dp35
g5
I2323
sg6
I35
sg7
I11
sg8
I18
sg9
I2
sg10
I0
sg11
I1150
sss.(dp0
S'K_all3.csv'
p1
(dp2
S'machine'
p3
(dp4
S'count'
p5
I637
sS'truepos'
p6
I34
sS'falseneg'
p7
I4
sS'correction'
p8
I2
sS'unknownyes'
p9
I7
sS'falsepos'
p10
I3
sS'unique'
p11
I430
ssS'knee'
p12
(dp13
g5
I1676
sg6
I39
sg7
I5
sg8
I12
sg9
I1
sg10
I6
sg11
I1270
ssS'none'
p14
(dp15
g5
I500
sg6
I29
sg7
I10
sg8
I0
sg9
I6
sg10
I2
sg11
I500
ssS'three'
p16
(dp17
g5
I935
sg6
I34
sg7
I6
sg8
I14
sg9
I5
sg10
I0
sg11
I460
sssS'Wahono.csv'
p18
(dp19
g3
(dp20
g5
I1764
sg6
I56
sg7
I4
sg8
I10
sg9
I2
sg10
I2
sg11
I1170
ssg12
(dp21
g5
I484
sg6
I40
sg7
I5
sg8
I7
sg9
I17
sg10
I2
sg11
I350
ssg14
(dp22
g5
I1430
sg6
I51
sg7
I10
sg8
I0
sg9
I1
sg10
I2
sg11
I1430
ssg16
(dp23
g5
I2537
sg6
I53
sg7
I5
sg8
I14
sg9
I4
sg10
I0
sg11
I1260
sssS'Hall.csv'
p24
(dp25
g3
(dp26
g5
I699
sg6
I98
sg7
I4
sg8
I16
sg9
I2
sg10
I0
sg11
I490
ssg12
(dp27
g5
I634
sg6
I95
sg7
I6
sg8
I17
sg9
I3
sg10
I4
sg11
I420
ssg14
(dp28
g5
I770
sg6
I83
sg7
I19
sg8
I0
sg9
I2
sg10
I3
sg11
I770
ssg16
(dp29
g5
I1392
sg6
I91
sg7
I11
sg8
I27
sg9
I2
sg10
I0
sg11
I680
sssS'Danijel.csv'
p30
(dp31
g3
(dp32
g5
I1263
sg6
I45
sg7
I0
sg8
I6
sg9
I3
sg10
I1
sg11
I810
ssg12
(dp33
g5
I882
sg6
I39
sg7
I7
sg8
I2
sg9
I2
sg10
I0
sg11
I700
ssg14
(dp34
g5
I700
sg6
I39
sg7
I7
sg8
I0
sg9
I2
sg10
I0
sg11
I700
ssg16
(dp35
g5
I1752
sg6
I41
sg7
I5
sg8
I9
sg9
I2
sg10
I0
sg11
I870
sss.(dp0
S'K_all3.csv'
p1
(dp2
S'machine'
p3
(dp4
S'count'
p5
I602
sS'truepos'
p6
I35
sS'falseneg'
p7
I1
sS'correction'
p8
I5
sS'unknownyes'
p9
I9
sS'falsepos'
p10
I3
sS'unique'
p11
I380
ssS'knee'
p12
(dp13
g5
I511
sg6
I29
sg7
I5
sg8
I6
sg9
I11
sg10
I1
sg11
I360
ssS'none'
p14
(dp15
g5
I590
sg6
I33
sg7
I8
sg8
I0
sg9
I4
sg10
I4
sg11
I590
ssS'three'
p16
(dp17
g5
I1084
sg6
I35
sg7
I5
sg8
I23
sg9
I5
sg10
I0
sg11
I530
sssS'Wahono.csv'
p18
(dp19
g3
(dp20
g5
I2064
sg6
I56
sg7
I3
sg8
I10
sg9
I3
sg10
I3
sg11
I1370
ssg12
(dp21
g5
I182
sg6
I21
sg7
I2
sg8
I3
sg9
I39
sg10
I0
sg11
I120
ssg14
(dp22
g5
I1420
sg6
I47
sg7
I13
sg8
I0
sg9
I2
sg10
I3
sg11
I1420
ssg16
(dp23
g5
I2842
sg6
I55
sg7
I5
sg8
I22
sg9
I2
sg10
I0
sg11
I1410
sssS'Hall.csv'
p24
(dp25
g3
(dp26
g5
I627
sg6
I95
sg7
I7
sg8
I18
sg9
I2
sg10
I1
sg11
I450
ssg12
(dp27
g5
I738
sg6
I95
sg7
I7
sg8
I12
sg9
I2
sg10
I2
sg11
I530
ssg14
(dp28
g5
I490
sg6
I86
sg7
I15
sg8
I0
sg9
I3
sg10
I0
sg11
I490
ssg16
(dp29
g5
I1229
sg6
I93
sg7
I9
sg8
I28
sg9
I2
sg10
I0
sg11
I600
sssS'Danijel.csv'
p30
(dp31
g3
(dp32
g5
I1250
sg6
I44
sg7
I2
sg8
I12
sg9
I2
sg10
I2
sg11
I800
ssg12
(dp33
g5
I102
sg6
I8
sg7
I2
sg8
I0
sg9
I38
sg10
I0
sg11
I70
ssg14
(dp34
g5
I1030
sg6
I36
sg7
I10
sg8
I0
sg9
I2
sg10
I0
sg11
I1030
ssg16
(dp35
g5
I1597
sg6
I43
sg7
I3
sg8
I17
sg9
I2
sg10
I0
sg11
I790
sss.(dp0
S'K_all3.csv'
p1
(dp2
S'machine'
p3
(dp4
S'count'
p5
I578
sS'truepos'
p6
I30
sS'falseneg'
p7
I4
sS'correction'
p8
I4
sS'unknownyes'
p9
I11
sS'falsepos'
p10
I2
sS'unique'
p11
I380
ssS'knee'
p12
(dp13
g5
I1510
sg6
I33
sg7
I12
sg8
I14
sg9
I0
sg10
I2
sg11
I1260
ssS'none'
p14
(dp15
g5
I530
sg6
I29
sg7
I11
sg8
I0
sg9
I5
sg10
I2
sg11
I530
ssS'three'
p16
(dp17
g5
I897
sg6
I32
sg7
I5
sg8
I14
sg9
I8
sg10
I0
sg11
I440
sssS'Wahono.csv'
p18
(dp19
g3
(dp20
g5
I1688
sg6
I58
sg7
I1
sg8
I8
sg9
I3
sg10
I3
sg11
I1140
ssg12
(dp21
g5
I662
sg6
I44
sg7
I2
sg8
I6
sg9
I16
sg10
I0
sg11
I410
ssg14
(dp22
g5
I1770
sg6
I50
sg7
I10
sg8
I0
sg9
I2
sg10
I5
sg11
I1770
ssg16
(dp23
g5
I3072
sg6
I52
sg7
I9
sg8
I30
sg9
I1
sg10
I0
sg11
I1520
sssS'Hall.csv'
p24
(dp25
g3
(dp26
g5
I720
sg6
I98
sg7
I4
sg8
I16
sg9
I2
sg10
I0
sg11
I510
ssg12
(dp27
g5
I654
sg6
I96
sg7
I6
sg8
I13
sg9
I2
sg10
I0
sg11
I480
ssg14
(dp28
g5
I690
sg6
I87
sg7
I15
sg8
I0
sg9
I2
sg10
I1
sg11
I690
ssg16
(dp29
g5
I1381
sg6
I92
sg7
I10
sg8
I34
sg9
I2
sg10
I0
sg11
I670
sssS'Danijel.csv'
p30
(dp31
g3
(dp32
g5
I1417
sg6
I43
sg7
I3
sg8
I4
sg9
I2
sg10
I4
sg11
I910
ssg12
(dp33
g5
I84
sg6
I8
sg7
I3
sg8
I2
sg9
I37
sg10
I0
sg11
I60
ssg14
(dp34
g5
I730
sg6
I39
sg7
I7
sg8
I0
sg9
I2
sg10
I0
sg11
I730
ssg16
(dp35
g5
I1677
sg6
I41
sg7
I4
sg8
I14
sg9
I3
sg10
I0
sg11
I830
sss.(dp0
S'K_all3.csv'
p1
(dp2
S'machine'
p3
(dp4
S'count'
p5
I589
sS'truepos'
p6
I34
sS'falseneg'
p7
I1
sS'correction'
p8
I3
sS'unknownyes'
p9
I10
sS'falsepos'
p10
I3
sS'unique'
p11
I370
ssS'knee'
p12
(dp13
g5
I659
sg6
I37
sg7
I0
sg8
I6
sg9
I8
sg10
I3
sg11
I400
ssS'none'
p14
(dp15
g5
I460
sg6
I32
sg7
I8
sg8
I0
sg9
I5
sg10
I1
sg11
I460
ssS'three'
p16
(dp17
g5
I974
sg6
I37
sg7
I2
sg8
I14
sg9
I6
sg10
I0
sg11
I480
sssS'Wahono.csv'
p18
(dp19
g3
(dp20
g5
I1897
sg6
I56
sg7
I4
sg8
I9
sg9
I2
sg10
I4
sg11
I1260
ssg12
(dp21
g5
I35
sg6
I7
sg7
I0
sg8
I0
sg9
I55
sg10
I0
sg11
I30
ssg14
(dp22
g5
I1630
sg6
I42
sg7
I18
sg8
I0
sg9
I2
sg10
I2
sg11
I1630
ssg16
(dp23
g5
I3102
sg6
I56
sg7
I5
sg8
I20
sg9
I1
sg10
I0
sg11
I1540
sssS'Hall.csv'
p24
(dp25
g3
(dp26
g5
I679
sg6
I97
sg7
I4
sg8
I15
sg9
I3
sg10
I1
sg11
I490
ssg12
(dp27
g5
I598
sg6
I93
sg7
I8
sg8
I14
sg9
I3
sg10
I0
sg11
I430
ssg14
(dp28
g5
I770
sg6
I80
sg7
I22
sg8
I0
sg9
I2
sg10
I2
sg11
I770
ssg16
(dp29
g5
I1531
sg6
I83
sg7
I19
sg8
I24
sg9
I2
sg10
I0
sg11
I750
sssS'Danijel.csv'
p30
(dp31
g3
(dp32
g5
I1318
sg6
I42
sg7
I4
sg8
I9
sg9
I2
sg10
I3
sg11
I870
ssg12
(dp33
g5
I728
sg6
I41
sg7
I3
sg8
I2
sg9
I4
sg10
I1
sg11
I560
ssg14
(dp34
g5
I890
sg6
I37
sg7
I9
sg8
I0
sg9
I2
sg10
I1
sg11
I890
ssg16
(dp35
g5
I1638
sg6
I38
sg7
I8
sg8
I14
sg9
I2
sg10
I0
sg11
I810
sss.(dp0
S'K_all3.csv'
p1
(dp2
S'machine'
p3
(dp4
S'count'
p5
I580
sS'truepos'
p6
I35
sS'falseneg'
p7
I2
sS'correction'
p8
I3
sS'unknownyes'
p9
I8
sS'falsepos'
p10
I3
sS'unique'
p11
I380
ssS'knee'
p12
(dp13
g5
I1308
sg6
I41
sg7
I2
sg8
I7
sg9
I2
sg10
I4
sg11
I910
ssS'none'
p14
(dp15
g5
I490
sg6
I33
sg7
I8
sg8
I0
sg9
I4
sg10
I1
sg11
I490
ssS'three'
p16
(dp17
g5
I973
sg6
I36
sg7
I4
sg8
I12
sg9
I5
sg10
I0
sg11
I480
sssS'Wahono.csv'
p18
(dp19
g3
(dp20
g5
I2068
sg6
I54
sg7
I5
sg8
I11
sg9
I3
sg10
I1
sg11
I1440
ssg12
(dp21
g5
I1020
sg6
I53
sg7
I4
sg8
I10
sg9
I5
sg10
I3
sg11
I640
ssg14
(dp22
g5
I1500
sg6
I54
sg7
I7
sg8
I0
sg9
I1
sg10
I6
sg11
I1500
ssg16
(dp23
g5
I2423
sg6
I55
sg7
I4
sg8
I22
sg9
I3
sg10
I0
sg11
I1200
sssS'Hall.csv'
p24
(dp25
g3
(dp26
g5
I581
sg6
I95
sg7
I6
sg8
I18
sg9
I3
sg10
I1
sg11
I400
ssg12
(dp27
g5
I646
sg6
I98
sg7
I3
sg8
I18
sg9
I3
sg10
I1
sg11
I440
ssg14
(dp28
g5
I810
sg6
I84
sg7
I18
sg8
I0
sg9
I2
sg10
I2
sg11
I810
ssg16
(dp29
g5
I1175
sg6
I90
sg7
I12
sg8
I28
sg9
I2
sg10
I0
sg11
I570
sssS'Danijel.csv'
p30
(dp31
g3
(dp32
g5
I1319
sg6
I45
sg7
I1
sg8
I6
sg9
I2
sg10
I2
sg11
I840
ssg12
(dp33
g5
I582
sg6
I38
sg7
I3
sg8
I2
sg9
I7
sg10
I1
sg11
I460
ssg14
(dp34
g5
I750
sg6
I40
sg7
I5
sg8
I0
sg9
I3
sg10
I2
sg11
I750
ssg16
(dp35
g5
I1702
sg6
I42
sg7
I4
sg8
I22
sg9
I2
sg10
I0
sg11
I840
sss.(dp0
S'K_all3.csv'
p1
(dp2
S'machine'
p3
(dp4
S'count'
p5
I650
sS'truepos'
p6
I38
sS'falseneg'
p7
I1
sS'correction'
p8
I4
sS'unknownyes'
p9
I6
sS'falsepos'
p10
I1
sS'unique'
p11
I420
ssS'knee'
p12
(dp13
g5
I949
sg6
I34
sg7
I9
sg8
I1
sg9
I2
sg10
I5
sg11
I710
ssS'none'
p14
(dp15
g5
I520
sg6
I29
sg7
I11
sg8
I0
sg9
I5
sg10
I3
sg11
I520
ssS'three'
p16
(dp17
g5
I836
sg6
I34
sg7
I2
sg8
I15
sg9
I9
sg10
I0
sg11
I410
sssS'Wahono.csv'
p18
(dp19
g3
(dp20
g5
I2016
sg6
I57
sg7
I3
sg8
I13
sg9
I2
sg10
I5
sg11
I1380
ssg12
(dp21
g5
I775
sg6
I47
sg7
I3
sg8
I6
sg9
I12
sg10
I1
sg11
I520
ssg14
(dp22
g5
I1510
sg6
I49
sg7
I11
sg8
I0
sg9
I2
sg10
I2
sg11
I1510
ssg16
(dp23
g5
I2826
sg6
I53
sg7
I6
sg8
I24
sg9
I3
sg10
I0
sg11
I1400
sssS'Hall.csv'
p24
(dp25
g3
(dp26
g5
I699
sg6
I97
sg7
I5
sg8
I12
sg9
I2
sg10
I0
sg11
I520
ssg12
(dp27
g5
I565
sg6
I88
sg7
I14
sg8
I12
sg9
I2
sg10
I0
sg11
I430
ssg14
(dp28
g5
I840
sg6
I79
sg7
I23
sg8
I0
sg9
I2
sg10
I1
sg11
I840
ssg16
(dp29
g5
I1080
sg6
I90
sg7
I11
sg8
I33
sg9
I3
sg10
I0
sg11
I520
sssS'Danijel.csv'
p30
(dp31
g3
(dp32
g5
I1234
sg6
I44
sg7
I2
sg8
I3
sg9
I2
sg10
I1
sg11
I740
ssg12
(dp33
g5
I833
sg6
I39
sg7
I6
sg8
I4
sg9
I3
sg10
I1
sg11
I670
ssg14
(dp34
g5
I1180
sg6
I33
sg7
I12
sg8
I0
sg9
I3
sg10
I2
sg11
I1180
ssg16
(dp35
g5
I1753
sg6
I40
sg7
I6
sg8
I9
sg9
I2
sg10
I0
sg11
I870
sss.(dp0
S'K_all3.csv'
p1
(dp2
S'machine'
p3
(dp4
S'count'
p5
I700
sS'truepos'
p6
I33
sS'falseneg'
p7
I4
sS'correction'
p8
I6
sS'unknownyes'
p9
I8
sS'falsepos'
p10
I5
sS'unique'
p11
I500
ssS'knee'
p12
(dp13
g5
I455
sg6
I29
sg7
I2
sg8
I3
sg9
I14
sg10
I0
sg11
I300
ssS'none'
p14
(dp15
g5
I500
sg6
I29
sg7
I10
sg8
I0
sg9
I6
sg10
I1
sg11
I500
ssS'three'
p16
(dp17
g5
I1139
sg6
I36
sg7
I6
sg8
I17
sg9
I3
sg10
I0
sg11
I560
sssS'Wahono.csv'
p18
(dp19
g3
(dp20
g5
I1743
sg6
I55
sg7
I4
sg8
I9
sg9
I3
sg10
I2
sg11
I1190
ssg12
(dp21
g5
I536
sg6
I41
sg7
I4
sg8
I8
sg9
I17
sg10
I2
sg11
I310
ssg14
(dp22
g5
I1620
sg6
I55
sg7
I6
sg8
I0
sg9
I1
sg10
I0
sg11
I1620
ssg16
(dp23
g5
I2905
sg6
I53
sg7
I6
sg8
I24
sg9
I3
sg10
I0
sg11
I1440
sssS'Hall.csv'
p24
(dp25
g3
(dp26
g5
I647
sg6
I95
sg7
I5
sg8
I15
sg9
I4
sg10
I2
sg11
I440
ssg12
(dp27
g5
I575
sg6
I92
sg7
I9
sg8
I12
sg9
I3
sg10
I1
sg11
I410
ssg14
(dp28
g5
I590
sg6
I80
sg7
I22
sg8
I0
sg9
I2
sg10
I2
sg11
I590
ssg16
(dp29
g5
I1426
sg6
I89
sg7
I13
sg8
I37
sg9
I2
sg10
I0
sg11
I690
sssS'Danijel.csv'
p30
(dp31
g3
(dp32
g5
I1146
sg6
I43
sg7
I2
sg8
I5
sg9
I3
sg10
I3
sg11
I660
ssg12
(dp33
g5
I656
sg6
I34
sg7
I8
sg8
I2
sg9
I6
sg10
I0
sg11
I530
ssg14
(dp34
g5
I900
sg6
I37
sg7
I9
sg8
I0
sg9
I2
sg10
I1
sg11
I900
ssg16
(dp35
g5
I1544
sg6
I41
sg7
I4
sg8
I24
sg9
I3
sg10
I0
sg11
I760
sss.(dp0
S'K_all3.csv'
p1
(dp2
S'machine'
p3
(dp4
S'count'
p5
I627
sS'truepos'
p6
I34
sS'falseneg'
p7
I1
sS'correction'
p8
I5
sS'unknownyes'
p9
I10
sS'falsepos'
p10
I5
sS'unique'
p11
I400
ssS'knee'
p12
(dp13
g5
I92
sg6
I12
sg7
I2
sg8
I2
sg9
I31
sg10
I0
sg11
I70
ssS'none'
p14
(dp15
g5
I460
sg6
I33
sg7
I7
sg8
I0
sg9
I5
sg10
I2
sg11
I460
ssS'three'
p16
(dp17
g5
I932
sg6
I37
sg7
I3
sg8
I10
sg9
I5
sg10
I0
sg11
I460
sssS'Wahono.csv'
p18
(dp19
g3
(dp20
g5
I2108
sg6
I58
sg7
I2
sg8
I3
sg9
I2
sg10
I2
sg11
I1380
ssg12
(dp21
g5
I735
sg6
I46
sg7
I7
sg8
I5
sg9
I9
sg10
I2
sg11
I570
ssg14
(dp22
g5
I1670
sg6
I54
sg7
I7
sg8
I0
sg9
I1
sg10
I1
sg11
I1670
ssg16
(dp23
g5
I2962
sg6
I49
sg7
I10
sg8
I19
sg9
I3
sg10
I0
sg11
I1470
sssS'Hall.csv'
p24
(dp25
g3
(dp26
g5
I717
sg6
I96
sg7
I6
sg8
I12
sg9
I2
sg10
I0
sg11
I510
ssg12
(dp27
g5
I726
sg6
I92
sg7
I10
sg8
I17
sg9
I2
sg10
I1
sg11
I570
ssg14
(dp28
g5
I690
sg6
I83
sg7
I19
sg8
I0
sg9
I2
sg10
I3
sg11
I690
ssg16
(dp29
g5
I1150
sg6
I90
sg7
I12
sg8
I26
sg9
I2
sg10
I0
sg11
I560
sssS'Danijel.csv'
p30
(dp31
g3
(dp32
g5
I1268
sg6
I43
sg7
I2
sg8
I7
sg9
I3
sg10
I1
sg11
I770
ssg12
(dp33
g5
I335
sg6
I31
sg7
I1
sg8
I6
sg9
I16
sg10
I0
sg11
I200
ssg14
(dp34
g5
I1140
sg6
I35
sg7
I11
sg8
I0
sg9
I2
sg10
I1
sg11
I1140
ssg16
(dp35
g5
I1644
sg6
I43
sg7
I3
sg8
I22
sg9
I2
sg10
I0
sg11
I810
sss.(dp0
S'K_all3.csv'
p1
(dp2
S'machine'
p3
(dp4
S'count'
p5
I580
sS'truepos'
p6
I30
sS'falseneg'
p7
I4
sS'correction'
p8
I5
sS'unknownyes'
p9
I11
sS'falsepos'
p10
I3
sS'unique'
p11
I380
ssS'knee'
p12
(dp13
g5
I1288
sg6
I44
sg7
I0
sg8
I9
sg9
I1
sg10
I7
sg11
I890
ssS'none'
p14
(dp15
g5
I500
sg6
I28
sg7
I10
sg8
I0
sg9
I7
sg10
I3
sg11
I500
ssS'three'
p16
(dp17
g5
I1006
sg6
I36
sg7
I5
sg8
I24
sg9
I4
sg10
I0
sg11
I490
sssS'Wahono.csv'
p18
(dp19
g3
(dp20
g5
I1888
sg6
I53
sg7
I6
sg8
I13
sg9
I3
sg10
I4
sg11
I1290
ssg12
(dp21
g5
I925
sg6
I48
sg7
I4
sg8
I9
sg9
I10
sg10
I0
sg11
I700
ssg14
(dp22
g5
I1490
sg6
I56
sg7
I4
sg8
I0
sg9
I2
sg10
I6
sg11
I1490
ssg16
(dp23
g5
I2994
sg6
I49
sg7
I12
sg8
I30
sg9
I1
sg10
I0
sg11
I1480
sssS'Hall.csv'
p24
(dp25
g3
(dp26
g5
I713
sg6
I96
sg7
I6
sg8
I15
sg9
I2
sg10
I2
sg11
I510
ssg12
(dp27
g5
I849
sg6
I97
sg7
I5
sg8
I16
sg9
I2
sg10
I2
sg11
I610
ssg14
(dp28
g5
I750
sg6
I79
sg7
I23
sg8
I0
sg9
I2
sg10
I1
sg11
I750
ssg16
(dp29
g5
I1251
sg6
I89
sg7
I13
sg8
I27
sg9
I2
sg10
I0
sg11
I610
sssS'Danijel.csv'
p30
(dp31
g3
(dp32
g5
I1296
sg6
I46
sg7
I0
sg8
I10
sg9
I2
sg10
I1
sg11
I770
ssg12
(dp33
g5
I777
sg6
I39
sg7
I4
sg8
I6
sg9
I5
sg10
I2
sg11
I580
ssg14
(dp34
g5
I870
sg6
I37
sg7
I8
sg8
I0
sg9
I3
sg10
I2
sg11
I870
ssg16
(dp35
g5
I1754
sg6
I41
sg7
I4
sg8
I13
sg9
I3
sg10
I0
sg11
I870
sss.(dp0
S'K_all3.csv'
p1
(dp2
S'machine'
p3
(dp4
S'count'
p5
I606
sS'truepos'
p6
I34
sS'falseneg'
p7
I4
sS'correction'
p8
I7
sS'unknownyes'
p9
I7
sS'falsepos'
p10
I4
sS'unique'
p11
I380
ssS'knee'
p12
(dp13
g5
I871
sg6
I35
sg7
I6
sg8
I10
sg9
I4
sg10
I0
sg11
I660
ssS'none'
p14
(dp15
g5
I450
sg6
I33
sg7
I7
sg8
I0
sg9
I5
sg10
I1
sg11
I450
ssS'three'
p16
(dp17
g5
I938
sg6
I38
sg7
I3
sg8
I17
sg9
I4
sg10
I0
sg11
I460
sssS'Wahono.csv'
p18
(dp19
g3
(dp20
g5
I1869
sg6
I58
sg7
I1
sg8
I5
sg9
I3
sg10
I3
sg11
I1270
ssg12
(dp21
g5
I35
sg6
I6
sg7
I1
sg8
I1
sg9
I55
sg10
I0
sg11
I30
ssg14
(dp22
g5
I1490
sg6
I48
sg7
I12
sg8
I0
sg9
I2
sg10
I0
sg11
I1490
ssg16
(dp23
g5
I2955
sg6
I54
sg7
I6
sg8
I13
sg9
I2
sg10
I0
sg11
I1470
sssS'Hall.csv'
p24
(dp25
g3
(dp26
g5
I687
sg6
I98
sg7
I4
sg8
I22
sg9
I2
sg10
I1
sg11
I470
ssg12
(dp27
g5
I642
sg6
I89
sg7
I13
sg8
I18
sg9
I2
sg10
I2
sg11
I500
ssg14
(dp28
g5
I610
sg6
I84
sg7
I18
sg8
I0
sg9
I2
sg10
I2
sg11
I610
ssg16
(dp29
g5
I1037
sg6
I94
sg7
I8
sg8
I35
sg9
I2
sg10
I0
sg11
I500
sssS'Danijel.csv'
p30
(dp31
g3
(dp32
g5
I1245
sg6
I45
sg7
I1
sg8
I10
sg9
I2
sg10
I3
sg11
I780
ssg12
(dp33
g5
I84
sg6
I6
sg7
I3
sg8
I0
sg9
I39
sg10
I0
sg11
I60
ssg14
(dp34
g5
I1260
sg6
I34
sg7
I13
sg8
I0
sg9
I1
sg10
I4
sg11
I1260
ssg16
(dp35
g5
I1957
sg6
I37
sg7
I8
sg8
I14
sg9
I3
sg10
I0
sg11
I970
sss.(dp0
S'K_all3.csv'
p1
(dp2
S'machine'
p3
(dp4
S'count'
p5
I623
sS'truepos'
p6
I34
sS'falseneg'
p7
I2
sS'correction'
p8
I9
sS'unknownyes'
p9
I9
sS'falsepos'
p10
I4
sS'unique'
p11
I390
ssS'knee'
p12
(dp13
g5
I475
sg6
I32
sg7
I2
sg8
I6
sg9
I11
sg10
I7
sg11
I310
ssS'none'
p14
(dp15
g5
I570
sg6
I35
sg7
I7
sg8
I0
sg9
I3
sg10
I3
sg11
I570
ssS'three'
p16
(dp17
g5
I1038
sg6
I38
sg7
I2
sg8
I17
sg9
I5
sg10
I0
sg11
I510
sssS'Wahono.csv'
p18
(dp19
g3
(dp20
g5
I2156
sg6
I58
sg7
I4
sg8
I7
sg9
I0
sg10
I4
sg11
I1370
ssg12
(dp21
g5
I24
sg6
I6
sg7
I1
sg8
I0
sg9
I55
sg10
I0
sg11
I20
ssg14
(dp22
g5
I1750
sg6
I48
sg7
I13
sg8
I0
sg9
I1
sg10
I7
sg11
I1750
ssg16
(dp23
g5
I2554
sg6
I53
sg7
I6
sg8
I10
sg9
I3
sg10
I0
sg11
I1270
sssS'Hall.csv'
p24
(dp25
g3
(dp26
g5
I641
sg6
I101
sg7
I1
sg8
I18
sg9
I2
sg10
I0
sg11
I470
ssg12
(dp27
g5
I624
sg6
I98
sg7
I3
sg8
I17
sg9
I3
sg10
I1
sg11
I450
ssg14
(dp28
g5
I720
sg6
I82
sg7
I20
sg8
I0
sg9
I2
sg10
I0
sg11
I720
ssg16
(dp29
g5
I1258
sg6
I89
sg7
I13
sg8
I34
sg9
I2
sg10
I0
sg11
I610
sssS'Danijel.csv'
p30
(dp31
g3
(dp32
g5
I1605
sg6
I41
sg7
I5
sg8
I9
sg9
I2
sg10
I4
sg11
I1020
ssg12
(dp33
g5
I47
sg6
I5
sg7
I1
sg8
I0
sg9
I42
sg10
I0
sg11
I40
ssg14
(dp34
g5
I880
sg6
I36
sg7
I9
sg8
I0
sg9
I3
sg10
I3
sg11
I880
ssg16
(dp35
g5
I1756
sg6
I38
sg7
I7
sg8
I14
sg9
I3
sg10
I0
sg11
I870
sss.(dp0
S'K_all3.csv'
p1
(dp2
S'machine'
p3
(dp4
S'count'
p5
I679
sS'truepos'
p6
I36
sS'falseneg'
p7
I2
sS'correction'
p8
I1
sS'unknownyes'
p9
I7
sS'falsepos'
p10
I3
sS'unique'
p11
I420
ssS'knee'
p12
(dp13
g5
I518
sg6
I31
sg7
I3
sg8
I3
sg9
I11
sg10
I1
sg11
I380
ssS'none'
p14
(dp15
g5
I540
sg6
I30
sg7
I9
sg8
I0
sg9
I6
sg10
I1
sg11
I540
ssS'three'
p16
(dp17
g5
I915
sg6
I33
sg7
I6
sg8
I14
sg9
I6
sg10
I1
sg11
I450
sssS'Wahono.csv'
p18
(dp19
g3
(dp20
g5
I1836
sg6
I57
sg7
I3
sg8
I6
sg9
I2
sg10
I1
sg11
I1230
ssg12
(dp21
g5
I727
sg6
I45
sg7
I4
sg8
I6
sg9
I13
sg10
I0
sg11
I510
ssg14
(dp22
g5
I1830
sg6
I48
sg7
I12
sg8
I0
sg9
I2
sg10
I4
sg11
I1830
ssg16
(dp23
g5
I2522
sg6
I56
sg7
I3
sg8
I22
sg9
I3
sg10
I0
sg11
I1250
sssS'Hall.csv'
p24
(dp25
g3
(dp26
g5
I699
sg6
I98
sg7
I4
sg8
I16
sg9
I2
sg10
I1
sg11
I470
ssg12
(dp27
g5
I472
sg6
I91
sg7
I8
sg8
I12
sg9
I5
sg10
I2
sg11
I320
ssg14
(dp28
g5
I550
sg6
I87
sg7
I14
sg8
I0
sg9
I3
sg10
I1
sg11
I550
ssg16
(dp29
g5
I1051
sg6
I88
sg7
I14
sg8
I29
sg9
I2
sg10
I0
sg11
I510
sssS'Danijel.csv'
p30
(dp31
g3
(dp32
g5
I1337
sg6
I44
sg7
I1
sg8
I5
sg9
I3
sg10
I3
sg11
I810
ssg12
(dp33
g5
I908
sg6
I41
sg7
I3
sg8
I8
sg9
I4
sg10
I1
sg11
I590
ssg14
(dp34
g5
I1140
sg6
I32
sg7
I14
sg8
I0
sg9
I2
sg10
I1
sg11
I1140
ssg16
(dp35
g5
I1718
sg6
I39
sg7
I6
sg8
I16
sg9
I3
sg10
I0
sg11
I850
sss.(dp0
S'K_all3.csv'
p1
(dp2
S'machine'
p3
(dp4
S'count'
p5
I644
sS'truepos'
p6
I36
sS'falseneg'
p7
I3
sS'correction'
p8
I6
sS'unknownyes'
p9
I6
sS'falsepos'
p10
I2
sS'unique'
p11
I430
ssS'knee'
p12
(dp13
g5
I1108
sg6
I38
sg7
I4
sg8
I10
sg9
I3
sg10
I1
sg11
I920
ssS'none'
p14
(dp15
g5
I490
sg6
I29
sg7
I11
sg8
I0
sg9
I5
sg10
I0
sg11
I490
ssS'three'
p16
(dp17
g5
I982
sg6
I34
sg7
I6
sg8
I19
sg9
I5
sg10
I1
sg11
I480
sssS'Wahono.csv'
p18
(dp19
g3
(dp20
g5
I1757
sg6
I57
sg7
I2
sg8
I6
sg9
I3
sg10
I3
sg11
I1110
ssg12
(dp21
g5
I1625
sg6
I56
sg7
I3
sg8
I13
sg9
I3
sg10
I3
sg11
I1120
ssg14
(dp22
g5
I1360
sg6
I50
sg7
I11
sg8
I0
sg9
I1
sg10
I1
sg11
I1360
ssg16
(dp23
g5
I2667
sg6
I52
sg7
I7
sg8
I24
sg9
I3
sg10
I0
sg11
I1320
sssS'Hall.csv'
p24
(dp25
g3
(dp26
g5
I857
sg6
I95
sg7
I7
sg8
I11
sg9
I2
sg10
I3
sg11
I620
ssg12
(dp27
g5
I748
sg6
I96
sg7
I6
sg8
I10
sg9
I2
sg10
I2
sg11
I520
ssg14
(dp28
g5
I610
sg6
I88
sg7
I14
sg8
I0
sg9
I2
sg10
I0
sg11
I610
ssg16
(dp29
g5
I1392
sg6
I94
sg7
I8
sg8
I30
sg9
I2
sg10
I0
sg11
I680
sssS'Danijel.csv'
p30
(dp31
g3
(dp32
g5
I1333
sg6
I42
sg7
I4
sg8
I6
sg9
I2
sg10
I5
sg11
I850
ssg12
(dp33
g5
I700
sg6
I37
sg7
I5
sg8
I2
sg9
I6
sg10
I3
sg11
I550
ssg14
(dp34
g5
I940
sg6
I37
sg7
I9
sg8
I0
sg9
I2
sg10
I1
sg11
I940
ssg16
(dp35
g5
I1701
sg6
I40
sg7
I6
sg8
I20
sg9
I2
sg10
I0
sg11
I840
sss.(dp0
S'K_all3.csv'
p1
(dp2
S'machine'
p3
(dp4
S'count'
p5
I642
sS'truepos'
p6
I37
sS'falseneg'
p7
I2
sS'correction'
p8
I5
sS'unknownyes'
p9
I6
sS'falsepos'
p10
I2
sS'unique'
p11
I430
ssS'knee'
p12
(dp13
g5
I174
sg6
I18
sg7
I2
sg8
I2
sg9
I25
sg10
I0
sg11
I110
ssS'none'
p14
(dp15
g5
I490
sg6
I26
sg7
I11
sg8
I0
sg9
I8
sg10
I3
sg11
I490
ssS'three'
p16
(dp17
g5
I1074
sg6
I32
sg7
I8
sg8
I13
sg9
I5
sg10
I0
sg11
I530
sssS'Wahono.csv'
p18
(dp19
g3
(dp20
g5
I1764
sg6
I56
sg7
I3
sg8
I12
sg9
I3
sg10
I5
sg11
I1130
ssg12
(dp21
g5
I906
sg6
I48
sg7
I2
sg8
I13
sg9
I12
sg10
I2
sg11
I670
ssg14
(dp22
g5
I1370
sg6
I51
sg7
I9
sg8
I0
sg9
I2
sg10
I3
sg11
I1370
ssg16
(dp23
g5
I2786
sg6
I55
sg7
I5
sg8
I24
sg9
I2
sg10
I0
sg11
I1380
sssS'Hall.csv'
p24
(dp25
g3
(dp26
g5
I683
sg6
I98
sg7
I4
sg8
I21
sg9
I2
sg10
I1
sg11
I490
ssg12
(dp27
g5
I789
sg6
I94
sg7
I8
sg8
I18
sg9
I2
sg10
I2
sg11
I550
ssg14
(dp28
g5
I790
sg6
I80
sg7
I23
sg8
I0
sg9
I1
sg10
I1
sg11
I790
ssg16
(dp29
g5
I1317
sg6
I89
sg7
I13
sg8
I34
sg9
I2
sg10
I0
sg11
I640
sssS'Danijel.csv'
p30
(dp31
g3
(dp32
g5
I1272
sg6
I45
sg7
I0
sg8
I6
sg9
I3
sg10
I0
sg11
I790
ssg12
(dp33
g5
I870
sg6
I41
sg7
I4
sg8
I5
sg9
I3
sg10
I0
sg11
I680
ssg14
(dp34
g5
I1070
sg6
I36
sg7
I10
sg8
I0
sg9
I2
sg10
I2
sg11
I1070
ssg16
(dp35
g5
I1581
sg6
I41
sg7
I5
sg8
I20
sg9
I2
sg10
I0
sg11
I780
sss.(dp0
S'K_all3.csv'
p1
(dp2
S'machine'
p3
(dp4
S'count'
p5
I621
sS'truepos'
p6
I33
sS'falseneg'
p7
I2
sS'correction'
p8
I4
sS'unknownyes'
p9
I10
sS'falsepos'
p10
I6
sS'unique'
p11
I380
ssS'knee'
p12
(dp13
g5
I399
sg6
I25
sg7
I3
sg8
I5
sg9
I17
sg10
I1
sg11
I240
ssS'none'
p14
(dp15
g5
I370
sg6
I34
sg7
I4
sg8
I0
sg9
I7
sg10
I4
sg11
I370
ssS'three'
p16
(dp17
g5
I894
sg6
I34
sg7
I4
sg8
I13
sg9
I7
sg10
I0
sg11
I440
sssS'Wahono.csv'
p18
(dp19
g3
(dp20
g5
I1687
sg6
I58
sg7
I1
sg8
I7
sg9
I3
sg10
I1
sg11
I1130
ssg12
(dp21
g5
I1311
sg6
I54
sg7
I4
sg8
I7
sg9
I4
sg10
I2
sg11
I930
ssg14
(dp22
g5
I1340
sg6
I48
sg7
I12
sg8
I0
sg9
I2
sg10
I1
sg11
I1340
ssg16
(dp23
g5
I2799
sg6
I54
sg7
I5
sg8
I17
sg9
I3
sg10
I0
sg11
I1390
sssS'Hall.csv'
p24
(dp25
g3
(dp26
g5
I747
sg6
I100
sg7
I2
sg8
I18
sg9
I2
sg10
I2
sg11
I540
ssg12
(dp27
g5
I571
sg6
I95
sg7
I6
sg8
I11
sg9
I3
sg10
I1
sg11
I410
ssg14
(dp28
g5
I750
sg6
I83
sg7
I19
sg8
I0
sg9
I2
sg10
I2
sg11
I750
ssg16
(dp29
g5
I887
sg6
I95
sg7
I7
sg8
I25
sg9
I2
sg10
I0
sg11
I430
sssS'Danijel.csv'
p30
(dp31
g3
(dp32
g5
I1218
sg6
I41
sg7
I4
sg8
I8
sg9
I3
sg10
I2
sg11
I750
ssg12
(dp33
g5
I862
sg6
I38
sg7
I5
sg8
I5
sg9
I5
sg10
I2
sg11
I600
ssg14
(dp34
g5
I1360
sg6
I34
sg7
I12
sg8
I0
sg9
I2
sg10
I3
sg11
I1360
ssg16
(dp35
g5
I1877
sg6
I38
sg7
I8
sg8
I17
sg9
I2
sg10
I0
sg11
I930
sss.(dp0
S'K_all3.csv'
p1
(dp2
S'machine'
p3
(dp4
S'count'
p5
I625
sS'truepos'
p6
I35
sS'falseneg'
p7
I2
sS'correction'
p8
I2
sS'unknownyes'
p9
I8
sS'falsepos'
p10
I3
sS'unique'
p11
I390
ssS'knee'
p12
(dp13
g5
I2082
sg6
I41
sg7
I4
sg8
I14
sg9
I0
sg10
I7
sg11
I1530
ssS'none'
p14
(dp15
g5
I550
sg6
I34
sg7
I7
sg8
I0
sg9
I4
sg10
I1
sg11
I550
ssS'three'
p16
(dp17
g5
I938
sg6
I38
sg7
I3
sg8
I17
sg9
I4
sg10
I0
sg11
I460
sssS'Wahono.csv'
p18
(dp19
g3
(dp20
g5
I2277
sg6
I56
sg7
I4
sg8
I1
sg9
I2
sg10
I6
sg11
I1430
ssg12
(dp21
g5
I24
sg6
I6
sg7
I0
sg8
I0
sg9
I56
sg10
I0
sg11
I20
ssg14
(dp22
g5
I1420
sg6
I50
sg7
I10
sg8
I0
sg9
I2
sg10
I3
sg11
I1420
ssg16
(dp23
g5
I2807
sg6
I48
sg7
I12
sg8
I24
sg9
I2
sg10
I0
sg11
I1390
sssS'Hall.csv'
p24
(dp25
g3
(dp26
g5
I724
sg6
I98
sg7
I4
sg8
I13
sg9
I2
sg10
I0
sg11
I520
ssg12
(dp27
g5
I613
sg6
I91
sg7
I10
sg8
I18
sg9
I3
sg10
I0
sg11
I440
ssg14
(dp28
g5
I700
sg6
I89
sg7
I14
sg8
I0
sg9
I1
sg10
I1
sg11
I700
ssg16
(dp29
g5
I1563
sg6
I85
sg7
I18
sg8
I31
sg9
I1
sg10
I0
sg11
I760
sssS'Danijel.csv'
p30
(dp31
g3
(dp32
g5
I1223
sg6
I45
sg7
I0
sg8
I4
sg9
I3
sg10
I1
sg11
I780
ssg12
(dp33
g5
I634
sg6
I37
sg7
I6
sg8
I1
sg9
I5
sg10
I0
sg11
I470
ssg14
(dp34
g5
I1020
sg6
I40
sg7
I6
sg8
I0
sg9
I2
sg10
I1
sg11
I1020
ssg16
(dp35
g5
I1619
sg6
I39
sg7
I7
sg8
I15
sg9
I2
sg10
I0
sg11
I800
sss.(dp0
S'K_all3.csv'
p1
(dp2
S'machine'
p3
(dp4
S'count'
p5
I702
sS'truepos'
p6
I35
sS'falseneg'
p7
I3
sS'correction'
p8
I7
sS'unknownyes'
p9
I7
sS'falsepos'
p10
I2
sS'unique'
p11
I460
ssS'knee'
p12
(dp13
g5
I459
sg6
I27
sg7
I10
sg8
I0
sg9
I8
sg10
I1
sg11
I380
ssS'none'
p14
(dp15
g5
I560
sg6
I33
sg7
I8
sg8
I0
sg9
I4
sg10
I2
sg11
I560
ssS'three'
p16
(dp17
g5
I1036
sg6
I36
sg7
I4
sg8
I14
sg9
I5
sg10
I0
sg11
I510
sssS'Wahono.csv'
p18
(dp19
g3
(dp20
g5
I1589
sg6
I58
sg7
I2
sg8
I10
sg9
I2
sg10
I4
sg11
I1020
ssg12
(dp21
g5
I144
sg6
I15
sg7
I5
sg8
I2
sg9
I42
sg10
I0
sg11
I120
ssg14
(dp22
g5
I1110
sg6
I48
sg7
I11
sg8
I0
sg9
I3
sg10
I2
sg11
I1110
ssg16
(dp23
g5
I2982
sg6
I55
sg7
I4
sg8
I20
sg9
I3
sg10
I0
sg11
I1480
sssS'Hall.csv'
p24
(dp25
g3
(dp26
g5
I597
sg6
I93
sg7
I8
sg8
I11
sg9
I3
sg10
I2
sg11
I420
ssg12
(dp27
g5
I795
sg6
I93
sg7
I9
sg8
I23
sg9
I2
sg10
I1
sg11
I590
ssg14
(dp28
g5
I720
sg6
I76
sg7
I26
sg8
I0
sg9
I2
sg10
I2
sg11
I720
ssg16
(dp29
g5
I1328
sg6
I89
sg7
I13
sg8
I23
sg9
I2
sg10
I0
sg11
I650
sssS'Danijel.csv'
p30
(dp31
g3
(dp32
g5
I1687
sg6
I40
sg7
I4
sg8
I3
sg9
I4
sg10
I7
sg11
I1070
ssg12
(dp33
g5
I668
sg6
I43
sg7
I0
sg8
I9
sg9
I5
sg10
I0
sg11
I420
ssg14
(dp34
g5
I1320
sg6
I37
sg7
I10
sg8
I0
sg9
I1
sg10
I0
sg11
I1320
ssg16
(dp35
g5
I1644
sg6
I42
sg7
I4
sg8
I22
sg9
I2
sg10
I0
sg11
I810
sss.(dp0
S'K_all3.csv'
p1
(dp2
S'machine'
p3
(dp4
S'count'
p5
I655
sS'truepos'
p6
I35
sS'falseneg'
p7
I2
sS'correction'
p8
I5
sS'unknownyes'
p9
I8
sS'falsepos'
p10
I4
sS'unique'
p11
I410
ssS'knee'
p12
(dp13
g5
I1518
sg6
I42
sg7
I1
sg8
I8
sg9
I2
sg10
I1
sg11
I1150
ssS'none'
p14
(dp15
g5
I540
sg6
I31
sg7
I8
sg8
I0
sg9
I6
sg10
I1
sg11
I540
ssS'three'
p16
(dp17
g5
I910
sg6
I32
sg7
I7
sg8
I7
sg9
I6
sg10
I0
sg11
I450
sssS'Wahono.csv'
p18
(dp19
g3
(dp20
g5
I2000
sg6
I54
sg7
I6
sg8
I7
sg9
I2
sg10
I3
sg11
I1380
ssg12
(dp21
g5
I1085
sg6
I52
sg7
I6
sg8
I10
sg9
I4
sg10
I0
sg11
I890
ssg14
(dp22
g5
I1420
sg6
I50
sg7
I10
sg8
I0
sg9
I2
sg10
I1
sg11
I1420
ssg16
(dp23
g5
I2686
sg6
I50
sg7
I9
sg8
I22
sg9
I3
sg10
I0
sg11
I1330
sssS'Hall.csv'
p24
(dp25
g3
(dp26
g5
I646
sg6
I98
sg7
I4
sg8
I15
sg9
I2
sg10
I1
sg11
I450
ssg12
(dp27
g5
I842
sg6
I96
sg7
I6
sg8
I22
sg9
I2
sg10
I1
sg11
I580
ssg14
(dp28
g5
I610
sg6
I77
sg7
I25
sg8
I0
sg9
I2
sg10
I1
sg11
I610
ssg16
(dp29
g5
I1128
sg6
I92
sg7
I10
sg8
I28
sg9
I2
sg10
I0
sg11
I550
sssS'Danijel.csv'
p30
(dp31
g3
(dp32
g5
I1242
sg6
I45
sg7
I0
sg8
I8
sg9
I3
sg10
I1
sg11
I720
ssg12
(dp33
g5
I545
sg6
I30
sg7
I1
sg8
I5
sg9
I17
sg10
I2
sg11
I340
ssg14
(dp34
g5
I990
sg6
I38
sg7
I8
sg8
I0
sg9
I2
sg10
I2
sg11
I990
ssg16
(dp35
g5
I1498
sg6
I42
sg7
I4
sg8
I18
sg9
I2
sg10
I0
sg11
I740
sss.(dp0
S'K_all3.csv'
p1
(dp2
S'machine'
p3
(dp4
S'count'
p5
I617
sS'truepos'
p6
I35
sS'falseneg'
p7
I2
sS'correction'
p8
I1
sS'unknownyes'
p9
I8
sS'falsepos'
p10
I3
sS'unique'
p11
I400
ssS'knee'
p12
(dp13
g5
I2039
sg6
I44
sg7
I1
sg8
I11
sg9
I0
sg10
I9
sg11
I1330
ssS'none'
p14
(dp15
g5
I450
sg6
I32
sg7
I8
sg8
I0
sg9
I5
sg10
I1
sg11
I450
ssS'three'
p16
(dp17
g5
I973
sg6
I36
sg7
I4
sg8
I13
sg9
I5
sg10
I0
sg11
I480
sssS'Wahono.csv'
p18
(dp19
g3
(dp20
g5
I1911
sg6
I58
sg7
I2
sg8
I8
sg9
I2
sg10
I5
sg11
I1280
ssg12
(dp21
g5
I1396
sg6
I53
sg7
I6
sg8
I13
sg9
I3
sg10
I0
sg11
I1070
ssg14
(dp22
g5
I1410
sg6
I52
sg7
I8
sg8
I0
sg9
I2
sg10
I5
sg11
I1410
ssg16
(dp23
g5
I2988
sg6
I48
sg7
I11
sg8
I24
sg9
I3
sg10
I0
sg11
I1480
sssS'Hall.csv'
p24
(dp25
g3
(dp26
g5
I623
sg6
I96
sg7
I5
sg8
I13
sg9
I3
sg10
I0
sg11
I430
ssg12
(dp27
g5
I745
sg6
I96
sg7
I6
sg8
I15
sg9
I2
sg10
I0
sg11
I550
ssg14
(dp28
g5
I540
sg6
I87
sg7
I15
sg8
I0
sg9
I2
sg10
I0
sg11
I540
ssg16
(dp29
g5
I1049
sg6
I85
sg7
I17
sg8
I24
sg9
I2
sg10
I0
sg11
I510
sssS'Danijel.csv'
p30
(dp31
g3
(dp32
g5
I1214
sg6
I44
sg7
I1
sg8
I5
sg9
I3
sg10
I1
sg11
I770
ssg12
(dp33
g5
I1097
sg6
I42
sg7
I2
sg8
I8
sg9
I4
sg10
I0
sg11
I650
ssg14
(dp34
g5
I1000
sg6
I36
sg7
I10
sg8
I0
sg9
I2
sg10
I2
sg11
I1000
ssg16
(dp35
g5
I1839
sg6
I40
sg7
I6
sg8
I17
sg9
I2
sg10
I0
sg11
I910
sss.(dp0
S'K_all3.csv'
p1
(dp2
S'machine'
p3
(dp4
S'count'
p5
I635
sS'truepos'
p6
I37
sS'falseneg'
p7
I1
sS'correction'
p8
I3
sS'unknownyes'
p9
I7
sS'falsepos'
p10
I1
sS'unique'
p11
I430
ssS'knee'
p12
(dp13
g5
I1731
sg6
I39
sg7
I5
sg8
I14
sg9
I1
sg10
I1
sg11
I1450
ssS'none'
p14
(dp15
g5
I530
sg6
I30
sg7
I11
sg8
I0
sg9
I4
sg10
I2
sg11
I530
ssS'three'
p16
(dp17
g5
I975
sg6
I32
sg7
I7
sg8
I10
sg9
I6
sg10
I0
sg11
I480
sssS'Wahono.csv'
p18
(dp19
g3
(dp20
g5
I2062
sg6
I59
sg7
I0
sg8
I11
sg9
I3
sg10
I5
sg11
I1370
ssg12
(dp21
g5
I413
sg6
I36
sg7
I4
sg8
I7
sg9
I22
sg10
I0
sg11
I260
ssg14
(dp22
g5
I1720
sg6
I51
sg7
I8
sg8
I0
sg9
I3
sg10
I3
sg11
I1720
ssg16
(dp23
g5
I2664
sg6
I57
sg7
I4
sg8
I22
sg9
I1
sg10
I0
sg11
I1320
sssS'Hall.csv'
p24
(dp25
g3
(dp26
g5
I831
sg6
I94
sg7
I8
sg8
I15
sg9
I2
sg10
I0
sg11
I590
ssg12
(dp27
g5
I734
sg6
I98
sg7
I4
sg8
I18
sg9
I2
sg10
I3
sg11
I530
ssg14
(dp28
g5
I550
sg6
I83
sg7
I19
sg8
I0
sg9
I2
sg10
I0
sg11
I550
ssg16
(dp29
g5
I1265
sg6
I92
sg7
I10
sg8
I23
sg9
I2
sg10
I0
sg11
I620
sssS'Danijel.csv'
p30
(dp31
g3
(dp32
g5
I1333
sg6
I42
sg7
I3
sg8
I5
sg9
I3
sg10
I2
sg11
I870
ssg12
(dp33
g5
I319
sg6
I27
sg7
I1
sg8
I2
sg9
I20
sg10
I0
sg11
I220
ssg14
(dp34
g5
I910
sg6
I37
sg7
I8
sg8
I0
sg9
I3
sg10
I1
sg11
I910
ssg16
(dp35
g5
I1498
sg6
I41
sg7
I5
sg8
I16
sg9
I2
sg10
I0
sg11
I740
sss.(dp0
S'K_all3.csv'
p1
(dp2
S'machine'
p3
(dp4
S'count'
p5
I711
sS'truepos'
p6
I37
sS'falseneg'
p7
I3
sS'correction'
p8
I5
sS'unknownyes'
p9
I5
sS'falsepos'
p10
I1
sS'unique'
p11
I460
ssS'knee'
p12
(dp13
g5
I2128
sg6
I44
sg7
I1
sg8
I14
sg9
I0
sg10
I12
sg11
I1560
ssS'none'
p14
(dp15
g5
I590
sg6
I34
sg7
I8
sg8
I0
sg9
I3
sg10
I3
sg11
I590
ssS'three'
p16
(dp17
g5
I792
sg6
I27
sg7
I6
sg8
I12
sg9
I12
sg10
I0
sg11
I390
sssS'Wahono.csv'
p18
(dp19
g3
(dp20
g5
I2363
sg6
I58
sg7
I2
sg8
I13
sg9
I2
sg10
I7
sg11
I1530
ssg12
(dp21
g5
I563
sg6
I43
sg7
I3
sg8
I7
sg9
I16
sg10
I2
sg11
I410
ssg14
(dp22
g5
I1700
sg6
I49
sg7
I12
sg8
I0
sg9
I1
sg10
I6
sg11
I1700
ssg16
(dp23
g5
I2824
sg6
I50
sg7
I9
sg8
I19
sg9
I3
sg10
I0
sg11
I1400
sssS'Hall.csv'
p24
(dp25
g3
(dp26
g5
I613
sg6
I92
sg7
I10
sg8
I10
sg9
I2
sg10
I2
sg11
I450
ssg12
(dp27
g5
I568
sg6
I92
sg7
I8
sg8
I10
sg9
I4
sg10
I0
sg11
I400
ssg14
(dp28
g5
I600
sg6
I83
sg7
I19
sg8
I0
sg9
I2
sg10
I0
sg11
I600
ssg16
(dp29
g5
I1172
sg6
I92
sg7
I10
sg8
I28
sg9
I2
sg10
I0
sg11
I570
sssS'Danijel.csv'
p30
(dp31
g3
(dp32
g5
I1455
sg6
I44
sg7
I2
sg8
I7
sg9
I2
sg10
I2
sg11
I960
ssg12
(dp33
g5
I850
sg6
I40
sg7
I4
sg8
I6
sg9
I4
sg10
I0
sg11
I570
ssg14
(dp34
g5
I890
sg6
I35
sg7
I10
sg8
I0
sg9
I3
sg10
I2
sg11
I890
ssg16
(dp35
g5
I2500
sg6
I36
sg7
I10
sg8
I13
sg9
I2
sg10
I0
sg11
I1240
sss.