(dp0
S'K_all3.csv'
p1
(dp2
S'none'
p3
(dp4
S'count'
p5
I730
sS'truepos'
p6
I23
sS'falseneg'
p7
I15
sS'correction'
p8
I0
sS'unknownyes'
p9
I7
sS'falsepos'
p10
I8
sS'unique'
p11
I730
ssS'three'
p12
(dp13
g5
I1102
sg6
I37
sg7
I3
sg8
I21
sg9
I5
sg10
I0
sg11
I540
ssS'machine'
p14
(dp15
g5
I721
sg6
I30
sg7
I10
sg8
I1
sg9
I5
sg10
I8
sg11
I620
ssS'machine4'
p16
(dp17
g5
I860
sg6
I21
sg7
I18
sg8
I0
sg9
I6
sg10
I14
sg11
I860
ssS'machine3'
p18
(dp19
g5
I920
sg6
I23
sg7
I16
sg8
I0
sg9
I6
sg10
I7
sg11
I920
ssS'machine2'
p20
(dp21
g5
I770
sg6
I25
sg7
I13
sg8
I0
sg9
I7
sg10
I6
sg11
I770
sssS'Wahono.csv'
p22
(dp23
g3
(dp24
g5
I1410
sg6
I33
sg7
I23
sg8
I0
sg9
I6
sg10
I8
sg11
I1410
ssg12
(dp25
g5
I3119
sg6
I48
sg7
I14
sg8
I34
sg9
I0
sg10
I0
sg11
I1540
ssg14
(dp26
g5
I1481
sg6
I55
sg7
I5
sg8
I10
sg9
I2
sg10
I3
sg11
I1040
ssg16
(dp27
g5
I1440
sg6
I44
sg7
I16
sg8
I0
sg9
I2
sg10
I1
sg11
I1440
ssg18
(dp28
g5
I1390
sg6
I45
sg7
I15
sg8
I0
sg9
I2
sg10
I4
sg11
I1390
ssg20
(dp29
g5
I1470
sg6
I35
sg7
I23
sg8
I0
sg9
I4
sg10
I4
sg11
I1470
sssS'Hall.csv'
p30
(dp31
g3
(dp32
g5
I1120
sg6
I70
sg7
I32
sg8
I0
sg9
I4
sg10
I5
sg11
I1120
ssg12
(dp33
g5
I1372
sg6
I73
sg7
I29
sg8
I41
sg9
I4
sg10
I0
sg11
I660
ssg14
(dp34
g5
I672
sg6
I88
sg7
I14
sg8
I22
sg9
I4
sg10
I1
sg11
I490
ssg16
(dp35
g5
I580
sg6
I67
sg7
I34
sg8
I0
sg9
I5
sg10
I0
sg11
I580
ssg18
(dp36
g5
I630
sg6
I74
sg7
I28
sg8
I0
sg9
I4
sg10
I3
sg11
I630
ssg20
(dp37
g5
I710
sg6
I77
sg7
I25
sg8
I0
sg9
I4
sg10
I0
sg11
I710
sssS'Danijel.csv'
p38
(dp39
g3
(dp40
g5
I1590
sg6
I29
sg7
I17
sg8
I0
sg9
I2
sg10
I3
sg11
I1590
ssg12
(dp41
g5
I1883
sg6
I38
sg7
I8
sg8
I21
sg9
I2
sg10
I0
sg11
I930
ssg14
(dp42
g5
I949
sg6
I41
sg7
I4
sg8
I7
sg9
I3
sg10
I0
sg11
I680
ssg16
(dp43
g5
I1180
sg6
I31
sg7
I14
sg8
I0
sg9
I3
sg10
I5
sg11
I1180
ssg18
(dp44
g5
I1100
sg6
I33
sg7
I13
sg8
I0
sg9
I2
sg10
I5
sg11
I1100
ssg20
(dp45
g5
I810
sg6
I36
sg7
I9
sg8
I0
sg9
I3
sg10
I2
sg11
I810
sss.(dp0
S'K_all3.csv'
p1
(dp2
S'none'
p3
(dp4
S'count'
p5
I610
sS'truepos'
p6
I22
sS'falseneg'
p7
I11
sS'correction'
p8
I0
sS'unknownyes'
p9
I12
sS'falsepos'
p10
I8
sS'unique'
p11
I610
ssS'three'
p12
(dp13
g5
I1241
sg6
I33
sg7
I8
sg8
I17
sg9
I4
sg10
I0
sg11
I610
ssS'machine'
p14
(dp15
g5
I721
sg6
I31
sg7
I7
sg8
I3
sg9
I7
sg10
I5
sg11
I620
ssS'machine4'
p16
(dp17
g5
I540
sg6
I25
sg7
I7
sg8
I0
sg9
I13
sg10
I9
sg11
I540
ssS'machine3'
p18
(dp19
g5
I660
sg6
I27
sg7
I12
sg8
I0
sg9
I6
sg10
I9
sg11
I660
ssS'machine2'
p20
(dp21
g5
I930
sg6
I23
sg7
I15
sg8
I0
sg9
I7
sg10
I7
sg11
I930
sssS'Wahono.csv'
p22
(dp23
g3
(dp24
g5
I1530
sg6
I44
sg7
I16
sg8
I0
sg9
I2
sg10
I3
sg11
I1530
ssg12
(dp25
g5
I3009
sg6
I49
sg7
I11
sg8
I26
sg9
I2
sg10
I0
sg11
I1490
ssg14
(dp26
g5
I1775
sg6
I52
sg7
I8
sg8
I14
sg9
I2
sg10
I5
sg11
I1210
ssg16
(dp27
g5
I1690
sg6
I45
sg7
I15
sg8
I0
sg9
I2
sg10
I2
sg11
I1690
ssg18
(dp28
g5
I1440
sg6
I49
sg7
I11
sg8
I0
sg9
I2
sg10
I5
sg11
I1440
ssg20
(dp29
g5
I1500
sg6
I34
sg7
I25
sg8
I0
sg9
I3
sg10
I4
sg11
I1500
sssS'Hall.csv'
p30
(dp31
g3
(dp32
g5
I540
sg6
I74
sg7
I27
sg8
I0
sg9
I5
sg10
I2
sg11
I540
ssg12
(dp33
g5
I1322
sg6
I78
sg7
I24
sg8
I34
sg9
I4
sg10
I0
sg11
I640
ssg14
(dp34
g5
I675
sg6
I91
sg7
I11
sg8
I18
sg9
I4
sg10
I3
sg11
I490
ssg16
(dp35
g5
I760
sg6
I77
sg7
I25
sg8
I0
sg9
I4
sg10
I0
sg11
I760
ssg18
(dp36
g5
I670
sg6
I73
sg7
I29
sg8
I0
sg9
I4
sg10
I0
sg11
I670
ssg20
(dp37
g5
I610
sg6
I68
sg7
I34
sg8
I0
sg9
I4
sg10
I2
sg11
I610
sssS'Danijel.csv'
p38
(dp39
g3
(dp40
g5
I1120
sg6
I32
sg7
I14
sg8
I0
sg9
I2
sg10
I0
sg11
I1120
ssg12
(dp41
g5
I2582
sg6
I35
sg7
I11
sg8
I15
sg9
I2
sg10
I0
sg11
I1280
ssg14
(dp42
g5
I1112
sg6
I40
sg7
I4
sg8
I10
sg9
I4
sg10
I5
sg11
I810
ssg16
(dp43
g5
I1920
sg6
I29
sg7
I18
sg8
I0
sg9
I1
sg10
I4
sg11
I1920
ssg18
(dp44
g5
I1210
sg6
I34
sg7
I12
sg8
I0
sg9
I2
sg10
I2
sg11
I1210
ssg20
(dp45
g5
I790
sg6
I35
sg7
I10
sg8
I0
sg9
I3
sg10
I3
sg11
I790
sss.(dp0
S'K_all3.csv'
p1
(dp2
S'none'
p3
(dp4
S'count'
p5
I780
sS'truepos'
p6
I24
sS'falseneg'
p7
I15
sS'correction'
p8
I0
sS'unknownyes'
p9
I6
sS'falsepos'
p10
I6
sS'unique'
p11
I780
ssS'three'
p12
(dp13
g5
I1202
sg6
I32
sg7
I7
sg8
I18
sg9
I6
sg10
I0
sg11
I590
ssS'machine'
p14
(dp15
g5
I671
sg6
I28
sg7
I7
sg8
I3
sg9
I10
sg10
I5
sg11
I620
ssS'machine4'
p16
(dp17
g5
I1370
sg6
I26
sg7
I17
sg8
I0
sg9
I2
sg10
I4
sg11
I1370
ssS'machine3'
p18
(dp19
g5
I600
sg6
I31
sg7
I9
sg8
I0
sg9
I5
sg10
I5
sg11
I600
ssS'machine2'
p20
(dp21
g5
I650
sg6
I30
sg7
I9
sg8
I0
sg9
I6
sg10
I3
sg11
I650
sssS'Wahono.csv'
p22
(dp23
g3
(dp24
g5
I1460
sg6
I43
sg7
I16
sg8
I0
sg9
I3
sg10
I5
sg11
I1460
ssg12
(dp25
g5
I3157
sg6
I45
sg7
I15
sg8
I32
sg9
I2
sg10
I0
sg11
I1560
ssg14
(dp26
g5
I1856
sg6
I54
sg7
I7
sg8
I13
sg9
I1
sg10
I3
sg11
I1370
ssg16
(dp27
g5
I1290
sg6
I37
sg7
I22
sg8
I0
sg9
I3
sg10
I1
sg11
I1290
ssg18
(dp28
g5
I1800
sg6
I43
sg7
I18
sg8
I0
sg9
I1
sg10
I7
sg11
I1800
ssg20
(dp29
g5
I1670
sg6
I45
sg7
I15
sg8
I0
sg9
I2
sg10
I2
sg11
I1670
sssS'Hall.csv'
p30
(dp31
g3
(dp32
g5
I850
sg6
I76
sg7
I27
sg8
I0
sg9
I3
sg10
I6
sg11
I850
ssg12
(dp33
g5
I1650
sg6
I76
sg7
I26
sg8
I42
sg9
I4
sg10
I0
sg11
I800
ssg14
(dp34
g5
I716
sg6
I93
sg7
I9
sg8
I14
sg9
I4
sg10
I1
sg11
I540
ssg16
(dp35
g5
I870
sg6
I74
sg7
I28
sg8
I0
sg9
I4
sg10
I5
sg11
I870
ssg18
(dp36
g5
I930
sg6
I73
sg7
I29
sg8
I0
sg9
I4
sg10
I2
sg11
I930
ssg20
(dp37
g5
I730
sg6
I78
sg7
I24
sg8
I0
sg9
I4
sg10
I2
sg11
I730
sssS'Danijel.csv'
p38
(dp39
g3
(dp40
g5
I1170
sg6
I31
sg7
I16
sg8
I0
sg9
I1
sg10
I3
sg11
I1170
ssg12
(dp41
g5
I2725
sg6
I36
sg7
I11
sg8
I24
sg9
I1
sg10
I0
sg11
I1350
ssg14
(dp42
g5
I1162
sg6
I40
sg7
I6
sg8
I8
sg9
I2
sg10
I2
sg11
I870
ssg16
(dp43
g5
I1400
sg6
I32
sg7
I14
sg8
I0
sg9
I2
sg10
I3
sg11
I1400
ssg18
(dp44
g5
I770
sg6
I38
sg7
I8
sg8
I0
sg9
I2
sg10
I3
sg11
I770
ssg20
(dp45
g5
I1020
sg6
I33
sg7
I12
sg8
I0
sg9
I3
sg10
I4
sg11
I1020
sss.(dp0
S'K_all3.csv'
p1
(dp2
S'none'
p3
(dp4
S'count'
p5
I630
sS'truepos'
p6
I29
sS'falseneg'
p7
I11
sS'correction'
p8
I0
sS'unknownyes'
p9
I5
sS'falsepos'
p10
I7
sS'unique'
p11
I630
ssS'three'
p12
(dp13
g5
I1644
sg6
I29
sg7
I11
sg8
I19
sg9
I5
sg10
I1
sg11
I810
ssS'machine'
p14
(dp15
g5
I890
sg6
I27
sg7
I11
sg8
I0
sg9
I7
sg10
I3
sg11
I890
ssS'machine4'
p16
(dp17
g5
I560
sg6
I28
sg7
I10
sg8
I0
sg9
I7
sg10
I3
sg11
I560
ssS'machine3'
p18
(dp19
g5
I720
sg6
I29
sg7
I10
sg8
I0
sg9
I6
sg10
I4
sg11
I720
ssS'machine2'
p20
(dp21
g5
I640
sg6
I32
sg7
I9
sg8
I0
sg9
I4
sg10
I3
sg11
I640
sssS'Wahono.csv'
p22
(dp23
g3
(dp24
g5
I1560
sg6
I48
sg7
I12
sg8
I0
sg9
I2
sg10
I5
sg11
I1560
ssg12
(dp25
g5
I2767
sg6
I48
sg7
I11
sg8
I24
sg9
I3
sg10
I0
sg11
I1370
ssg14
(dp26
g5
I1582
sg6
I53
sg7
I5
sg8
I9
sg9
I4
sg10
I4
sg11
I1130
ssg16
(dp27
g5
I1760
sg6
I41
sg7
I20
sg8
I0
sg9
I1
sg10
I6
sg11
I1760
ssg18
(dp28
g5
I1420
sg6
I40
sg7
I21
sg8
I0
sg9
I1
sg10
I7
sg11
I1420
ssg20
(dp29
g5
I1540
sg6
I42
sg7
I17
sg8
I0
sg9
I3
sg10
I2
sg11
I1540
sssS'Hall.csv'
p30
(dp31
g3
(dp32
g5
I1330
sg6
I71
sg7
I31
sg8
I0
sg9
I4
sg10
I4
sg11
I1330
ssg12
(dp33
g5
I1107
sg6
I77
sg7
I25
sg8
I42
sg9
I4
sg10
I0
sg11
I530
ssg14
(dp34
g5
I723
sg6
I94
sg7
I8
sg8
I21
sg9
I4
sg10
I0
sg11
I550
ssg16
(dp35
g5
I720
sg6
I74
sg7
I28
sg8
I0
sg9
I4
sg10
I4
sg11
I720
ssg18
(dp36
g5
I890
sg6
I72
sg7
I30
sg8
I0
sg9
I4
sg10
I1
sg11
I890
ssg20
(dp37
g5
I980
sg6
I75
sg7
I27
sg8
I0
sg9
I4
sg10
I1
sg11
I980
sssS'Danijel.csv'
p38
(dp39
g3
(dp40
g5
I1270
sg6
I31
sg7
I16
sg8
I0
sg9
I1
sg10
I2
sg11
I1270
ssg12
(dp41
g5
I2825
sg6
I32
sg7
I14
sg8
I18
sg9
I2
sg10
I0
sg11
I1400
ssg14
(dp42
g5
I1196
sg6
I43
sg7
I3
sg8
I5
sg9
I2
sg10
I3
sg11
I810
ssg16
(dp43
g5
I970
sg6
I35
sg7
I11
sg8
I0
sg9
I2
sg10
I1
sg11
I970
ssg18
(dp44
g5
I1230
sg6
I36
sg7
I10
sg8
I0
sg9
I2
sg10
I0
sg11
I1230
ssg20
(dp45
g5
I1140
sg6
I31
sg7
I15
sg8
I0
sg9
I2
sg10
I3
sg11
I1140
sss.(dp0
S'K_all3.csv'
p1
(dp2
S'none'
p3
(dp4
S'count'
p5
I660
sS'truepos'
p6
I28
sS'falseneg'
p7
I9
sS'correction'
p8
I0
sS'unknownyes'
p9
I8
sS'falsepos'
p10
I10
sS'unique'
p11
I660
ssS'three'
p12
(dp13
g5
I1164
sg6
I32
sg7
I9
sg8
I21
sg9
I4
sg10
I0
sg11
I570
ssS'machine'
p14
(dp15
g5
I580
sg6
I29
sg7
I9
sg8
I1
sg9
I7
sg10
I5
sg11
I530
ssS'machine4'
p16
(dp17
g5
I670
sg6
I28
sg7
I15
sg8
I0
sg9
I2
sg10
I5
sg11
I670
ssS'machine3'
p18
(dp19
g5
I560
sg6
I33
sg7
I9
sg8
I0
sg9
I3
sg10
I5
sg11
I560
ssS'machine2'
p20
(dp21
g5
I570
sg6
I29
sg7
I9
sg8
I0
sg9
I7
sg10
I5
sg11
I570
sssS'Wahono.csv'
p22
(dp23
g3
(dp24
g5
I1140
sg6
I41
sg7
I17
sg8
I0
sg9
I4
sg10
I1
sg11
I1140
ssg12
(dp25
g5
I2614
sg6
I43
sg7
I16
sg8
I28
sg9
I3
sg10
I0
sg11
I1290
ssg14
(dp26
g5
I1673
sg6
I47
sg7
I10
sg8
I14
sg9
I5
sg10
I5
sg11
I1230
ssg16
(dp27
g5
I1190
sg6
I38
sg7
I22
sg8
I0
sg9
I2
sg10
I3
sg11
I1190
ssg18
(dp28
g5
I1610
sg6
I46
sg7
I14
sg8
I0
sg9
I2
sg10
I4
sg11
I1610
ssg20
(dp29
g5
I1740
sg6
I40
sg7
I19
sg8
I0
sg9
I3
sg10
I4
sg11
I1740
sssS'Hall.csv'
p30
(dp31
g3
(dp32
g5
I720
sg6
I78
sg7
I25
sg8
I0
sg9
I3
sg10
I2
sg11
I720
ssg12
(dp33
g5
I1430
sg6
I71
sg7
I31
sg8
I41
sg9
I4
sg10
I0
sg11
I690
ssg14
(dp34
g5
I650
sg6
I91
sg7
I11
sg8
I18
sg9
I4
sg10
I0
sg11
I480
ssg16
(dp35
g5
I850
sg6
I69
sg7
I34
sg8
I0
sg9
I3
sg10
I2
sg11
I850
ssg18
(dp36
g5
I720
sg6
I62
sg7
I40
sg8
I0
sg9
I4
sg10
I1
sg11
I720
ssg20
(dp37
g5
I1150
sg6
I73
sg7
I30
sg8
I0
sg9
I3
sg10
I3
sg11
I1150
sssS'Danijel.csv'
p38
(dp39
g3
(dp40
g5
I1420
sg6
I35
sg7
I11
sg8
I0
sg9
I2
sg10
I8
sg11
I1420
ssg12
(dp41
g5
I2423
sg6
I34
sg7
I12
sg8
I21
sg9
I2
sg10
I0
sg11
I1200
ssg14
(dp42
g5
I922
sg6
I38
sg7
I6
sg8
I8
sg9
I4
sg10
I2
sg11
I720
ssg16
(dp43
g5
I1590
sg6
I33
sg7
I13
sg8
I0
sg9
I2
sg10
I5
sg11
I1590
ssg18
(dp44
g5
I1230
sg6
I34
sg7
I12
sg8
I0
sg9
I2
sg10
I1
sg11
I1230
ssg20
(dp45
g5
I1660
sg6
I32
sg7
I15
sg8
I0
sg9
I1
sg10
I3
sg11
I1660
sss.(dp0
S'K_all3.csv'
p1
(dp2
S'none'
p3
(dp4
S'count'
p5
I600
sS'truepos'
p6
I31
sS'falseneg'
p7
I6
sS'correction'
p8
I0
sS'unknownyes'
p9
I8
sS'falsepos'
p10
I5
sS'unique'
p11
I600
ssS'three'
p12
(dp13
g5
I1290
sg6
I30
sg7
I9
sg8
I27
sg9
I6
sg10
I0
sg11
I630
ssS'machine'
p14
(dp15
g5
I762
sg6
I31
sg7
I8
sg8
I3
sg9
I6
sg10
I4
sg11
I660
ssS'machine4'
p16
(dp17
g5
I580
sg6
I30
sg7
I7
sg8
I0
sg9
I8
sg10
I3
sg11
I580
ssS'machine3'
p18
(dp19
g5
I610
sg6
I33
sg7
I6
sg8
I0
sg9
I6
sg10
I5
sg11
I610
ssS'machine2'
p20
(dp21
g5
I750
sg6
I26
sg7
I12
sg8
I0
sg9
I7
sg10
I6
sg11
I750
sssS'Wahono.csv'
p22
(dp23
g3
(dp24
g5
I1570
sg6
I40
sg7
I21
sg8
I0
sg9
I1
sg10
I5
sg11
I1570
ssg12
(dp25
g5
I2991
sg6
I49
sg7
I11
sg8
I29
sg9
I2
sg10
I0
sg11
I1480
ssg14
(dp26
g5
I1626
sg6
I53
sg7
I6
sg8
I10
sg9
I3
sg10
I1
sg11
I1240
ssg16
(dp27
g5
I1270
sg6
I39
sg7
I21
sg8
I0
sg9
I2
sg10
I1
sg11
I1270
ssg18
(dp28
g5
I1750
sg6
I45
sg7
I15
sg8
I0
sg9
I2
sg10
I5
sg11
I1750
ssg20
(dp29
g5
I1560
sg6
I43
sg7
I16
sg8
I0
sg9
I3
sg10
I4
sg11
I1560
sssS'Hall.csv'
p30
(dp31
g3
(dp32
g5
I1220
sg6
I69
sg7
I33
sg8
I0
sg9
I4
sg10
I3
sg11
I1220
ssg12
(dp33
g5
I1550
sg6
I83
sg7
I19
sg8
I41
sg9
I4
sg10
I0
sg11
I750
ssg14
(dp34
g5
I983
sg6
I91
sg7
I11
sg8
I25
sg9
I4
sg10
I4
sg11
I760
ssg16
(dp35
g5
I840
sg6
I70
sg7
I32
sg8
I0
sg9
I4
sg10
I1
sg11
I840
ssg18
(dp36
g5
I750
sg6
I76
sg7
I26
sg8
I0
sg9
I4
sg10
I3
sg11
I750
ssg20
(dp37
g5
I1050
sg6
I64
sg7
I39
sg8
I0
sg9
I3
sg10
I2
sg11
I1050
sssS'Danijel.csv'
p38
(dp39
g3
(dp40
g5
I1190
sg6
I33
sg7
I11
sg8
I0
sg9
I4
sg10
I2
sg11
I1190
ssg12
(dp41
g5
I2592
sg6
I33
sg7
I14
sg8
I28
sg9
I1
sg10
I0
sg11
I1280
ssg14
(dp42
g5
I1208
sg6
I42
sg7
I4
sg8
I8
sg9
I2
sg10
I1
sg11
I810
ssg16
(dp43
g5
I1360
sg6
I33
sg7
I13
sg8
I0
sg9
I2
sg10
I2
sg11
I1360
ssg18
(dp44
g5
I1410
sg6
I30
sg7
I16
sg8
I0
sg9
I2
sg10
I5
sg11
I1410
ssg20
(dp45
g5
I1250
sg6
I31
sg7
I14
sg8
I0
sg9
I3
sg10
I2
sg11
I1250
sss.(dp0
S'K_all3.csv'
p1
(dp2
S'none'
p3
(dp4
S'count'
p5
I680
sS'truepos'
p6
I27
sS'falseneg'
p7
I9
sS'correction'
p8
I0
sS'unknownyes'
p9
I9
sS'falsepos'
p10
I10
sS'unique'
p11
I680
ssS'three'
p12
(dp13
g5
I1162
sg6
I32
sg7
I8
sg8
I20
sg9
I5
sg10
I0
sg11
I570
ssS'machine'
p14
(dp15
g5
I630
sg6
I31
sg7
I7
sg8
I2
sg9
I7
sg10
I7
sg11
I580
ssS'machine4'
p16
(dp17
g5
I600
sg6
I28
sg7
I11
sg8
I0
sg9
I6
sg10
I4
sg11
I600
ssS'machine3'
p18
(dp19
g5
I680
sg6
I27
sg7
I9
sg8
I0
sg9
I9
sg10
I6
sg11
I680
ssS'machine2'
p20
(dp21
g5
I830
sg6
I22
sg7
I16
sg8
I0
sg9
I7
sg10
I8
sg11
I830
sssS'Wahono.csv'
p22
(dp23
g3
(dp24
g5
I1440
sg6
I49
sg7
I12
sg8
I0
sg9
I1
sg10
I4
sg11
I1440
ssg12
(dp25
g5
I2317
sg6
I41
sg7
I18
sg8
I28
sg9
I3
sg10
I0
sg11
I1140
ssg14
(dp26
g5
I2181
sg6
I51
sg7
I10
sg8
I9
sg9
I1
sg10
I6
sg11
I1590
ssg16
(dp27
g5
I1570
sg6
I37
sg7
I22
sg8
I0
sg9
I3
sg10
I6
sg11
I1570
ssg18
(dp28
g5
I1490
sg6
I45
sg7
I14
sg8
I0
sg9
I3
sg10
I4
sg11
I1490
ssg20
(dp29
g5
I1410
sg6
I48
sg7
I11
sg8
I0
sg9
I3
sg10
I4
sg11
I1410
sssS'Hall.csv'
p30
(dp31
g3
(dp32
g5
I1490
sg6
I72
sg7
I31
sg8
I0
sg9
I3
sg10
I4
sg11
I1490
ssg12
(dp33
g5
I1645
sg6
I86
sg7
I16
sg8
I38
sg9
I4
sg10
I0
sg11
I800
ssg14
(dp34
g5
I721
sg6
I91
sg7
I11
sg8
I18
sg9
I4
sg10
I0
sg11
I520
ssg16
(dp35
g5
I810
sg6
I67
sg7
I35
sg8
I0
sg9
I4
sg10
I0
sg11
I810
ssg18
(dp36
g5
I1550
sg6
I68
sg7
I36
sg8
I0
sg9
I2
sg10
I7
sg11
I1550
ssg20
(dp37
g5
I790
sg6
I77
sg7
I25
sg8
I0
sg9
I4
sg10
I0
sg11
I790
sssS'Danijel.csv'
p38
(dp39
g3
(dp40
g5
I1140
sg6
I37
sg7
I9
sg8
I0
sg9
I2
sg10
I3
sg11
I1140
ssg12
(dp41
g5
I1602
sg6
I38
sg7
I7
sg8
I20
sg9
I3
sg10
I0
sg11
I790
ssg14
(dp42
g5
I1039
sg6
I40
sg7
I5
sg8
I6
sg9
I3
sg10
I1
sg11
I760
ssg16
(dp43
g5
I1280
sg6
I33
sg7
I14
sg8
I0
sg9
I1
sg10
I3
sg11
I1280
ssg18
(dp44
g5
I1450
sg6
I32
sg7
I14
sg8
I0
sg9
I2
sg10
I2
sg11
I1450
ssg20
(dp45
g5
I1330
sg6
I34
sg7
I12
sg8
I0
sg9
I2
sg10
I3
sg11
I1330
sss.(dp0
S'K_all3.csv'
p1
(dp2
S'none'
p3
(dp4
S'count'
p5
I850
sS'truepos'
p6
I24
sS'falseneg'
p7
I15
sS'correction'
p8
I0
sS'unknownyes'
p9
I6
sS'falsepos'
p10
I8
sS'unique'
p11
I850
ssS'three'
p12
(dp13
g5
I1424
sg6
I29
sg7
I8
sg8
I20
sg9
I8
sg10
I1
sg11
I700
ssS'machine'
p14
(dp15
g5
I550
sg6
I30
sg7
I4
sg8
I1
sg9
I11
sg10
I8
sg11
I500
ssS'machine4'
p16
(dp17
g5
I590
sg6
I28
sg7
I12
sg8
I0
sg9
I5
sg10
I4
sg11
I590
ssS'machine3'
p18
(dp19
g5
I860
sg6
I25
sg7
I14
sg8
I0
sg9
I6
sg10
I5
sg11
I860
ssS'machine2'
p20
(dp21
g5
I630
sg6
I28
sg7
I11
sg8
I0
sg9
I6
sg10
I9
sg11
I630
sssS'Wahono.csv'
p22
(dp23
g3
(dp24
g5
I1510
sg6
I48
sg7
I14
sg8
I0
sg9
I0
sg10
I2
sg11
I1510
ssg12
(dp25
g5
I2778
sg6
I44
sg7
I15
sg8
I35
sg9
I3
sg10
I0
sg11
I1370
ssg14
(dp26
g5
I1770
sg6
I53
sg7
I6
sg8
I15
sg9
I3
sg10
I4
sg11
I1250
ssg16
(dp27
g5
I1710
sg6
I39
sg7
I22
sg8
I0
sg9
I1
sg10
I9
sg11
I1710
ssg18
(dp28
g5
I1710
sg6
I43
sg7
I18
sg8
I0
sg9
I1
sg10
I4
sg11
I1710
ssg20
(dp29
g5
I1560
sg6
I37
sg7
I23
sg8
I0
sg9
I2
sg10
I5
sg11
I1560
sssS'Hall.csv'
p30
(dp31
g3
(dp32
g5
I670
sg6
I67
sg7
I35
sg8
I0
sg9
I4
sg10
I2
sg11
I670
ssg12
(dp33
g5
I1229
sg6
I76
sg7
I26
sg8
I38
sg9
I4
sg10
I0
sg11
I590
ssg14
(dp34
g5
I982
sg6
I89
sg7
I13
sg8
I23
sg9
I4
sg10
I3
sg11
I770
ssg16
(dp35
g5
I680
sg6
I76
sg7
I26
sg8
I0
sg9
I4
sg10
I2
sg11
I680
ssg18
(dp36
g5
I780
sg6
I76
sg7
I26
sg8
I0
sg9
I4
sg10
I3
sg11
I780
ssg20
(dp37
g5
I960
sg6
I72
sg7
I31
sg8
I0
sg9
I3
sg10
I4
sg11
I960
sssS'Danijel.csv'
p38
(dp39
g3
(dp40
g5
I1350
sg6
I30
sg7
I17
sg8
I0
sg9
I1
sg10
I4
sg11
I1350
ssg12
(dp41
g5
I2259
sg6
I33
sg7
I13
sg8
I19
sg9
I2
sg10
I0
sg11
I1120
ssg14
(dp42
g5
I1263
sg6
I36
sg7
I9
sg8
I7
sg9
I3
sg10
I1
sg11
I1160
ssg16
(dp43
g5
I1090
sg6
I35
sg7
I11
sg8
I0
sg9
I2
sg10
I2
sg11
I1090
ssg18
(dp44
g5
I1780
sg6
I31
sg7
I15
sg8
I0
sg9
I2
sg10
I7
sg11
I1780
ssg20
(dp45
g5
I1100
sg6
I37
sg7
I10
sg8
I0
sg9
I1
sg10
I1
sg11
I1100
sss.(dp0
S'K_all3.csv'
p1
(dp2
S'none'
p3
(dp4
S'count'
p5
I600
sS'truepos'
p6
I30
sS'falseneg'
p7
I10
sS'correction'
p8
I0
sS'unknownyes'
p9
I5
sS'falsepos'
p10
I5
sS'unique'
p11
I600
ssS'three'
p12
(dp13
g5
I1103
sg6
I32
sg7
I6
sg8
I22
sg9
I7
sg10
I0
sg11
I540
ssS'machine'
p14
(dp15
g5
I810
sg6
I30
sg7
I6
sg8
I4
sg9
I9
sg10
I6
sg11
I710
ssS'machine4'
p16
(dp17
g5
I650
sg6
I31
sg7
I9
sg8
I0
sg9
I5
sg10
I3
sg11
I650
ssS'machine3'
p18
(dp19
g5
I770
sg6
I24
sg7
I15
sg8
I0
sg9
I6
sg10
I8
sg11
I770
ssS'machine2'
p20
(dp21
g5
I840
sg6
I22
sg7
I16
sg8
I0
sg9
I7
sg10
I8
sg11
I840
sssS'Wahono.csv'
p22
(dp23
g3
(dp24
g5
I1600
sg6
I39
sg7
I22
sg8
I0
sg9
I1
sg10
I1
sg11
I1600
ssg12
(dp25
g5
I2809
sg6
I54
sg7
I5
sg8
I28
sg9
I3
sg10
I0
sg11
I1390
ssg14
(dp26
g5
I1508
sg6
I53
sg7
I6
sg8
I13
sg9
I3
sg10
I4
sg11
I1100
ssg16
(dp27
g5
I1620
sg6
I46
sg7
I15
sg8
I0
sg9
I1
sg10
I3
sg11
I1620
ssg18
(dp28
g5
I1280
sg6
I48
sg7
I13
sg8
I0
sg9
I1
sg10
I3
sg11
I1280
ssg20
(dp29
g5
I1580
sg6
I41
sg7
I18
sg8
I0
sg9
I3
sg10
I6
sg11
I1580
sssS'Hall.csv'
p30
(dp31
g3
(dp32
g5
I920
sg6
I65
sg7
I37
sg8
I0
sg9
I4
sg10
I3
sg11
I920
ssg12
(dp33
g5
I1272
sg6
I87
sg7
I15
sg8
I48
sg9
I4
sg10
I0
sg11
I610
ssg14
(dp34
g5
I667
sg6
I90
sg7
I12
sg8
I28
sg9
I4
sg10
I4
sg11
I490
ssg16
(dp35
g5
I1410
sg6
I60
sg7
I43
sg8
I0
sg9
I3
sg10
I6
sg11
I1410
ssg18
(dp36
g5
I1310
sg6
I72
sg7
I31
sg8
I0
sg9
I3
sg10
I4
sg11
I1310
ssg20
(dp37
g5
I680
sg6
I73
sg7
I29
sg8
I0
sg9
I4
sg10
I3
sg11
I680
sssS'Danijel.csv'
p38
(dp39
g3
(dp40
g5
I1280
sg6
I33
sg7
I13
sg8
I0
sg9
I2
sg10
I1
sg11
I1280
ssg12
(dp41
g5
I2440
sg6
I34
sg7
I12
sg8
I15
sg9
I2
sg10
I0
sg11
I1210
ssg14
(dp42
g5
I1327
sg6
I38
sg7
I7
sg8
I4
sg9
I3
sg10
I4
sg11
I880
ssg16
(dp43
g5
I1040
sg6
I36
sg7
I10
sg8
I0
sg9
I2
sg10
I4
sg11
I1040
ssg18
(dp44
g5
I1600
sg6
I26
sg7
I21
sg8
I0
sg9
I1
sg10
I4
sg11
I1600
ssg20
(dp45
g5
I950
sg6
I34
sg7
I11
sg8
I0
sg9
I3
sg10
I4
sg11
I950
sss.(dp0
S'K_all3.csv'
p1
(dp2
S'none'
p3
(dp4
S'count'
p5
I640
sS'truepos'
p6
I26
sS'falseneg'
p7
I12
sS'correction'
p8
I0
sS'unknownyes'
p9
I7
sS'falsepos'
p10
I4
sS'unique'
p11
I640
ssS'three'
p12
(dp13
g5
I1327
sg6
I36
sg7
I5
sg8
I27
sg9
I4
sg10
I0
sg11
I650
ssS'machine'
p14
(dp15
g5
I762
sg6
I29
sg7
I9
sg8
I5
sg9
I7
sg10
I7
sg11
I710
ssS'machine4'
p16
(dp17
g5
I660
sg6
I27
sg7
I11
sg8
I0
sg9
I7
sg10
I4
sg11
I660
ssS'machine3'
p18
(dp19
g5
I640
sg6
I31
sg7
I10
sg8
I0
sg9
I4
sg10
I7
sg11
I640
ssS'machine2'
p20
(dp21
g5
I700
sg6
I29
sg7
I12
sg8
I0
sg9
I4
sg10
I5
sg11
I700
sssS'Wahono.csv'
p22
(dp23
g3
(dp24
g5
I1380
sg6
I46
sg7
I13
sg8
I0
sg9
I3
sg10
I2
sg11
I1380
ssg12
(dp25
g5
I3072
sg6
I47
sg7
I12
sg8
I28
sg9
I3
sg10
I0
sg11
I1520
ssg14
(dp26
g5
I1760
sg6
I53
sg7
I8
sg8
I11
sg9
I1
sg10
I6
sg11
I1260
ssg16
(dp27
g5
I1650
sg6
I39
sg7
I21
sg8
I0
sg9
I2
sg10
I5
sg11
I1650
ssg18
(dp28
g5
I1850
sg6
I45
sg7
I16
sg8
I0
sg9
I1
sg10
I3
sg11
I1850
ssg20
(dp29
g5
I1570
sg6
I40
sg7
I19
sg8
I0
sg9
I3
sg10
I6
sg11
I1570
sssS'Hall.csv'
p30
(dp31
g3
(dp32
g5
I1000
sg6
I77
sg7
I26
sg8
I0
sg9
I3
sg10
I1
sg11
I1000
ssg12
(dp33
g5
I1077
sg6
I84
sg7
I18
sg8
I33
sg9
I4
sg10
I0
sg11
I520
ssg14
(dp34
g5
I623
sg6
I93
sg7
I8
sg8
I26
sg9
I5
sg10
I4
sg11
I460
ssg16
(dp35
g5
I1860
sg6
I67
sg7
I36
sg8
I0
sg9
I3
sg10
I6
sg11
I1860
ssg18
(dp36
g5
I780
sg6
I76
sg7
I26
sg8
I0
sg9
I4
sg10
I2
sg11
I780
ssg20
(dp37
g5
I810
sg6
I79
sg7
I23
sg8
I0
sg9
I4
sg10
I5
sg11
I810
sssS'Danijel.csv'
p38
(dp39
g3
(dp40
g5
I1450
sg6
I32
sg7
I14
sg8
I0
sg9
I2
sg10
I4
sg11
I1450
ssg12
(dp41
g5
I2360
sg6
I38
sg7
I8
sg8
I19
sg9
I2
sg10
I0
sg11
I1170
ssg14
(dp42
g5
I1287
sg6
I43
sg7
I3
sg8
I12
sg9
I2
sg10
I4
sg11
I870
ssg16
(dp43
g5
I1660
sg6
I29
sg7
I19
sg8
I0
sg9
I0
sg10
I3
sg11
I1660
ssg18
(dp44
g5
I1410
sg6
I30
sg7
I17
sg8
I0
sg9
I1
sg10
I2
sg11
I1410
ssg20
(dp45
g5
I800
sg6
I36
sg7
I9
sg8
I0
sg9
I3
sg10
I2
sg11
I800
sss.(dp0
S'K_all3.csv'
p1
(dp2
S'none'
p3
(dp4
S'count'
p5
I720
sS'truepos'
p6
I28
sS'falseneg'
p7
I10
sS'correction'
p8
I0
sS'unknownyes'
p9
I7
sS'falsepos'
p10
I2
sS'unique'
p11
I720
ssS'three'
p12
(dp13
g5
I1234
sg6
I30
sg7
I9
sg8
I33
sg9
I6
sg10
I0
sg11
I600
ssS'machine'
p14
(dp15
g5
I761
sg6
I30
sg7
I10
sg8
I3
sg9
I5
sg10
I8
sg11
I710
ssS'machine4'
p16
(dp17
g5
I640
sg6
I26
sg7
I12
sg8
I0
sg9
I7
sg10
I5
sg11
I640
ssS'machine3'
p18
(dp19
g5
I800
sg6
I26
sg7
I14
sg8
I0
sg9
I5
sg10
I6
sg11
I800
ssS'machine2'
p20
(dp21
g5
I610
sg6
I29
sg7
I9
sg8
I0
sg9
I7
sg10
I4
sg11
I610
sssS'Wahono.csv'
p22
(dp23
g3
(dp24
g5
I1830
sg6
I42
sg7
I19
sg8
I0
sg9
I1
sg10
I7
sg11
I1830
ssg12
(dp25
g5
I3141
sg6
I51
sg7
I10
sg8
I37
sg9
I1
sg10
I0
sg11
I1550
ssg14
(dp26
g5
I1997
sg6
I52
sg7
I8
sg8
I10
sg9
I2
sg10
I3
sg11
I1520
ssg16
(dp27
g5
I1250
sg6
I40
sg7
I19
sg8
I0
sg9
I3
sg10
I2
sg11
I1250
ssg18
(dp28
g5
I1630
sg6
I40
sg7
I20
sg8
I0
sg9
I2
sg10
I7
sg11
I1630
ssg20
(dp29
g5
I1770
sg6
I36
sg7
I23
sg8
I0
sg9
I3
sg10
I4
sg11
I1770
sssS'Hall.csv'
p30
(dp31
g3
(dp32
g5
I970
sg6
I72
sg7
I31
sg8
I0
sg9
I3
sg10
I3
sg11
I970
ssg12
(dp33
g5
I1569
sg6
I78
sg7
I24
sg8
I43
sg9
I4
sg10
I0
sg11
I760
ssg14
(dp34
g5
I935
sg6
I85
sg7
I17
sg8
I19
sg9
I4
sg10
I3
sg11
I720
ssg16
(dp35
g5
I1110
sg6
I70
sg7
I33
sg8
I0
sg9
I3
sg10
I2
sg11
I1110
ssg18
(dp36
g5
I730
sg6
I76
sg7
I26
sg8
I0
sg9
I4
sg10
I3
sg11
I730
ssg20
(dp37
g5
I660
sg6
I75
sg7
I27
sg8
I0
sg9
I4
sg10
I3
sg11
I660
sssS'Danijel.csv'
p38
(dp39
g3
(dp40
g5
I1550
sg6
I33
sg7
I14
sg8
I0
sg9
I1
sg10
I4
sg11
I1550
ssg12
(dp41
g5
I2430
sg6
I33
sg7
I14
sg8
I27
sg9
I1
sg10
I0
sg11
I1200
ssg14
(dp42
g5
I1251
sg6
I44
sg7
I2
sg8
I8
sg9
I2
sg10
I4
sg11
I840
ssg16
(dp43
g5
I780
sg6
I36
sg7
I9
sg8
I0
sg9
I3
sg10
I2
sg11
I780
ssg18
(dp44
g5
I1210
sg6
I34
sg7
I12
sg8
I0
sg9
I2
sg10
I2
sg11
I1210
ssg20
(dp45
g5
I1790
sg6
I27
sg7
I19
sg8
I0
sg9
I2
sg10
I4
sg11
I1790
sss.(dp0
S'K_all3.csv'
p1
(dp2
S'none'
p3
(dp4
S'count'
p5
I710
sS'truepos'
p6
I26
sS'falseneg'
p7
I11
sS'correction'
p8
I0
sS'unknownyes'
p9
I8
sS'falsepos'
p10
I4
sS'unique'
p11
I710
ssS'three'
p12
(dp13
g5
I2558
sg6
I29
sg7
I12
sg8
I36
sg9
I4
sg10
I1
sg11
I1260
ssS'machine'
p14
(dp15
g5
I742
sg6
I26
sg7
I11
sg8
I0
sg9
I8
sg10
I4
sg11
I740
ssS'machine4'
p16
(dp17
g5
I790
sg6
I26
sg7
I12
sg8
I0
sg9
I7
sg10
I6
sg11
I790
ssS'machine3'
p18
(dp19
g5
I780
sg6
I25
sg7
I13
sg8
I0
sg9
I7
sg10
I7
sg11
I780
ssS'machine2'
p20
(dp21
g5
I640
sg6
I27
sg7
I11
sg8
I0
sg9
I7
sg10
I6
sg11
I640
sssS'Wahono.csv'
p22
(dp23
g3
(dp24
g5
I1550
sg6
I42
sg7
I18
sg8
I0
sg9
I2
sg10
I1
sg11
I1550
ssg12
(dp25
g5
I3120
sg6
I44
sg7
I17
sg8
I34
sg9
I1
sg10
I0
sg11
I1540
ssg14
(dp26
g5
I1833
sg6
I56
sg7
I5
sg8
I16
sg9
I1
sg10
I3
sg11
I1410
ssg16
(dp27
g5
I1520
sg6
I41
sg7
I19
sg8
I0
sg9
I2
sg10
I2
sg11
I1520
ssg18
(dp28
g5
I1490
sg6
I48
sg7
I13
sg8
I0
sg9
I1
sg10
I5
sg11
I1490
ssg20
(dp29
g5
I1480
sg6
I42
sg7
I17
sg8
I0
sg9
I3
sg10
I7
sg11
I1480
sssS'Hall.csv'
p30
(dp31
g3
(dp32
g5
I860
sg6
I63
sg7
I39
sg8
I0
sg9
I4
sg10
I1
sg11
I860
ssg12
(dp33
g5
I1879
sg6
I72
sg7
I31
sg8
I49
sg9
I3
sg10
I0
sg11
I910
ssg14
(dp34
g5
I654
sg6
I92
sg7
I10
sg8
I25
sg9
I4
sg10
I0
sg11
I480
ssg16
(dp35
g5
I630
sg6
I74
sg7
I28
sg8
I0
sg9
I4
sg10
I3
sg11
I630
ssg18
(dp36
g5
I1090
sg6
I72
sg7
I31
sg8
I0
sg9
I3
sg10
I2
sg11
I1090
ssg20
(dp37
g5
I950
sg6
I73
sg7
I30
sg8
I0
sg9
I3
sg10
I0
sg11
I950
sssS'Danijel.csv'
p38
(dp39
g3
(dp40
g5
I1380
sg6
I34
sg7
I14
sg8
I0
sg9
I0
sg10
I1
sg11
I1380
ssg12
(dp41
g5
I3062
sg6
I31
sg7
I16
sg8
I17
sg9
I1
sg10
I0
sg11
I1520
ssg14
(dp42
g5
I1083
sg6
I41
sg7
I4
sg8
I7
sg9
I3
sg10
I2
sg11
I770
ssg16
(dp43
g5
I1310
sg6
I34
sg7
I11
sg8
I0
sg9
I3
sg10
I4
sg11
I1310
ssg18
(dp44
g5
I1340
sg6
I32
sg7
I14
sg8
I0
sg9
I2
sg10
I4
sg11
I1340
ssg20
(dp45
g5
I1020
sg6
I30
sg7
I14
sg8
I0
sg9
I4
sg10
I5
sg11
I1020
sss.(dp0
S'K_all3.csv'
p1
(dp2
S'none'
p3
(dp4
S'count'
p5
I1040
sS'truepos'
p6
I25
sS'falseneg'
p7
I14
sS'correction'
p8
I0
sS'unknownyes'
p9
I6
sS'falsepos'
p10
I5
sS'unique'
p11
I1040
ssS'three'
p12
(dp13
g5
I1227
sg6
I35
sg7
I4
sg8
I27
sg9
I6
sg10
I0
sg11
I600
ssS'machine'
p14
(dp15
g5
I703
sg6
I34
sg7
I7
sg8
I4
sg9
I4
sg10
I5
sg11
I600
ssS'machine4'
p16
(dp17
g5
I570
sg6
I31
sg7
I7
sg8
I0
sg9
I7
sg10
I5
sg11
I570
ssS'machine3'
p18
(dp19
g5
I580
sg6
I30
sg7
I8
sg8
I0
sg9
I7
sg10
I4
sg11
I580
ssS'machine2'
p20
(dp21
g5
I740
sg6
I31
sg7
I10
sg8
I0
sg9
I4
sg10
I7
sg11
I740
sssS'Wahono.csv'
p22
(dp23
g3
(dp24
g5
I1810
sg6
I40
sg7
I22
sg8
I0
sg9
I0
sg10
I3
sg11
I1810
ssg12
(dp25
g5
I2754
sg6
I47
sg7
I12
sg8
I31
sg9
I3
sg10
I0
sg11
I1360
ssg14
(dp26
g5
I1675
sg6
I52
sg7
I8
sg8
I11
sg9
I2
sg10
I4
sg11
I1270
ssg16
(dp27
g5
I1590
sg6
I39
sg7
I21
sg8
I0
sg9
I2
sg10
I5
sg11
I1590
ssg18
(dp28
g5
I1400
sg6
I45
sg7
I14
sg8
I0
sg9
I3
sg10
I5
sg11
I1400
ssg20
(dp29
g5
I1520
sg6
I39
sg7
I21
sg8
I0
sg9
I2
sg10
I2
sg11
I1520
sssS'Hall.csv'
p30
(dp31
g3
(dp32
g5
I970
sg6
I71
sg7
I32
sg8
I0
sg9
I3
sg10
I3
sg11
I970
ssg12
(dp33
g5
I1539
sg6
I86
sg7
I16
sg8
I35
sg9
I4
sg10
I0
sg11
I750
ssg14
(dp34
g5
I1230
sg6
I88
sg7
I14
sg8
I12
sg9
I4
sg10
I10
sg11
I1010
ssg16
(dp35
g5
I1200
sg6
I71
sg7
I31
sg8
I0
sg9
I4
sg10
I6
sg11
I1200
ssg18
(dp36
g5
I1260
sg6
I70
sg7
I33
sg8
I0
sg9
I3
sg10
I4
sg11
I1260
ssg20
(dp37
g5
I980
sg6
I64
sg7
I38
sg8
I0
sg9
I4
sg10
I1
sg11
I980
sssS'Danijel.csv'
p38
(dp39
g3
(dp40
g5
I1110
sg6
I35
sg7
I11
sg8
I0
sg9
I2
sg10
I1
sg11
I1110
ssg12
(dp41
g5
I1588
sg6
I38
sg7
I7
sg8
I27
sg9
I3
sg10
I0
sg11
I780
ssg14
(dp42
g5
I1281
sg6
I39
sg7
I5
sg8
I9
sg9
I4
sg10
I3
sg11
I930
ssg16
(dp43
g5
I1180
sg6
I29
sg7
I17
sg8
I0
sg9
I2
sg10
I3
sg11
I1180
ssg18
(dp44
g5
I1510
sg6
I32
sg7
I14
sg8
I0
sg9
I2
sg10
I2
sg11
I1510
ssg20
(dp45
g5
I900
sg6
I36
sg7
I10
sg8
I0
sg9
I2
sg10
I3
sg11
I900
sss.(dp0
S'K_all3.csv'
p1
(dp2
S'none'
p3
(dp4
S'count'
p5
I750
sS'truepos'
p6
I27
sS'falseneg'
p7
I15
sS'correction'
p8
I0
sS'unknownyes'
p9
I3
sS'falsepos'
p10
I4
sS'unique'
p11
I750
ssS'three'
p12
(dp13
g5
I2170
sg6
I30
sg7
I11
sg8
I28
sg9
I4
sg10
I0
sg11
I1070
ssS'machine'
p14
(dp15
g5
I1156
sg6
I21
sg7
I20
sg8
I1
sg9
I4
sg10
I10
sg11
I1140
ssS'machine4'
p16
(dp17
g5
I570
sg6
I25
sg7
I9
sg8
I0
sg9
I11
sg10
I7
sg11
I570
ssS'machine3'
p18
(dp19
g5
I620
sg6
I29
sg7
I11
sg8
I0
sg9
I5
sg10
I5
sg11
I620
ssS'machine2'
p20
(dp21
g5
I800
sg6
I25
sg7
I14
sg8
I0
sg9
I6
sg10
I7
sg11
I800
sssS'Wahono.csv'
p22
(dp23
g3
(dp24
g5
I1310
sg6
I46
sg7
I14
sg8
I0
sg9
I2
sg10
I4
sg11
I1310
ssg12
(dp25
g5
I2998
sg6
I45
sg7
I14
sg8
I35
sg9
I3
sg10
I0
sg11
I1480
ssg14
(dp26
g5
I1725
sg6
I53
sg7
I6
sg8
I11
sg9
I3
sg10
I5
sg11
I1220
ssg16
(dp27
g5
I1470
sg6
I43
sg7
I17
sg8
I0
sg9
I2
sg10
I6
sg11
I1470
ssg18
(dp28
g5
I1350
sg6
I46
sg7
I13
sg8
I0
sg9
I3
sg10
I1
sg11
I1350
ssg20
(dp29
g5
I1400
sg6
I42
sg7
I19
sg8
I0
sg9
I1
sg10
I5
sg11
I1400
sssS'Hall.csv'
p30
(dp31
g3
(dp32
g5
I2000
sg6
I68
sg7
I36
sg8
I0
sg9
I2
sg10
I7
sg11
I2000
ssg12
(dp33
g5
I1207
sg6
I79
sg7
I23
sg8
I40
sg9
I4
sg10
I0
sg11
I580
ssg14
(dp34
g5
I700
sg6
I96
sg7
I6
sg8
I20
sg9
I4
sg10
I0
sg11
I540
ssg16
(dp35
g5
I670
sg6
I73
sg7
I29
sg8
I0
sg9
I4
sg10
I1
sg11
I670
ssg18
(dp36
g5
I720
sg6
I79
sg7
I24
sg8
I0
sg9
I3
sg10
I5
sg11
I720
ssg20
(dp37
g5
I860
sg6
I75
sg7
I28
sg8
I0
sg9
I3
sg10
I3
sg11
I860
sssS'Danijel.csv'
p38
(dp39
g3
(dp40
g5
I1310
sg6
I29
sg7
I18
sg8
I0
sg9
I1
sg10
I4
sg11
I1310
ssg12
(dp41
g5
I2566
sg6
I33
sg7
I13
sg8
I23
sg9
I2
sg10
I0
sg11
I1270
ssg14
(dp42
g5
I1046
sg6
I38
sg7
I6
sg8
I6
sg9
I4
sg10
I0
sg11
I820
ssg16
(dp43
g5
I1670
sg6
I28
sg7
I19
sg8
I0
sg9
I1
sg10
I5
sg11
I1670
ssg18
(dp44
g5
I1130
sg6
I31
sg7
I15
sg8
I0
sg9
I2
sg10
I2
sg11
I1130
ssg20
(dp45
g5
I1130
sg6
I31
sg7
I14
sg8
I0
sg9
I3
sg10
I1
sg11
I1130
sss.(dp0
S'K_all3.csv'
p1
(dp2
S'none'
p3
(dp4
S'count'
p5
I640
sS'truepos'
p6
I28
sS'falseneg'
p7
I12
sS'correction'
p8
I0
sS'unknownyes'
p9
I5
sS'falsepos'
p10
I4
sS'unique'
p11
I640
ssS'three'
p12
(dp13
g5
I1197
sg6
I32
sg7
I7
sg8
I15
sg9
I6
sg10
I0
sg11
I590
ssS'machine'
p14
(dp15
g5
I853
sg6
I25
sg7
I14
sg8
I1
sg9
I6
sg10
I5
sg11
I850
ssS'machine4'
p16
(dp17
g5
I640
sg6
I29
sg7
I12
sg8
I0
sg9
I4
sg10
I5
sg11
I640
ssS'machine3'
p18
(dp19
g5
I1170
sg6
I24
sg7
I18
sg8
I0
sg9
I3
sg10
I6
sg11
I1170
ssS'machine2'
p20
(dp21
g5
I950
sg6
I25
sg7
I15
sg8
I0
sg9
I5
sg10
I5
sg11
I950
sssS'Wahono.csv'
p22
(dp23
g3
(dp24
g5
I1870
sg6
I43
sg7
I18
sg8
I0
sg9
I1
sg10
I6
sg11
I1870
ssg12
(dp25
g5
I3111
sg6
I46
sg7
I14
sg8
I27
sg9
I2
sg10
I0
sg11
I1540
ssg14
(dp26
g5
I1712
sg6
I53
sg7
I6
sg8
I11
sg9
I3
sg10
I3
sg11
I1310
ssg16
(dp27
g5
I1650
sg6
I39
sg7
I22
sg8
I0
sg9
I1
sg10
I6
sg11
I1650
ssg18
(dp28
g5
I1710
sg6
I38
sg7
I22
sg8
I0
sg9
I2
sg10
I4
sg11
I1710
ssg20
(dp29
g5
I1890
sg6
I38
sg7
I22
sg8
I0
sg9
I2
sg10
I5
sg11
I1890
sssS'Hall.csv'
p30
(dp31
g3
(dp32
g5
I730
sg6
I81
sg7
I21
sg8
I0
sg9
I4
sg10
I2
sg11
I730
ssg12
(dp33
g5
I1329
sg6
I78
sg7
I25
sg8
I40
sg9
I3
sg10
I0
sg11
I640
ssg14
(dp34
g5
I645
sg6
I95
sg7
I6
sg8
I21
sg9
I5
sg10
I0
sg11
I480
ssg16
(dp35
g5
I850
sg6
I68
sg7
I34
sg8
I0
sg9
I4
sg10
I2
sg11
I850
ssg18
(dp36
g5
I580
sg6
I72
sg7
I30
sg8
I0
sg9
I4
sg10
I1
sg11
I580
ssg20
(dp37
g5
I660
sg6
I81
sg7
I21
sg8
I0
sg9
I4
sg10
I0
sg11
I660
sssS'Danijel.csv'
p38
(dp39
g3
(dp40
g5
I1480
sg6
I34
sg7
I12
sg8
I0
sg9
I2
sg10
I3
sg11
I1480
ssg12
(dp41
g5
I2263
sg6
I37
sg7
I9
sg8
I22
sg9
I2
sg10
I0
sg11
I1120
ssg14
(dp42
g5
I1455
sg6
I42
sg7
I5
sg8
I9
sg9
I1
sg10
I3
sg11
I1050
ssg16
(dp43
g5
I1210
sg6
I35
sg7
I11
sg8
I0
sg9
I2
sg10
I3
sg11
I1210
ssg18
(dp44
g5
I1620
sg6
I32
sg7
I13
sg8
I0
sg9
I3
sg10
I2
sg11
I1620
ssg20
(dp45
g5
I1440
sg6
I33
sg7
I13
sg8
I0
sg9
I2
sg10
I3
sg11
I1440
sss.(dp0
S'K_all3.csv'
p1
(dp2
S'none'
p3
(dp4
S'count'
p5
I900
sS'truepos'
p6
I24
sS'falseneg'
p7
I12
sS'correction'
p8
I0
sS'unknownyes'
p9
I9
sS'falsepos'
p10
I6
sS'unique'
p11
I900
ssS'three'
p12
(dp13
g5
I2426
sg6
I30
sg7
I13
sg8
I43
sg9
I2
sg10
I0
sg11
I1190
ssS'machine'
p14
(dp15
g5
I971
sg6
I25
sg7
I14
sg8
I0
sg9
I6
sg10
I5
sg11
I970
ssS'machine4'
p16
(dp17
g5
I560
sg6
I30
sg7
I10
sg8
I0
sg9
I5
sg10
I3
sg11
I560
ssS'machine3'
p18
(dp19
g5
I490
sg6
I25
sg7
I11
sg8
I0
sg9
I9
sg10
I6
sg11
I490
ssS'machine2'
p20
(dp21
g5
I1040
sg6
I24
sg7
I14
sg8
I0
sg9
I7
sg10
I6
sg11
I1040
sssS'Wahono.csv'
p22
(dp23
g3
(dp24
g5
I1340
sg6
I45
sg7
I15
sg8
I0
sg9
I2
sg10
I1
sg11
I1340
ssg12
(dp25
g5
I2732
sg6
I45
sg7
I15
sg8
I28
sg9
I2
sg10
I0
sg11
I1350
ssg14
(dp26
g5
I1849
sg6
I58
sg7
I3
sg8
I13
sg9
I1
sg10
I7
sg11
I1400
ssg16
(dp27
g5
I1600
sg6
I47
sg7
I14
sg8
I0
sg9
I1
sg10
I6
sg11
I1600
ssg18
(dp28
g5
I1330
sg6
I38
sg7
I21
sg8
I0
sg9
I3
sg10
I1
sg11
I1330
ssg20
(dp29
g5
I1310
sg6
I43
sg7
I17
sg8
I0
sg9
I2
sg10
I3
sg11
I1310
sssS'Hall.csv'
p30
(dp31
g3
(dp32
g5
I1050
sg6
I67
sg7
I36
sg8
I0
sg9
I3
sg10
I0
sg11
I1050
ssg12
(dp33
g5
I1686
sg6
I76
sg7
I27
sg8
I39
sg9
I3
sg10
I0
sg11
I820
ssg14
(dp34
g5
I878
sg6
I90
sg7
I12
sg8
I18
sg9
I4
sg10
I2
sg11
I660
ssg16
(dp35
g5
I1070
sg6
I73
sg7
I29
sg8
I0
sg9
I4
sg10
I8
sg11
I1070
ssg18
(dp36
g5
I1010
sg6
I69
sg7
I33
sg8
I0
sg9
I4
sg10
I3
sg11
I1010
ssg20
(dp37
g5
I740
sg6
I72
sg7
I30
sg8
I0
sg9
I4
sg10
I2
sg11
I740
sssS'Danijel.csv'
p38
(dp39
g3
(dp40
g5
I1450
sg6
I32
sg7
I13
sg8
I0
sg9
I3
sg10
I3
sg11
I1450
ssg12
(dp41
g5
I1798
sg6
I39
sg7
I7
sg8
I15
sg9
I2
sg10
I0
sg11
I890
ssg14
(dp42
g5
I1325
sg6
I36
sg7
I9
sg8
I7
sg9
I3
sg10
I3
sg11
I1040
ssg16
(dp43
g5
I1510
sg6
I33
sg7
I14
sg8
I0
sg9
I1
sg10
I2
sg11
I1510
ssg18
(dp44
g5
I1790
sg6
I27
sg7
I21
sg8
I0
sg9
I0
sg10
I6
sg11
I1790
ssg20
(dp45
g5
I1200
sg6
I33
sg7
I13
sg8
I0
sg9
I2
sg10
I4
sg11
I1200
sss.(dp0
S'K_all3.csv'
p1
(dp2
S'none'
p3
(dp4
S'count'
p5
I580
sS'truepos'
p6
I27
sS'falseneg'
p7
I12
sS'correction'
p8
I0
sS'unknownyes'
p9
I6
sS'falsepos'
p10
I5
sS'unique'
p11
I580
ssS'three'
p12
(dp13
g5
I1172
sg6
I30
sg7
I9
sg8
I28
sg9
I6
sg10
I0
sg11
I570
ssS'machine'
p14
(dp15
g5
I581
sg6
I31
sg7
I6
sg8
I3
sg9
I8
sg10
I7
sg11
I430
ssS'machine4'
p16
(dp17
g5
I460
sg6
I30
sg7
I5
sg8
I0
sg9
I10
sg10
I5
sg11
I460
ssS'machine3'
p18
(dp19
g5
I580
sg6
I32
sg7
I9
sg8
I0
sg9
I4
sg10
I3
sg11
I580
ssS'machine2'
p20
(dp21
g5
I830
sg6
I22
sg7
I14
sg8
I0
sg9
I9
sg10
I8
sg11
I830
sssS'Wahono.csv'
p22
(dp23
g3
(dp24
g5
I1600
sg6
I44
sg7
I17
sg8
I0
sg9
I1
sg10
I3
sg11
I1600
ssg12
(dp25
g5
I2467
sg6
I45
sg7
I16
sg8
I25
sg9
I1
sg10
I0
sg11
I1220
ssg14
(dp26
g5
I1562
sg6
I53
sg7
I6
sg8
I14
sg9
I3
sg10
I2
sg11
I1160
ssg16
(dp27
g5
I1910
sg6
I40
sg7
I21
sg8
I0
sg9
I1
sg10
I7
sg11
I1910
ssg18
(dp28
g5
I1570
sg6
I45
sg7
I17
sg8
I0
sg9
I0
sg10
I1
sg11
I1570
ssg20
(dp29
g5
I1830
sg6
I46
sg7
I15
sg8
I0
sg9
I1
sg10
I8
sg11
I1830
sssS'Hall.csv'
p30
(dp31
g3
(dp32
g5
I1250
sg6
I67
sg7
I36
sg8
I0
sg9
I3
sg10
I8
sg11
I1250
ssg12
(dp33
g5
I1442
sg6
I81
sg7
I21
sg8
I38
sg9
I4
sg10
I0
sg11
I700
ssg14
(dp34
g5
I783
sg6
I86
sg7
I16
sg8
I18
sg9
I4
sg10
I1
sg11
I560
ssg16
(dp35
g5
I990
sg6
I76
sg7
I27
sg8
I0
sg9
I3
sg10
I3
sg11
I990
ssg18
(dp36
g5
I1140
sg6
I68
sg7
I35
sg8
I0
sg9
I3
sg10
I1
sg11
I1140
ssg20
(dp37
g5
I910
sg6
I69
sg7
I33
sg8
I0
sg9
I4
sg10
I4
sg11
I910
sssS'Danijel.csv'
p38
(dp39
g3
(dp40
g5
I1950
sg6
I29
sg7
I18
sg8
I0
sg9
I1
sg10
I6
sg11
I1950
ssg12
(dp41
g5
I2508
sg6
I31
sg7
I15
sg8
I26
sg9
I2
sg10
I0
sg11
I1240
ssg14
(dp42
g5
I1215
sg6
I40
sg7
I6
sg8
I8
sg9
I2
sg10
I4
sg11
I900
ssg16
(dp43
g5
I1540
sg6
I32
sg7
I15
sg8
I0
sg9
I1
sg10
I4
sg11
I1540
ssg18
(dp44
g5
I1690
sg6
I30
sg7
I18
sg8
I0
sg9
I0
sg10
I2
sg11
I1690
ssg20
(dp45
g5
I1120
sg6
I34
sg7
I12
sg8
I0
sg9
I2
sg10
I4
sg11
I1120
sss.(dp0
S'K_all3.csv'
p1
(dp2
S'none'
p3
(dp4
S'count'
p5
I650
sS'truepos'
p6
I27
sS'falseneg'
p7
I12
sS'correction'
p8
I0
sS'unknownyes'
p9
I6
sS'falsepos'
p10
I5
sS'unique'
p11
I650
ssS'three'
p12
(dp13
g5
I1146
sg6
I32
sg7
I4
sg8
I24
sg9
I9
sg10
I0
sg11
I560
ssS'machine'
p14
(dp15
g5
I640
sg6
I25
sg7
I9
sg8
I3
sg9
I11
sg10
I8
sg11
I590
ssS'machine4'
p16
(dp17
g5
I990
sg6
I24
sg7
I16
sg8
I0
sg9
I5
sg10
I6
sg11
I990
ssS'machine3'
p18
(dp19
g5
I530
sg6
I26
sg7
I9
sg8
I0
sg9
I10
sg10
I4
sg11
I530
ssS'machine2'
p20
(dp21
g5
I650
sg6
I27
sg7
I10
sg8
I0
sg9
I8
sg10
I6
sg11
I650
sssS'Wahono.csv'
p22
(dp23
g3
(dp24
g5
I1290
sg6
I40
sg7
I19
sg8
I0
sg9
I3
sg10
I2
sg11
I1290
ssg12
(dp25
g5
I2979
sg6
I41
sg7
I18
sg8
I36
sg9
I3
sg10
I0
sg11
I1470
ssg14
(dp26
g5
I2122
sg6
I51
sg7
I7
sg8
I10
sg9
I4
sg10
I4
sg11
I1600
ssg16
(dp27
g5
I1620
sg6
I46
sg7
I15
sg8
I0
sg9
I1
sg10
I5
sg11
I1620
ssg18
(dp28
g5
I1580
sg6
I47
sg7
I12
sg8
I0
sg9
I3
sg10
I3
sg11
I1580
ssg20
(dp29
g5
I1530
sg6
I42
sg7
I19
sg8
I0
sg9
I1
sg10
I3
sg11
I1530
sssS'Hall.csv'
p30
(dp31
g3
(dp32
g5
I1130
sg6
I71
sg7
I32
sg8
I0
sg9
I3
sg10
I5
sg11
I1130
ssg12
(dp33
g5
I1278
sg6
I87
sg7
I15
sg8
I54
sg9
I4
sg10
I0
sg11
I610
ssg14
(dp34
g5
I825
sg6
I90
sg7
I12
sg8
I20
sg9
I4
sg10
I2
sg11
I590
ssg16
(dp35
g5
I770
sg6
I71
sg7
I31
sg8
I0
sg9
I4
sg10
I1
sg11
I770
ssg18
(dp36
g5
I1110
sg6
I64
sg7
I39
sg8
I0
sg9
I3
sg10
I1
sg11
I1110
ssg20
(dp37
g5
I950
sg6
I79
sg7
I23
sg8
I0
sg9
I4
sg10
I6
sg11
I950
sssS'Danijel.csv'
p38
(dp39
g3
(dp40
g5
I1570
sg6
I31
sg7
I16
sg8
I0
sg9
I1
sg10
I7
sg11
I1570
ssg12
(dp41
g5
I2709
sg6
I34
sg7
I12
sg8
I23
sg9
I2
sg10
I0
sg11
I1340
ssg14
(dp42
g5
I1281
sg6
I36
sg7
I11
sg8
I7
sg9
I1
sg10
I3
sg11
I1030
ssg16
(dp43
g5
I1820
sg6
I29
sg7
I17
sg8
I0
sg9
I2
sg10
I6
sg11
I1820
ssg18
(dp44
g5
I1210
sg6
I33
sg7
I13
sg8
I0
sg9
I2
sg10
I1
sg11
I1210
ssg20
(dp45
g5
I1390
sg6
I34
sg7
I12
sg8
I0
sg9
I2
sg10
I3
sg11
I1390
sss.(dp0
S'K_all3.csv'
p1
(dp2
S'none'
p3
(dp4
S'count'
p5
I670
sS'truepos'
p6
I23
sS'falseneg'
p7
I14
sS'correction'
p8
I0
sS'unknownyes'
p9
I8
sS'falsepos'
p10
I7
sS'unique'
p11
I670
ssS'three'
p12
(dp13
g5
I1192
sg6
I34
sg7
I4
sg8
I31
sg9
I7
sg10
I0
sg11
I580
ssS'machine'
p14
(dp15
g5
I830
sg6
I29
sg7
I12
sg8
I3
sg9
I4
sg10
I7
sg11
I680
ssS'machine4'
p16
(dp17
g5
I800
sg6
I28
sg7
I11
sg8
I0
sg9
I6
sg10
I4
sg11
I800
ssS'machine3'
p18
(dp19
g5
I840
sg6
I25
sg7
I15
sg8
I0
sg9
I5
sg10
I5
sg11
I840
ssS'machine2'
p20
(dp21
g5
I610
sg6
I30
sg7
I9
sg8
I0
sg9
I6
sg10
I3
sg11
I610
sssS'Wahono.csv'
p22
(dp23
g3
(dp24
g5
I1800
sg6
I43
sg7
I17
sg8
I0
sg9
I2
sg10
I9
sg11
I1800
ssg12
(dp25
g5
I2909
sg6
I41
sg7
I19
sg8
I25
sg9
I2
sg10
I0
sg11
I1440
ssg14
(dp26
g5
I1694
sg6
I53
sg7
I6
sg8
I16
sg9
I3
sg10
I4
sg11
I1210
ssg16
(dp27
g5
I1480
sg6
I45
sg7
I14
sg8
I0
sg9
I3
sg10
I6
sg11
I1480
ssg18
(dp28
g5
I1250
sg6
I36
sg7
I23
sg8
I0
sg9
I3
sg10
I3
sg11
I1250
ssg20
(dp29
g5
I1660
sg6
I45
sg7
I15
sg8
I0
sg9
I2
sg10
I5
sg11
I1660
sssS'Hall.csv'
p30
(dp31
g3
(dp32
g5
I1270
sg6
I65
sg7
I38
sg8
I0
sg9
I3
sg10
I11
sg11
I1270
ssg12
(dp33
g5
I984
sg6
I81
sg7
I18
sg8
I40
sg9
I7
sg10
I0
sg11
I470
ssg14
(dp34
g5
I615
sg6
I95
sg7
I6
sg8
I19
sg9
I5
sg10
I3
sg11
I470
ssg16
(dp35
g5
I1380
sg6
I64
sg7
I39
sg8
I0
sg9
I3
sg10
I4
sg11
I1380
ssg18
(dp36
g5
I1180
sg6
I69
sg7
I33
sg8
I0
sg9
I4
sg10
I7
sg11
I1180
ssg20
(dp37
g5
I710
sg6
I67
sg7
I35
sg8
I0
sg9
I4
sg10
I2
sg11
I710
sssS'Danijel.csv'
p38
(dp39
g3
(dp40
g5
I1560
sg6
I32
sg7
I14
sg8
I0
sg9
I2
sg10
I3
sg11
I1560
ssg12
(dp41
g5
I2582
sg6
I36
sg7
I11
sg8
I20
sg9
I1
sg10
I0
sg11
I1280
ssg14
(dp42
g5
I1163
sg6
I43
sg7
I3
sg8
I12
sg9
I2
sg10
I1
sg11
I890
ssg16
(dp43
g5
I1320
sg6
I31
sg7
I14
sg8
I0
sg9
I3
sg10
I4
sg11
I1320
ssg18
(dp44
g5
I1760
sg6
I28
sg7
I18
sg8
I0
sg9
I2
sg10
I3
sg11
I1760
ssg20
(dp45
g5
I1220
sg6
I35
sg7
I11
sg8
I0
sg9
I2
sg10
I2
sg11
I1220
sss.(dp0
S'K_all3.csv'
p1
(dp2
S'none'
p3
(dp4
S'count'
p5
I680
sS'truepos'
p6
I27
sS'falseneg'
p7
I12
sS'correction'
p8
I0
sS'unknownyes'
p9
I6
sS'falsepos'
p10
I3
sS'unique'
p11
I680
ssS'three'
p12
(dp13
g5
I1252
sg6
I32
sg7
I7
sg8
I30
sg9
I6
sg10
I0
sg11
I610
ssS'machine'
p14
(dp15
g5
I661
sg6
I32
sg7
I5
sg8
I5
sg9
I8
sg10
I6
sg11
I560
ssS'machine4'
p16
(dp17
g5
I630
sg6
I26
sg7
I14
sg8
I0
sg9
I5
sg10
I7
sg11
I630
ssS'machine3'
p18
(dp19
g5
I840
sg6
I23
sg7
I15
sg8
I0
sg9
I7
sg10
I7
sg11
I840
ssS'machine2'
p20
(dp21
g5
I560
sg6
I28
sg7
I7
sg8
I0
sg9
I10
sg10
I3
sg11
I560
sssS'Wahono.csv'
p22
(dp23
g3
(dp24
g5
I1420
sg6
I39
sg7
I21
sg8
I0
sg9
I2
sg10
I2
sg11
I1420
ssg12
(dp25
g5
I2520
sg6
I47
sg7
I12
sg8
I35
sg9
I3
sg10
I0
sg11
I1240
ssg14
(dp26
g5
I2173
sg6
I56
sg7
I5
sg8
I13
sg9
I1
sg10
I8
sg11
I1590
ssg16
(dp27
g5
I2310
sg6
I41
sg7
I19
sg8
I0
sg9
I2
sg10
I11
sg11
I2310
ssg18
(dp28
g5
I1590
sg6
I43
sg7
I19
sg8
I0
sg9
I0
sg10
I1
sg11
I1590
ssg20
(dp29
g5
I1400
sg6
I43
sg7
I16
sg8
I0
sg9
I3
sg10
I2
sg11
I1400
sssS'Hall.csv'
p30
(dp31
g3
(dp32
g5
I1400
sg6
I72
sg7
I31
sg8
I0
sg9
I3
sg10
I6
sg11
I1400
ssg12
(dp33
g5
I1499
sg6
I80
sg7
I22
sg8
I50
sg9
I4
sg10
I1
sg11
I720
ssg14
(dp34
g5
I773
sg6
I93
sg7
I9
sg8
I19
sg9
I4
sg10
I3
sg11
I600
ssg16
(dp35
g5
I1140
sg6
I68
sg7
I34
sg8
I0
sg9
I4
sg10
I8
sg11
I1140
ssg18
(dp36
g5
I810
sg6
I74
sg7
I28
sg8
I0
sg9
I4
sg10
I3
sg11
I810
ssg20
(dp37
g5
I1310
sg6
I73
sg7
I31
sg8
I0
sg9
I2
sg10
I6
sg11
I1310
sssS'Danijel.csv'
p38
(dp39
g3
(dp40
g5
I1790
sg6
I30
sg7
I17
sg8
I0
sg9
I1
sg10
I3
sg11
I1790
ssg12
(dp41
g5
I1843
sg6
I38
sg7
I8
sg8
I22
sg9
I2
sg10
I0
sg11
I910
ssg14
(dp42
g5
I1077
sg6
I41
sg7
I5
sg8
I9
sg9
I2
sg10
I0
sg11
I760
ssg16
(dp43
g5
I1610
sg6
I29
sg7
I18
sg8
I0
sg9
I1
sg10
I1
sg11
I1610
ssg18
(dp44
g5
I1640
sg6
I29
sg7
I19
sg8
I0
sg9
I0
sg10
I5
sg11
I1640
ssg20
(dp45
g5
I820
sg6
I38
sg7
I8
sg8
I0
sg9
I2
sg10
I3
sg11
I820
sss.(dp0
S'K_all3.csv'
p1
(dp2
S'none'
p3
(dp4
S'count'
p5
I710
sS'truepos'
p6
I27
sS'falseneg'
p7
I11
sS'correction'
p8
I0
sS'unknownyes'
p9
I7
sS'falsepos'
p10
I3
sS'unique'
p11
I710
ssS'three'
p12
(dp13
g5
I1128
sg6
I31
sg7
I7
sg8
I26
sg9
I7
sg10
I0
sg11
I550
ssS'machine'
p14
(dp15
g5
I686
sg6
I33
sg7
I4
sg8
I4
sg9
I8
sg10
I5
sg11
I540
ssS'machine4'
p16
(dp17
g5
I660
sg6
I26
sg7
I13
sg8
I0
sg9
I6
sg10
I6
sg11
I660
ssS'machine3'
p18
(dp19
g5
I650
sg6
I28
sg7
I12
sg8
I0
sg9
I5
sg10
I5
sg11
I650
ssS'machine2'
p20
(dp21
g5
I800
sg6
I26
sg7
I15
sg8
I0
sg9
I4
sg10
I4
sg11
I800
sssS'Wahono.csv'
p22
(dp23
g3
(dp24
g5
I1530
sg6
I43
sg7
I16
sg8
I0
sg9
I3
sg10
I4
sg11
I1530
ssg12
(dp25
g5
I2654
sg6
I49
sg7
I12
sg8
I30
sg9
I1
sg10
I0
sg11
I1310
ssg14
(dp26
g5
I1950
sg6
I56
sg7
I3
sg8
I12
sg9
I3
sg10
I7
sg11
I1370
ssg16
(dp27
g5
I1530
sg6
I44
sg7
I15
sg8
I0
sg9
I3
sg10
I4
sg11
I1530
ssg18
(dp28
g5
I1310
sg6
I41
sg7
I18
sg8
I0
sg9
I3
sg10
I2
sg11
I1310
ssg20
(dp29
g5
I1500
sg6
I47
sg7
I12
sg8
I0
sg9
I3
sg10
I4
sg11
I1500
sssS'Hall.csv'
p30
(dp31
g3
(dp32
g5
I1110
sg6
I69
sg7
I33
sg8
I0
sg9
I4
sg10
I3
sg11
I1110
ssg12
(dp33
g5
I1246
sg6
I86
sg7
I16
sg8
I44
sg9
I4
sg10
I0
sg11
I600
ssg14
(dp34
g5
I806
sg6
I93
sg7
I9
sg8
I24
sg9
I4
sg10
I2
sg11
I610
ssg16
(dp35
g5
I1160
sg6
I66
sg7
I36
sg8
I0
sg9
I4
sg10
I5
sg11
I1160
ssg18
(dp36
g5
I1250
sg6
I77
sg7
I26
sg8
I0
sg9
I3
sg10
I4
sg11
I1250
ssg20
(dp37
g5
I850
sg6
I82
sg7
I21
sg8
I0
sg9
I3
sg10
I2
sg11
I850
sssS'Danijel.csv'
p38
(dp39
g3
(dp40
g5
I2480
sg6
I28
sg7
I20
sg8
I0
sg9
I0
sg10
I2
sg11
I2480
ssg12
(dp41
g5
I2647
sg6
I35
sg7
I11
sg8
I23
sg9
I2
sg10
I0
sg11
I1310
ssg14
(dp42
g5
I1103
sg6
I39
sg7
I6
sg8
I7
sg9
I3
sg10
I5
sg11
I780
ssg16
(dp43
g5
I1290
sg6
I36
sg7
I10
sg8
I0
sg9
I2
sg10
I4
sg11
I1290
ssg18
(dp44
g5
I1190
sg6
I32
sg7
I14
sg8
I0
sg9
I2
sg10
I5
sg11
I1190
ssg20
(dp45
g5
I1110
sg6
I34
sg7
I12
sg8
I0
sg9
I2
sg10
I1
sg11
I1110
sss.(dp0
S'K_all3.csv'
p1
(dp2
S'none'
p3
(dp4
S'count'
p5
I890
sS'truepos'
p6
I28
sS'falseneg'
p7
I13
sS'correction'
p8
I0
sS'unknownyes'
p9
I4
sS'falsepos'
p10
I2
sS'unique'
p11
I890
ssS'three'
p12
(dp13
g5
I1163
sg6
I31
sg7
I6
sg8
I22
sg9
I8
sg10
I0
sg11
I570
ssS'machine'
p14
(dp15
g5
I1166
sg6
I24
sg7
I16
sg8
I0
sg9
I5
sg10
I6
sg11
I1160
ssS'machine4'
p16
(dp17
g5
I760
sg6
I29
sg7
I11
sg8
I0
sg9
I5
sg10
I2
sg11
I760
ssS'machine3'
p18
(dp19
g5
I580
sg6
I26
sg7
I10
sg8
I0
sg9
I9
sg10
I4
sg11
I580
ssS'machine2'
p20
(dp21
g5
I590
sg6
I27
sg7
I9
sg8
I0
sg9
I9
sg10
I7
sg11
I590
sssS'Wahono.csv'
p22
(dp23
g3
(dp24
g5
I1570
sg6
I41
sg7
I18
sg8
I0
sg9
I3
sg10
I3
sg11
I1570
ssg12
(dp25
g5
I2555
sg6
I46
sg7
I13
sg8
I30
sg9
I3
sg10
I0
sg11
I1260
ssg14
(dp26
g5
I2047
sg6
I54
sg7
I6
sg8
I10
sg9
I2
sg10
I3
sg11
I1440
ssg16
(dp27
g5
I1780
sg6
I41
sg7
I18
sg8
I0
sg9
I3
sg10
I7
sg11
I1780
ssg18
(dp28
g5
I1620
sg6
I42
sg7
I18
sg8
I0
sg9
I2
sg10
I3
sg11
I1620
ssg20
(dp29
g5
I1350
sg6
I43
sg7
I18
sg8
I0
sg9
I1
sg10
I2
sg11
I1350
sssS'Hall.csv'
p30
(dp31
g3
(dp32
g5
I1110
sg6
I62
sg7
I40
sg8
I0
sg9
I4
sg10
I5
sg11
I1110
ssg12
(dp33
g5
I1067
sg6
I84
sg7
I18
sg8
I46
sg9
I4
sg10
I0
sg11
I510
ssg14
(dp34
g5
I910
sg6
I87
sg7
I15
sg8
I20
sg9
I4
sg10
I3
sg11
I700
ssg16
(dp35
g5
I1560
sg6
I68
sg7
I35
sg8
I0
sg9
I3
sg10
I8
sg11
I1560
ssg18
(dp36
g5
I890
sg6
I74
sg7
I28
sg8
I0
sg9
I4
sg10
I1
sg11
I890
ssg20
(dp37
g5
I930
sg6
I82
sg7
I20
sg8
I0
sg9
I4
sg10
I4
sg11
I930
sssS'Danijel.csv'
p38
(dp39
g3
(dp40
g5
I1320
sg6
I34
sg7
I12
sg8
I0
sg9
I2
sg10
I3
sg11
I1320
ssg12
(dp41
g5
I2166
sg6
I36
sg7
I11
sg8
I23
sg9
I1
sg10
I0
sg11
I1070
ssg14
(dp42
g5
I1194
sg6
I38
sg7
I8
sg8
I10
sg9
I2
sg10
I2
sg11
I950
ssg16
(dp43
g5
I2050
sg6
I27
sg7
I21
sg8
I0
sg9
I0
sg10
I4
sg11
I2050
ssg18
(dp44
g5
I1270
sg6
I33
sg7
I13
sg8
I0
sg9
I2
sg10
I2
sg11
I1270
ssg20
(dp45
g5
I2170
sg6
I34
sg7
I14
sg8
I0
sg9
I0
sg10
I3
sg11
I2170
sss.(dp0
S'K_all3.csv'
p1
(dp2
S'none'
p3
(dp4
S'count'
p5
I1070
sS'truepos'
p6
I23
sS'falseneg'
p7
I16
sS'correction'
p8
I0
sS'unknownyes'
p9
I6
sS'falsepos'
p10
I7
sS'unique'
p11
I1070
ssS'three'
p12
(dp13
g5
I2170
sg6
I30
sg7
I11
sg8
I29
sg9
I4
sg10
I0
sg11
I1070
ssS'machine'
p14
(dp15
g5
I711
sg6
I31
sg7
I5
sg8
I4
sg9
I9
sg10
I4
sg11
I610
ssS'machine4'
p16
(dp17
g5
I780
sg6
I26
sg7
I14
sg8
I0
sg9
I5
sg10
I4
sg11
I780
ssS'machine3'
p18
(dp19
g5
I650
sg6
I27
sg7
I12
sg8
I0
sg9
I6
sg10
I6
sg11
I650
ssS'machine2'
p20
(dp21
g5
I1010
sg6
I24
sg7
I15
sg8
I0
sg9
I6
sg10
I6
sg11
I1010
sssS'Wahono.csv'
p22
(dp23
g3
(dp24
g5
I1630
sg6
I47
sg7
I14
sg8
I0
sg9
I1
sg10
I5
sg11
I1630
ssg12
(dp25
g5
I2495
sg6
I49
sg7
I11
sg8
I33
sg9
I2
sg10
I0
sg11
I1230
ssg14
(dp26
g5
I1852
sg6
I51
sg7
I9
sg8
I14
sg9
I2
sg10
I6
sg11
I1410
ssg16
(dp27
g5
I1530
sg6
I51
sg7
I9
sg8
I0
sg9
I2
sg10
I5
sg11
I1530
ssg18
(dp28
g5
I1490
sg6
I51
sg7
I10
sg8
I0
sg9
I1
sg10
I4
sg11
I1490
ssg20
(dp29
g5
I1460
sg6
I39
sg7
I21
sg8
I0
sg9
I2
sg10
I3
sg11
I1460
sssS'Hall.csv'
p30
(dp31
g3
(dp32
g5
I880
sg6
I79
sg7
I24
sg8
I0
sg9
I3
sg10
I3
sg11
I880
ssg12
(dp33
g5
I1287
sg6
I78
sg7
I24
sg8
I42
sg9
I4
sg10
I0
sg11
I620
ssg14
(dp34
g5
I744
sg6
I87
sg7
I15
sg8
I15
sg9
I4
sg10
I6
sg11
I540
ssg16
(dp35
g5
I1270
sg6
I76
sg7
I27
sg8
I0
sg9
I3
sg10
I6
sg11
I1270
ssg18
(dp36
g5
I980
sg6
I75
sg7
I28
sg8
I0
sg9
I3
sg10
I2
sg11
I980
ssg20
(dp37
g5
I980
sg6
I66
sg7
I37
sg8
I0
sg9
I3
sg10
I1
sg11
I980
sssS'Danijel.csv'
p38
(dp39
g3
(dp40
g5
I2240
sg6
I25
sg7
I23
sg8
I0
sg9
I0
sg10
I9
sg11
I2240
ssg12
(dp41
g5
I2743
sg6
I30
sg7
I16
sg8
I17
sg9
I2
sg10
I0
sg11
I1360
ssg14
(dp42
g5
I1143
sg6
I36
sg7
I10
sg8
I7
sg9
I2
sg10
I2
sg11
I990
ssg16
(dp43
g5
I1450
sg6
I33
sg7
I13
sg8
I0
sg9
I2
sg10
I1
sg11
I1450
ssg18
(dp44
g5
I1180
sg6
I32
sg7
I14
sg8
I0
sg9
I2
sg10
I2
sg11
I1180
ssg20
(dp45
g5
I1310
sg6
I31
sg7
I15
sg8
I0
sg9
I2
sg10
I3
sg11
I1310
sss.(dp0
S'K_all3.csv'
p1
(dp2
S'none'
p3
(dp4
S'count'
p5
I630
sS'truepos'
p6
I26
sS'falseneg'
p7
I10
sS'correction'
p8
I0
sS'unknownyes'
p9
I9
sS'falsepos'
p10
I6
sS'unique'
p11
I630
ssS'three'
p12
(dp13
g5
I2090
sg6
I29
sg7
I13
sg8
I28
sg9
I3
sg10
I1
sg11
I1030
ssS'machine'
p14
(dp15
g5
I1624
sg6
I20
sg7
I24
sg8
I8
sg9
I1
sg10
I6
sg11
I1600
ssS'machine4'
p16
(dp17
g5
I680
sg6
I24
sg7
I14
sg8
I0
sg9
I7
sg10
I7
sg11
I680
ssS'machine3'
p18
(dp19
g5
I580
sg6
I29
sg7
I8
sg8
I0
sg9
I8
sg10
I3
sg11
I580
ssS'machine2'
p20
(dp21
g5
I650
sg6
I31
sg7
I8
sg8
I0
sg9
I6
sg10
I3
sg11
I650
sssS'Wahono.csv'
p22
(dp23
g3
(dp24
g5
I1610
sg6
I41
sg7
I18
sg8
I0
sg9
I3
sg10
I2
sg11
I1610
ssg12
(dp25
g5
I3050
sg6
I52
sg7
I8
sg8
I28
sg9
I2
sg10
I0
sg11
I1510
ssg14
(dp26
g5
I2033
sg6
I57
sg7
I3
sg8
I11
sg9
I2
sg10
I4
sg11
I1450
ssg16
(dp27
g5
I1280
sg6
I39
sg7
I19
sg8
I0
sg9
I4
sg10
I3
sg11
I1280
ssg18
(dp28
g5
I1290
sg6
I40
sg7
I17
sg8
I0
sg9
I5
sg10
I6
sg11
I1290
ssg20
(dp29
g5
I1330
sg6
I43
sg7
I16
sg8
I0
sg9
I3
sg10
I3
sg11
I1330
sssS'Hall.csv'
p30
(dp31
g3
(dp32
g5
I870
sg6
I74
sg7
I28
sg8
I0
sg9
I4
sg10
I1
sg11
I870
ssg12
(dp33
g5
I1691
sg6
I75
sg7
I27
sg8
I44
sg9
I4
sg10
I0
sg11
I820
ssg14
(dp34
g5
I718
sg6
I94
sg7
I8
sg8
I19
sg9
I4
sg10
I1
sg11
I540
ssg16
(dp35
g5
I1030
sg6
I72
sg7
I31
sg8
I0
sg9
I3
sg10
I2
sg11
I1030
ssg18
(dp36
g5
I800
sg6
I78
sg7
I24
sg8
I0
sg9
I4
sg10
I3
sg11
I800
ssg20
(dp37
g5
I630
sg6
I68
sg7
I34
sg8
I0
sg9
I4
sg10
I1
sg11
I630
sssS'Danijel.csv'
p38
(dp39
g3
(dp40
g5
I1050
sg6
I34
sg7
I12
sg8
I0
sg9
I2
sg10
I2
sg11
I1050
ssg12
(dp41
g5
I2481
sg6
I33
sg7
I14
sg8
I19
sg9
I1
sg10
I0
sg11
I1230
ssg14
(dp42
g5
I1290
sg6
I40
sg7
I6
sg8
I5
sg9
I2
sg10
I5
sg11
I930
ssg16
(dp43
g5
I1210
sg6
I35
sg7
I11
sg8
I0
sg9
I2
sg10
I3
sg11
I1210
ssg18
(dp44
g5
I2010
sg6
I29
sg7
I19
sg8
I0
sg9
I0
sg10
I2
sg11
I2010
ssg20
(dp45
g5
I1650
sg6
I32
sg7
I14
sg8
I0
sg9
I2
sg10
I3
sg11
I1650
sss.(dp0
S'K_all3.csv'
p1
(dp2
S'none'
p3
(dp4
S'count'
p5
I620
sS'truepos'
p6
I31
sS'falseneg'
p7
I9
sS'correction'
p8
I0
sS'unknownyes'
p9
I5
sS'falsepos'
p10
I6
sS'unique'
p11
I620
ssS'three'
p12
(dp13
g5
I1197
sg6
I33
sg7
I8
sg8
I16
sg9
I4
sg10
I0
sg11
I590
ssS'machine'
p14
(dp15
g5
I740
sg6
I22
sg7
I14
sg8
I1
sg9
I9
sg10
I9
sg11
I690
ssS'machine4'
p16
(dp17
g5
I580
sg6
I27
sg7
I12
sg8
I0
sg9
I6
sg10
I7
sg11
I580
ssS'machine3'
p18
(dp19
g5
I630
sg6
I28
sg7
I12
sg8
I0
sg9
I5
sg10
I4
sg11
I630
ssS'machine2'
p20
(dp21
g5
I600
sg6
I28
sg7
I7
sg8
I0
sg9
I10
sg10
I6
sg11
I600
sssS'Wahono.csv'
p22
(dp23
g3
(dp24
g5
I1720
sg6
I38
sg7
I21
sg8
I0
sg9
I3
sg10
I3
sg11
I1720
ssg12
(dp25
g5
I2471
sg6
I44
sg7
I15
sg8
I29
sg9
I3
sg10
I0
sg11
I1220
ssg14
(dp26
g5
I2172
sg6
I50
sg7
I9
sg8
I13
sg9
I3
sg10
I8
sg11
I1570
ssg16
(dp27
g5
I1620
sg6
I43
sg7
I18
sg8
I0
sg9
I1
sg10
I6
sg11
I1620
ssg18
(dp28
g5
I1230
sg6
I45
sg7
I14
sg8
I0
sg9
I3
sg10
I0
sg11
I1230
ssg20
(dp29
g5
I1260
sg6
I40
sg7
I18
sg8
I0
sg9
I4
sg10
I3
sg11
I1260
sssS'Hall.csv'
p30
(dp31
g3
(dp32
g5
I1100
sg6
I72
sg7
I31
sg8
I0
sg9
I3
sg10
I4
sg11
I1100
ssg12
(dp33
g5
I1078
sg6
I90
sg7
I12
sg8
I33
sg9
I4
sg10
I0
sg11
I520
ssg14
(dp34
g5
I779
sg6
I94
sg7
I8
sg8
I18
sg9
I4
sg10
I0
sg11
I600
ssg16
(dp35
g5
I1480
sg6
I67
sg7
I36
sg8
I0
sg9
I3
sg10
I1
sg11
I1480
ssg18
(dp36
g5
I890
sg6
I75
sg7
I28
sg8
I0
sg9
I3
sg10
I2
sg11
I890
ssg20
(dp37
g5
I940
sg6
I77
sg7
I25
sg8
I0
sg9
I4
sg10
I1
sg11
I940
sssS'Danijel.csv'
p38
(dp39
g3
(dp40
g5
I1660
sg6
I26
sg7
I21
sg8
I0
sg9
I1
sg10
I4
sg11
I1660
ssg12
(dp41
g5
I1345
sg6
I41
sg7
I5
sg8
I24
sg9
I2
sg10
I0
sg11
I660
ssg14
(dp42
g5
I1324
sg6
I35
sg7
I11
sg8
I6
sg9
I2
sg10
I2
sg11
I1100
ssg16
(dp43
g5
I1930
sg6
I29
sg7
I17
sg8
I0
sg9
I2
sg10
I2
sg11
I1930
ssg18
(dp44
g5
I1370
sg6
I33
sg7
I13
sg8
I0
sg9
I2
sg10
I5
sg11
I1370
ssg20
(dp45
g5
I910
sg6
I37
sg7
I8
sg8
I0
sg9
I3
sg10
I2
sg11
I910
sss.(dp0
S'K_all3.csv'
p1
(dp2
S'none'
p3
(dp4
S'count'
p5
I630
sS'truepos'
p6
I25
sS'falseneg'
p7
I13
sS'correction'
p8
I0
sS'unknownyes'
p9
I7
sS'falsepos'
p10
I6
sS'unique'
p11
I630
ssS'three'
p12
(dp13
g5
I2251
sg6
I30
sg7
I12
sg8
I27
sg9
I3
sg10
I0
sg11
I1110
ssS'machine'
p14
(dp15
g5
I1190
sg6
I23
sg7
I18
sg8
I2
sg9
I4
sg10
I9
sg11
I1140
ssS'machine4'
p16
(dp17
g5
I670
sg6
I25
sg7
I14
sg8
I0
sg9
I6
sg10
I6
sg11
I670
ssS'machine3'
p18
(dp19
g5
I960
sg6
I25
sg7
I16
sg8
I0
sg9
I4
sg10
I5
sg11
I960
ssS'machine2'
p20
(dp21
g5
I630
sg6
I29
sg7
I12
sg8
I0
sg9
I4
sg10
I5
sg11
I630
sssS'Wahono.csv'
p22
(dp23
g3
(dp24
g5
I1720
sg6
I38
sg7
I23
sg8
I0
sg9
I1
sg10
I6
sg11
I1720
ssg12
(dp25
g5
I3188
sg6
I46
sg7
I14
sg8
I25
sg9
I2
sg10
I0
sg11
I1580
ssg14
(dp26
g5
I1696
sg6
I56
sg7
I5
sg8
I19
sg9
I1
sg10
I1
sg11
I1280
ssg16
(dp27
g5
I1410
sg6
I38
sg7
I22
sg8
I0
sg9
I2
sg10
I0
sg11
I1410
ssg18
(dp28
g5
I1830
sg6
I45
sg7
I16
sg8
I0
sg9
I1
sg10
I5
sg11
I1830
ssg20
(dp29
g5
I1510
sg6
I43
sg7
I17
sg8
I0
sg9
I2
sg10
I3
sg11
I1510
sssS'Hall.csv'
p30
(dp31
g3
(dp32
g5
I1210
sg6
I67
sg7
I36
sg8
I0
sg9
I3
sg10
I4
sg11
I1210
ssg12
(dp33
g5
I1333
sg6
I81
sg7
I21
sg8
I48
sg9
I4
sg10
I0
sg11
I640
ssg14
(dp34
g5
I907
sg6
I92
sg7
I10
sg8
I20
sg9
I4
sg10
I5
sg11
I720
ssg16
(dp35
g5
I740
sg6
I75
sg7
I27
sg8
I0
sg9
I4
sg10
I3
sg11
I740
ssg18
(dp36
g5
I1360
sg6
I69
sg7
I34
sg8
I0
sg9
I3
sg10
I4
sg11
I1360
ssg20
(dp37
g5
I1030
sg6
I76
sg7
I27
sg8
I0
sg9
I3
sg10
I4
sg11
I1030
sssS'Danijel.csv'
p38
(dp39
g3
(dp40
g5
I1490
sg6
I30
sg7
I17
sg8
I0
sg9
I1
sg10
I5
sg11
I1490
ssg12
(dp41
g5
I2869
sg6
I38
sg7
I9
sg8
I26
sg9
I1
sg10
I0
sg11
I1420
ssg14
(dp42
g5
I2092
sg6
I28
sg7
I18
sg8
I0
sg9
I2
sg10
I2
sg11
I2090
ssg16
(dp43
g5
I1990
sg6
I26
sg7
I19
sg8
I0
sg9
I3
sg10
I4
sg11
I1990
ssg18
(dp44
g5
I1320
sg6
I30
sg7
I16
sg8
I0
sg9
I2
sg10
I2
sg11
I1320
ssg20
(dp45
g5
I1340
sg6
I32
sg7
I15
sg8
I0
sg9
I1
sg10
I3
sg11
I1340
sss.(dp0
S'K_all3.csv'
p1
(dp2
S'machine'
p3
(dp4
S'count'
p5
I471
sS'truepos'
p6
I27
sS'falseneg'
p7
I9
sS'correction'
p8
I1
sS'unknownyes'
p9
I9
sS'falsepos'
p10
I6
sS'unique'
p11
I470
ssS'knee'
p12
(dp13
g5
I865
sg6
I31
sg7
I5
sg8
I11
sg9
I9
sg10
I1
sg11
I660
ssS'none'
p14
(dp15
g5
I620
sg6
I29
sg7
I6
sg8
I0
sg9
I10
sg10
I4
sg11
I620
ssS'three'
p16
(dp17
g5
I1931
sg6
I30
sg7
I11
sg8
I26
sg9
I4
sg10
I0
sg11
I950
sssS'Wahono.csv'
p18
(dp19
g3
(dp20
g5
I1764
sg6
I54
sg7
I7
sg8
I15
sg9
I1
sg10
I5
sg11
I1250
ssg12
(dp21
g5
I24
sg6
I6
sg7
I0
sg8
I0
sg9
I56
sg10
I0
sg11
I20
ssg14
(dp22
g5
I1630
sg6
I41
sg7
I18
sg8
I0
sg9
I3
sg10
I2
sg11
I1630
ssg16
(dp23
g5
I2972
sg6
I44
sg7
I16
sg8
I26
sg9
I2
sg10
I0
sg11
I1470
sssS'Hall.csv'
p24
(dp25
g3
(dp26
g5
I830
sg6
I89
sg7
I13
sg8
I15
sg9
I4
sg10
I2
sg11
I660
ssg12
(dp27
g5
I546
sg6
I93
sg7
I8
sg8
I19
sg9
I5
sg10
I1
sg11
I380
ssg14
(dp28
g5
I800
sg6
I73
sg7
I29
sg8
I0
sg9
I4
sg10
I3
sg11
I800
ssg16
(dp29
g5
I1867
sg6
I74
sg7
I28
sg8
I41
sg9
I4
sg10
I0
sg11
I910
sssS'Danijel.csv'
p30
(dp31
g3
(dp32
g5
I1163
sg6
I42
sg7
I3
sg8
I6
sg9
I3
sg10
I2
sg11
I800
ssg12
(dp33
g5
I36
sg6
I4
sg7
I2
sg8
I0
sg9
I42
sg10
I0
sg11
I30
ssg14
(dp34
g5
I890
sg6
I36
sg7
I9
sg8
I0
sg9
I3
sg10
I2
sg11
I890
ssg16
(dp35
g5
I2774
sg6
I34
sg7
I12
sg8
I31
sg9
I2
sg10
I0
sg11
I1370
sss.(dp0
S'K_all3.csv'
p1
(dp2
S'machine'
p3
(dp4
S'count'
p5
I651
sS'truepos'
p6
I28
sS'falseneg'
p7
I8
sS'correction'
p8
I0
sS'unknownyes'
p9
I9
sS'falsepos'
p10
I6
sS'unique'
p11
I500
ssS'knee'
p12
(dp13
g5
I388
sg6
I17
sg7
I9
sg8
I3
sg9
I19
sg10
I0
sg11
I280
ssS'none'
p14
(dp15
g5
I710
sg6
I24
sg7
I12
sg8
I0
sg9
I9
sg10
I6
sg11
I710
ssS'three'
p16
(dp17
g5
I1347
sg6
I31
sg7
I8
sg8
I25
sg9
I6
sg10
I0
sg11
I660
sssS'Wahono.csv'
p18
(dp19
g3
(dp20
g5
I1728
sg6
I54
sg7
I5
sg8
I13
sg9
I3
sg10
I4
sg11
I1280
ssg12
(dp21
g5
I1193
sg6
I45
sg7
I13
sg8
I12
sg9
I4
sg10
I1
sg11
I850
ssg14
(dp22
g5
I1730
sg6
I41
sg7
I19
sg8
I0
sg9
I2
sg10
I3
sg11
I1730
ssg16
(dp23
g5
I2641
sg6
I47
sg7
I12
sg8
I19
sg9
I3
sg10
I0
sg11
I1310
sssS'Hall.csv'
p24
(dp25
g3
(dp26
g5
I598
sg6
I90
sg7
I11
sg8
I19
sg9
I5
sg10
I0
sg11
I420
ssg12
(dp27
g5
I770
sg6
I88
sg7
I14
sg8
I19
sg9
I4
sg10
I1
sg11
I570
ssg14
(dp28
g5
I580
sg6
I79
sg7
I23
sg8
I0
sg9
I4
sg10
I2
sg11
I580
ssg16
(dp29
g5
I1450
sg6
I80
sg7
I22
sg8
I47
sg9
I4
sg10
I0
sg11
I700
sssS'Danijel.csv'
p30
(dp31
g3
(dp32
g5
I1194
sg6
I35
sg7
I9
sg8
I6
sg9
I4
sg10
I4
sg11
I840
ssg12
(dp33
g5
I590
sg6
I36
sg7
I6
sg8
I4
sg9
I6
sg10
I0
sg11
I450
ssg14
(dp34
g5
I1570
sg6
I33
sg7
I14
sg8
I0
sg9
I1
sg10
I4
sg11
I1570
ssg16
(dp35
g5
I2990
sg6
I35
sg7
I11
sg8
I29
sg9
I2
sg10
I0
sg11
I1480
sss.(dp0
S'K_all3.csv'
p1
(dp2
S'machine'
p3
(dp4
S'count'
p5
I773
sS'truepos'
p6
I25
sS'falseneg'
p7
I12
sS'correction'
p8
I3
sS'unknownyes'
p9
I8
sS'falsepos'
p10
I13
sS'unique'
p11
I670
ssS'knee'
p12
(dp13
g5
I762
sg6
I29
sg7
I5
sg8
I6
sg9
I11
sg10
I3
sg11
I550
ssS'none'
p14
(dp15
g5
I670
sg6
I24
sg7
I13
sg8
I0
sg9
I8
sg10
I9
sg11
I670
ssS'three'
p16
(dp17
g5
I2720
sg6
I30
sg7
I13
sg8
I35
sg9
I2
sg10
I0
sg11
I1340
sssS'Wahono.csv'
p18
(dp19
g3
(dp20
g5
I2155
sg6
I53
sg7
I8
sg8
I8
sg9
I1
sg10
I3
sg11
I1670
ssg12
(dp21
g5
I24
sg6
I6
sg7
I0
sg8
I0
sg9
I56
sg10
I0
sg11
I20
ssg14
(dp22
g5
I1620
sg6
I44
sg7
I16
sg8
I0
sg9
I2
sg10
I4
sg11
I1620
ssg16
(dp23
g5
I2472
sg6
I49
sg7
I10
sg8
I29
sg9
I3
sg10
I0
sg11
I1220
sssS'Hall.csv'
p24
(dp25
g3
(dp26
g5
I685
sg6
I92
sg7
I9
sg8
I19
sg9
I5
sg10
I5
sg11
I520
ssg12
(dp27
g5
I566
sg6
I85
sg7
I13
sg8
I12
sg9
I8
sg10
I0
sg11
I390
ssg14
(dp28
g5
I820
sg6
I78
sg7
I24
sg8
I0
sg9
I4
sg10
I3
sg11
I820
ssg16
(dp29
g5
I1465
sg6
I79
sg7
I23
sg8
I38
sg9
I4
sg10
I0
sg11
I710
sssS'Danijel.csv'
p30
(dp31
g3
(dp32
g5
I1063
sg6
I41
sg7
I5
sg8
I10
sg9
I2
sg10
I2
sg11
I860
ssg12
(dp33
g5
I929
sg6
I38
sg7
I6
sg8
I8
sg9
I4
sg10
I0
sg11
I700
ssg14
(dp34
g5
I1190
sg6
I34
sg7
I12
sg8
I0
sg9
I2
sg10
I2
sg11
I1190
ssg16
(dp35
g5
I2365
sg6
I35
sg7
I11
sg8
I21
sg9
I2
sg10
I0
sg11
I1170
sss.(dp0
S'K_all3.csv'
p1
(dp2
S'machine'
p3
(dp4
S'count'
p5
I902
sS'truepos'
p6
I25
sS'falseneg'
p7
I14
sS'correction'
p8
I0
sS'unknownyes'
p9
I6
sS'falsepos'
p10
I10
sS'unique'
p11
I900
ssS'knee'
p12
(dp13
g5
I494
sg6
I28
sg7
I3
sg8
I5
sg9
I14
sg10
I6
sg11
I290
ssS'none'
p14
(dp15
g5
I750
sg6
I25
sg7
I13
sg8
I0
sg9
I7
sg10
I6
sg11
I750
ssS'three'
p16
(dp17
g5
I1368
sg6
I29
sg7
I7
sg8
I27
sg9
I9
sg10
I1
sg11
I670
sssS'Wahono.csv'
p18
(dp19
g3
(dp20
g5
I1755
sg6
I50
sg7
I10
sg8
I8
sg9
I2
sg10
I1
sg11
I1390
ssg12
(dp21
g5
I218
sg6
I18
sg7
I5
sg8
I2
sg9
I39
sg10
I0
sg11
I160
ssg14
(dp22
g5
I1850
sg6
I45
sg7
I17
sg8
I0
sg9
I0
sg10
I5
sg11
I1850
ssg16
(dp23
g5
I3456
sg6
I42
sg7
I18
sg8
I31
sg9
I2
sg10
I0
sg11
I1710
sssS'Hall.csv'
p24
(dp25
g3
(dp26
g5
I680
sg6
I100
sg7
I2
sg8
I19
sg9
I4
sg10
I2
sg11
I500
ssg12
(dp27
g5
I643
sg6
I90
sg7
I10
sg8
I20
sg9
I6
sg10
I3
sg11
I410
ssg14
(dp28
g5
I750
sg6
I72
sg7
I30
sg8
I0
sg9
I4
sg10
I1
sg11
I750
ssg16
(dp29
g5
I1331
sg6
I88
sg7
I14
sg8
I45
sg9
I4
sg10
I0
sg11
I640
sssS'Danijel.csv'
p30
(dp31
g3
(dp32
g5
I1370
sg6
I38
sg7
I8
sg8
I7
sg9
I2
sg10
I2
sg11
I1070
ssg12
(dp33
g5
I460
sg6
I33
sg7
I5
sg8
I3
sg9
I10
sg10
I0
sg11
I270
ssg14
(dp34
g5
I1310
sg6
I35
sg7
I12
sg8
I0
sg9
I1
sg10
I3
sg11
I1310
ssg16
(dp35
g5
I2326
sg6
I30
sg7
I17
sg8
I23
sg9
I1
sg10
I0
sg11
I1150
sss.(dp0
S'K_all3.csv'
p1
(dp2
S'machine'
p3
(dp4
S'count'
p5
I799
sS'truepos'
p6
I34
sS'falseneg'
p7
I3
sS'correction'
p8
I7
sS'unknownyes'
p9
I8
sS'falsepos'
p10
I11
sS'unique'
p11
I620
ssS'knee'
p12
(dp13
g5
I1041
sg6
I32
sg7
I10
sg8
I4
sg9
I3
sg10
I1
sg11
I870
ssS'none'
p14
(dp15
g5
I800
sg6
I22
sg7
I16
sg8
I0
sg9
I7
sg10
I9
sg11
I800
ssS'three'
p16
(dp17
g5
I1338
sg6
I30
sg7
I8
sg8
I15
sg9
I7
sg10
I0
sg11
I660
sssS'Wahono.csv'
p18
(dp19
g3
(dp20
g5
I1660
sg6
I53
sg7
I6
sg8
I13
sg9
I3
sg10
I4
sg11
I1230
ssg12
(dp21
g5
I1198
sg6
I47
sg7
I9
sg8
I8
sg9
I6
sg10
I0
sg11
I800
ssg14
(dp22
g5
I1770
sg6
I41
sg7
I19
sg8
I0
sg9
I2
sg10
I3
sg11
I1770
ssg16
(dp23
g5
I3184
sg6
I39
sg7
I22
sg8
I38
sg9
I1
sg10
I0
sg11
I1570
sssS'Hall.csv'
p24
(dp25
g3
(dp26
g5
I645
sg6
I93
sg7
I8
sg8
I18
sg9
I5
sg10
I2
sg11
I470
ssg12
(dp27
g5
I33
sg6
I9
sg7
I1
sg8
I0
sg9
I96
sg10
I0
sg11
I30
ssg14
(dp28
g5
I840
sg6
I72
sg7
I31
sg8
I0
sg9
I3
sg10
I4
sg11
I840
ssg16
(dp29
g5
I1063
sg6
I77
sg7
I25
sg8
I36
sg9
I4
sg10
I0
sg11
I510
sssS'Danijel.csv'
p30
(dp31
g3
(dp32
g5
I1002
sg6
I37
sg7
I8
sg8
I8
sg9
I3
sg10
I4
sg11
I850
ssg12
(dp33
g5
I48
sg6
I3
sg7
I4
sg8
I1
sg9
I41
sg10
I0
sg11
I40
ssg14
(dp34
g5
I1370
sg6
I32
sg7
I14
sg8
I0
sg9
I2
sg10
I8
sg11
I1370
ssg16
(dp35
g5
I2668
sg6
I37
sg7
I9
sg8
I26
sg9
I2
sg10
I0
sg11
I1320
sss.(dp0
S'K_all3.csv'
p1
(dp2
S'machine'
p3
(dp4
S'count'
p5
I905
sS'truepos'
p6
I27
sS'falseneg'
p7
I13
sS'correction'
p8
I4
sS'unknownyes'
p9
I5
sS'falsepos'
p10
I7
sS'unique'
p11
I850
ssS'knee'
p12
(dp13
g5
I2267
sg6
I40
sg7
I5
sg8
I9
sg9
I0
sg10
I5
sg11
I1700
ssS'none'
p14
(dp15
g5
I630
sg6
I31
sg7
I9
sg8
I0
sg9
I5
sg10
I5
sg11
I630
ssS'three'
p16
(dp17
g5
I1123
sg6
I34
sg7
I4
sg8
I21
sg9
I7
sg10
I0
sg11
I550
sssS'Wahono.csv'
p18
(dp19
g3
(dp20
g5
I1741
sg6
I58
sg7
I3
sg8
I11
sg9
I1
sg10
I5
sg11
I1310
ssg12
(dp21
g5
I852
sg6
I49
sg7
I7
sg8
I7
sg9
I6
sg10
I0
sg11
I540
ssg14
(dp22
g5
I1670
sg6
I48
sg7
I14
sg8
I0
sg9
I0
sg10
I4
sg11
I1670
ssg16
(dp23
g5
I3194
sg6
I52
sg7
I10
sg8
I31
sg9
I0
sg10
I0
sg11
I1580
sssS'Hall.csv'
p24
(dp25
g3
(dp26
g5
I728
sg6
I91
sg7
I11
sg8
I15
sg9
I4
sg10
I4
sg11
I530
ssg12
(dp27
g5
I602
sg6
I85
sg7
I14
sg8
I22
sg9
I7
sg10
I0
sg11
I440
ssg14
(dp28
g5
I910
sg6
I77
sg7
I25
sg8
I0
sg9
I4
sg10
I5
sg11
I910
ssg16
(dp29
g5
I1402
sg6
I84
sg7
I18
sg8
I38
sg9
I4
sg10
I0
sg11
I680
sssS'Danijel.csv'
p30
(dp31
g3
(dp32
g5
I1448
sg6
I43
sg7
I3
sg8
I12
sg9
I2
sg10
I5
sg11
I1060
ssg12
(dp33
g5
I339
sg6
I29
sg7
I3
sg8
I7
sg9
I16
sg10
I1
sg11
I220
ssg14
(dp34
g5
I1180
sg6
I34
sg7
I12
sg8
I0
sg9
I2
sg10
I1
sg11
I1180
ssg16
(dp35
g5
I1863
sg6
I37
sg7
I9
sg8
I21
sg9
I2
sg10
I0
sg11
I920
sss.(dp0
S'K_all3.csv'
p1
(dp2
S'machine'
p3
(dp4
S'count'
p5
I542
sS'truepos'
p6
I27
sS'falseneg'
p7
I10
sS'correction'
p8
I0
sS'unknownyes'
p9
I8
sS'falsepos'
p10
I5
sS'unique'
p11
I540
ssS'knee'
p12
(dp13
g5
I362
sg6
I22
sg7
I3
sg8
I4
sg9
I20
sg10
I0
sg11
I220
ssS'none'
p14
(dp15
g5
I710
sg6
I25
sg7
I12
sg8
I0
sg9
I8
sg10
I9
sg11
I710
ssS'three'
p16
(dp17
g5
I1166
sg6
I30
sg7
I8
sg8
I24
sg9
I7
sg10
I1
sg11
I570
sssS'Wahono.csv'
p18
(dp19
g3
(dp20
g5
I1900
sg6
I50
sg7
I9
sg8
I15
sg9
I3
sg10
I0
sg11
I1480
ssg12
(dp21
g5
I234
sg6
I18
sg7
I8
sg8
I7
sg9
I36
sg10
I0
sg11
I190
ssg14
(dp22
g5
I1680
sg6
I47
sg7
I13
sg8
I0
sg9
I2
sg10
I6
sg11
I1680
ssg16
(dp23
g5
I3118
sg6
I50
sg7
I10
sg8
I37
sg9
I2
sg10
I0
sg11
I1540
sssS'Hall.csv'
p24
(dp25
g3
(dp26
g5
I905
sg6
I87
sg7
I15
sg8
I21
sg9
I4
sg10
I3
sg11
I680
ssg12
(dp27
g5
I543
sg6
I81
sg7
I16
sg8
I13
sg9
I9
sg10
I1
sg11
I400
ssg14
(dp28
g5
I1130
sg6
I62
sg7
I41
sg8
I0
sg9
I3
sg10
I0
sg11
I1130
ssg16
(dp29
g5
I1001
sg6
I82
sg7
I20
sg8
I38
sg9
I4
sg10
I0
sg11
I480
sssS'Danijel.csv'
p30
(dp31
g3
(dp32
g5
I1247
sg6
I44
sg7
I1
sg8
I9
sg9
I3
sg10
I2
sg11
I880
ssg12
(dp33
g5
I411
sg6
I27
sg7
I11
sg8
I4
sg9
I10
sg10
I0
sg11
I300
ssg14
(dp34
g5
I1790
sg6
I29
sg7
I17
sg8
I0
sg9
I2
sg10
I3
sg11
I1790
ssg16
(dp35
g5
I1978
sg6
I36
sg7
I10
sg8
I16
sg9
I2
sg10
I0
sg11
I980
sss.(dp0
S'K_all3.csv'
p1
(dp2
S'machine'
p3
(dp4
S'count'
p5
I752
sS'truepos'
p6
I27
sS'falseneg'
p7
I9
sS'correction'
p8
I4
sS'unknownyes'
p9
I9
sS'falsepos'
p10
I6
sS'unique'
p11
I700
ssS'knee'
p12
(dp13
g5
I270
sg6
I16
sg7
I3
sg8
I4
sg9
I26
sg10
I0
sg11
I190
ssS'none'
p14
(dp15
g5
I770
sg6
I28
sg7
I13
sg8
I0
sg9
I4
sg10
I4
sg11
I770
ssS'three'
p16
(dp17
g5
I936
sg6
I35
sg7
I3
sg8
I16
sg9
I7
sg10
I0
sg11
I460
sssS'Wahono.csv'
p18
(dp19
g3
(dp20
g5
I1650
sg6
I52
sg7
I7
sg8
I7
sg9
I3
sg10
I1
sg11
I1220
ssg12
(dp21
g5
I1360
sg6
I47
sg7
I11
sg8
I7
sg9
I4
sg10
I2
sg11
I970
ssg14
(dp22
g5
I1730
sg6
I41
sg7
I18
sg8
I0
sg9
I3
sg10
I4
sg11
I1730
ssg16
(dp23
g5
I2628
sg6
I47
sg7
I12
sg8
I26
sg9
I3
sg10
I0
sg11
I1300
sssS'Hall.csv'
p24
(dp25
g3
(dp26
g5
I557
sg6
I86
sg7
I14
sg8
I19
sg9
I6
sg10
I2
sg11
I420
ssg12
(dp27
g5
I602
sg6
I77
sg7
I24
sg8
I16
sg9
I5
sg10
I0
sg11
I470
ssg14
(dp28
g5
I1180
sg6
I71
sg7
I32
sg8
I0
sg9
I3
sg10
I8
sg11
I1180
ssg16
(dp29
g5
I1271
sg6
I76
sg7
I26
sg8
I39
sg9
I4
sg10
I0
sg11
I610
sssS'Danijel.csv'
p30
(dp31
g3
(dp32
g5
I1371
sg6
I36
sg7
I9
sg8
I7
sg9
I3
sg10
I2
sg11
I1270
ssg12
(dp33
g5
I1207
sg6
I37
sg7
I9
sg8
I7
sg9
I2
sg10
I3
sg11
I890
ssg14
(dp34
g5
I1410
sg6
I31
sg7
I15
sg8
I0
sg9
I2
sg10
I2
sg11
I1410
ssg16
(dp35
g5
I2627
sg6
I32
sg7
I14
sg8
I27
sg9
I2
sg10
I0
sg11
I1300
sss.(dp0
S'K_all3.csv'
p1
(dp2
S'machine'
p3
(dp4
S'count'
p5
I542
sS'truepos'
p6
I32
sS'falseneg'
p7
I2
sS'correction'
p8
I4
sS'unknownyes'
p9
I11
sS'falsepos'
p10
I7
sS'unique'
p11
I440
ssS'knee'
p12
(dp13
g5
I639
sg6
I27
sg7
I3
sg8
I8
sg9
I15
sg10
I8
sg11
I390
ssS'none'
p14
(dp15
g5
I730
sg6
I25
sg7
I11
sg8
I0
sg9
I9
sg10
I5
sg11
I730
ssS'three'
p16
(dp17
g5
I1122
sg6
I34
sg7
I6
sg8
I20
sg9
I5
sg10
I0
sg11
I550
sssS'Wahono.csv'
p18
(dp19
g3
(dp20
g5
I1704
sg6
I56
sg7
I4
sg8
I10
sg9
I2
sg10
I3
sg11
I1260
ssg12
(dp21
g5
I1304
sg6
I51
sg7
I8
sg8
I13
sg9
I3
sg10
I0
sg11
I1070
ssg14
(dp22
g5
I1760
sg6
I46
sg7
I16
sg8
I0
sg9
I0
sg10
I8
sg11
I1760
ssg16
(dp23
g5
I3168
sg6
I45
sg7
I14
sg8
I27
sg9
I3
sg10
I0
sg11
I1570
sssS'Hall.csv'
p24
(dp25
g3
(dp26
g5
I658
sg6
I91
sg7
I11
sg8
I20
sg9
I4
sg10
I2
sg11
I490
ssg12
(dp27
g5
I431
sg6
I82
sg7
I11
sg8
I19
sg9
I13
sg10
I1
sg11
I280
ssg14
(dp28
g5
I1330
sg6
I71
sg7
I32
sg8
I0
sg9
I3
sg10
I3
sg11
I1330
ssg16
(dp29
g5
I1742
sg6
I85
sg7
I17
sg8
I37
sg9
I4
sg10
I0
sg11
I850
sssS'Danijel.csv'
p30
(dp31
g3
(dp32
g5
I1207
sg6
I43
sg7
I3
sg8
I3
sg9
I2
sg10
I5
sg11
I830
ssg12
(dp33
g5
I486
sg6
I30
sg7
I8
sg8
I7
sg9
I10
sg10
I0
sg11
I380
ssg14
(dp34
g5
I1590
sg6
I33
sg7
I14
sg8
I0
sg9
I1
sg10
I3
sg11
I1590
ssg16
(dp35
g5
I2544
sg6
I37
sg7
I9
sg8
I22
sg9
I2
sg10
I0
sg11
I1260
sss.(dp0
S'K_all3.csv'
p1
(dp2
S'machine'
p3
(dp4
S'count'
p5
I892
sS'truepos'
p6
I24
sS'falseneg'
p7
I14
sS'correction'
p8
I0
sS'unknownyes'
p9
I7
sS'falsepos'
p10
I6
sS'unique'
p11
I890
ssS'knee'
p12
(dp13
g5
I2038
sg6
I39
sg7
I5
sg8
I12
sg9
I1
sg10
I12
sg11
I1400
ssS'none'
p14
(dp15
g5
I690
sg6
I28
sg7
I11
sg8
I0
sg9
I6
sg10
I7
sg11
I690
ssS'three'
p16
(dp17
g5
I1088
sg6
I33
sg7
I5
sg8
I27
sg9
I7
sg10
I0
sg11
I530
sssS'Wahono.csv'
p18
(dp19
g3
(dp20
g5
I1886
sg6
I55
sg7
I5
sg8
I12
sg9
I2
sg10
I3
sg11
I1370
ssg12
(dp21
g5
I1018
sg6
I42
sg7
I10
sg8
I5
sg9
I10
sg10
I1
sg11
I700
ssg14
(dp22
g5
I1520
sg6
I43
sg7
I17
sg8
I0
sg9
I2
sg10
I1
sg11
I1520
ssg16
(dp23
g5
I2660
sg6
I47
sg7
I13
sg8
I37
sg9
I2
sg10
I0
sg11
I1310
sssS'Hall.csv'
p24
(dp25
g3
(dp26
g5
I814
sg6
I89
sg7
I13
sg8
I20
sg9
I4
sg10
I3
sg11
I640
ssg12
(dp27
g5
I858
sg6
I90
sg7
I12
sg8
I24
sg9
I4
sg10
I1
sg11
I620
ssg14
(dp28
g5
I740
sg6
I71
sg7
I31
sg8
I0
sg9
I4
sg10
I2
sg11
I740
ssg16
(dp29
g5
I1800
sg6
I80
sg7
I22
sg8
I33
sg9
I4
sg10
I0
sg11
I880
sssS'Danijel.csv'
p30
(dp31
g3
(dp32
g5
I1428
sg6
I42
sg7
I3
sg8
I6
sg9
I3
sg10
I2
sg11
I980
ssg12
(dp33
g5
I439
sg6
I32
sg7
I7
sg8
I8
sg9
I9
sg10
I0
sg11
I300
ssg14
(dp34
g5
I1640
sg6
I30
sg7
I17
sg8
I0
sg9
I1
sg10
I3
sg11
I1640
ssg16
(dp35
g5
I2763
sg6
I35
sg7
I11
sg8
I20
sg9
I2
sg10
I0
sg11
I1370
sss.(dp0
S'K_all3.csv'
p1
(dp2
S'machine'
p3
(dp4
S'count'
p5
I651
sS'truepos'
p6
I27
sS'falseneg'
p7
I10
sS'correction'
p8
I0
sS'unknownyes'
p9
I8
sS'falsepos'
p10
I5
sS'unique'
p11
I650
ssS'knee'
p12
(dp13
g5
I210
sg6
I13
sg7
I8
sg8
I1
sg9
I24
sg10
I0
sg11
I150
ssS'none'
p14
(dp15
g5
I620
sg6
I27
sg7
I10
sg8
I0
sg9
I8
sg10
I7
sg11
I620
ssS'three'
p16
(dp17
g5
I1243
sg6
I33
sg7
I7
sg8
I23
sg9
I5
sg10
I0
sg11
I610
sssS'Wahono.csv'
p18
(dp19
g3
(dp20
g5
I2083
sg6
I54
sg7
I7
sg8
I12
sg9
I1
sg10
I6
sg11
I1430
ssg12
(dp21
g5
I201
sg6
I22
sg7
I6
sg8
I3
sg9
I34
sg10
I0
sg11
I130
ssg14
(dp22
g5
I1780
sg6
I42
sg7
I18
sg8
I0
sg9
I2
sg10
I6
sg11
I1780
ssg16
(dp23
g5
I2832
sg6
I43
sg7
I16
sg8
I28
sg9
I3
sg10
I0
sg11
I1400
sssS'Hall.csv'
p24
(dp25
g3
(dp26
g5
I843
sg6
I93
sg7
I9
sg8
I18
sg9
I4
sg10
I1
sg11
I660
ssg12
(dp27
g5
I665
sg6
I81
sg7
I21
sg8
I17
sg9
I4
sg10
I0
sg11
I530
ssg14
(dp28
g5
I920
sg6
I73
sg7
I29
sg8
I0
sg9
I4
sg10
I5
sg11
I920
ssg16
(dp29
g5
I1329
sg6
I80
sg7
I22
sg8
I41
sg9
I4
sg10
I0
sg11
I640
sssS'Danijel.csv'
p30
(dp31
g3
(dp32
g5
I1169
sg6
I43
sg7
I2
sg8
I11
sg9
I3
sg10
I3
sg11
I870
ssg12
(dp33
g5
I774
sg6
I34
sg7
I8
sg8
I8
sg9
I6
sg10
I1
sg11
I590
ssg14
(dp34
g5
I1470
sg6
I30
sg7
I17
sg8
I0
sg9
I1
sg10
I3
sg11
I1470
ssg16
(dp35
g5
I3351
sg6
I36
sg7
I12
sg8
I28
sg9
I0
sg10
I0
sg11
I1660
sss.(dp0
S'K_all3.csv'
p1
(dp2
S'machine'
p3
(dp4
S'count'
p5
I548
sS'truepos'
p6
I33
sS'falseneg'
p7
I6
sS'correction'
p8
I1
sS'unknownyes'
p9
I6
sS'falsepos'
p10
I5
sS'unique'
p11
I430
ssS'knee'
p12
(dp13
g5
I2147
sg6
I38
sg7
I7
sg8
I19
sg9
I0
sg10
I9
sg11
I1610
ssS'none'
p14
(dp15
g5
I640
sg6
I29
sg7
I10
sg8
I0
sg9
I6
sg10
I3
sg11
I640
ssS'three'
p16
(dp17
g5
I1059
sg6
I31
sg7
I5
sg8
I17
sg9
I9
sg10
I0
sg11
I520
sssS'Wahono.csv'
p18
(dp19
g3
(dp20
g5
I2053
sg6
I55
sg7
I5
sg8
I15
sg9
I2
sg10
I9
sg11
I1420
ssg12
(dp21
g5
I1175
sg6
I47
sg7
I6
sg8
I15
sg9
I9
sg10
I1
sg11
I830
ssg14
(dp22
g5
I1660
sg6
I49
sg7
I12
sg8
I0
sg9
I1
sg10
I4
sg11
I1660
ssg16
(dp23
g5
I3553
sg6
I45
sg7
I16
sg8
I29
sg9
I1
sg10
I0
sg11
I1760
sssS'Hall.csv'
p24
(dp25
g3
(dp26
g5
I681
sg6
I88
sg7
I14
sg8
I15
sg9
I4
sg10
I0
sg11
I500
ssg12
(dp27
g5
I641
sg6
I88
sg7
I11
sg8
I17
sg9
I7
sg10
I1
sg11
I460
ssg14
(dp28
g5
I910
sg6
I69
sg7
I33
sg8
I0
sg9
I4
sg10
I3
sg11
I910
ssg16
(dp29
g5
I1388
sg6
I84
sg7
I18
sg8
I44
sg9
I4
sg10
I0
sg11
I670
sssS'Danijel.csv'
p30
(dp31
g3
(dp32
g5
I1189
sg6
I38
sg7
I8
sg8
I8
sg9
I2
sg10
I2
sg11
I910
ssg12
(dp33
g5
I419
sg6
I29
sg7
I3
sg8
I8
sg9
I16
sg10
I0
sg11
I260
ssg14
(dp34
g5
I1610
sg6
I35
sg7
I12
sg8
I0
sg9
I1
sg10
I3
sg11
I1610
ssg16
(dp35
g5
I2511
sg6
I34
sg7
I12
sg8
I29
sg9
I2
sg10
I0
sg11
I1240
sss.(dp0
S'K_all3.csv'
p1
(dp2
S'machine'
p3
(dp4
S'count'
p5
I972
sS'truepos'
p6
I23
sS'falseneg'
p7
I17
sS'correction'
p8
I1
sS'unknownyes'
p9
I5
sS'falsepos'
p10
I7
sS'unique'
p11
I970
ssS'knee'
p12
(dp13
g5
I302
sg6
I21
sg7
I4
sg8
I2
sg9
I20
sg10
I2
sg11
I200
ssS'none'
p14
(dp15
g5
I750
sg6
I29
sg7
I10
sg8
I0
sg9
I6
sg10
I9
sg11
I750
ssS'three'
p16
(dp17
g5
I1200
sg6
I32
sg7
I5
sg8
I20
sg9
I8
sg10
I0
sg11
I590
sssS'Wahono.csv'
p18
(dp19
g3
(dp20
g5
I1731
sg6
I54
sg7
I6
sg8
I3
sg9
I2
sg10
I4
sg11
I1280
ssg12
(dp21
g5
I478
sg6
I40
sg7
I4
sg8
I5
sg9
I18
sg10
I2
sg11
I310
ssg14
(dp22
g5
I1470
sg6
I42
sg7
I17
sg8
I0
sg9
I3
sg10
I3
sg11
I1470
ssg16
(dp23
g5
I3356
sg6
I45
sg7
I14
sg8
I32
sg9
I3
sg10
I0
sg11
I1660
sssS'Hall.csv'
p24
(dp25
g3
(dp26
g5
I692
sg6
I91
sg7
I11
sg8
I14
sg9
I4
sg10
I2
sg11
I530
ssg12
(dp27
g5
I684
sg6
I84
sg7
I18
sg8
I8
sg9
I4
sg10
I1
sg11
I490
ssg14
(dp28
g5
I1060
sg6
I73
sg7
I30
sg8
I0
sg9
I3
sg10
I4
sg11
I1060
ssg16
(dp29
g5
I1116
sg6
I80
sg7
I21
sg8
I31
sg9
I5
sg10
I1
sg11
I540
sssS'Danijel.csv'
p30
(dp31
g3
(dp32
g5
I1425
sg6
I43
sg7
I2
sg8
I11
sg9
I3
sg10
I8
sg11
I960
ssg12
(dp33
g5
I36
sg6
I4
sg7
I1
sg8
I0
sg9
I43
sg10
I0
sg11
I30
ssg14
(dp34
g5
I1510
sg6
I33
sg7
I14
sg8
I0
sg9
I1
sg10
I4
sg11
I1510
ssg16
(dp35
g5
I3289
sg6
I30
sg7
I16
sg8
I25
sg9
I2
sg10
I0
sg11
I1630
sss.(dp0
S'K_all3.csv'
p1
(dp2
S'machine'
p3
(dp4
S'count'
p5
I733
sS'truepos'
p6
I31
sS'falseneg'
p7
I10
sS'correction'
p8
I4
sS'unknownyes'
p9
I4
sS'falsepos'
p10
I6
sS'unique'
p11
I680
ssS'knee'
p12
(dp13
g5
I520
sg6
I24
sg7
I5
sg8
I6
sg9
I16
sg10
I4
sg11
I330
ssS'none'
p14
(dp15
g5
I670
sg6
I24
sg7
I12
sg8
I0
sg9
I9
sg10
I6
sg11
I670
ssS'three'
p16
(dp17
g5
I1269
sg6
I31
sg7
I6
sg8
I26
sg9
I8
sg10
I0
sg11
I620
sssS'Wahono.csv'
p18
(dp19
g3
(dp20
g5
I2242
sg6
I52
sg7
I10
sg8
I9
sg9
I0
sg10
I5
sg11
I1730
ssg12
(dp21
g5
I187
sg6
I19
sg7
I4
sg8
I4
sg9
I39
sg10
I3
sg11
I140
ssg14
(dp22
g5
I1630
sg6
I35
sg7
I24
sg8
I0
sg9
I3
sg10
I5
sg11
I1630
ssg16
(dp23
g5
I2573
sg6
I50
sg7
I9
sg8
I30
sg9
I3
sg10
I0
sg11
I1270
sssS'Hall.csv'
p24
(dp25
g3
(dp26
g5
I729
sg6
I96
sg7
I6
sg8
I13
sg9
I4
sg10
I6
sg11
I540
ssg12
(dp27
g5
I659
sg6
I89
sg7
I12
sg8
I19
sg9
I5
sg10
I1
sg11
I480
ssg14
(dp28
g5
I840
sg6
I76
sg7
I26
sg8
I0
sg9
I4
sg10
I5
sg11
I840
ssg16
(dp29
g5
I1561
sg6
I76
sg7
I26
sg8
I32
sg9
I4
sg10
I0
sg11
I760
sssS'Danijel.csv'
p30
(dp31
g3
(dp32
g5
I1111
sg6
I38
sg7
I8
sg8
I7
sg9
I2
sg10
I0
sg11
I960
ssg12
(dp33
g5
I673
sg6
I33
sg7
I8
sg8
I9
sg9
I7
sg10
I1
sg11
I510
ssg14
(dp34
g5
I1590
sg6
I29
sg7
I17
sg8
I0
sg9
I2
sg10
I1
sg11
I1590
ssg16
(dp35
g5
I1861
sg6
I38
sg7
I8
sg8
I17
sg9
I2
sg10
I0
sg11
I920
sss.(dp0
S'K_all3.csv'
p1
(dp2
S'machine'
p3
(dp4
S'count'
p5
I710
sS'truepos'
p6
I27
sS'falseneg'
p7
I10
sS'correction'
p8
I2
sS'unknownyes'
p9
I8
sS'falsepos'
p10
I7
sS'unique'
p11
I660
ssS'knee'
p12
(dp13
g5
I701
sg6
I29
sg7
I7
sg8
I7
sg9
I9
sg10
I0
sg11
I490
ssS'none'
p14
(dp15
g5
I660
sg6
I33
sg7
I9
sg8
I0
sg9
I3
sg10
I5
sg11
I660
ssS'three'
p16
(dp17
g5
I1364
sg6
I30
sg7
I8
sg8
I23
sg9
I7
sg10
I0
sg11
I670
sssS'Wahono.csv'
p18
(dp19
g3
(dp20
g5
I1680
sg6
I54
sg7
I5
sg8
I16
sg9
I3
sg10
I3
sg11
I1220
ssg12
(dp21
g5
I1537
sg6
I50
sg7
I8
sg8
I11
sg9
I4
sg10
I4
sg11
I1080
ssg14
(dp22
g5
I1360
sg6
I37
sg7
I22
sg8
I0
sg9
I3
sg10
I1
sg11
I1360
ssg16
(dp23
g5
I3567
sg6
I50
sg7
I12
sg8
I46
sg9
I0
sg10
I0
sg11
I1760
sssS'Hall.csv'
p24
(dp25
g3
(dp26
g5
I743
sg6
I92
sg7
I10
sg8
I26
sg9
I4
sg10
I1
sg11
I570
ssg12
(dp27
g5
I627
sg6
I79
sg7
I22
sg8
I21
sg9
I5
sg10
I0
sg11
I440
ssg14
(dp28
g5
I790
sg6
I73
sg7
I29
sg8
I0
sg9
I4
sg10
I3
sg11
I790
ssg16
(dp29
g5
I1888
sg6
I77
sg7
I25
sg8
I40
sg9
I4
sg10
I0
sg11
I920
sssS'Danijel.csv'
p30
(dp31
g3
(dp32
g5
I1308
sg6
I42
sg7
I4
sg8
I5
sg9
I2
sg10
I3
sg11
I930
ssg12
(dp33
g5
I268
sg6
I17
sg7
I3
sg8
I5
sg9
I28
sg10
I1
sg11
I170
ssg14
(dp34
g5
I1730
sg6
I28
sg7
I19
sg8
I0
sg9
I1
sg10
I7
sg11
I1730
ssg16
(dp35
g5
I2985
sg6
I33
sg7
I14
sg8
I22
sg9
I1
sg10
I0
sg11
I1480
sss.(dp0
S'K_all3.csv'
p1
(dp2
S'machine'
p3
(dp4
S'count'
p5
I610
sS'truepos'
p6
I30
sS'falseneg'
p7
I7
sS'correction'
p8
I2
sS'unknownyes'
p9
I8
sS'falsepos'
p10
I8
sS'unique'
p11
I560
ssS'knee'
p12
(dp13
g5
I439
sg6
I24
sg7
I5
sg8
I3
sg9
I16
sg10
I1
sg11
I260
ssS'none'
p14
(dp15
g5
I580
sg6
I29
sg7
I8
sg8
I0
sg9
I8
sg10
I5
sg11
I580
ssS'three'
p16
(dp17
g5
I1390
sg6
I32
sg7
I10
sg8
I26
sg9
I3
sg10
I0
sg11
I680
sssS'Wahono.csv'
p18
(dp19
g3
(dp20
g5
I1990
sg6
I52
sg7
I7
sg8
I9
sg9
I3
sg10
I4
sg11
I1460
ssg12
(dp21
g5
I679
sg6
I35
sg7
I15
sg8
I8
sg9
I12
sg10
I1
sg11
I520
ssg14
(dp22
g5
I1690
sg6
I40
sg7
I20
sg8
I0
sg9
I2
sg10
I7
sg11
I1690
ssg16
(dp23
g5
I2507
sg6
I42
sg7
I18
sg8
I23
sg9
I2
sg10
I0
sg11
I1240
sssS'Hall.csv'
p24
(dp25
g3
(dp26
g5
I740
sg6
I93
sg7
I9
sg8
I28
sg9
I4
sg10
I2
sg11
I570
ssg12
(dp27
g5
I728
sg6
I79
sg7
I23
sg8
I18
sg9
I4
sg10
I0
sg11
I550
ssg14
(dp28
g5
I970
sg6
I74
sg7
I28
sg8
I0
sg9
I4
sg10
I4
sg11
I970
ssg16
(dp29
g5
I1553
sg6
I78
sg7
I24
sg8
I46
sg9
I4
sg10
I0
sg11
I750
sssS'Danijel.csv'
p30
(dp31
g3
(dp32
g5
I1183
sg6
I38
sg7
I8
sg8
I10
sg9
I2
sg10
I2
sg11
I930
ssg12
(dp33
g5
I36
sg6
I4
sg7
I1
sg8
I0
sg9
I43
sg10
I0
sg11
I30
ssg14
(dp34
g5
I1440
sg6
I30
sg7
I16
sg8
I0
sg9
I2
sg10
I7
sg11
I1440
ssg16
(dp35
g5
I3126
sg6
I38
sg7
I10
sg8
I23
sg9
I0
sg10
I0
sg11
I1550
sss.(dp0
S'K_all3.csv'
p1
(dp2
S'machine'
p3
(dp4
S'count'
p5
I783
sS'truepos'
p6
I31
sS'falseneg'
p7
I8
sS'correction'
p8
I3
sS'unknownyes'
p9
I6
sS'falsepos'
p10
I4
sS'unique'
p11
I680
ssS'knee'
p12
(dp13
g5
I1674
sg6
I38
sg7
I5
sg8
I10
sg9
I2
sg10
I12
sg11
I1090
ssS'none'
p14
(dp15
g5
I830
sg6
I25
sg7
I16
sg8
I0
sg9
I4
sg10
I7
sg11
I830
ssS'three'
p16
(dp17
g5
I1247
sg6
I30
sg7
I6
sg8
I25
sg9
I9
sg10
I0
sg11
I610
sssS'Wahono.csv'
p18
(dp19
g3
(dp20
g5
I1930
sg6
I49
sg7
I11
sg8
I11
sg9
I2
sg10
I4
sg11
I1500
ssg12
(dp21
g5
I785
sg6
I44
sg7
I9
sg8
I8
sg9
I9
sg10
I0
sg11
I580
ssg14
(dp22
g5
I1460
sg6
I42
sg7
I18
sg8
I0
sg9
I2
sg10
I2
sg11
I1460
ssg16
(dp23
g5
I2955
sg6
I52
sg7
I8
sg8
I35
sg9
I2
sg10
I0
sg11
I1460
sssS'Hall.csv'
p24
(dp25
g3
(dp26
g5
I721
sg6
I88
sg7
I14
sg8
I19
sg9
I4
sg10
I0
sg11
I520
ssg12
(dp27
g5
I661
sg6
I86
sg7
I16
sg8
I19
sg9
I4
sg10
I0
sg11
I500
ssg14
(dp28
g5
I700
sg6
I75
sg7
I27
sg8
I0
sg9
I4
sg10
I1
sg11
I700
ssg16
(dp29
g5
I1527
sg6
I79
sg7
I23
sg8
I38
sg9
I4
sg10
I0
sg11
I740
sssS'Danijel.csv'
p30
(dp31
g3
(dp32
g5
I1488
sg6
I32
sg7
I13
sg8
I6
sg9
I3
sg10
I4
sg11
I1430
ssg12
(dp33
g5
I759
sg6
I39
sg7
I2
sg8
I9
sg9
I7
sg10
I2
sg11
I440
ssg14
(dp34
g5
I1290
sg6
I33
sg7
I14
sg8
I0
sg9
I1
sg10
I2
sg11
I1290
ssg16
(dp35
g5
I2710
sg6
I32
sg7
I14
sg8
I23
sg9
I2
sg10
I0
sg11
I1340
sss.(dp0
S'K_all3.csv'
p1
(dp2
S'machine'
p3
(dp4
S'count'
p5
I772
sS'truepos'
p6
I28
sS'falseneg'
p7
I11
sS'correction'
p8
I2
sS'unknownyes'
p9
I6
sS'falsepos'
p10
I4
sS'unique'
p11
I720
ssS'knee'
p12
(dp13
g5
I1974
sg6
I40
sg7
I4
sg8
I10
sg9
I1
sg10
I9
sg11
I1400
ssS'none'
p14
(dp15
g5
I520
sg6
I30
sg7
I2
sg8
I0
sg9
I13
sg10
I4
sg11
I520
ssS'three'
p16
(dp17
g5
I1139
sg6
I30
sg7
I6
sg8
I16
sg9
I9
sg10
I0
sg11
I560
sssS'Wahono.csv'
p18
(dp19
g3
(dp20
g5
I1964
sg6
I52
sg7
I7
sg8
I10
sg9
I3
sg10
I5
sg11
I1420
ssg12
(dp21
g5
I348
sg6
I27
sg7
I3
sg8
I5
sg9
I32
sg10
I0
sg11
I220
ssg14
(dp22
g5
I1780
sg6
I39
sg7
I22
sg8
I0
sg9
I1
sg10
I5
sg11
I1780
ssg16
(dp23
g5
I2872
sg6
I52
sg7
I7
sg8
I30
sg9
I3
sg10
I0
sg11
I1420
sssS'Hall.csv'
p24
(dp25
g3
(dp26
g5
I753
sg6
I93
sg7
I9
sg8
I14
sg9
I4
sg10
I1
sg11
I580
ssg12
(dp27
g5
I717
sg6
I87
sg7
I15
sg8
I18
sg9
I4
sg10
I0
sg11
I530
ssg14
(dp28
g5
I770
sg6
I72
sg7
I30
sg8
I0
sg9
I4
sg10
I2
sg11
I770
ssg16
(dp29
g5
I1531
sg6
I79
sg7
I23
sg8
I40
sg9
I4
sg10
I0
sg11
I740
sssS'Danijel.csv'
p30
(dp31
g3
(dp32
g5
I1281
sg6
I41
sg7
I5
sg8
I10
sg9
I2
sg10
I1
sg11
I980
ssg12
(dp33
g5
I799
sg6
I40
sg7
I4
sg8
I9
sg9
I4
sg10
I1
sg11
I600
ssg14
(dp34
g5
I2160
sg6
I24
sg7
I21
sg8
I0
sg9
I3
sg10
I8
sg11
I2160
ssg16
(dp35
g5
I2022
sg6
I35
sg7
I10
sg8
I20
sg9
I3
sg10
I0
sg11
I1000
sss.(dp0
S'K_all3.csv'
p1
(dp2
S'machine'
p3
(dp4
S'count'
p5
I686
sS'truepos'
p6
I26
sS'falseneg'
p7
I13
sS'correction'
p8
I1
sS'unknownyes'
p9
I6
sS'falsepos'
p10
I5
sS'unique'
p11
I680
ssS'knee'
p12
(dp13
g5
I1141
sg6
I32
sg7
I9
sg8
I9
sg9
I4
sg10
I7
sg11
I890
ssS'none'
p14
(dp15
g5
I1090
sg6
I25
sg7
I15
sg8
I0
sg9
I5
sg10
I5
sg11
I1090
ssS'three'
p16
(dp17
g5
I1142
sg6
I31
sg7
I7
sg8
I20
sg9
I7
sg10
I0
sg11
I560
sssS'Wahono.csv'
p18
(dp19
g3
(dp20
g5
I2019
sg6
I51
sg7
I7
sg8
I12
sg9
I4
sg10
I6
sg11
I1370
ssg12
(dp21
g5
I694
sg6
I46
sg7
I5
sg8
I7
sg9
I11
sg10
I1
sg11
I440
ssg14
(dp22
g5
I1190
sg6
I48
sg7
I11
sg8
I0
sg9
I3
sg10
I0
sg11
I1190
ssg16
(dp23
g5
I3233
sg6
I42
sg7
I17
sg8
I29
sg9
I3
sg10
I0
sg11
I1600
sssS'Hall.csv'
p24
(dp25
g3
(dp26
g5
I1015
sg6
I89
sg7
I13
sg8
I21
sg9
I4
sg10
I3
sg11
I800
ssg12
(dp27
g5
I679
sg6
I90
sg7
I11
sg8
I23
sg9
I5
sg10
I1
sg11
I440
ssg14
(dp28
g5
I730
sg6
I69
sg7
I33
sg8
I0
sg9
I4
sg10
I3
sg11
I730
ssg16
(dp29
g5
I1348
sg6
I82
sg7
I20
sg8
I46
sg9
I4
sg10
I0
sg11
I650
sssS'Danijel.csv'
p30
(dp31
g3
(dp32
g5
I1382
sg6
I40
sg7
I6
sg8
I7
sg9
I2
sg10
I4
sg11
I980
ssg12
(dp33
g5
I507
sg6
I33
sg7
I6
sg8
I7
sg9
I9
sg10
I1
sg11
I350
ssg14
(dp34
g5
I2610
sg6
I22
sg7
I24
sg8
I0
sg9
I2
sg10
I8
sg11
I2610
ssg16
(dp35
g5
I1701
sg6
I39
sg7
I7
sg8
I16
sg9
I2
sg10
I0
sg11
I840
sss.(dp0
S'K_all3.csv'
p1
(dp2
S'machine'
p3
(dp4
S'count'
p5
I681
sS'truepos'
p6
I37
sS'falseneg'
p7
I1
sS'correction'
p8
I7
sS'unknownyes'
p9
I7
sS'falsepos'
p10
I2
sS'unique'
p11
I530
ssS'knee'
p12
(dp13
g5
I408
sg6
I24
sg7
I4
sg8
I5
sg9
I17
sg10
I5
sg11
I260
ssS'none'
p14
(dp15
g5
I590
sg6
I31
sg7
I9
sg8
I0
sg9
I5
sg10
I6
sg11
I590
ssS'three'
p16
(dp17
g5
I1426
sg6
I33
sg7
I7
sg8
I24
sg9
I5
sg10
I0
sg11
I700
sssS'Wahono.csv'
p18
(dp19
g3
(dp20
g5
I1831
sg6
I54
sg7
I7
sg8
I12
sg9
I1
sg10
I7
sg11
I1360
ssg12
(dp21
g5
I1685
sg6
I50
sg7
I10
sg8
I11
sg9
I2
sg10
I2
sg11
I1170
ssg14
(dp22
g5
I1750
sg6
I36
sg7
I23
sg8
I0
sg9
I3
sg10
I4
sg11
I1750
ssg16
(dp23
g5
I2927
sg6
I48
sg7
I13
sg8
I27
sg9
I1
sg10
I0
sg11
I1450
sssS'Hall.csv'
p24
(dp25
g3
(dp26
g5
I679
sg6
I93
sg7
I9
sg8
I21
sg9
I4
sg10
I2
sg11
I510
ssg12
(dp27
g5
I638
sg6
I84
sg7
I16
sg8
I18
sg9
I6
sg10
I0
sg11
I460
ssg14
(dp28
g5
I1060
sg6
I70
sg7
I32
sg8
I0
sg9
I4
sg10
I5
sg11
I1060
ssg16
(dp29
g5
I1225
sg6
I88
sg7
I14
sg8
I42
sg9
I4
sg10
I0
sg11
I590
sssS'Danijel.csv'
p30
(dp31
g3
(dp32
g5
I1144
sg6
I40
sg7
I5
sg8
I9
sg9
I3
sg10
I5
sg11
I800
ssg12
(dp33
g5
I1239
sg6
I33
sg7
I13
sg8
I10
sg9
I2
sg10
I0
sg11
I1000
ssg14
(dp34
g5
I1380
sg6
I32
sg7
I14
sg8
I0
sg9
I2
sg10
I3
sg11
I1380
ssg16
(dp35
g5
I1946
sg6
I35
sg7
I11
sg8
I23
sg9
I2
sg10
I0
sg11
I960
sss.(dp0
S'K_all3.csv'
p1
(dp2
S'machine'
p3
(dp4
S'count'
p5
I741
sS'truepos'
p6
I27
sS'falseneg'
p7
I9
sS'correction'
p8
I3
sS'unknownyes'
p9
I9
sS'falsepos'
p10
I6
sS'unique'
p11
I640
ssS'knee'
p12
(dp13
g5
I1995
sg6
I36
sg7
I7
sg8
I11
sg9
I2
sg10
I7
sg11
I1420
ssS'none'
p14
(dp15
g5
I700
sg6
I24
sg7
I16
sg8
I0
sg9
I5
sg10
I6
sg11
I700
ssS'three'
p16
(dp17
g5
I1100
sg6
I32
sg7
I6
sg8
I18
sg9
I7
sg10
I0
sg11
I540
sssS'Wahono.csv'
p18
(dp19
g3
(dp20
g5
I2104
sg6
I49
sg7
I11
sg8
I9
sg9
I2
sg10
I5
sg11
I1540
ssg12
(dp21
g5
I1457
sg6
I53
sg7
I6
sg8
I19
sg9
I3
sg10
I1
sg11
I1100
ssg14
(dp22
g5
I1660
sg6
I47
sg7
I13
sg8
I0
sg9
I2
sg10
I9
sg11
I1660
ssg16
(dp23
g5
I3314
sg6
I49
sg7
I11
sg8
I31
sg9
I2
sg10
I0
sg11
I1640
sssS'Hall.csv'
p24
(dp25
g3
(dp26
g5
I851
sg6
I92
sg7
I10
sg8
I19
sg9
I4
sg10
I5
sg11
I680
ssg12
(dp27
g5
I485
sg6
I95
sg7
I4
sg8
I15
sg9
I7
sg10
I0
sg11
I350
ssg14
(dp28
g5
I830
sg6
I74
sg7
I28
sg8
I0
sg9
I4
sg10
I0
sg11
I830
ssg16
(dp29
g5
I1509
sg6
I86
sg7
I16
sg8
I42
sg9
I4
sg10
I0
sg11
I730
sssS'Danijel.csv'
p30
(dp31
g3
(dp32
g5
I1740
sg6
I31
sg7
I14
sg8
I4
sg9
I3
sg10
I3
sg11
I1690
ssg12
(dp33
g5
I37
sg6
I4
sg7
I1
sg8
I1
sg9
I43
sg10
I1
sg11
I30
ssg14
(dp34
g5
I1710
sg6
I30
sg7
I16
sg8
I0
sg9
I2
sg10
I6
sg11
I1710
ssg16
(dp35
g5
I2321
sg6
I37
sg7
I9
sg8
I18
sg9
I2
sg10
I0
sg11
I1150
sss.