(dp0
S'K_all3.csv'
p1
(dp2
S'machine'
p3
(dp4
S'count'
p5
I524
sS'truepos'
p6
I29
sS'falseneg'
p7
I2
sS'unknownyes'
p8
I14
sS'falsepos'
p9
I20
sS'unique'
p10
I410
ssS'none'
p11
(dp12
g5
I500
sg6
I33
sg7
I1
sg8
I11
sg9
I40
sg10
I500
ssS'three'
p13
(dp14
g5
I871
sg6
I29
sg7
I3
sg8
I13
sg9
I9
sg10
I400
sssS'Wahono.csv'
p15
(dp16
g3
(dp17
g5
I1803
sg6
I57
sg7
I2
sg8
I3
sg9
I19
sg10
I1360
ssg11
(dp18
g5
I4290
sg6
I60
sg7
I2
sg8
I0
sg9
I434
sg10
I4290
ssg13
(dp19
g5
I3665
sg6
I57
sg7
I3
sg8
I2
sg9
I50
sg10
I1680
sssS'Hall.csv'
p20
(dp21
g3
(dp22
g5
I780
sg6
I96
sg7
I4
sg8
I6
sg9
I13
sg10
I560
ssg11
(dp23
g5
I4980
sg6
I96
sg7
I9
sg8
I1
sg9
I489
sg10
I4980
ssg13
(dp24
g5
I1338
sg6
I98
sg7
I4
sg8
I4
sg9
I16
sg10
I620
sssS'Danijel.csv'
p25
(dp26
g3
(dp27
g5
I1399
sg6
I41
sg7
I4
sg8
I3
sg9
I11
sg10
I1070
ssg11
(dp28
g5
I2920
sg6
I40
sg7
I7
sg8
I1
sg9
I285
sg10
I2920
ssg13
(dp29
g5
I2374
sg6
I46
sg7
I0
sg8
I2
sg9
I31
sg10
I1080
sss.(dp0
S'K_all3.csv'
p1
(dp2
S'machine'
p3
(dp4
S'count'
p5
I644
sS'truepos'
p6
I33
sS'falseneg'
p7
I2
sS'unknownyes'
p8
I10
sS'falsepos'
p9
I14
sS'unique'
p10
I500
ssS'none'
p11
(dp12
g5
I630
sg6
I32
sg7
I3
sg8
I10
sg9
I53
sg10
I630
ssS'three'
p13
(dp14
g5
I891
sg6
I33
sg7
I1
sg8
I11
sg9
I10
sg10
I410
sssS'Wahono.csv'
p15
(dp16
g3
(dp17
g5
I1660
sg6
I53
sg7
I6
sg8
I3
sg9
I16
sg10
I1260
ssg11
(dp18
g5
I2780
sg6
I53
sg7
I7
sg8
I2
sg9
I241
sg10
I2780
ssg13
(dp19
g5
I4239
sg6
I55
sg7
I4
sg8
I3
sg9
I59
sg10
I1940
sssS'Hall.csv'
p20
(dp21
g3
(dp22
g5
I782
sg6
I96
sg7
I6
sg8
I4
sg9
I10
sg10
I570
ssg11
(dp23
g5
I2530
sg6
I96
sg7
I8
sg8
I2
sg9
I236
sg10
I2530
ssg13
(dp24
g5
I2204
sg6
I100
sg7
I3
sg8
I3
sg9
I18
sg10
I1020
sssS'Danijel.csv'
p25
(dp26
g3
(dp27
g5
I933
sg6
I43
sg7
I3
sg8
I2
sg9
I5
sg10
I710
ssg11
(dp28
g5
I910
sg6
I39
sg7
I6
sg8
I3
sg9
I91
sg10
I910
ssg13
(dp29
g5
I1988
sg6
I45
sg7
I1
sg8
I2
sg9
I31
sg10
I910
sss.(dp0
S'K_all3.csv'
p1
(dp2
S'machine'
p3
(dp4
S'count'
p5
I561
sS'truepos'
p6
I29
sS'falseneg'
p7
I5
sS'unknownyes'
p8
I11
sS'falsepos'
p9
I12
sS'unique'
p10
I460
ssS'none'
p11
(dp12
g5
I500
sg6
I30
sg7
I3
sg8
I12
sg9
I56
sg10
I500
ssS'three'
p13
(dp14
g5
I992
sg6
I30
sg7
I0
sg8
I15
sg9
I11
sg10
I450
sssS'Wahono.csv'
p15
(dp16
g3
(dp17
g5
I680
sg6
I47
sg7
I3
sg8
I12
sg9
I12
sg10
I510
ssg11
(dp18
g5
I2610
sg6
I51
sg7
I8
sg8
I3
sg9
I262
sg10
I2610
ssg13
(dp19
g5
I3473
sg6
I59
sg7
I0
sg8
I3
sg9
I36
sg10
I1580
sssS'Hall.csv'
p20
(dp21
g3
(dp22
g5
I523
sg6
I96
sg7
I4
sg8
I6
sg9
I9
sg10
I390
ssg11
(dp23
g5
I1640
sg6
I94
sg7
I8
sg8
I4
sg9
I145
sg10
I1640
ssg13
(dp24
g5
I1179
sg6
I96
sg7
I5
sg8
I5
sg9
I7
sg10
I540
sssS'Danijel.csv'
p25
(dp26
g3
(dp27
g5
I1141
sg6
I36
sg7
I7
sg8
I5
sg9
I14
sg10
I860
ssg11
(dp28
g5
I3060
sg6
I44
sg7
I4
sg8
I0
sg9
I295
sg10
I3060
ssg13
(dp29
g5
I2188
sg6
I46
sg7
I0
sg8
I2
sg9
I26
sg10
I1000
sss.(dp0
S'K_all3.csv'
p1
(dp2
S'machine'
p3
(dp4
S'count'
p5
I460
sS'truepos'
p6
I26
sS'falseneg'
p7
I5
sS'unknownyes'
p8
I14
sS'falsepos'
p9
I13
sS'unique'
p10
I350
ssS'none'
p11
(dp12
g5
I680
sg6
I38
sg7
I4
sg8
I3
sg9
I65
sg10
I680
ssS'three'
p13
(dp14
g5
I875
sg6
I32
sg7
I2
sg8
I11
sg9
I11
sg10
I400
sssS'Wahono.csv'
p15
(dp16
g3
(dp17
g5
I1869
sg6
I56
sg7
I2
sg8
I4
sg9
I16
sg10
I1410
ssg11
(dp18
g5
I2970
sg6
I50
sg7
I7
sg8
I5
sg9
I279
sg10
I2970
ssg13
(dp19
g5
I4821
sg6
I56
sg7
I2
sg8
I4
sg9
I64
sg10
I2210
sssS'Hall.csv'
p20
(dp21
g3
(dp22
g5
I501
sg6
I86
sg7
I10
sg8
I10
sg9
I14
sg10
I370
ssg11
(dp23
g5
I2150
sg6
I92
sg7
I10
sg8
I4
sg9
I193
sg10
I2150
ssg13
(dp24
g5
I2490
sg6
I101
sg7
I1
sg8
I4
sg9
I35
sg10
I1150
sssS'Danijel.csv'
p25
(dp26
g3
(dp27
g5
I729
sg6
I42
sg7
I1
sg8
I5
sg9
I12
sg10
I560
ssg11
(dp28
g5
I1360
sg6
I43
sg7
I3
sg8
I2
sg9
I128
sg10
I1360
ssg13
(dp29
g5
I2012
sg6
I41
sg7
I3
sg8
I4
sg9
I26
sg10
I920
sss.(dp0
S'K_all3.csv'
p1
(dp2
S'machine'
p3
(dp4
S'count'
p5
I448
sS'truepos'
p6
I30
sS'falseneg'
p7
I4
sS'unknownyes'
p8
I11
sS'falsepos'
p9
I8
sS'unique'
p10
I360
ssS'none'
p11
(dp12
g5
I430
sg6
I32
sg7
I5
sg8
I8
sg9
I46
sg10
I430
ssS'three'
p13
(dp14
g5
I886
sg6
I34
sg7
I0
sg8
I11
sg9
I12
sg10
I410
sssS'Wahono.csv'
p15
(dp16
g3
(dp17
g5
I1737
sg6
I55
sg7
I4
sg8
I3
sg9
I16
sg10
I1310
ssg11
(dp18
g5
I3010
sg6
I54
sg7
I6
sg8
I2
sg9
I288
sg10
I3010
ssg13
(dp19
g5
I3823
sg6
I56
sg7
I2
sg8
I4
sg9
I56
sg10
I1750
sssS'Hall.csv'
p20
(dp21
g3
(dp22
g5
I683
sg6
I90
sg7
I11
sg8
I5
sg9
I21
sg10
I510
ssg11
(dp23
g5
I2940
sg6
I94
sg7
I11
sg8
I1
sg9
I270
sg10
I2940
ssg13
(dp24
g5
I2904
sg6
I99
sg7
I3
sg8
I4
sg9
I31
sg10
I1330
sssS'Danijel.csv'
p25
(dp26
g3
(dp27
g5
I680
sg6
I41
sg7
I1
sg8
I6
sg9
I17
sg10
I510
ssg11
(dp28
g5
I2030
sg6
I40
sg7
I5
sg8
I3
sg9
I196
sg10
I2030
ssg13
(dp29
g5
I2665
sg6
I43
sg7
I3
sg8
I2
sg9
I29
sg10
I1240
sss.(dp0
S'K_all3.csv'
p1
(dp2
S'machine'
p3
(dp4
S'count'
p5
I691
sS'truepos'
p6
I32
sS'falseneg'
p7
I5
sS'unknownyes'
p8
I8
sS'falsepos'
p9
I7
sS'unique'
p10
I560
ssS'none'
p11
(dp12
g5
I450
sg6
I30
sg7
I2
sg8
I13
sg9
I37
sg10
I450
ssS'three'
p13
(dp14
g5
I1263
sg6
I37
sg7
I2
sg8
I6
sg9
I19
sg10
I570
sssS'Wahono.csv'
p15
(dp16
g3
(dp17
g5
I1827
sg6
I56
sg7
I5
sg8
I1
sg9
I20
sg10
I1360
ssg11
(dp18
g5
I3100
sg6
I52
sg7
I7
sg8
I3
sg9
I303
sg10
I3100
ssg13
(dp19
g5
I3695
sg6
I55
sg7
I3
sg8
I4
sg9
I59
sg10
I1700
sssS'Hall.csv'
p20
(dp21
g3
(dp22
g5
I713
sg6
I97
sg7
I5
sg8
I4
sg9
I14
sg10
I520
ssg11
(dp23
g5
I1600
sg6
I92
sg7
I10
sg8
I4
sg9
I143
sg10
I1600
ssg13
(dp24
g5
I1406
sg6
I100
sg7
I1
sg8
I5
sg9
I15
sg10
I650
sssS'Danijel.csv'
p25
(dp26
g3
(dp27
g5
I990
sg6
I41
sg7
I4
sg8
I3
sg9
I11
sg10
I760
ssg11
(dp28
g5
I3090
sg6
I43
sg7
I5
sg8
I0
sg9
I301
sg10
I3090
ssg13
(dp29
g5
I1991
sg6
I41
sg7
I3
sg8
I4
sg9
I17
sg10
I910
sss.(dp0
S'K_all3.csv'
p1
(dp2
S'machine'
p3
(dp4
S'count'
p5
I561
sS'truepos'
p6
I34
sS'falseneg'
p7
I3
sS'unknownyes'
p8
I8
sS'falsepos'
p9
I11
sS'unique'
p10
I430
ssS'none'
p11
(dp12
g5
I450
sg6
I32
sg7
I2
sg8
I11
sg9
I48
sg10
I450
ssS'three'
p13
(dp14
g5
I839
sg6
I29
sg7
I1
sg8
I15
sg9
I9
sg10
I390
sssS'Wahono.csv'
p15
(dp16
g3
(dp17
g5
I1944
sg6
I55
sg7
I4
sg8
I3
sg9
I20
sg10
I1460
ssg11
(dp18
g5
I2120
sg6
I55
sg7
I6
sg8
I1
sg9
I219
sg10
I2120
ssg13
(dp19
g5
I4133
sg6
I57
sg7
I2
sg8
I3
sg9
I51
sg10
I1890
sssS'Hall.csv'
p20
(dp21
g3
(dp22
g5
I760
sg6
I99
sg7
I3
sg8
I4
sg9
I23
sg10
I560
ssg11
(dp23
g5
I3870
sg6
I100
sg7
I4
sg8
I2
sg9
I403
sg10
I3870
ssg13
(dp24
g5
I2086
sg6
I99
sg7
I3
sg8
I4
sg9
I22
sg10
I950
sssS'Danijel.csv'
p25
(dp26
g3
(dp27
g5
I1041
sg6
I41
sg7
I2
sg8
I5
sg9
I10
sg10
I790
ssg11
(dp28
g5
I1500
sg6
I37
sg7
I8
sg8
I3
sg9
I134
sg10
I1500
ssg13
(dp29
g5
I2312
sg6
I44
sg7
I1
sg8
I3
sg9
I33
sg10
I1050
sss.(dp0
S'K_all3.csv'
p1
(dp2
S'machine'
p3
(dp4
S'count'
p5
I569
sS'truepos'
p6
I31
sS'falseneg'
p7
I3
sS'unknownyes'
p8
I11
sS'falsepos'
p9
I9
sS'unique'
p10
I460
ssS'none'
p11
(dp12
g5
I570
sg6
I39
sg7
I2
sg8
I4
sg9
I41
sg10
I570
ssS'three'
p13
(dp14
g5
I936
sg6
I33
sg7
I3
sg8
I9
sg9
I10
sg10
I430
sssS'Wahono.csv'
p15
(dp16
g3
(dp17
g5
I1691
sg6
I52
sg7
I6
sg8
I4
sg9
I24
sg10
I1260
ssg11
(dp18
g5
I3840
sg6
I47
sg7
I9
sg8
I6
sg9
I414
sg10
I3840
ssg13
(dp19
g5
I3471
sg6
I59
sg7
I0
sg8
I3
sg9
I38
sg10
I1590
sssS'Hall.csv'
p20
(dp21
g3
(dp22
g5
I780
sg6
I96
sg7
I6
sg8
I4
sg9
I4
sg10
I560
ssg11
(dp23
g5
I2620
sg6
I95
sg7
I8
sg8
I3
sg9
I237
sg10
I2620
ssg13
(dp24
g5
I1294
sg6
I98
sg7
I4
sg8
I4
sg9
I9
sg10
I590
sssS'Danijel.csv'
p25
(dp26
g3
(dp27
g5
I803
sg6
I38
sg7
I7
sg8
I3
sg9
I16
sg10
I610
ssg11
(dp28
g5
I1010
sg6
I41
sg7
I4
sg8
I3
sg9
I98
sg10
I1010
ssg13
(dp29
g5
I1930
sg6
I45
sg7
I0
sg8
I3
sg9
I24
sg10
I890
sss.(dp0
S'K_all3.csv'
p1
(dp2
S'machine'
p3
(dp4
S'count'
p5
I559
sS'truepos'
p6
I30
sS'falseneg'
p7
I4
sS'unknownyes'
p8
I11
sS'falsepos'
p9
I10
sS'unique'
p10
I460
ssS'none'
p11
(dp12
g5
I510
sg6
I32
sg7
I6
sg8
I7
sg9
I51
sg10
I510
ssS'three'
p13
(dp14
g5
I1063
sg6
I38
sg7
I1
sg8
I6
sg9
I21
sg10
I490
sssS'Wahono.csv'
p15
(dp16
g3
(dp17
g5
I1691
sg6
I56
sg7
I3
sg8
I3
sg9
I22
sg10
I1260
ssg11
(dp18
g5
I3600
sg6
I59
sg7
I1
sg8
I2
sg9
I374
sg10
I3600
ssg13
(dp19
g5
I4063
sg6
I60
sg7
I0
sg8
I2
sg9
I55
sg10
I1870
sssS'Hall.csv'
p20
(dp21
g3
(dp22
g5
I631
sg6
I93
sg7
I8
sg8
I5
sg9
I19
sg10
I460
ssg11
(dp23
g5
I2330
sg6
I92
sg7
I11
sg8
I3
sg9
I203
sg10
I2330
ssg13
(dp24
g5
I1696
sg6
I97
sg7
I5
sg8
I4
sg9
I12
sg10
I780
sssS'Danijel.csv'
p25
(dp26
g3
(dp27
g5
I1340
sg6
I43
sg7
I1
sg8
I4
sg9
I19
sg10
I1010
ssg11
(dp28
g5
I2400
sg6
I38
sg7
I8
sg8
I2
sg9
I231
sg10
I2400
ssg13
(dp29
g5
I2045
sg6
I45
sg7
I1
sg8
I2
sg9
I27
sg10
I940
sss.(dp0
S'K_all3.csv'
p1
(dp2
S'machine'
p3
(dp4
S'count'
p5
I653
sS'truepos'
p6
I27
sS'falseneg'
p7
I6
sS'unknownyes'
p8
I12
sS'falsepos'
p9
I13
sS'unique'
p10
I520
ssS'none'
p11
(dp12
g5
I340
sg6
I32
sg7
I1
sg8
I12
sg9
I32
sg10
I340
ssS'three'
p13
(dp14
g5
I948
sg6
I33
sg7
I3
sg8
I9
sg9
I11
sg10
I440
sssS'Wahono.csv'
p15
(dp16
g3
(dp17
g5
I1982
sg6
I52
sg7
I7
sg8
I3
sg9
I24
sg10
I1510
ssg11
(dp18
g5
I3380
sg6
I50
sg7
I6
sg8
I6
sg9
I340
sg10
I3380
ssg13
(dp19
g5
I3514
sg6
I56
sg7
I3
sg8
I3
sg9
I41
sg10
I1610
sssS'Hall.csv'
p20
(dp21
g3
(dp22
g5
I563
sg6
I94
sg7
I7
sg8
I5
sg9
I9
sg10
I410
ssg11
(dp23
g5
I2000
sg6
I96
sg7
I7
sg8
I3
sg9
I181
sg10
I2000
ssg13
(dp24
g5
I1098
sg6
I100
sg7
I2
sg8
I4
sg9
I12
sg10
I510
sssS'Danijel.csv'
p25
(dp26
g3
(dp27
g5
I1187
sg6
I40
sg7
I4
sg8
I4
sg9
I17
sg10
I910
ssg11
(dp28
g5
I3230
sg6
I41
sg7
I5
sg8
I2
sg9
I313
sg10
I3230
ssg13
(dp29
g5
I2124
sg6
I42
sg7
I3
sg8
I3
sg9
I31
sg10
I980
sss.(dp0
S'K_all3.csv'
p1
(dp2
S'machine'
p3
(dp4
S'count'
p5
I770
sS'truepos'
p6
I31
sS'falseneg'
p7
I8
sS'unknownyes'
p8
I6
sS'falsepos'
p9
I7
sS'unique'
p10
I630
ssS'none'
p11
(dp12
g5
I360
sg6
I28
sg7
I3
sg8
I14
sg9
I33
sg10
I360
ssS'three'
p13
(dp14
g5
I997
sg6
I32
sg7
I1
sg8
I12
sg9
I13
sg10
I460
sssS'Wahono.csv'
p15
(dp16
g3
(dp17
g5
I1803
sg6
I51
sg7
I8
sg8
I3
sg9
I24
sg10
I1360
ssg11
(dp18
g5
I3590
sg6
I54
sg7
I7
sg8
I1
sg9
I341
sg10
I3590
ssg13
(dp19
g5
I3144
sg6
I54
sg7
I5
sg8
I3
sg9
I39
sg10
I1440
sssS'Hall.csv'
p20
(dp21
g3
(dp22
g5
I750
sg6
I95
sg7
I7
sg8
I4
sg9
I26
sg10
I560
ssg11
(dp23
g5
I3160
sg6
I95
sg7
I7
sg8
I4
sg9
I266
sg10
I3160
ssg13
(dp24
g5
I1539
sg6
I99
sg7
I3
sg8
I4
sg9
I13
sg10
I700
sssS'Danijel.csv'
p25
(dp26
g3
(dp27
g5
I1040
sg6
I43
sg7
I2
sg8
I3
sg9
I14
sg10
I810
ssg11
(dp28
g5
I1780
sg6
I43
sg7
I3
sg8
I2
sg9
I159
sg10
I1780
ssg13
(dp29
g5
I1980
sg6
I44
sg7
I1
sg8
I3
sg9
I21
sg10
I910
sss.(dp0
S'K_all3.csv'
p1
(dp2
S'machine'
p3
(dp4
S'count'
p5
I753
sS'truepos'
p6
I28
sS'falseneg'
p7
I10
sS'unknownyes'
p8
I7
sS'falsepos'
p9
I7
sS'unique'
p10
I610
ssS'none'
p11
(dp12
g5
I400
sg6
I23
sg7
I3
sg8
I19
sg9
I34
sg10
I400
ssS'three'
p13
(dp14
g5
I938
sg6
I38
sg7
I0
sg8
I7
sg9
I13
sg10
I440
sssS'Wahono.csv'
p15
(dp16
g3
(dp17
g5
I1463
sg6
I54
sg7
I4
sg8
I4
sg9
I14
sg10
I1110
ssg11
(dp18
g5
I3290
sg6
I53
sg7
I7
sg8
I2
sg9
I298
sg10
I3290
ssg13
(dp19
g5
I3352
sg6
I58
sg7
I1
sg8
I3
sg9
I40
sg10
I1540
sssS'Hall.csv'
p20
(dp21
g3
(dp22
g5
I830
sg6
I99
sg7
I3
sg8
I4
sg9
I11
sg10
I610
ssg11
(dp23
g5
I2210
sg6
I93
sg7
I9
sg8
I4
sg9
I181
sg10
I2210
ssg13
(dp24
g5
I3216
sg6
I99
sg7
I4
sg8
I3
sg9
I35
sg10
I1470
sssS'Danijel.csv'
p25
(dp26
g3
(dp27
g5
I1816
sg6
I40
sg7
I6
sg8
I2
sg9
I22
sg10
I1360
ssg11
(dp28
g5
I3250
sg6
I43
sg7
I4
sg8
I1
sg9
I322
sg10
I3250
ssg13
(dp29
g5
I2042
sg6
I45
sg7
I0
sg8
I3
sg9
I31
sg10
I940
sss.(dp0
S'K_all3.csv'
p1
(dp2
S'machine'
p3
(dp4
S'count'
p5
I628
sS'truepos'
p6
I30
sS'falseneg'
p7
I5
sS'unknownyes'
p8
I10
sS'falsepos'
p9
I11
sS'unique'
p10
I510
ssS'none'
p11
(dp12
g5
I600
sg6
I31
sg7
I7
sg8
I7
sg9
I72
sg10
I600
ssS'three'
p13
(dp14
g5
I1075
sg6
I37
sg7
I2
sg8
I6
sg9
I11
sg10
I500
sssS'Wahono.csv'
p15
(dp16
g3
(dp17
g5
I1151
sg6
I51
sg7
I8
sg8
I3
sg9
I11
sg10
I860
ssg11
(dp18
g5
I2980
sg6
I49
sg7
I8
sg8
I5
sg9
I286
sg10
I2980
ssg13
(dp19
g5
I4837
sg6
I59
sg7
I1
sg8
I2
sg9
I69
sg10
I2200
sssS'Hall.csv'
p20
(dp21
g3
(dp22
g5
I701
sg6
I96
sg7
I6
sg8
I4
sg9
I8
sg10
I510
ssg11
(dp23
g5
I3780
sg6
I99
sg7
I5
sg8
I2
sg9
I361
sg10
I3780
ssg13
(dp24
g5
I1303
sg6
I97
sg7
I5
sg8
I4
sg9
I7
sg10
I600
sssS'Danijel.csv'
p25
(dp26
g3
(dp27
g5
I1492
sg6
I35
sg7
I9
sg8
I4
sg9
I14
sg10
I1160
ssg11
(dp28
g5
I1300
sg6
I40
sg7
I4
sg8
I4
sg9
I119
sg10
I1300
ssg13
(dp29
g5
I1777
sg6
I44
sg7
I0
sg8
I4
sg9
I13
sg10
I820
sss.(dp0
S'K_all3.csv'
p1
(dp2
S'machine'
p3
(dp4
S'count'
p5
I581
sS'truepos'
p6
I28
sS'falseneg'
p7
I7
sS'unknownyes'
p8
I10
sS'falsepos'
p9
I10
sS'unique'
p10
I460
ssS'none'
p11
(dp12
g5
I360
sg6
I23
sg7
I5
sg8
I17
sg9
I45
sg10
I360
ssS'three'
p13
(dp14
g5
I990
sg6
I35
sg7
I3
sg8
I7
sg9
I24
sg10
I450
sssS'Wahono.csv'
p15
(dp16
g3
(dp17
g5
I1682
sg6
I56
sg7
I4
sg8
I2
sg9
I20
sg10
I1260
ssg11
(dp18
g5
I3550
sg6
I50
sg7
I10
sg8
I2
sg9
I350
sg10
I3550
ssg13
(dp19
g5
I2860
sg6
I61
sg7
I0
sg8
I1
sg9
I31
sg10
I1310
sssS'Hall.csv'
p20
(dp21
g3
(dp22
g5
I521
sg6
I93
sg7
I8
sg8
I5
sg9
I12
sg10
I390
ssg11
(dp23
g5
I3570
sg6
I96
sg7
I8
sg8
I2
sg9
I322
sg10
I3570
ssg13
(dp24
g5
I1631
sg6
I97
sg7
I5
sg8
I4
sg9
I15
sg10
I750
sssS'Danijel.csv'
p25
(dp26
g3
(dp27
g5
I585
sg6
I39
sg7
I4
sg8
I5
sg9
I8
sg10
I460
ssg11
(dp28
g5
I1390
sg6
I40
sg7
I4
sg8
I4
sg9
I131
sg10
I1390
ssg13
(dp29
g5
I2247
sg6
I45
sg7
I1
sg8
I2
sg9
I36
sg10
I1030
sss.(dp0
S'K_all3.csv'
p1
(dp2
S'machine'
p3
(dp4
S'count'
p5
I695
sS'truepos'
p6
I33
sS'falseneg'
p7
I4
sS'unknownyes'
p8
I8
sS'falsepos'
p9
I15
sS'unique'
p10
I560
ssS'none'
p11
(dp12
g5
I570
sg6
I24
sg7
I12
sg8
I9
sg9
I48
sg10
I570
ssS'three'
p13
(dp14
g5
I1120
sg6
I36
sg7
I1
sg8
I8
sg9
I18
sg10
I510
sssS'Wahono.csv'
p15
(dp16
g3
(dp17
g5
I2055
sg6
I57
sg7
I3
sg8
I2
sg9
I30
sg10
I1560
ssg11
(dp18
g5
I3530
sg6
I60
sg7
I2
sg8
I0
sg9
I362
sg10
I3530
ssg13
(dp19
g5
I3052
sg6
I56
sg7
I4
sg8
I2
sg9
I39
sg10
I1400
sssS'Hall.csv'
p20
(dp21
g3
(dp22
g5
I592
sg6
I97
sg7
I5
sg8
I4
sg9
I10
sg10
I440
ssg11
(dp23
g5
I2660
sg6
I94
sg7
I10
sg8
I2
sg9
I247
sg10
I2660
ssg13
(dp24
g5
I2736
sg6
I99
sg7
I4
sg8
I3
sg9
I37
sg10
I1250
sssS'Danijel.csv'
p25
(dp26
g3
(dp27
g5
I937
sg6
I37
sg7
I5
sg8
I6
sg9
I17
sg10
I710
ssg11
(dp28
g5
I2910
sg6
I44
sg7
I4
sg8
I0
sg9
I281
sg10
I2910
ssg13
(dp29
g5
I1778
sg6
I42
sg7
I4
sg8
I2
sg9
I21
sg10
I810
sss.(dp0
S'K_all3.csv'
p1
(dp2
S'machine'
p3
(dp4
S'count'
p5
I705
sS'truepos'
p6
I30
sS'falseneg'
p7
I9
sS'unknownyes'
p8
I6
sS'falsepos'
p9
I6
sS'unique'
p10
I570
ssS'none'
p11
(dp12
g5
I680
sg6
I31
sg7
I6
sg8
I8
sg9
I65
sg10
I680
ssS'three'
p13
(dp14
g5
I1258
sg6
I36
sg7
I2
sg8
I7
sg9
I16
sg10
I580
sssS'Wahono.csv'
p15
(dp16
g3
(dp17
g5
I1354
sg6
I54
sg7
I5
sg8
I3
sg9
I23
sg10
I1010
ssg11
(dp18
g5
I2990
sg6
I55
sg7
I4
sg8
I3
sg9
I315
sg10
I2990
ssg13
(dp19
g5
I3254
sg6
I57
sg7
I2
sg8
I3
sg9
I40
sg10
I1500
sssS'Hall.csv'
p20
(dp21
g3
(dp22
g5
I550
sg6
I91
sg7
I9
sg8
I6
sg9
I23
sg10
I410
ssg11
(dp23
g5
I3100
sg6
I90
sg7
I14
sg8
I2
sg9
I301
sg10
I3100
ssg13
(dp24
g5
I2281
sg6
I101
sg7
I1
sg8
I4
sg9
I20
sg10
I1050
sssS'Danijel.csv'
p25
(dp26
g3
(dp27
g5
I1208
sg6
I41
sg7
I4
sg8
I3
sg9
I21
sg10
I910
ssg11
(dp28
g5
I3280
sg6
I44
sg7
I4
sg8
I0
sg9
I337
sg10
I3280
ssg13
(dp29
g5
I2080
sg6
I45
sg7
I1
sg8
I2
sg9
I21
sg10
I960
sss.(dp0
S'K_all3.csv'
p1
(dp2
S'machine'
p3
(dp4
S'count'
p5
I513
sS'truepos'
p6
I34
sS'falseneg'
p7
I1
sS'unknownyes'
p8
I10
sS'falsepos'
p9
I10
sS'unique'
p10
I410
ssS'none'
p11
(dp12
g5
I430
sg6
I31
sg7
I0
sg8
I14
sg9
I41
sg10
I430
ssS'three'
p13
(dp14
g5
I1010
sg6
I34
sg7
I1
sg8
I10
sg9
I15
sg10
I460
sssS'Wahono.csv'
p15
(dp16
g3
(dp17
g5
I1734
sg6
I55
sg7
I4
sg8
I3
sg9
I24
sg10
I1310
ssg11
(dp18
g5
I3440
sg6
I58
sg7
I3
sg8
I1
sg9
I375
sg10
I3440
ssg13
(dp19
g5
I3365
sg6
I57
sg7
I3
sg8
I2
sg9
I38
sg10
I1560
sssS'Hall.csv'
p20
(dp21
g3
(dp22
g5
I994
sg6
I95
sg7
I7
sg8
I4
sg9
I21
sg10
I720
ssg11
(dp23
g5
I2660
sg6
I89
sg7
I14
sg8
I3
sg9
I246
sg10
I2660
ssg13
(dp24
g5
I1758
sg6
I100
sg7
I2
sg8
I4
sg9
I19
sg10
I810
sssS'Danijel.csv'
p25
(dp26
g3
(dp27
g5
I1419
sg6
I41
sg7
I5
sg8
I2
sg9
I17
sg10
I1080
ssg11
(dp28
g5
I2970
sg6
I41
sg7
I5
sg8
I2
sg9
I292
sg10
I2970
ssg13
(dp29
g5
I2515
sg6
I43
sg7
I2
sg8
I3
sg9
I33
sg10
I1150
sss.(dp0
S'K_all3.csv'
p1
(dp2
S'machine'
p3
(dp4
S'count'
p5
I544
sS'truepos'
p6
I30
sS'falseneg'
p7
I3
sS'unknownyes'
p8
I12
sS'falsepos'
p9
I14
sS'unique'
p10
I460
ssS'none'
p11
(dp12
g5
I360
sg6
I29
sg7
I1
sg8
I15
sg9
I29
sg10
I360
ssS'three'
p13
(dp14
g5
I1116
sg6
I37
sg7
I1
sg8
I7
sg9
I14
sg10
I510
sssS'Wahono.csv'
p15
(dp16
g3
(dp17
g5
I1618
sg6
I56
sg7
I3
sg8
I3
sg9
I10
sg10
I1220
ssg11
(dp18
g5
I3740
sg6
I55
sg7
I6
sg8
I1
sg9
I366
sg10
I3740
ssg13
(dp19
g5
I3531
sg6
I60
sg7
I1
sg8
I1
sg9
I41
sg10
I1630
sssS'Hall.csv'
p20
(dp21
g3
(dp22
g5
I632
sg6
I92
sg7
I9
sg8
I5
sg9
I16
sg10
I460
ssg11
(dp23
g5
I2250
sg6
I98
sg7
I7
sg8
I1
sg9
I210
sg10
I2250
ssg13
(dp24
g5
I2254
sg6
I99
sg7
I3
sg8
I4
sg9
I36
sg10
I1020
sssS'Danijel.csv'
p25
(dp26
g3
(dp27
g5
I890
sg6
I41
sg7
I3
sg8
I4
sg9
I17
sg10
I660
ssg11
(dp28
g5
I3160
sg6
I40
sg7
I5
sg8
I3
sg9
I281
sg10
I3160
ssg13
(dp29
g5
I2651
sg6
I44
sg7
I2
sg8
I2
sg9
I33
sg10
I1210
sss.(dp0
S'K_all3.csv'
p1
(dp2
S'machine'
p3
(dp4
S'count'
p5
I461
sS'truepos'
p6
I36
sS'falseneg'
p7
I0
sS'unknownyes'
p8
I9
sS'falsepos'
p9
I13
sS'unique'
p10
I360
ssS'none'
p11
(dp12
g5
I440
sg6
I29
sg7
I4
sg8
I12
sg9
I39
sg10
I440
ssS'three'
p13
(dp14
g5
I957
sg6
I36
sg7
I1
sg8
I8
sg9
I12
sg10
I440
sssS'Wahono.csv'
p15
(dp16
g3
(dp17
g5
I1614
sg6
I53
sg7
I6
sg8
I3
sg9
I24
sg10
I1210
ssg11
(dp18
g5
I3990
sg6
I57
sg7
I3
sg8
I2
sg9
I399
sg10
I3990
ssg13
(dp19
g5
I3986
sg6
I58
sg7
I2
sg8
I2
sg9
I54
sg10
I1840
sssS'Hall.csv'
p20
(dp21
g3
(dp22
g5
I540
sg6
I97
sg7
I4
sg8
I5
sg9
I19
sg10
I400
ssg11
(dp23
g5
I2660
sg6
I97
sg7
I7
sg8
I2
sg9
I253
sg10
I2660
ssg13
(dp24
g5
I1000
sg6
I100
sg7
I1
sg8
I5
sg9
I13
sg10
I460
sssS'Danijel.csv'
p25
(dp26
g3
(dp27
g5
I975
sg6
I43
sg7
I2
sg8
I3
sg9
I13
sg10
I760
ssg11
(dp28
g5
I2300
sg6
I41
sg7
I5
sg8
I2
sg9
I225
sg10
I2300
ssg13
(dp29
g5
I2214
sg6
I45
sg7
I0
sg8
I3
sg9
I31
sg10
I1010
sss.(dp0
S'K_all3.csv'
p1
(dp2
S'machine'
p3
(dp4
S'count'
p5
I721
sS'truepos'
p6
I26
sS'falseneg'
p7
I5
sS'unknownyes'
p8
I14
sS'falsepos'
p9
I12
sS'unique'
p10
I620
ssS'none'
p11
(dp12
g5
I540
sg6
I38
sg7
I1
sg8
I6
sg9
I54
sg10
I540
ssS'three'
p13
(dp14
g5
I1040
sg6
I34
sg7
I2
sg8
I9
sg9
I11
sg10
I470
sssS'Wahono.csv'
p15
(dp16
g3
(dp17
g5
I1965
sg6
I56
sg7
I3
sg8
I3
sg9
I20
sg10
I1490
ssg11
(dp18
g5
I2520
sg6
I52
sg7
I8
sg8
I2
sg9
I222
sg10
I2520
ssg13
(dp19
g5
I3643
sg6
I60
sg7
I1
sg8
I1
sg9
I47
sg10
I1670
sssS'Hall.csv'
p20
(dp21
g3
(dp22
g5
I1062
sg6
I100
sg7
I2
sg8
I4
sg9
I13
sg10
I770
ssg11
(dp23
g5
I4090
sg6
I93
sg7
I11
sg8
I2
sg9
I393
sg10
I4090
ssg13
(dp24
g5
I1344
sg6
I100
sg7
I2
sg8
I4
sg9
I17
sg10
I620
sssS'Danijel.csv'
p25
(dp26
g3
(dp27
g5
I928
sg6
I40
sg7
I4
sg8
I4
sg9
I14
sg10
I710
ssg11
(dp28
g5
I2640
sg6
I43
sg7
I2
sg8
I3
sg9
I282
sg10
I2640
ssg13
(dp29
g5
I2054
sg6
I42
sg7
I3
sg8
I3
sg9
I18
sg10
I950
sss.(dp0
S'K_all3.csv'
p1
(dp2
S'machine'
p3
(dp4
S'count'
p5
I532
sS'truepos'
p6
I31
sS'falseneg'
p7
I2
sS'unknownyes'
p8
I12
sS'falsepos'
p9
I21
sS'unique'
p10
I410
ssS'none'
p11
(dp12
g5
I460
sg6
I20
sg7
I3
sg8
I22
sg9
I39
sg10
I460
ssS'three'
p13
(dp14
g5
I1013
sg6
I37
sg7
I2
sg8
I6
sg9
I13
sg10
I460
sssS'Wahono.csv'
p15
(dp16
g3
(dp17
g5
I1469
sg6
I57
sg7
I2
sg8
I3
sg9
I14
sg10
I1110
ssg11
(dp18
g5
I3000
sg6
I53
sg7
I8
sg8
I1
sg9
I297
sg10
I3000
ssg13
(dp19
g5
I3483
sg6
I56
sg7
I3
sg8
I3
sg9
I40
sg10
I1600
sssS'Hall.csv'
p20
(dp21
g3
(dp22
g5
I820
sg6
I93
sg7
I9
sg8
I4
sg9
I26
sg10
I610
ssg11
(dp23
g5
I4010
sg6
I93
sg7
I11
sg8
I2
sg9
I391
sg10
I4010
ssg13
(dp24
g5
I1493
sg6
I101
sg7
I1
sg8
I4
sg9
I19
sg10
I690
sssS'Danijel.csv'
p25
(dp26
g3
(dp27
g5
I1062
sg6
I44
sg7
I2
sg8
I2
sg9
I13
sg10
I810
ssg11
(dp28
g5
I2210
sg6
I42
sg7
I4
sg8
I2
sg9
I209
sg10
I2210
ssg13
(dp29
g5
I2049
sg6
I45
sg7
I0
sg8
I3
sg9
I25
sg10
I940
sss.(dp0
S'K_all3.csv'
p1
(dp2
S'machine'
p3
(dp4
S'count'
p5
I578
sS'truepos'
p6
I31
sS'falseneg'
p7
I3
sS'unknownyes'
p8
I11
sS'falsepos'
p9
I9
sS'unique'
p10
I460
ssS'none'
p11
(dp12
g5
I340
sg6
I29
sg7
I3
sg8
I13
sg9
I31
sg10
I340
ssS'three'
p13
(dp14
g5
I885
sg6
I30
sg7
I1
sg8
I14
sg9
I8
sg10
I400
sssS'Wahono.csv'
p15
(dp16
g3
(dp17
g5
I2135
sg6
I51
sg7
I6
sg8
I5
sg9
I20
sg10
I1600
ssg11
(dp18
g5
I3400
sg6
I55
sg7
I6
sg8
I1
sg9
I348
sg10
I3400
ssg13
(dp19
g5
I3499
sg6
I58
sg7
I1
sg8
I3
sg9
I44
sg10
I1590
sssS'Hall.csv'
p20
(dp21
g3
(dp22
g5
I541
sg6
I92
sg7
I9
sg8
I5
sg9
I11
sg10
I410
ssg11
(dp23
g5
I3260
sg6
I97
sg7
I6
sg8
I3
sg9
I333
sg10
I3260
ssg13
(dp24
g5
I1068
sg6
I99
sg7
I3
sg8
I4
sg9
I11
sg10
I490
sssS'Danijel.csv'
p25
(dp26
g3
(dp27
g5
I1217
sg6
I43
sg7
I3
sg8
I2
sg9
I14
sg10
I930
ssg11
(dp28
g5
I2570
sg6
I46
sg7
I1
sg8
I1
sg9
I225
sg10
I2570
ssg13
(dp29
g5
I1923
sg6
I43
sg7
I2
sg8
I3
sg9
I12
sg10
I880
sss.(dp0
S'K_all3.csv'
p1
(dp2
S'machine'
p3
(dp4
S'count'
p5
I555
sS'truepos'
p6
I33
sS'falseneg'
p7
I1
sS'unknownyes'
p8
I11
sS'falsepos'
p9
I5
sS'unique'
p10
I460
ssS'none'
p11
(dp12
g5
I490
sg6
I36
sg7
I0
sg8
I9
sg9
I42
sg10
I490
ssS'three'
p13
(dp14
g5
I866
sg6
I32
sg7
I1
sg8
I12
sg9
I8
sg10
I400
sssS'Wahono.csv'
p15
(dp16
g3
(dp17
g5
I1334
sg6
I53
sg7
I4
sg8
I5
sg9
I12
sg10
I1010
ssg11
(dp18
g5
I4050
sg6
I54
sg7
I7
sg8
I1
sg9
I399
sg10
I4050
ssg13
(dp19
g5
I3508
sg6
I57
sg7
I2
sg8
I3
sg9
I43
sg10
I1610
sssS'Hall.csv'
p20
(dp21
g3
(dp22
g5
I620
sg6
I89
sg7
I12
sg8
I5
sg9
I14
sg10
I460
ssg11
(dp23
g5
I3060
sg6
I89
sg7
I15
sg8
I2
sg9
I281
sg10
I3060
ssg13
(dp24
g5
I2052
sg6
I99
sg7
I3
sg8
I4
sg9
I15
sg10
I940
sssS'Danijel.csv'
p25
(dp26
g3
(dp27
g5
I996
sg6
I41
sg7
I2
sg8
I5
sg9
I14
sg10
I760
ssg11
(dp28
g5
I2510
sg6
I44
sg7
I3
sg8
I1
sg9
I241
sg10
I2510
ssg13
(dp29
g5
I2128
sg6
I42
sg7
I3
sg8
I3
sg9
I29
sg10
I980
sss.(dp0
S'K_all3.csv'
p1
(dp2
S'machine'
p3
(dp4
S'count'
p5
I644
sS'truepos'
p6
I27
sS'falseneg'
p7
I9
sS'unknownyes'
p8
I9
sS'falsepos'
p9
I11
sS'unique'
p10
I520
ssS'none'
p11
(dp12
g5
I570
sg6
I37
sg7
I1
sg8
I7
sg9
I44
sg10
I570
ssS'three'
p13
(dp14
g5
I989
sg6
I34
sg7
I1
sg8
I10
sg9
I11
sg10
I450
sssS'Wahono.csv'
p15
(dp16
g3
(dp17
g5
I1747
sg6
I57
sg7
I3
sg8
I2
sg9
I22
sg10
I1310
ssg11
(dp18
g5
I2370
sg6
I46
sg7
I10
sg8
I6
sg9
I217
sg10
I2370
ssg13
(dp19
g5
I4199
sg6
I58
sg7
I3
sg8
I1
sg9
I59
sg10
I1930
sssS'Hall.csv'
p20
(dp21
g3
(dp22
g5
I780
sg6
I95
sg7
I6
sg8
I5
sg9
I26
sg10
I560
ssg11
(dp23
g5
I3750
sg6
I91
sg7
I13
sg8
I2
sg9
I358
sg10
I3750
ssg13
(dp24
g5
I1880
sg6
I98
sg7
I5
sg8
I3
sg9
I19
sg10
I850
sssS'Danijel.csv'
p25
(dp26
g3
(dp27
g5
I1105
sg6
I40
sg7
I4
sg8
I4
sg9
I12
sg10
I860
ssg11
(dp28
g5
I3630
sg6
I42
sg7
I6
sg8
I0
sg9
I378
sg10
I3630
ssg13
(dp29
g5
I2213
sg6
I45
sg7
I0
sg8
I3
sg9
I32
sg10
I1030
sss.(dp0
S'K_all3.csv'
p1
(dp2
S'machine'
p3
(dp4
S'count'
p5
I841
sS'truepos'
p6
I28
sS'falseneg'
p7
I10
sS'unknownyes'
p8
I7
sS'falsepos'
p9
I10
sS'unique'
p10
I700
ssS'none'
p11
(dp12
g5
I410
sg6
I34
sg7
I3
sg8
I8
sg9
I41
sg10
I410
ssS'three'
p13
(dp14
g5
I874
sg6
I31
sg7
I0
sg8
I14
sg9
I7
sg10
I400
sssS'Wahono.csv'
p15
(dp16
g3
(dp17
g5
I2583
sg6
I55
sg7
I4
sg8
I3
sg9
I21
sg10
I1950
ssg11
(dp18
g5
I3620
sg6
I51
sg7
I8
sg8
I3
sg9
I332
sg10
I3620
ssg13
(dp19
g5
I4628
sg6
I59
sg7
I1
sg8
I2
sg9
I55
sg10
I2130
sssS'Hall.csv'
p20
(dp21
g3
(dp22
g5
I690
sg6
I94
sg7
I7
sg8
I5
sg9
I19
sg10
I510
ssg11
(dp23
g5
I4030
sg6
I94
sg7
I10
sg8
I2
sg9
I392
sg10
I4030
ssg13
(dp24
g5
I1034
sg6
I98
sg7
I4
sg8
I4
sg9
I3
sg10
I480
sssS'Danijel.csv'
p25
(dp26
g3
(dp27
g5
I1111
sg6
I44
sg7
I1
sg8
I3
sg9
I6
sg10
I840
ssg11
(dp28
g5
I2230
sg6
I42
sg7
I3
sg8
I3
sg9
I212
sg10
I2230
ssg13
(dp29
g5
I3051
sg6
I44
sg7
I2
sg8
I2
sg9
I35
sg10
I1400
sss.(dp0
S'K_all3.csv'
p1
(dp2
S'machine'
p3
(dp4
S'count'
p5
I653
sS'truepos'
p6
I32
sS'falseneg'
p7
I5
sS'unknownyes'
p8
I8
sS'falsepos'
p9
I11
sS'unique'
p10
I510
ssS'none'
p11
(dp12
g5
I560
sg6
I33
sg7
I6
sg8
I6
sg9
I53
sg10
I560
ssS'three'
p13
(dp14
g5
I1036
sg6
I36
sg7
I0
sg8
I9
sg9
I15
sg10
I480
sssS'Wahono.csv'
p15
(dp16
g3
(dp17
g5
I1349
sg6
I52
sg7
I5
sg8
I5
sg9
I13
sg10
I1010
ssg11
(dp18
g5
I3980
sg6
I52
sg7
I8
sg8
I2
sg9
I423
sg10
I3980
ssg13
(dp19
g5
I3649
sg6
I55
sg7
I4
sg8
I3
sg9
I44
sg10
I1680
sssS'Hall.csv'
p20
(dp21
g3
(dp22
g5
I530
sg6
I93
sg7
I7
sg8
I6
sg9
I4
sg10
I390
ssg11
(dp23
g5
I3240
sg6
I91
sg7
I11
sg8
I4
sg9
I308
sg10
I3240
ssg13
(dp24
g5
I1183
sg6
I100
sg7
I1
sg8
I5
sg9
I14
sg10
I540
sssS'Danijel.csv'
p25
(dp26
g3
(dp27
g5
I1193
sg6
I39
sg7
I5
sg8
I4
sg9
I16
sg10
I910
ssg11
(dp28
g5
I2580
sg6
I41
sg7
I5
sg8
I2
sg9
I250
sg10
I2580
ssg13
(dp29
g5
I2032
sg6
I43
sg7
I3
sg8
I2
sg9
I25
sg10
I930
sss.(dp0
S'K_all3.csv'
p1
(dp2
S'machine'
p3
(dp4
S'count'
p5
I698
sS'truepos'
p6
I28
sS'falseneg'
p7
I7
sS'unknownyes'
p8
I10
sS'falsepos'
p9
I11
sS'unique'
p10
I540
ssS'none'
p11
(dp12
g5
I430
sg6
I32
sg7
I4
sg8
I9
sg9
I25
sg10
I430
ssS'three'
p13
(dp14
g5
I873
sg6
I31
sg7
I1
sg8
I13
sg9
I10
sg10
I400
sssS'Wahono.csv'
p15
(dp16
g3
(dp17
g5
I1951
sg6
I56
sg7
I4
sg8
I2
sg9
I13
sg10
I1460
ssg11
(dp18
g5
I4140
sg6
I58
sg7
I3
sg8
I1
sg9
I401
sg10
I4140
ssg13
(dp19
g5
I2771
sg6
I57
sg7
I2
sg8
I3
sg9
I37
sg10
I1280
sssS'Hall.csv'
p20
(dp21
g3
(dp22
g5
I480
sg6
I96
sg7
I3
sg8
I7
sg9
I17
sg10
I360
ssg11
(dp23
g5
I3410
sg6
I93
sg7
I11
sg8
I2
sg9
I312
sg10
I3410
ssg13
(dp24
g5
I1285
sg6
I100
sg7
I2
sg8
I4
sg9
I7
sg10
I590
sssS'Danijel.csv'
p25
(dp26
g3
(dp27
g5
I1060
sg6
I39
sg7
I6
sg8
I3
sg9
I11
sg10
I810
ssg11
(dp28
g5
I2830
sg6
I44
sg7
I1
sg8
I3
sg9
I301
sg10
I2830
ssg13
(dp29
g5
I1660
sg6
I43
sg7
I1
sg8
I4
sg9
I17
sg10
I760
sss.(dp0
S'K_all3.csv'
p1
(dp2
S'machine'
p3
(dp4
S'count'
p5
I497
sS'truepos'
p6
I33
sS'falseneg'
p7
I2
sS'unknownyes'
p8
I10
sS'falsepos'
p9
I8
sS'unique'
p10
I410
ssS'none'
p11
(dp12
g5
I460
sg6
I30
sg7
I5
sg8
I10
sg9
I46
sg10
I460
ssS'three'
p13
(dp14
g5
I953
sg6
I32
sg7
I0
sg8
I13
sg9
I8
sg10
I440
sssS'Wahono.csv'
p15
(dp16
g3
(dp17
g5
I1657
sg6
I57
sg7
I3
sg8
I2
sg9
I14
sg10
I1260
ssg11
(dp18
g5
I3610
sg6
I54
sg7
I8
sg8
I0
sg9
I343
sg10
I3610
ssg13
(dp19
g5
I3757
sg6
I59
sg7
I1
sg8
I2
sg9
I41
sg10
I1720
sssS'Hall.csv'
p20
(dp21
g3
(dp22
g5
I543
sg6
I97
sg7
I4
sg8
I5
sg9
I18
sg10
I410
ssg11
(dp23
g5
I3510
sg6
I91
sg7
I12
sg8
I3
sg9
I336
sg10
I3510
ssg13
(dp24
g5
I1972
sg6
I101
sg7
I2
sg8
I3
sg9
I23
sg10
I900
sssS'Danijel.csv'
p25
(dp26
g3
(dp27
g5
I1434
sg6
I37
sg7
I8
sg8
I3
sg9
I16
sg10
I1110
ssg11
(dp28
g5
I3290
sg6
I41
sg7
I5
sg8
I2
sg9
I336
sg10
I3290
ssg13
(dp29
g5
I1706
sg6
I45
sg7
I1
sg8
I2
sg9
I16
sg10
I790
sss.(dp0
S'K_all3.csv'
p1
(dp2
S'machine'
p3
(dp4
S'count'
p5
I522
sS'truepos'
p6
I29
sS'falseneg'
p7
I5
sS'unknownyes'
p8
I11
sS'falsepos'
p9
I13
sS'unique'
p10
I410
ssS'none'
p11
(dp12
g5
I520
sg6
I28
sg7
I5
sg8
I12
sg9
I46
sg10
I520
ssS'three'
p13
(dp14
g5
I939
sg6
I37
sg7
I1
sg8
I7
sg9
I11
sg10
I430
sssS'Wahono.csv'
p15
(dp16
g3
(dp17
g5
I1510
sg6
I58
sg7
I2
sg8
I2
sg9
I19
sg10
I1110
ssg11
(dp18
g5
I3640
sg6
I56
sg7
I6
sg8
I0
sg9
I362
sg10
I3640
ssg13
(dp19
g5
I3974
sg6
I58
sg7
I1
sg8
I3
sg9
I47
sg10
I1820
sssS'Hall.csv'
p20
(dp21
g3
(dp22
g5
I740
sg6
I97
sg7
I5
sg8
I4
sg9
I17
sg10
I540
ssg11
(dp23
g5
I4590
sg6
I95
sg7
I9
sg8
I2
sg9
I475
sg10
I4590
ssg13
(dp24
g5
I2362
sg6
I101
sg7
I2
sg8
I3
sg9
I23
sg10
I1080
sssS'Danijel.csv'
p25
(dp26
g3
(dp27
g5
I648
sg6
I36
sg7
I6
sg8
I6
sg9
I7
sg10
I510
ssg11
(dp28
g5
I770
sg6
I37
sg7
I3
sg8
I8
sg9
I74
sg10
I770
ssg13
(dp29
g5
I1416
sg6
I45
sg7
I1
sg8
I2
sg9
I13
sg10
I650
sss.(dp0
S'K_all3.csv'
p1
(dp2
S'machine'
p3
(dp4
S'count'
p5
I452
sS'truepos'
p6
I29
sS'falseneg'
p7
I2
sS'unknownyes'
p8
I14
sS'falsepos'
p9
I3
sS'unique'
p10
I360
ssS'none'
p11
(dp12
g5
I580
sg6
I34
sg7
I2
sg8
I9
sg9
I30
sg10
I580
ssS'three'
p13
(dp14
g5
I940
sg6
I34
sg7
I0
sg8
I11
sg9
I1
sg10
I450
ssS'machine3'
p15
(dp16
g5
I588
sg6
I31
sg7
I0
sg8
I14
sg9
I2
sg10
I500
ssS'machine2'
p17
(dp18
g5
I537
sg6
I32
sg7
I1
sg8
I12
sg9
I1
sg10
I420
sssS'Wahono.csv'
p19
(dp20
g3
(dp21
g5
I1615
sg6
I57
sg7
I3
sg8
I2
sg9
I8
sg10
I1230
ssg11
(dp22
g5
I1260
sg6
I53
sg7
I5
sg8
I4
sg9
I58
sg10
I1260
ssg13
(dp23
g5
I2288
sg6
I59
sg7
I0
sg8
I3
sg9
I0
sg10
I1100
ssg15
(dp24
g5
I1372
sg6
I57
sg7
I2
sg8
I3
sg9
I2
sg10
I1070
ssg17
(dp25
g5
I1295
sg6
I59
sg7
I0
sg8
I3
sg9
I5
sg10
I960
sssS'Hall.csv'
p26
(dp27
g3
(dp28
g5
I662
sg6
I98
sg7
I4
sg8
I4
sg9
I1
sg10
I470
ssg11
(dp29
g5
I870
sg6
I95
sg7
I7
sg8
I4
sg9
I24
sg10
I870
ssg13
(dp30
g5
I1098
sg6
I102
sg7
I0
sg8
I4
sg9
I4
sg10
I530
ssg15
(dp31
g5
I687
sg6
I101
sg7
I1
sg8
I4
sg9
I1
sg10
I470
ssg17
(dp32
g5
I679
sg6
I99
sg7
I2
sg8
I5
sg9
I4
sg10
I470
sssS'Danijel.csv'
p33
(dp34
g3
(dp35
g5
I973
sg6
I44
sg7
I1
sg8
I3
sg9
I2
sg10
I760
ssg11
(dp36
g5
I1150
sg6
I44
sg7
I1
sg8
I3
sg9
I43
sg10
I1150
ssg13
(dp37
g5
I2389
sg6
I46
sg7
I0
sg8
I2
sg9
I9
sg10
I1140
ssg15
(dp38
g5
I991
sg6
I42
sg7
I3
sg8
I3
sg9
I6
sg10
I770
ssg17
(dp39
g5
I976
sg6
I44
sg7
I1
sg8
I3
sg9
I1
sg10
I720
sss.(dp0
S'K_all3.csv'
p1
(dp2
S'machine'
p3
(dp4
S'count'
p5
I557
sS'truepos'
p6
I33
sS'falseneg'
p7
I2
sS'unknownyes'
p8
I10
sS'falsepos'
p9
I3
sS'unique'
p10
I450
ssS'none'
p11
(dp12
g5
I480
sg6
I34
sg7
I0
sg8
I11
sg9
I22
sg10
I480
ssS'three'
p13
(dp14
g5
I1043
sg6
I34
sg7
I0
sg8
I11
sg9
I3
sg10
I500
ssS'machine3'
p15
(dp16
g5
I609
sg6
I37
sg7
I1
sg8
I7
sg9
I0
sg10
I510
ssS'machine2'
p17
(dp18
g5
I585
sg6
I36
sg7
I3
sg8
I6
sg9
I2
sg10
I460
sssS'Wahono.csv'
p19
(dp20
g3
(dp21
g5
I1560
sg6
I56
sg7
I5
sg8
I1
sg9
I5
sg10
I1210
ssg11
(dp22
g5
I1420
sg6
I55
sg7
I3
sg8
I4
sg9
I62
sg10
I1420
ssg13
(dp23
g5
I2955
sg6
I57
sg7
I2
sg8
I3
sg9
I12
sg10
I1400
ssg15
(dp24
g5
I1452
sg6
I56
sg7
I2
sg8
I4
sg9
I2
sg10
I1120
ssg17
(dp25
g5
I1374
sg6
I57
sg7
I1
sg8
I4
sg9
I8
sg10
I1010
sssS'Hall.csv'
p26
(dp27
g3
(dp28
g5
I730
sg6
I99
sg7
I2
sg8
I5
sg9
I2
sg10
I510
ssg11
(dp29
g5
I1140
sg6
I94
sg7
I8
sg8
I4
sg9
I46
sg10
I1140
ssg13
(dp30
g5
I1426
sg6
I101
sg7
I1
sg8
I4
sg9
I8
sg10
I680
ssg15
(dp31
g5
I723
sg6
I102
sg7
I0
sg8
I4
sg9
I0
sg10
I500
ssg17
(dp32
g5
I745
sg6
I100
sg7
I2
sg8
I4
sg9
I1
sg10
I510
sssS'Danijel.csv'
p33
(dp34
g3
(dp35
g5
I1107
sg6
I45
sg7
I1
sg8
I2
sg9
I2
sg10
I860
ssg11
(dp36
g5
I990
sg6
I42
sg7
I2
sg8
I4
sg9
I50
sg10
I990
ssg13
(dp37
g5
I1464
sg6
I46
sg7
I0
sg8
I2
sg9
I5
sg10
I700
ssg15
(dp38
g5
I1064
sg6
I40
sg7
I5
sg8
I3
sg9
I4
sg10
I850
ssg17
(dp39
g5
I1382
sg6
I45
sg7
I0
sg8
I3
sg9
I9
sg10
I1030
sss.(dp0
S'K_all3.csv'
p1
(dp2
S'machine'
p3
(dp4
S'count'
p5
I596
sS'truepos'
p6
I35
sS'falseneg'
p7
I1
sS'unknownyes'
p8
I9
sS'falsepos'
p9
I3
sS'unique'
p10
I480
ssS'none'
p11
(dp12
g5
I470
sg6
I32
sg7
I3
sg8
I10
sg9
I18
sg10
I470
ssS'three'
p13
(dp14
g5
I973
sg6
I34
sg7
I0
sg8
I11
sg9
I5
sg10
I470
ssS'machine3'
p15
(dp16
g5
I701
sg6
I35
sg7
I2
sg8
I8
sg9
I0
sg10
I610
ssS'machine2'
p17
(dp18
g5
I543
sg6
I33
sg7
I1
sg8
I11
sg9
I3
sg10
I410
sssS'Wahono.csv'
p19
(dp20
g3
(dp21
g5
I1702
sg6
I60
sg7
I0
sg8
I2
sg9
I4
sg10
I1310
ssg11
(dp22
g5
I1570
sg6
I53
sg7
I4
sg8
I5
sg9
I72
sg10
I1570
ssg13
(dp23
g5
I2989
sg6
I59
sg7
I0
sg8
I3
sg9
I8
sg10
I1430
ssg15
(dp24
g5
I1586
sg6
I58
sg7
I1
sg8
I3
sg9
I4
sg10
I1240
ssg17
(dp25
g5
I1792
sg6
I58
sg7
I2
sg8
I2
sg9
I5
sg10
I1360
sssS'Hall.csv'
p26
(dp27
g3
(dp28
g5
I590
sg6
I94
sg7
I7
sg8
I5
sg9
I6
sg10
I410
ssg11
(dp29
g5
I880
sg6
I99
sg7
I3
sg8
I4
sg9
I41
sg10
I880
ssg13
(dp30
g5
I1036
sg6
I101
sg7
I1
sg8
I4
sg9
I4
sg10
I500
ssg15
(dp31
g5
I615
sg6
I97
sg7
I4
sg8
I5
sg9
I0
sg10
I420
ssg17
(dp32
g5
I631
sg6
I100
sg7
I1
sg8
I5
sg9
I4
sg10
I440
sssS'Danijel.csv'
p33
(dp34
g3
(dp35
g5
I1173
sg6
I43
sg7
I3
sg8
I2
sg9
I2
sg10
I910
ssg11
(dp36
g5
I800
sg6
I44
sg7
I2
sg8
I2
sg9
I31
sg10
I800
ssg13
(dp37
g5
I2227
sg6
I46
sg7
I0
sg8
I2
sg9
I7
sg10
I1070
ssg15
(dp38
g5
I856
sg6
I41
sg7
I3
sg8
I4
sg9
I3
sg10
I670
ssg17
(dp39
g5
I1224
sg6
I45
sg7
I0
sg8
I3
sg9
I4
sg10
I910
sss.(dp0
S'K_all3.csv'
p1
(dp2
S'machine'
p3
(dp4
S'count'
p5
I517
sS'truepos'
p6
I31
sS'falseneg'
p7
I3
sS'unknownyes'
p8
I11
sS'falsepos'
p9
I1
sS'unique'
p10
I410
ssS'none'
p11
(dp12
g5
I400
sg6
I34
sg7
I1
sg8
I10
sg9
I18
sg10
I400
ssS'three'
p13
(dp14
g5
I860
sg6
I34
sg7
I0
sg8
I11
sg9
I4
sg10
I410
ssS'machine3'
p15
(dp16
g5
I532
sg6
I34
sg7
I5
sg8
I6
sg9
I2
sg10
I440
ssS'machine2'
p17
(dp18
g5
I663
sg6
I36
sg7
I1
sg8
I8
sg9
I2
sg10
I510
sssS'Wahono.csv'
p19
(dp20
g3
(dp21
g5
I1544
sg6
I58
sg7
I1
sg8
I3
sg9
I3
sg10
I1200
ssg11
(dp22
g5
I1620
sg6
I54
sg7
I3
sg8
I5
sg9
I63
sg10
I1620
ssg13
(dp23
g5
I2658
sg6
I55
sg7
I4
sg8
I3
sg9
I7
sg10
I1270
ssg15
(dp24
g5
I1624
sg6
I59
sg7
I1
sg8
I2
sg9
I4
sg10
I1270
ssg17
(dp25
g5
I1354
sg6
I58
sg7
I1
sg8
I3
sg9
I4
sg10
I1010
sssS'Hall.csv'
p26
(dp27
g3
(dp28
g5
I591
sg6
I99
sg7
I2
sg8
I5
sg9
I3
sg10
I420
ssg11
(dp29
g5
I1450
sg6
I99
sg7
I3
sg8
I4
sg9
I68
sg10
I1450
ssg13
(dp30
g5
I1178
sg6
I99
sg7
I3
sg8
I4
sg9
I2
sg10
I560
ssg15
(dp31
g5
I628
sg6
I98
sg7
I4
sg8
I4
sg9
I1
sg10
I430
ssg17
(dp32
g5
I727
sg6
I100
sg7
I1
sg8
I5
sg9
I4
sg10
I510
sssS'Danijel.csv'
p33
(dp34
g3
(dp35
g5
I1073
sg6
I44
sg7
I1
sg8
I3
sg9
I2
sg10
I820
ssg11
(dp36
g5
I1040
sg6
I44
sg7
I2
sg8
I2
sg9
I36
sg10
I1040
ssg13
(dp37
g5
I1722
sg6
I45
sg7
I0
sg8
I3
sg9
I4
sg10
I820
ssg15
(dp38
g5
I1006
sg6
I44
sg7
I1
sg8
I3
sg9
I0
sg10
I790
ssg17
(dp39
g5
I1071
sg6
I45
sg7
I0
sg8
I3
sg9
I3
sg10
I810
sss.(dp0
S'K_all3.csv'
p1
(dp2
S'machine'
p3
(dp4
S'count'
p5
I674
sS'truepos'
p6
I33
sS'falseneg'
p7
I3
sS'unknownyes'
p8
I9
sS'falsepos'
p9
I1
sS'unique'
p10
I570
ssS'none'
p11
(dp12
g5
I410
sg6
I35
sg7
I2
sg8
I8
sg9
I22
sg10
I410
ssS'three'
p13
(dp14
g5
I1063
sg6
I37
sg7
I0
sg8
I8
sg9
I2
sg10
I510
ssS'machine3'
p15
(dp16
g5
I603
sg6
I35
sg7
I2
sg8
I8
sg9
I1
sg10
I500
ssS'machine2'
p17
(dp18
g5
I640
sg6
I34
sg7
I1
sg8
I10
sg9
I3
sg10
I510
sssS'Wahono.csv'
p19
(dp20
g3
(dp21
g5
I1667
sg6
I56
sg7
I4
sg8
I2
sg9
I3
sg10
I1310
ssg11
(dp22
g5
I1900
sg6
I55
sg7
I2
sg8
I5
sg9
I114
sg10
I1900
ssg13
(dp23
g5
I3044
sg6
I59
sg7
I0
sg8
I3
sg9
I18
sg10
I1440
ssg15
(dp24
g5
I1354
sg6
I56
sg7
I3
sg8
I3
sg9
I2
sg10
I1040
ssg17
(dp25
g5
I1606
sg6
I56
sg7
I3
sg8
I3
sg9
I9
sg10
I1200
sssS'Hall.csv'
p26
(dp27
g3
(dp28
g5
I891
sg6
I100
sg7
I2
sg8
I4
sg9
I5
sg10
I640
ssg11
(dp29
g5
I460
sg6
I96
sg7
I4
sg8
I6
sg9
I13
sg10
I460
ssg13
(dp30
g5
I1051
sg6
I102
sg7
I0
sg8
I4
sg9
I1
sg10
I500
ssg15
(dp31
g5
I705
sg6
I99
sg7
I2
sg8
I5
sg9
I1
sg10
I490
ssg17
(dp32
g5
I680
sg6
I101
sg7
I1
sg8
I4
sg9
I2
sg10
I460
sssS'Danijel.csv'
p33
(dp34
g3
(dp35
g5
I909
sg6
I45
sg7
I0
sg8
I3
sg9
I5
sg10
I710
ssg11
(dp36
g5
I860
sg6
I43
sg7
I2
sg8
I3
sg9
I46
sg10
I860
ssg13
(dp37
g5
I1854
sg6
I46
sg7
I0
sg8
I2
sg9
I8
sg10
I890
ssg15
(dp38
g5
I937
sg6
I38
sg7
I5
sg8
I5
sg9
I2
sg10
I750
ssg17
(dp39
g5
I1046
sg6
I46
sg7
I0
sg8
I2
sg9
I9
sg10
I790
sss.(dp0
S'K_all3.csv'
p1
(dp2
S'machine'
p3
(dp4
S'count'
p5
I574
sS'truepos'
p6
I32
sS'falseneg'
p7
I2
sS'unknownyes'
p8
I11
sS'falsepos'
p9
I1
sS'unique'
p10
I460
ssS'none'
p11
(dp12
g5
I400
sg6
I30
sg7
I4
sg8
I11
sg9
I18
sg10
I400
ssS'three'
p13
(dp14
g5
I930
sg6
I36
sg7
I0
sg8
I9
sg9
I4
sg10
I440
ssS'machine3'
p15
(dp16
g5
I637
sg6
I37
sg7
I3
sg8
I5
sg9
I1
sg10
I520
ssS'machine2'
p17
(dp18
g5
I638
sg6
I34
sg7
I2
sg8
I9
sg9
I1
sg10
I480
sssS'Wahono.csv'
p19
(dp20
g3
(dp21
g5
I1244
sg6
I57
sg7
I1
sg8
I4
sg9
I2
sg10
I960
ssg11
(dp22
g5
I1910
sg6
I55
sg7
I3
sg8
I4
sg9
I75
sg10
I1910
ssg13
(dp23
g5
I2811
sg6
I59
sg7
I0
sg8
I3
sg9
I9
sg10
I1340
ssg15
(dp24
g5
I1446
sg6
I57
sg7
I2
sg8
I3
sg9
I1
sg10
I1120
ssg17
(dp25
g5
I1718
sg6
I58
sg7
I1
sg8
I3
sg9
I8
sg10
I1280
sssS'Hall.csv'
p26
(dp27
g3
(dp28
g5
I600
sg6
I99
sg7
I2
sg8
I5
sg9
I1
sg10
I420
ssg11
(dp29
g5
I790
sg6
I94
sg7
I9
sg8
I3
sg9
I36
sg10
I790
ssg13
(dp30
g5
I1051
sg6
I102
sg7
I0
sg8
I4
sg9
I3
sg10
I500
ssg15
(dp31
g5
I652
sg6
I97
sg7
I4
sg8
I5
sg9
I1
sg10
I450
ssg17
(dp32
g5
I429
sg6
I95
sg7
I4
sg8
I7
sg9
I3
sg10
I310
sssS'Danijel.csv'
p33
(dp34
g3
(dp35
g5
I913
sg6
I40
sg7
I4
sg8
I4
sg9
I4
sg10
I710
ssg11
(dp36
g5
I1200
sg6
I44
sg7
I1
sg8
I3
sg9
I53
sg10
I1200
ssg13
(dp37
g5
I1772
sg6
I45
sg7
I0
sg8
I3
sg9
I7
sg10
I840
ssg15
(dp38
g5
I801
sg6
I44
sg7
I1
sg8
I3
sg9
I2
sg10
I630
ssg17
(dp39
g5
I987
sg6
I43
sg7
I3
sg8
I2
sg9
I4
sg10
I760
sss.(dp0
S'K_all3.csv'
p1
(dp2
S'machine'
p3
(dp4
S'count'
p5
I559
sS'truepos'
p6
I33
sS'falseneg'
p7
I1
sS'unknownyes'
p8
I11
sS'falsepos'
p9
I0
sS'unique'
p10
I460
ssS'none'
p11
(dp12
g5
I620
sg6
I33
sg7
I4
sg8
I8
sg9
I23
sg10
I620
ssS'three'
p13
(dp14
g5
I1022
sg6
I37
sg7
I0
sg8
I8
sg9
I0
sg10
I490
ssS'machine3'
p15
(dp16
g5
I540
sg6
I35
sg7
I0
sg8
I10
sg9
I2
sg10
I440
ssS'machine2'
p17
(dp18
g5
I580
sg6
I35
sg7
I3
sg8
I7
sg9
I0
sg10
I460
sssS'Wahono.csv'
p19
(dp20
g3
(dp21
g5
I1482
sg6
I54
sg7
I6
sg8
I2
sg9
I2
sg10
I1160
ssg11
(dp22
g5
I1220
sg6
I53
sg7
I4
sg8
I5
sg9
I45
sg10
I1220
ssg13
(dp23
g5
I3200
sg6
I60
sg7
I0
sg8
I2
sg9
I11
sg10
I1530
ssg15
(dp24
g5
I1774
sg6
I58
sg7
I1
sg8
I3
sg9
I6
sg10
I1380
ssg17
(dp25
g5
I1695
sg6
I59
sg7
I0
sg8
I3
sg9
I7
sg10
I1270
sssS'Hall.csv'
p26
(dp27
g3
(dp28
g5
I693
sg6
I100
sg7
I2
sg8
I4
sg9
I7
sg10
I500
ssg11
(dp29
g5
I1210
sg6
I96
sg7
I6
sg8
I4
sg9
I52
sg10
I1210
ssg13
(dp30
g5
I895
sg6
I101
sg7
I0
sg8
I5
sg9
I0
sg10
I430
ssg15
(dp31
g5
I784
sg6
I101
sg7
I1
sg8
I4
sg9
I3
sg10
I540
ssg17
(dp32
g5
I749
sg6
I101
sg7
I0
sg8
I5
sg9
I5
sg10
I510
sssS'Danijel.csv'
p33
(dp34
g3
(dp35
g5
I1140
sg6
I43
sg7
I2
sg8
I3
sg9
I3
sg10
I910
ssg11
(dp36
g5
I1470
sg6
I45
sg7
I1
sg8
I2
sg9
I76
sg10
I1470
ssg13
(dp37
g5
I1853
sg6
I45
sg7
I0
sg8
I3
sg9
I12
sg10
I880
ssg15
(dp38
g5
I1127
sg6
I44
sg7
I1
sg8
I3
sg9
I1
sg10
I880
ssg17
(dp39
g5
I1134
sg6
I44
sg7
I1
sg8
I3
sg9
I6
sg10
I860
sss.(dp0
S'K_all3.csv'
p1
(dp2
S'machine'
p3
(dp4
S'count'
p5
I615
sS'truepos'
p6
I32
sS'falseneg'
p7
I2
sS'unknownyes'
p8
I11
sS'falsepos'
p9
I2
sS'unique'
p10
I480
ssS'none'
p11
(dp12
g5
I480
sg6
I37
sg7
I3
sg8
I5
sg9
I22
sg10
I480
ssS'three'
p13
(dp14
g5
I1027
sg6
I36
sg7
I1
sg8
I8
sg9
I6
sg10
I490
ssS'machine3'
p15
(dp16
g5
I583
sg6
I35
sg7
I3
sg8
I7
sg9
I1
sg10
I480
ssS'machine2'
p17
(dp18
g5
I524
sg6
I32
sg7
I0
sg8
I13
sg9
I3
sg10
I410
sssS'Wahono.csv'
p19
(dp20
g3
(dp21
g5
I1564
sg6
I56
sg7
I4
sg8
I2
sg9
I4
sg10
I1190
ssg11
(dp22
g5
I1820
sg6
I59
sg7
I1
sg8
I2
sg9
I99
sg10
I1820
ssg13
(dp23
g5
I2949
sg6
I59
sg7
I0
sg8
I3
sg9
I12
sg10
I1410
ssg15
(dp24
g5
I1621
sg6
I57
sg7
I3
sg8
I2
sg9
I5
sg10
I1270
ssg17
(dp25
g5
I1408
sg6
I58
sg7
I1
sg8
I3
sg9
I4
sg10
I1060
sssS'Hall.csv'
p26
(dp27
g3
(dp28
g5
I283
sg6
I80
sg7
I1
sg8
I25
sg9
I5
sg10
I210
ssg11
(dp29
g5
I540
sg6
I99
sg7
I3
sg8
I4
sg9
I15
sg10
I540
ssg13
(dp30
g5
I1353
sg6
I102
sg7
I0
sg8
I4
sg9
I6
sg10
I650
ssg15
(dp31
g5
I697
sg6
I97
sg7
I5
sg8
I4
sg9
I0
sg10
I490
ssg17
(dp32
g5
I703
sg6
I100
sg7
I2
sg8
I4
sg9
I1
sg10
I490
sssS'Danijel.csv'
p33
(dp34
g3
(dp35
g5
I937
sg6
I41
sg7
I3
sg8
I4
sg9
I2
sg10
I720
ssg11
(dp36
g5
I1270
sg6
I44
sg7
I0
sg8
I4
sg9
I54
sg10
I1270
ssg13
(dp37
g5
I1660
sg6
I45
sg7
I0
sg8
I3
sg9
I5
sg10
I790
ssg15
(dp38
g5
I1156
sg6
I44
sg7
I1
sg8
I3
sg9
I6
sg10
I910
ssg17
(dp39
g5
I1110
sg6
I45
sg7
I0
sg8
I3
sg9
I1
sg10
I830
sss.(dp0
S'K_all3.csv'
p1
(dp2
S'machine'
p3
(dp4
S'count'
p5
I537
sS'truepos'
p6
I33
sS'falseneg'
p7
I0
sS'unknownyes'
p8
I12
sS'falsepos'
p9
I1
sS'unique'
p10
I440
ssS'none'
p11
(dp12
g5
I480
sg6
I34
sg7
I4
sg8
I7
sg9
I18
sg10
I480
ssS'three'
p13
(dp14
g5
I1003
sg6
I36
sg7
I1
sg8
I8
sg9
I2
sg10
I480
ssS'machine3'
p15
(dp16
g5
I704
sg6
I33
sg7
I3
sg8
I9
sg9
I1
sg10
I600
ssS'machine2'
p17
(dp18
g5
I580
sg6
I34
sg7
I0
sg8
I11
sg9
I6
sg10
I430
sssS'Wahono.csv'
p19
(dp20
g3
(dp21
g5
I1187
sg6
I55
sg7
I4
sg8
I3
sg9
I3
sg10
I910
ssg11
(dp22
g5
I1600
sg6
I54
sg7
I5
sg8
I3
sg9
I85
sg10
I1600
ssg13
(dp23
g5
I3285
sg6
I61
sg7
I0
sg8
I1
sg9
I14
sg10
I1570
ssg15
(dp24
g5
I1373
sg6
I56
sg7
I3
sg8
I3
sg9
I3
sg10
I1070
ssg17
(dp25
g5
I2273
sg6
I59
sg7
I2
sg8
I1
sg9
I11
sg10
I1700
sssS'Hall.csv'
p26
(dp27
g3
(dp28
g5
I591
sg6
I98
sg7
I3
sg8
I5
sg9
I4
sg10
I420
ssg11
(dp29
g5
I1000
sg6
I97
sg7
I5
sg8
I4
sg9
I51
sg10
I1000
ssg13
(dp30
g5
I1029
sg6
I102
sg7
I0
sg8
I4
sg9
I1
sg10
I490
ssg15
(dp31
g5
I766
sg6
I97
sg7
I5
sg8
I4
sg9
I2
sg10
I540
ssg17
(dp32
g5
I651
sg6
I98
sg7
I3
sg8
I5
sg9
I2
sg10
I460
sssS'Danijel.csv'
p33
(dp34
g3
(dp35
g5
I1100
sg6
I44
sg7
I1
sg8
I3
sg9
I4
sg10
I860
ssg11
(dp36
g5
I1380
sg6
I44
sg7
I2
sg8
I2
sg9
I69
sg10
I1380
ssg13
(dp37
g5
I1631
sg6
I45
sg7
I0
sg8
I3
sg9
I5
sg10
I780
ssg15
(dp38
g5
I899
sg6
I43
sg7
I2
sg8
I3
sg9
I1
sg10
I690
ssg17
(dp39
g5
I1030
sg6
I43
sg7
I2
sg8
I3
sg9
I3
sg10
I760
sss.(dp0
S'K_all3.csv'
p1
(dp2
S'machine'
p3
(dp4
S'count'
p5
I602
sS'truepos'
p6
I33
sS'falseneg'
p7
I4
sS'unknownyes'
p8
I8
sS'falsepos'
p9
I1
sS'unique'
p10
I500
ssS'none'
p11
(dp12
g5
I460
sg6
I30
sg7
I3
sg8
I12
sg9
I17
sg10
I460
ssS'three'
p13
(dp14
g5
I1066
sg6
I38
sg7
I0
sg8
I7
sg9
I3
sg10
I510
ssS'machine3'
p15
(dp16
g5
I516
sg6
I32
sg7
I2
sg8
I11
sg9
I3
sg10
I420
ssS'machine2'
p17
(dp18
g5
I629
sg6
I29
sg7
I2
sg8
I14
sg9
I3
sg10
I470
sssS'Wahono.csv'
p19
(dp20
g3
(dp21
g5
I1656
sg6
I59
sg7
I0
sg8
I3
sg9
I3
sg10
I1310
ssg11
(dp22
g5
I2050
sg6
I54
sg7
I5
sg8
I3
sg9
I98
sg10
I2050
ssg13
(dp23
g5
I3227
sg6
I58
sg7
I1
sg8
I3
sg9
I15
sg10
I1540
ssg15
(dp24
g5
I1604
sg6
I58
sg7
I1
sg8
I3
sg9
I3
sg10
I1260
ssg17
(dp25
g5
I1500
sg6
I57
sg7
I2
sg8
I3
sg9
I7
sg10
I1160
sssS'Hall.csv'
p26
(dp27
g3
(dp28
g5
I611
sg6
I97
sg7
I5
sg8
I4
sg9
I3
sg10
I440
ssg11
(dp29
g5
I1070
sg6
I97
sg7
I6
sg8
I3
sg9
I54
sg10
I1070
ssg13
(dp30
g5
I966
sg6
I102
sg7
I0
sg8
I4
sg9
I1
sg10
I460
ssg15
(dp31
g5
I540
sg6
I95
sg7
I5
sg8
I6
sg9
I0
sg10
I360
ssg17
(dp32
g5
I549
sg6
I99
sg7
I1
sg8
I6
sg9
I4
sg10
I380
sssS'Danijel.csv'
p33
(dp34
g3
(dp35
g5
I979
sg6
I42
sg7
I3
sg8
I3
sg9
I3
sg10
I760
ssg11
(dp36
g5
I950
sg6
I45
sg7
I1
sg8
I2
sg9
I35
sg10
I950
ssg13
(dp37
g5
I1847
sg6
I44
sg7
I2
sg8
I2
sg9
I8
sg10
I880
ssg15
(dp38
g5
I1037
sg6
I45
sg7
I1
sg8
I2
sg9
I3
sg10
I810
ssg17
(dp39
g5
I1165
sg6
I45
sg7
I1
sg8
I2
sg9
I3
sg10
I870
sss.(dp0
S'K_all3.csv'
p1
(dp2
S'machine'
p3
(dp4
S'count'
p5
I659
sS'truepos'
p6
I33
sS'falseneg'
p7
I3
sS'unknownyes'
p8
I9
sS'falsepos'
p9
I2
sS'unique'
p10
I550
ssS'none'
p11
(dp12
g5
I460
sg6
I29
sg7
I2
sg8
I14
sg9
I16
sg10
I460
ssS'three'
p13
(dp14
g5
I872
sg6
I35
sg7
I0
sg8
I10
sg9
I6
sg10
I420
ssS'machine3'
p15
(dp16
g5
I634
sg6
I36
sg7
I2
sg8
I7
sg9
I1
sg10
I530
ssS'machine2'
p17
(dp18
g5
I569
sg6
I34
sg7
I1
sg8
I10
sg9
I2
sg10
I460
sssS'Wahono.csv'
p19
(dp20
g3
(dp21
g5
I1597
sg6
I58
sg7
I1
sg8
I3
sg9
I1
sg10
I1240
ssg11
(dp22
g5
I2330
sg6
I58
sg7
I3
sg8
I1
sg9
I97
sg10
I2330
ssg13
(dp23
g5
I3257
sg6
I59
sg7
I1
sg8
I2
sg9
I15
sg10
I1560
ssg15
(dp24
g5
I1352
sg6
I56
sg7
I3
sg8
I3
sg9
I3
sg10
I1060
ssg17
(dp25
g5
I1479
sg6
I57
sg7
I2
sg8
I3
sg9
I6
sg10
I1110
sssS'Hall.csv'
p26
(dp27
g3
(dp28
g5
I611
sg6
I99
sg7
I2
sg8
I5
sg9
I4
sg10
I440
ssg11
(dp29
g5
I740
sg6
I96
sg7
I6
sg8
I4
sg9
I41
sg10
I740
ssg13
(dp30
g5
I1188
sg6
I100
sg7
I2
sg8
I4
sg9
I2
sg10
I570
ssg15
(dp31
g5
I855
sg6
I100
sg7
I2
sg8
I4
sg9
I5
sg10
I600
ssg17
(dp32
g5
I639
sg6
I99
sg7
I2
sg8
I5
sg9
I4
sg10
I450
sssS'Danijel.csv'
p33
(dp34
g3
(dp35
g5
I1164
sg6
I44
sg7
I1
sg8
I3
sg9
I2
sg10
I910
ssg11
(dp36
g5
I940
sg6
I43
sg7
I3
sg8
I2
sg9
I35
sg10
I940
ssg13
(dp37
g5
I1569
sg6
I45
sg7
I0
sg8
I3
sg9
I4
sg10
I750
ssg15
(dp38
g5
I910
sg6
I44
sg7
I1
sg8
I3
sg9
I2
sg10
I700
ssg17
(dp39
g5
I1091
sg6
I41
sg7
I3
sg8
I4
sg9
I11
sg10
I810
sss.(dp0
S'K_all3.csv'
p1
(dp2
S'machine'
p3
(dp4
S'count'
p5
I604
sS'truepos'
p6
I34
sS'falseneg'
p7
I3
sS'unknownyes'
p8
I8
sS'falsepos'
p9
I3
sS'unique'
p10
I470
ssS'none'
p11
(dp12
g5
I550
sg6
I34
sg7
I2
sg8
I9
sg9
I29
sg10
I550
ssS'three'
p13
(dp14
g5
I927
sg6
I35
sg7
I0
sg8
I10
sg9
I3
sg10
I440
ssS'machine3'
p15
(dp16
g5
I612
sg6
I38
sg7
I0
sg8
I7
sg9
I1
sg10
I520
ssS'machine2'
p17
(dp18
g5
I648
sg6
I34
sg7
I1
sg8
I10
sg9
I3
sg10
I510
sssS'Wahono.csv'
p19
(dp20
g3
(dp21
g5
I1480
sg6
I57
sg7
I1
sg8
I4
sg9
I8
sg10
I1160
ssg11
(dp22
g5
I2130
sg6
I56
sg7
I2
sg8
I4
sg9
I106
sg10
I2130
ssg13
(dp23
g5
I3067
sg6
I59
sg7
I0
sg8
I3
sg9
I21
sg10
I1460
ssg15
(dp24
g5
I1581
sg6
I59
sg7
I0
sg8
I3
sg9
I3
sg10
I1230
ssg17
(dp25
g5
I1606
sg6
I58
sg7
I2
sg8
I2
sg9
I5
sg10
I1210
sssS'Hall.csv'
p26
(dp27
g3
(dp28
g5
I710
sg6
I100
sg7
I2
sg8
I4
sg9
I1
sg10
I510
ssg11
(dp29
g5
I1130
sg6
I96
sg7
I7
sg8
I3
sg9
I63
sg10
I1130
ssg13
(dp30
g5
I1271
sg6
I100
sg7
I2
sg8
I4
sg9
I3
sg10
I600
ssg15
(dp31
g5
I618
sg6
I98
sg7
I4
sg8
I4
sg9
I1
sg10
I420
ssg17
(dp32
g5
I754
sg6
I101
sg7
I1
sg8
I4
sg9
I5
sg10
I510
sssS'Danijel.csv'
p33
(dp34
g3
(dp35
g5
I1116
sg6
I44
sg7
I2
sg8
I2
sg9
I6
sg10
I860
ssg11
(dp36
g5
I920
sg6
I43
sg7
I1
sg8
I4
sg9
I34
sg10
I920
ssg13
(dp37
g5
I1633
sg6
I44
sg7
I0
sg8
I4
sg9
I4
sg10
I770
ssg15
(dp38
g5
I873
sg6
I43
sg7
I1
sg8
I4
sg9
I1
sg10
I680
ssg17
(dp39
g5
I984
sg6
I42
sg7
I2
sg8
I4
sg9
I4
sg10
I740
sss.(dp0
S'K_all3.csv'
p1
(dp2
S'machine'
p3
(dp4
S'count'
p5
I555
sS'truepos'
p6
I30
sS'falseneg'
p7
I0
sS'unknownyes'
p8
I15
sS'falsepos'
p9
I3
sS'unique'
p10
I460
ssS'none'
p11
(dp12
g5
I550
sg6
I39
sg7
I1
sg8
I5
sg9
I21
sg10
I550
ssS'three'
p13
(dp14
g5
I1045
sg6
I35
sg7
I1
sg8
I9
sg9
I3
sg10
I500
ssS'machine3'
p15
(dp16
g5
I602
sg6
I38
sg7
I0
sg8
I7
sg9
I0
sg10
I500
ssS'machine2'
p17
(dp18
g5
I653
sg6
I35
sg7
I2
sg8
I8
sg9
I5
sg10
I510
sssS'Wahono.csv'
p19
(dp20
g3
(dp21
g5
I1561
sg6
I57
sg7
I2
sg8
I3
sg9
I5
sg10
I1210
ssg11
(dp22
g5
I2220
sg6
I55
sg7
I5
sg8
I2
sg9
I106
sg10
I2220
ssg13
(dp23
g5
I2750
sg6
I59
sg7
I0
sg8
I3
sg9
I11
sg10
I1310
ssg15
(dp24
g5
I1536
sg6
I57
sg7
I2
sg8
I3
sg9
I4
sg10
I1210
ssg17
(dp25
g5
I1395
sg6
I57
sg7
I2
sg8
I3
sg9
I7
sg10
I1060
sssS'Hall.csv'
p26
(dp27
g3
(dp28
g5
I562
sg6
I99
sg7
I1
sg8
I6
sg9
I3
sg10
I410
ssg11
(dp29
g5
I1220
sg6
I99
sg7
I4
sg8
I3
sg9
I47
sg10
I1220
ssg13
(dp30
g5
I991
sg6
I102
sg7
I0
sg8
I4
sg9
I2
sg10
I470
ssg15
(dp31
g5
I686
sg6
I101
sg7
I1
sg8
I4
sg9
I2
sg10
I460
ssg17
(dp32
g5
I822
sg6
I102
sg7
I0
sg8
I4
sg9
I3
sg10
I560
sssS'Danijel.csv'
p33
(dp34
g3
(dp35
g5
I967
sg6
I45
sg7
I0
sg8
I3
sg9
I0
sg10
I750
ssg11
(dp36
g5
I830
sg6
I39
sg7
I4
sg8
I5
sg9
I39
sg10
I830
ssg13
(dp37
g5
I1634
sg6
I45
sg7
I0
sg8
I3
sg9
I2
sg10
I780
ssg15
(dp38
g5
I936
sg6
I43
sg7
I2
sg8
I3
sg9
I0
sg10
I730
ssg17
(dp39
g5
I1250
sg6
I46
sg7
I0
sg8
I2
sg9
I1
sg10
I940
sss.(dp0
S'K_all3.csv'
p1
(dp2
S'machine'
p3
(dp4
S'count'
p5
I510
sS'truepos'
p6
I35
sS'falseneg'
p7
I0
sS'unknownyes'
p8
I10
sS'falsepos'
p9
I0
sS'unique'
p10
I400
ssS'none'
p11
(dp12
g5
I450
sg6
I29
sg7
I1
sg8
I15
sg9
I29
sg10
I450
ssS'three'
p13
(dp14
g5
I984
sg6
I35
sg7
I0
sg8
I10
sg9
I1
sg10
I470
ssS'machine3'
p15
(dp16
g5
I582
sg6
I35
sg7
I3
sg8
I7
sg9
I0
sg10
I490
ssS'machine2'
p17
(dp18
g5
I571
sg6
I33
sg7
I2
sg8
I10
sg9
I4
sg10
I450
sssS'Wahono.csv'
p19
(dp20
g3
(dp21
g5
I1495
sg6
I59
sg7
I1
sg8
I2
sg9
I5
sg10
I1160
ssg11
(dp22
g5
I2190
sg6
I56
sg7
I4
sg8
I2
sg9
I97
sg10
I2190
ssg13
(dp23
g5
I2950
sg6
I59
sg7
I1
sg8
I2
sg9
I8
sg10
I1410
ssg15
(dp24
g5
I1617
sg6
I57
sg7
I2
sg8
I3
sg9
I5
sg10
I1270
ssg17
(dp25
g5
I1955
sg6
I60
sg7
I0
sg8
I2
sg9
I13
sg10
I1460
sssS'Hall.csv'
p26
(dp27
g3
(dp28
g5
I735
sg6
I100
sg7
I1
sg8
I5
sg9
I2
sg10
I520
ssg11
(dp29
g5
I570
sg6
I97
sg7
I5
sg8
I4
sg9
I19
sg10
I570
ssg13
(dp30
g5
I1098
sg6
I99
sg7
I3
sg8
I4
sg9
I2
sg10
I520
ssg15
(dp31
g5
I809
sg6
I102
sg7
I0
sg8
I4
sg9
I3
sg10
I570
ssg17
(dp32
g5
I649
sg6
I102
sg7
I0
sg8
I4
sg9
I5
sg10
I450
sssS'Danijel.csv'
p33
(dp34
g3
(dp35
g5
I1041
sg6
I40
sg7
I6
sg8
I2
sg9
I4
sg10
I810
ssg11
(dp36
g5
I1280
sg6
I46
sg7
I0
sg8
I2
sg9
I68
sg10
I1280
ssg13
(dp37
g5
I1768
sg6
I46
sg7
I0
sg8
I2
sg9
I5
sg10
I840
ssg15
(dp38
g5
I926
sg6
I41
sg7
I4
sg8
I3
sg9
I1
sg10
I730
ssg17
(dp39
g5
I1067
sg6
I46
sg7
I0
sg8
I2
sg9
I6
sg10
I810
sss.(dp0
S'K_all3.csv'
p1
(dp2
S'machine'
p3
(dp4
S'count'
p5
I522
sS'truepos'
p6
I33
sS'falseneg'
p7
I3
sS'unknownyes'
p8
I9
sS'falsepos'
p9
I1
sS'unique'
p10
I410
ssS'none'
p11
(dp12
g5
I510
sg6
I32
sg7
I5
sg8
I8
sg9
I26
sg10
I510
ssS'three'
p13
(dp14
g5
I1083
sg6
I34
sg7
I0
sg8
I11
sg9
I2
sg10
I510
ssS'machine3'
p15
(dp16
g5
I714
sg6
I37
sg7
I1
sg8
I7
sg9
I2
sg10
I610
ssS'machine2'
p17
(dp18
g5
I609
sg6
I37
sg7
I0
sg8
I8
sg9
I3
sg10
I460
sssS'Wahono.csv'
p19
(dp20
g3
(dp21
g5
I1369
sg6
I60
sg7
I0
sg8
I2
sg9
I6
sg10
I1060
ssg11
(dp22
g5
I1990
sg6
I61
sg7
I0
sg8
I1
sg9
I115
sg10
I1990
ssg13
(dp23
g5
I2768
sg6
I59
sg7
I1
sg8
I2
sg9
I4
sg10
I1330
ssg15
(dp24
g5
I1466
sg6
I57
sg7
I2
sg8
I3
sg9
I5
sg10
I1140
ssg17
(dp25
g5
I1682
sg6
I58
sg7
I1
sg8
I3
sg9
I9
sg10
I1260
sssS'Hall.csv'
p26
(dp27
g3
(dp28
g5
I793
sg6
I102
sg7
I0
sg8
I4
sg9
I2
sg10
I560
ssg11
(dp29
g5
I720
sg6
I95
sg7
I7
sg8
I4
sg9
I19
sg10
I720
ssg13
(dp30
g5
I1196
sg6
I101
sg7
I1
sg8
I4
sg9
I4
sg10
I570
ssg15
(dp31
g5
I701
sg6
I100
sg7
I2
sg8
I4
sg9
I0
sg10
I490
ssg17
(dp32
g5
I770
sg6
I101
sg7
I1
sg8
I4
sg9
I5
sg10
I530
sssS'Danijel.csv'
p33
(dp34
g3
(dp35
g5
I1111
sg6
I43
sg7
I3
sg8
I2
sg9
I3
sg10
I860
ssg11
(dp36
g5
I1580
sg6
I44
sg7
I3
sg8
I1
sg9
I89
sg10
I1580
ssg13
(dp37
g5
I2104
sg6
I46
sg7
I0
sg8
I2
sg9
I6
sg10
I1000
ssg15
(dp38
g5
I925
sg6
I44
sg7
I1
sg8
I3
sg9
I0
sg10
I720
ssg17
(dp39
g5
I1245
sg6
I44
sg7
I1
sg8
I3
sg9
I3
sg10
I930
sss.(dp0
S'K_all3.csv'
p1
(dp2
S'machine'
p3
(dp4
S'count'
p5
I548
sS'truepos'
p6
I34
sS'falseneg'
p7
I1
sS'unknownyes'
p8
I10
sS'falsepos'
p9
I4
sS'unique'
p10
I440
ssS'none'
p11
(dp12
g5
I450
sg6
I36
sg7
I0
sg8
I9
sg9
I21
sg10
I450
ssS'three'
p13
(dp14
g5
I1067
sg6
I37
sg7
I1
sg8
I7
sg9
I1
sg10
I510
ssS'machine3'
p15
(dp16
g5
I533
sg6
I34
sg7
I1
sg8
I10
sg9
I2
sg10
I440
ssS'machine2'
p17
(dp18
g5
I603
sg6
I35
sg7
I2
sg8
I8
sg9
I2
sg10
I460
sssS'Wahono.csv'
p19
(dp20
g3
(dp21
g5
I1296
sg6
I55
sg7
I3
sg8
I4
sg9
I3
sg10
I1000
ssg11
(dp22
g5
I1910
sg6
I54
sg7
I5
sg8
I3
sg9
I73
sg10
I1910
ssg13
(dp23
g5
I2768
sg6
I61
sg7
I0
sg8
I1
sg9
I7
sg10
I1330
ssg15
(dp24
g5
I1631
sg6
I59
sg7
I2
sg8
I1
sg9
I4
sg10
I1270
ssg17
(dp25
g5
I1509
sg6
I58
sg7
I1
sg8
I3
sg9
I7
sg10
I1110
sssS'Hall.csv'
p26
(dp27
g3
(dp28
g5
I653
sg6
I98
sg7
I4
sg8
I4
sg9
I6
sg10
I460
ssg11
(dp29
g5
I570
sg6
I95
sg7
I7
sg8
I4
sg9
I16
sg10
I570
ssg13
(dp30
g5
I1196
sg6
I99
sg7
I3
sg8
I4
sg9
I2
sg10
I570
ssg15
(dp31
g5
I672
sg6
I100
sg7
I2
sg8
I4
sg9
I0
sg10
I460
ssg17
(dp32
g5
I749
sg6
I101
sg7
I0
sg8
I5
sg9
I3
sg10
I520
sssS'Danijel.csv'
p33
(dp34
g3
(dp35
g5
I1110
sg6
I46
sg7
I0
sg8
I2
sg9
I3
sg10
I860
ssg11
(dp36
g5
I1780
sg6
I43
sg7
I5
sg8
I0
sg9
I86
sg10
I1780
ssg13
(dp37
g5
I1924
sg6
I44
sg7
I2
sg8
I2
sg9
I5
sg10
I910
ssg15
(dp38
g5
I1037
sg6
I44
sg7
I1
sg8
I3
sg9
I5
sg10
I810
ssg17
(dp39
g5
I923
sg6
I43
sg7
I2
sg8
I3
sg9
I1
sg10
I710
sss.(dp0
S'K_all3.csv'
p1
(dp2
S'machine'
p3
(dp4
S'count'
p5
I663
sS'truepos'
p6
I34
sS'falseneg'
p7
I3
sS'unknownyes'
p8
I8
sS'falsepos'
p9
I0
sS'unique'
p10
I560
ssS'none'
p11
(dp12
g5
I630
sg6
I40
sg7
I2
sg8
I3
sg9
I28
sg10
I630
ssS'three'
p13
(dp14
g5
I980
sg6
I36
sg7
I0
sg8
I9
sg9
I2
sg10
I470
ssS'machine3'
p15
(dp16
g5
I603
sg6
I36
sg7
I3
sg8
I6
sg9
I1
sg10
I500
ssS'machine2'
p17
(dp18
g5
I571
sg6
I34
sg7
I1
sg8
I10
sg9
I2
sg10
I450
sssS'Wahono.csv'
p19
(dp20
g3
(dp21
g5
I1703
sg6
I59
sg7
I0
sg8
I3
sg9
I7
sg10
I1340
ssg11
(dp22
g5
I1450
sg6
I48
sg7
I6
sg8
I8
sg9
I66
sg10
I1450
ssg13
(dp23
g5
I2594
sg6
I59
sg7
I0
sg8
I3
sg9
I9
sg10
I1240
ssg15
(dp24
g5
I1617
sg6
I58
sg7
I1
sg8
I3
sg9
I5
sg10
I1260
ssg17
(dp25
g5
I2012
sg6
I61
sg7
I0
sg8
I1
sg9
I11
sg10
I1510
sssS'Hall.csv'
p26
(dp27
g3
(dp28
g5
I610
sg6
I96
sg7
I5
sg8
I5
sg9
I4
sg10
I430
ssg11
(dp29
g5
I1170
sg6
I99
sg7
I4
sg8
I3
sg9
I54
sg10
I1170
ssg13
(dp30
g5
I1248
sg6
I102
sg7
I0
sg8
I4
sg9
I2
sg10
I600
ssg15
(dp31
g5
I580
sg6
I96
sg7
I5
sg8
I5
sg9
I1
sg10
I390
ssg17
(dp32
g5
I674
sg6
I98
sg7
I3
sg8
I5
sg9
I4
sg10
I460
sssS'Danijel.csv'
p33
(dp34
g3
(dp35
g5
I1035
sg6
I44
sg7
I2
sg8
I2
sg9
I2
sg10
I810
ssg11
(dp36
g5
I1570
sg6
I41
sg7
I4
sg8
I3
sg9
I73
sg10
I1570
ssg13
(dp37
g5
I1624
sg6
I45
sg7
I0
sg8
I3
sg9
I4
sg10
I770
ssg15
(dp38
g5
I1092
sg6
I43
sg7
I2
sg8
I3
sg9
I2
sg10
I840
ssg17
(dp39
g5
I1232
sg6
I44
sg7
I0
sg8
I4
sg9
I8
sg10
I910
sss.(dp0
S'K_all3.csv'
p1
(dp2
S'machine'
p3
(dp4
S'count'
p5
I646
sS'truepos'
p6
I36
sS'falseneg'
p7
I3
sS'unknownyes'
p8
I6
sS'falsepos'
p9
I0
sS'unique'
p10
I540
ssS'none'
p11
(dp12
g5
I500
sg6
I38
sg7
I1
sg8
I6
sg9
I24
sg10
I500
ssS'three'
p13
(dp14
g5
I995
sg6
I35
sg7
I0
sg8
I10
sg9
I4
sg10
I470
ssS'machine3'
p15
(dp16
g5
I663
sg6
I38
sg7
I2
sg8
I5
sg9
I0
sg10
I540
ssS'machine2'
p17
(dp18
g5
I518
sg6
I34
sg7
I1
sg8
I10
sg9
I2
sg10
I410
sssS'Wahono.csv'
p19
(dp20
g3
(dp21
g5
I1555
sg6
I57
sg7
I3
sg8
I2
sg9
I2
sg10
I1210
ssg11
(dp22
g5
I1950
sg6
I57
sg7
I3
sg8
I2
sg9
I104
sg10
I1950
ssg13
(dp23
g5
I2820
sg6
I60
sg7
I0
sg8
I2
sg9
I10
sg10
I1340
ssg15
(dp24
g5
I1461
sg6
I59
sg7
I0
sg8
I3
sg9
I2
sg10
I1120
ssg17
(dp25
g5
I1478
sg6
I60
sg7
I0
sg8
I2
sg9
I1
sg10
I1110
sssS'Hall.csv'
p26
(dp27
g3
(dp28
g5
I582
sg6
I95
sg7
I5
sg8
I6
sg9
I4
sg10
I410
ssg11
(dp29
g5
I1500
sg6
I96
sg7
I6
sg8
I4
sg9
I70
sg10
I1500
ssg13
(dp30
g5
I1040
sg6
I101
sg7
I1
sg8
I4
sg9
I4
sg10
I500
ssg15
(dp31
g5
I675
sg6
I100
sg7
I2
sg8
I4
sg9
I1
sg10
I470
ssg17
(dp32
g5
I622
sg6
I102
sg7
I0
sg8
I4
sg9
I2
sg10
I430
sssS'Danijel.csv'
p33
(dp34
g3
(dp35
g5
I990
sg6
I44
sg7
I1
sg8
I3
sg9
I5
sg10
I760
ssg11
(dp36
g5
I1520
sg6
I44
sg7
I1
sg8
I3
sg9
I88
sg10
I1520
ssg13
(dp37
g5
I1921
sg6
I44
sg7
I0
sg8
I4
sg9
I10
sg10
I920
ssg15
(dp38
g5
I1020
sg6
I42
sg7
I3
sg8
I3
sg9
I2
sg10
I820
ssg17
(dp39
g5
I1158
sg6
I45
sg7
I1
sg8
I2
sg9
I3
sg10
I860
sss.(dp0
S'K_all3.csv'
p1
(dp2
S'machine'
p3
(dp4
S'count'
p5
I912
sS'truepos'
p6
I31
sS'falseneg'
p7
I6
sS'unknownyes'
p8
I8
sS'falsepos'
p9
I3
sS'unique'
p10
I810
ssS'none'
p11
(dp12
g5
I440
sg6
I33
sg7
I5
sg8
I7
sg9
I25
sg10
I440
ssS'three'
p13
(dp14
g5
I935
sg6
I35
sg7
I1
sg8
I9
sg9
I6
sg10
I450
ssS'machine3'
p15
(dp16
g5
I650
sg6
I37
sg7
I4
sg8
I4
sg9
I0
sg10
I530
ssS'machine2'
p17
(dp18
g5
I589
sg6
I34
sg7
I0
sg8
I11
sg9
I3
sg10
I460
sssS'Wahono.csv'
p19
(dp20
g3
(dp21
g5
I1425
sg6
I57
sg7
I2
sg8
I3
sg9
I2
sg10
I1110
ssg11
(dp22
g5
I2220
sg6
I52
sg7
I8
sg8
I2
sg9
I101
sg10
I2220
ssg13
(dp23
g5
I2927
sg6
I59
sg7
I0
sg8
I3
sg9
I8
sg10
I1390
ssg15
(dp24
g5
I1969
sg6
I59
sg7
I1
sg8
I2
sg9
I9
sg10
I1530
ssg17
(dp25
g5
I817
sg6
I58
sg7
I0
sg8
I4
sg9
I2
sg10
I610
sssS'Hall.csv'
p26
(dp27
g3
(dp28
g5
I494
sg6
I98
sg7
I2
sg8
I6
sg9
I4
sg10
I360
ssg11
(dp29
g5
I1240
sg6
I93
sg7
I9
sg8
I4
sg9
I51
sg10
I1240
ssg13
(dp30
g5
I952
sg6
I100
sg7
I1
sg8
I5
sg9
I3
sg10
I450
ssg15
(dp31
g5
I746
sg6
I99
sg7
I3
sg8
I4
sg9
I1
sg10
I520
ssg17
(dp32
g5
I686
sg6
I102
sg7
I0
sg8
I4
sg9
I1
sg10
I480
sssS'Danijel.csv'
p33
(dp34
g3
(dp35
g5
I1320
sg6
I40
sg7
I5
sg8
I3
sg9
I5
sg10
I1030
ssg11
(dp36
g5
I780
sg6
I42
sg7
I2
sg8
I4
sg9
I33
sg10
I780
ssg13
(dp37
g5
I2253
sg6
I46
sg7
I0
sg8
I2
sg9
I8
sg10
I1080
ssg15
(dp38
g5
I995
sg6
I42
sg7
I3
sg8
I3
sg9
I2
sg10
I780
ssg17
(dp39
g5
I1226
sg6
I46
sg7
I0
sg8
I2
sg9
I6
sg10
I910
sss.(dp0
S'K_all3.csv'
p1
(dp2
S'machine'
p3
(dp4
S'count'
p5
I669
sS'truepos'
p6
I36
sS'falseneg'
p7
I2
sS'unknownyes'
p8
I7
sS'falsepos'
p9
I1
sS'unique'
p10
I530
ssS'none'
p11
(dp12
g5
I400
sg6
I34
sg7
I0
sg8
I11
sg9
I15
sg10
I400
ssS'three'
p13
(dp14
g5
I905
sg6
I35
sg7
I0
sg8
I10
sg9
I4
sg10
I430
ssS'machine3'
p15
(dp16
g5
I623
sg6
I37
sg7
I1
sg8
I7
sg9
I3
sg10
I510
ssS'machine2'
p17
(dp18
g5
I478
sg6
I32
sg7
I0
sg8
I13
sg9
I3
sg10
I360
sssS'Wahono.csv'
p19
(dp20
g3
(dp21
g5
I1408
sg6
I57
sg7
I2
sg8
I3
sg9
I3
sg10
I1110
ssg11
(dp22
g5
I2110
sg6
I57
sg7
I3
sg8
I2
sg9
I106
sg10
I2110
ssg13
(dp23
g5
I3098
sg6
I60
sg7
I0
sg8
I2
sg9
I13
sg10
I1480
ssg15
(dp24
g5
I1526
sg6
I54
sg7
I5
sg8
I3
sg9
I4
sg10
I1190
ssg17
(dp25
g5
I1806
sg6
I58
sg7
I2
sg8
I2
sg9
I9
sg10
I1360
sssS'Hall.csv'
p26
(dp27
g3
(dp28
g5
I721
sg6
I101
sg7
I1
sg8
I4
sg9
I5
sg10
I510
ssg11
(dp29
g5
I1870
sg6
I98
sg7
I5
sg8
I3
sg9
I82
sg10
I1870
ssg13
(dp30
g5
I1157
sg6
I101
sg7
I1
sg8
I4
sg9
I1
sg10
I550
ssg15
(dp31
g5
I624
sg6
I96
sg7
I4
sg8
I6
sg9
I0
sg10
I430
ssg17
(dp32
g5
I873
sg6
I100
sg7
I2
sg8
I4
sg9
I3
sg10
I610
sssS'Danijel.csv'
p33
(dp34
g3
(dp35
g5
I1187
sg6
I45
sg7
I1
sg8
I2
sg9
I2
sg10
I920
ssg11
(dp36
g5
I820
sg6
I44
sg7
I2
sg8
I2
sg9
I36
sg10
I820
ssg13
(dp37
g5
I1971
sg6
I44
sg7
I1
sg8
I3
sg9
I6
sg10
I940
ssg15
(dp38
g5
I999
sg6
I44
sg7
I2
sg8
I2
sg9
I4
sg10
I790
ssg17
(dp39
g5
I958
sg6
I42
sg7
I3
sg8
I3
sg9
I0
sg10
I720
sss.(dp0
S'K_all3.csv'
p1
(dp2
S'machine'
p3
(dp4
S'count'
p5
I578
sS'truepos'
p6
I30
sS'falseneg'
p7
I1
sS'unknownyes'
p8
I14
sS'falsepos'
p9
I3
sS'unique'
p10
I470
ssS'none'
p11
(dp12
g5
I410
sg6
I31
sg7
I2
sg8
I12
sg9
I18
sg10
I410
ssS'three'
p13
(dp14
g5
I1027
sg6
I37
sg7
I0
sg8
I8
sg9
I1
sg10
I490
ssS'machine3'
p15
(dp16
g5
I555
sg6
I36
sg7
I2
sg8
I7
sg9
I3
sg10
I460
ssS'machine2'
p17
(dp18
g5
I513
sg6
I29
sg7
I3
sg8
I13
sg9
I5
sg10
I410
sssS'Wahono.csv'
p19
(dp20
g3
(dp21
g5
I1495
sg6
I57
sg7
I2
sg8
I3
sg9
I3
sg10
I1160
ssg11
(dp22
g5
I2540
sg6
I56
sg7
I4
sg8
I2
sg9
I151
sg10
I2540
ssg13
(dp23
g5
I2833
sg6
I58
sg7
I1
sg8
I3
sg9
I5
sg10
I1360
ssg15
(dp24
g5
I1423
sg6
I57
sg7
I2
sg8
I3
sg9
I1
sg10
I1120
ssg17
(dp25
g5
I1634
sg6
I61
sg7
I0
sg8
I1
sg9
I5
sg10
I1260
sssS'Hall.csv'
p26
(dp27
g3
(dp28
g5
I681
sg6
I97
sg7
I5
sg8
I4
sg9
I6
sg10
I490
ssg11
(dp29
g5
I1380
sg6
I97
sg7
I6
sg8
I3
sg9
I68
sg10
I1380
ssg13
(dp30
g5
I1463
sg6
I100
sg7
I2
sg8
I4
sg9
I7
sg10
I690
ssg15
(dp31
g5
I580
sg6
I95
sg7
I3
sg8
I8
sg9
I1
sg10
I400
ssg17
(dp32
g5
I558
sg6
I99
sg7
I1
sg8
I6
sg9
I6
sg10
I380
sssS'Danijel.csv'
p33
(dp34
g3
(dp35
g5
I1225
sg6
I45
sg7
I1
sg8
I2
sg9
I9
sg10
I960
ssg11
(dp36
g5
I870
sg6
I41
sg7
I3
sg8
I4
sg9
I39
sg10
I870
ssg13
(dp37
g5
I1499
sg6
I43
sg7
I0
sg8
I5
sg9
I7
sg10
I720
ssg15
(dp38
g5
I804
sg6
I43
sg7
I2
sg8
I3
sg9
I3
sg10
I640
ssg17
(dp39
g5
I1052
sg6
I46
sg7
I0
sg8
I2
sg9
I3
sg10
I810
sss.(dp0
S'K_all3.csv'
p1
(dp2
S'machine'
p3
(dp4
S'count'
p5
I648
sS'truepos'
p6
I33
sS'falseneg'
p7
I4
sS'unknownyes'
p8
I8
sS'falsepos'
p9
I2
sS'unique'
p10
I550
ssS'none'
p11
(dp12
g5
I480
sg6
I33
sg7
I0
sg8
I12
sg9
I16
sg10
I480
ssS'three'
p13
(dp14
g5
I970
sg6
I36
sg7
I1
sg8
I8
sg9
I2
sg10
I460
ssS'machine3'
p15
(dp16
g5
I586
sg6
I34
sg7
I1
sg8
I10
sg9
I0
sg10
I490
ssS'machine2'
p17
(dp18
g5
I634
sg6
I35
sg7
I1
sg8
I9
sg9
I1
sg10
I500
sssS'Wahono.csv'
p19
(dp20
g3
(dp21
g5
I1458
sg6
I57
sg7
I2
sg8
I3
sg9
I4
sg10
I1140
ssg11
(dp22
g5
I2160
sg6
I59
sg7
I1
sg8
I2
sg9
I110
sg10
I2160
ssg13
(dp23
g5
I2723
sg6
I60
sg7
I0
sg8
I2
sg9
I8
sg10
I1310
ssg15
(dp24
g5
I1591
sg6
I55
sg7
I4
sg8
I3
sg9
I2
sg10
I1240
ssg17
(dp25
g5
I1962
sg6
I60
sg7
I0
sg8
I2
sg9
I5
sg10
I1460
sssS'Hall.csv'
p26
(dp27
g3
(dp28
g5
I542
sg6
I98
sg7
I2
sg8
I6
sg9
I3
sg10
I390
ssg11
(dp29
g5
I1280
sg6
I96
sg7
I6
sg8
I4
sg9
I50
sg10
I1280
ssg13
(dp30
g5
I1564
sg6
I103
sg7
I0
sg8
I3
sg9
I9
sg10
I750
ssg15
(dp31
g5
I647
sg6
I98
sg7
I3
sg8
I5
sg9
I0
sg10
I440
ssg17
(dp32
g5
I747
sg6
I99
sg7
I2
sg8
I5
sg9
I5
sg10
I510
sssS'Danijel.csv'
p33
(dp34
g3
(dp35
g5
I1051
sg6
I45
sg7
I1
sg8
I2
sg9
I4
sg10
I810
ssg11
(dp36
g5
I1920
sg6
I44
sg7
I4
sg8
I0
sg9
I89
sg10
I1920
ssg13
(dp37
g5
I1514
sg6
I45
sg7
I0
sg8
I3
sg9
I4
sg10
I720
ssg15
(dp38
g5
I878
sg6
I43
sg7
I2
sg8
I3
sg9
I2
sg10
I690
ssg17
(dp39
g5
I1005
sg6
I43
sg7
I2
sg8
I3
sg9
I2
sg10
I760
sss.(dp0
S'K_all3.csv'
p1
(dp2
S'machine'
p3
(dp4
S'count'
p5
I546
sS'truepos'
p6
I34
sS'falseneg'
p7
I2
sS'unknownyes'
p8
I9
sS'falsepos'
p9
I3
sS'unique'
p10
I450
ssS'none'
p11
(dp12
g5
I470
sg6
I36
sg7
I1
sg8
I8
sg9
I21
sg10
I470
ssS'three'
p13
(dp14
g5
I1028
sg6
I35
sg7
I0
sg8
I10
sg9
I3
sg10
I490
ssS'machine3'
p15
(dp16
g5
I699
sg6
I34
sg7
I5
sg8
I6
sg9
I2
sg10
I580
ssS'machine2'
p17
(dp18
g5
I588
sg6
I34
sg7
I0
sg8
I11
sg9
I0
sg10
I460
sssS'Wahono.csv'
p19
(dp20
g3
(dp21
g5
I1352
sg6
I56
sg7
I2
sg8
I4
sg9
I3
sg10
I1060
ssg11
(dp22
g5
I1790
sg6
I52
sg7
I3
sg8
I7
sg9
I79
sg10
I1790
ssg13
(dp23
g5
I2692
sg6
I60
sg7
I0
sg8
I2
sg9
I10
sg10
I1280
ssg15
(dp24
g5
I2030
sg6
I60
sg7
I0
sg8
I2
sg9
I9
sg10
I1580
ssg17
(dp25
g5
I1622
sg6
I57
sg7
I1
sg8
I4
sg9
I8
sg10
I1220
sssS'Hall.csv'
p26
(dp27
g3
(dp28
g5
I593
sg6
I98
sg7
I4
sg8
I4
sg9
I1
sg10
I420
ssg11
(dp29
g5
I1780
sg6
I99
sg7
I4
sg8
I3
sg9
I85
sg10
I1780
ssg13
(dp30
g5
I1172
sg6
I102
sg7
I0
sg8
I4
sg9
I2
sg10
I560
ssg15
(dp31
g5
I634
sg6
I98
sg7
I3
sg8
I5
sg9
I1
sg10
I430
ssg17
(dp32
g5
I861
sg6
I102
sg7
I0
sg8
I4
sg9
I3
sg10
I600
sssS'Danijel.csv'
p33
(dp34
g3
(dp35
g5
I886
sg6
I44
sg7
I1
sg8
I3
sg9
I3
sg10
I690
ssg11
(dp36
g5
I2120
sg6
I35
sg7
I4
sg8
I9
sg9
I119
sg10
I2120
ssg13
(dp37
g5
I2129
sg6
I45
sg7
I1
sg8
I2
sg9
I10
sg10
I1010
ssg15
(dp38
g5
I1071
sg6
I45
sg7
I0
sg8
I3
sg9
I3
sg10
I830
ssg17
(dp39
g5
I1288
sg6
I44
sg7
I1
sg8
I3
sg9
I3
sg10
I970
sss.(dp0
S'K_all3.csv'
p1
(dp2
S'machine'
p3
(dp4
S'count'
p5
I510
sS'truepos'
p6
I31
sS'falseneg'
p7
I4
sS'unknownyes'
p8
I10
sS'falsepos'
p9
I2
sS'unique'
p10
I410
ssS'none'
p11
(dp12
g5
I510
sg6
I30
sg7
I1
sg8
I14
sg9
I27
sg10
I510
ssS'three'
p13
(dp14
g5
I876
sg6
I37
sg7
I0
sg8
I8
sg9
I1
sg10
I420
ssS'machine3'
p15
(dp16
g5
I523
sg6
I34
sg7
I4
sg8
I7
sg9
I2
sg10
I440
ssS'machine2'
p17
(dp18
g5
I576
sg6
I34
sg7
I2
sg8
I9
sg9
I6
sg10
I450
sssS'Wahono.csv'
p19
(dp20
g3
(dp21
g5
I1488
sg6
I55
sg7
I4
sg8
I3
sg9
I3
sg10
I1160
ssg11
(dp22
g5
I2360
sg6
I58
sg7
I1
sg8
I3
sg9
I110
sg10
I2360
ssg13
(dp23
g5
I2672
sg6
I59
sg7
I0
sg8
I3
sg9
I4
sg10
I1270
ssg15
(dp24
g5
I1680
sg6
I61
sg7
I0
sg8
I1
sg9
I4
sg10
I1290
ssg17
(dp25
g5
I2141
sg6
I58
sg7
I1
sg8
I3
sg9
I9
sg10
I1610
sssS'Hall.csv'
p26
(dp27
g3
(dp28
g5
I562
sg6
I98
sg7
I3
sg8
I5
sg9
I7
sg10
I410
ssg11
(dp29
g5
I2050
sg6
I98
sg7
I4
sg8
I4
sg9
I93
sg10
I2050
ssg13
(dp30
g5
I1106
sg6
I101
sg7
I1
sg8
I4
sg9
I0
sg10
I530
ssg15
(dp31
g5
I657
sg6
I96
sg7
I5
sg8
I5
sg9
I2
sg10
I460
ssg17
(dp32
g5
I692
sg6
I100
sg7
I1
sg8
I5
sg9
I3
sg10
I480
sssS'Danijel.csv'
p33
(dp34
g3
(dp35
g5
I1022
sg6
I43
sg7
I3
sg8
I2
sg9
I1
sg10
I790
ssg11
(dp36
g5
I740
sg6
I43
sg7
I1
sg8
I4
sg9
I33
sg10
I740
ssg13
(dp37
g5
I1800
sg6
I45
sg7
I0
sg8
I3
sg9
I8
sg10
I860
ssg15
(dp38
g5
I933
sg6
I44
sg7
I1
sg8
I3
sg9
I1
sg10
I730
ssg17
(dp39
g5
I1468
sg6
I44
sg7
I2
sg8
I2
sg9
I6
sg10
I1110
sss.(dp0
S'K_all3.csv'
p1
(dp2
S'machine'
p3
(dp4
S'count'
p5
I626
sS'truepos'
p6
I34
sS'falseneg'
p7
I6
sS'unknownyes'
p8
I5
sS'falsepos'
p9
I4
sS'unique'
p10
I520
ssS'none'
p11
(dp12
g5
I420
sg6
I33
sg7
I2
sg8
I10
sg9
I16
sg10
I420
ssS'three'
p13
(dp14
g5
I1023
sg6
I36
sg7
I0
sg8
I9
sg9
I1
sg10
I490
ssS'machine3'
p15
(dp16
g5
I635
sg6
I31
sg7
I6
sg8
I8
sg9
I2
sg10
I550
ssS'machine2'
p17
(dp18
g5
I638
sg6
I36
sg7
I1
sg8
I8
sg9
I1
sg10
I510
sssS'Wahono.csv'
p19
(dp20
g3
(dp21
g5
I1275
sg6
I56
sg7
I3
sg8
I3
sg9
I1
sg10
I980
ssg11
(dp22
g5
I2510
sg6
I58
sg7
I2
sg8
I2
sg9
I112
sg10
I2510
ssg13
(dp23
g5
I3180
sg6
I60
sg7
I0
sg8
I2
sg9
I12
sg10
I1520
ssg15
(dp24
g5
I1479
sg6
I57
sg7
I2
sg8
I3
sg9
I2
sg10
I1150
ssg17
(dp25
g5
I1638
sg6
I59
sg7
I1
sg8
I2
sg9
I6
sg10
I1210
sssS'Hall.csv'
p26
(dp27
g3
(dp28
g5
I762
sg6
I101
sg7
I1
sg8
I4
sg9
I2
sg10
I550
ssg11
(dp29
g5
I1260
sg6
I98
sg7
I4
sg8
I4
sg9
I69
sg10
I1260
ssg13
(dp30
g5
I1314
sg6
I101
sg7
I1
sg8
I4
sg9
I6
sg10
I630
ssg15
(dp31
g5
I735
sg6
I101
sg7
I1
sg8
I4
sg9
I2
sg10
I500
ssg17
(dp32
g5
I767
sg6
I102
sg7
I0
sg8
I4
sg9
I1
sg10
I530
sssS'Danijel.csv'
p33
(dp34
g3
(dp35
g5
I986
sg6
I44
sg7
I0
sg8
I4
sg9
I3
sg10
I760
ssg11
(dp36
g5
I1890
sg6
I44
sg7
I1
sg8
I3
sg9
I94
sg10
I1890
ssg13
(dp37
g5
I1614
sg6
I45
sg7
I1
sg8
I2
sg9
I8
sg10
I770
ssg15
(dp38
g5
I1013
sg6
I44
sg7
I2
sg8
I2
sg9
I1
sg10
I780
ssg17
(dp39
g5
I1175
sg6
I45
sg7
I0
sg8
I3
sg9
I5
sg10
I880
sss.(dp0
S'K_all3.csv'
p1
(dp2
S'machine'
p3
(dp4
S'count'
p5
I523
sS'truepos'
p6
I37
sS'falseneg'
p7
I1
sS'unknownyes'
p8
I7
sS'falsepos'
p9
I1
sS'unique'
p10
I410
ssS'none'
p11
(dp12
g5
I490
sg6
I32
sg7
I4
sg8
I9
sg9
I22
sg10
I490
ssS'three'
p13
(dp14
g5
I989
sg6
I36
sg7
I1
sg8
I8
sg9
I2
sg10
I470
ssS'machine3'
p15
(dp16
g5
I645
sg6
I34
sg7
I3
sg8
I8
sg9
I1
sg10
I550
ssS'machine2'
p17
(dp18
g5
I575
sg6
I32
sg7
I4
sg8
I9
sg9
I2
sg10
I460
sssS'Wahono.csv'
p19
(dp20
g3
(dp21
g5
I1735
sg6
I60
sg7
I1
sg8
I1
sg9
I3
sg10
I1360
ssg11
(dp22
g5
I2600
sg6
I55
sg7
I2
sg8
I5
sg9
I135
sg10
I2600
ssg13
(dp23
g5
I3257
sg6
I61
sg7
I0
sg8
I1
sg9
I11
sg10
I1560
ssg15
(dp24
g5
I1544
sg6
I58
sg7
I2
sg8
I2
sg9
I3
sg10
I1200
ssg17
(dp25
g5
I1630
sg6
I58
sg7
I2
sg8
I2
sg9
I6
sg10
I1210
sssS'Hall.csv'
p26
(dp27
g3
(dp28
g5
I620
sg6
I98
sg7
I4
sg8
I4
sg9
I2
sg10
I440
ssg11
(dp29
g5
I1200
sg6
I96
sg7
I6
sg8
I4
sg9
I50
sg10
I1200
ssg13
(dp30
g5
I1123
sg6
I101
sg7
I0
sg8
I5
sg9
I3
sg10
I540
ssg15
(dp31
g5
I638
sg6
I99
sg7
I3
sg8
I4
sg9
I2
sg10
I430
ssg17
(dp32
g5
I725
sg6
I102
sg7
I0
sg8
I4
sg9
I5
sg10
I500
sssS'Danijel.csv'
p33
(dp34
g3
(dp35
g5
I1096
sg6
I45
sg7
I1
sg8
I2
sg9
I5
sg10
I860
ssg11
(dp36
g5
I1280
sg6
I43
sg7
I1
sg8
I4
sg9
I60
sg10
I1280
ssg13
(dp37
g5
I1848
sg6
I45
sg7
I0
sg8
I3
sg9
I2
sg10
I890
ssg15
(dp38
g5
I1130
sg6
I41
sg7
I4
sg8
I3
sg9
I6
sg10
I880
ssg17
(dp39
g5
I1215
sg6
I45
sg7
I0
sg8
I3
sg9
I5
sg10
I900
sss.(dp0
S'K_all3.csv'
p1
(dp2
S'machine'
p3
(dp4
S'count'
p5
I544
sS'truepos'
p6
I33
sS'falseneg'
p7
I2
sS'unknownyes'
p8
I10
sS'falsepos'
p9
I1
sS'unique'
p10
I460
ssS'none'
p11
(dp12
g5
I410
sg6
I33
sg7
I2
sg8
I10
sg9
I19
sg10
I410
ssS'three'
p13
(dp14
g5
I798
sg6
I34
sg7
I0
sg8
I11
sg9
I5
sg10
I380
ssS'machine3'
p15
(dp16
g5
I574
sg6
I33
sg7
I2
sg8
I10
sg9
I3
sg10
I480
ssS'machine2'
p17
(dp18
g5
I639
sg6
I36
sg7
I1
sg8
I8
sg9
I2
sg10
I500
sssS'Wahono.csv'
p19
(dp20
g3
(dp21
g5
I1633
sg6
I56
sg7
I4
sg8
I2
sg9
I1
sg10
I1260
ssg11
(dp22
g5
I1570
sg6
I51
sg7
I6
sg8
I5
sg9
I84
sg10
I1570
ssg13
(dp23
g5
I2972
sg6
I59
sg7
I0
sg8
I3
sg9
I8
sg10
I1420
ssg15
(dp24
g5
I1659
sg6
I57
sg7
I2
sg8
I3
sg9
I9
sg10
I1280
ssg17
(dp25
g5
I2292
sg6
I60
sg7
I1
sg8
I1
sg9
I11
sg10
I1730
sssS'Hall.csv'
p26
(dp27
g3
(dp28
g5
I520
sg6
I95
sg7
I5
sg8
I6
sg9
I6
sg10
I360
ssg11
(dp29
g5
I1740
sg6
I94
sg7
I8
sg8
I4
sg9
I97
sg10
I1740
ssg13
(dp30
g5
I1102
sg6
I100
sg7
I1
sg8
I5
sg9
I4
sg10
I520
ssg15
(dp31
g5
I615
sg6
I95
sg7
I5
sg8
I6
sg9
I0
sg10
I420
ssg17
(dp32
g5
I719
sg6
I100
sg7
I2
sg8
I4
sg9
I3
sg10
I510
sssS'Danijel.csv'
p33
(dp34
g3
(dp35
g5
I1128
sg6
I43
sg7
I2
sg8
I3
sg9
I1
sg10
I870
ssg11
(dp36
g5
I2490
sg6
I44
sg7
I2
sg8
I2
sg9
I129
sg10
I2490
ssg13
(dp37
g5
I2243
sg6
I46
sg7
I0
sg8
I2
sg9
I8
sg10
I1070
ssg15
(dp38
g5
I1015
sg6
I45
sg7
I0
sg8
I3
sg9
I4
sg10
I790
ssg17
(dp39
g5
I936
sg6
I43
sg7
I3
sg8
I2
sg9
I5
sg10
I710
sss.(dp0
S'K_all3.csv'
p1
(dp2
S'machine'
p3
(dp4
S'count'
p5
I582
sS'truepos'
p6
I36
sS'falseneg'
p7
I2
sS'unknownyes'
p8
I7
sS'falsepos'
p9
I1
sS'unique'
p10
I470
ssS'none'
p11
(dp12
g5
I360
sg6
I33
sg7
I2
sg8
I10
sg9
I12
sg10
I360
ssS'three'
p13
(dp14
g5
I1054
sg6
I34
sg7
I2
sg8
I9
sg9
I4
sg10
I500
ssS'machine3'
p15
(dp16
g5
I652
sg6
I34
sg7
I2
sg8
I9
sg9
I1
sg10
I550
ssS'machine2'
p17
(dp18
g5
I630
sg6
I36
sg7
I2
sg8
I7
sg9
I0
sg10
I510
sssS'Wahono.csv'
p19
(dp20
g3
(dp21
g5
I1500
sg6
I59
sg7
I1
sg8
I2
sg9
I4
sg10
I1160
ssg11
(dp22
g5
I2290
sg6
I61
sg7
I0
sg8
I1
sg9
I112
sg10
I2290
ssg13
(dp23
g5
I2687
sg6
I59
sg7
I0
sg8
I3
sg9
I3
sg10
I1280
ssg15
(dp24
g5
I1603
sg6
I55
sg7
I4
sg8
I3
sg9
I7
sg10
I1240
ssg17
(dp25
g5
I1493
sg6
I56
sg7
I3
sg8
I3
sg9
I3
sg10
I1120
sssS'Hall.csv'
p26
(dp27
g3
(dp28
g5
I605
sg6
I100
sg7
I1
sg8
I5
sg9
I3
sg10
I430
ssg11
(dp29
g5
I2490
sg6
I97
sg7
I7
sg8
I2
sg9
I124
sg10
I2490
ssg13
(dp30
g5
I1065
sg6
I102
sg7
I0
sg8
I4
sg9
I2
sg10
I510
ssg15
(dp31
g5
I722
sg6
I101
sg7
I1
sg8
I4
sg9
I2
sg10
I500
ssg17
(dp32
g5
I655
sg6
I101
sg7
I1
sg8
I4
sg9
I11
sg10
I460
sssS'Danijel.csv'
p33
(dp34
g3
(dp35
g5
I993
sg6
I43
sg7
I2
sg8
I3
sg9
I2
sg10
I770
ssg11
(dp36
g5
I1300
sg6
I41
sg7
I4
sg8
I3
sg9
I50
sg10
I1300
ssg13
(dp37
g5
I1847
sg6
I45
sg7
I0
sg8
I3
sg9
I2
sg10
I890
ssg15
(dp38
g5
I1041
sg6
I44
sg7
I1
sg8
I3
sg9
I1
sg10
I810
ssg17
(dp39
g5
I1415
sg6
I44
sg7
I1
sg8
I3
sg9
I8
sg10
I1060
sss.(dp0
S'K_all3.csv'
p1
(dp2
S'machine'
p3
(dp4
S'count'
p5
I530
sS'truepos'
p6
I33
sS'falseneg'
p7
I2
sS'unknownyes'
p8
I10
sS'falsepos'
p9
I4
sS'unique'
p10
I410
ssS'none'
p11
(dp12
g5
I430
sg6
I35
sg7
I0
sg8
I10
sg9
I17
sg10
I430
ssS'three'
p13
(dp14
g5
I1058
sg6
I35
sg7
I1
sg8
I9
sg9
I6
sg10
I510
ssS'machine3'
p15
(dp16
g5
I616
sg6
I31
sg7
I4
sg8
I10
sg9
I3
sg10
I520
ssS'machine2'
p17
(dp18
g5
I612
sg6
I34
sg7
I1
sg8
I10
sg9
I2
sg10
I460
sssS'Wahono.csv'
p19
(dp20
g3
(dp21
g5
I1436
sg6
I57
sg7
I1
sg8
I4
sg9
I2
sg10
I1110
ssg11
(dp22
g5
I2520
sg6
I57
sg7
I4
sg8
I1
sg9
I109
sg10
I2520
ssg13
(dp23
g5
I3343
sg6
I59
sg7
I1
sg8
I2
sg9
I10
sg10
I1600
ssg15
(dp24
g5
I1396
sg6
I56
sg7
I3
sg8
I3
sg9
I1
sg10
I1110
ssg17
(dp25
g5
I1888
sg6
I58
sg7
I1
sg8
I3
sg9
I11
sg10
I1410
sssS'Hall.csv'
p26
(dp27
g3
(dp28
g5
I595
sg6
I96
sg7
I4
sg8
I6
sg9
I3
sg10
I420
ssg11
(dp29
g5
I2410
sg6
I100
sg7
I6
sg8
I0
sg9
I109
sg10
I2410
ssg13
(dp30
g5
I1022
sg6
I101
sg7
I1
sg8
I4
sg9
I1
sg10
I490
ssg15
(dp31
g5
I670
sg6
I98
sg7
I4
sg8
I4
sg9
I1
sg10
I460
ssg17
(dp32
g5
I853
sg6
I102
sg7
I0
sg8
I4
sg9
I8
sg10
I580
sssS'Danijel.csv'
p33
(dp34
g3
(dp35
g5
I897
sg6
I44
sg7
I1
sg8
I3
sg9
I2
sg10
I710
ssg11
(dp36
g5
I1070
sg6
I42
sg7
I2
sg8
I4
sg9
I43
sg10
I1070
ssg13
(dp37
g5
I2102
sg6
I45
sg7
I0
sg8
I3
sg9
I11
sg10
I1000
ssg15
(dp38
g5
I938
sg6
I44
sg7
I1
sg8
I3
sg9
I2
sg10
I730
ssg17
(dp39
g5
I1299
sg6
I43
sg7
I2
sg8
I3
sg9
I8
sg10
I980
sss.(dp0
S'K_all3.csv'
p1
(dp2
S'machine'
p3
(dp4
S'count'
p5
I624
sS'truepos'
p6
I33
sS'falseneg'
p7
I3
sS'unknownyes'
p8
I9
sS'falsepos'
p9
I2
sS'unique'
p10
I510
ssS'none'
p11
(dp12
g5
I410
sg6
I35
sg7
I0
sg8
I10
sg9
I15
sg10
I410
ssS'three'
p13
(dp14
g5
I876
sg6
I32
sg7
I0
sg8
I13
sg9
I4
sg10
I420
ssS'machine3'
p15
(dp16
g5
I602
sg6
I33
sg7
I3
sg8
I9
sg9
I1
sg10
I510
ssS'machine2'
p17
(dp18
g5
I496
sg6
I34
sg7
I1
sg8
I10
sg9
I1
sg10
I410
sssS'Wahono.csv'
p19
(dp20
g3
(dp21
g5
I1555
sg6
I56
sg7
I2
sg8
I4
sg9
I3
sg10
I1210
ssg11
(dp22
g5
I2640
sg6
I57
sg7
I4
sg8
I1
sg9
I128
sg10
I2640
ssg13
(dp23
g5
I2774
sg6
I60
sg7
I0
sg8
I2
sg9
I3
sg10
I1340
ssg15
(dp24
g5
I1545
sg6
I58
sg7
I1
sg8
I3
sg9
I7
sg10
I1210
ssg17
(dp25
g5
I1533
sg6
I57
sg7
I2
sg8
I3
sg9
I5
sg10
I1160
sssS'Hall.csv'
p26
(dp27
g3
(dp28
g5
I723
sg6
I102
sg7
I0
sg8
I4
sg9
I0
sg10
I510
ssg11
(dp29
g5
I2420
sg6
I98
sg7
I5
sg8
I3
sg9
I122
sg10
I2420
ssg13
(dp30
g5
I1191
sg6
I101
sg7
I1
sg8
I4
sg9
I3
sg10
I560
ssg15
(dp31
g5
I664
sg6
I99
sg7
I2
sg8
I5
sg9
I2
sg10
I460
ssg17
(dp32
g5
I740
sg6
I102
sg7
I0
sg8
I4
sg9
I4
sg10
I510
sssS'Danijel.csv'
p33
(dp34
g3
(dp35
g5
I955
sg6
I44
sg7
I1
sg8
I3
sg9
I3
sg10
I750
ssg11
(dp36
g5
I1070
sg6
I42
sg7
I1
sg8
I5
sg9
I57
sg10
I1070
ssg13
(dp37
g5
I1881
sg6
I45
sg7
I0
sg8
I3
sg9
I6
sg10
I900
ssg15
(dp38
g5
I1077
sg6
I44
sg7
I1
sg8
I3
sg9
I7
sg10
I830
ssg17
(dp39
g5
I1101
sg6
I45
sg7
I1
sg8
I2
sg9
I5
sg10
I810
sss.(dp0
S'K_all3.csv'
p1
(dp2
S'machine'
p3
(dp4
S'count'
p5
I514
sS'truepos'
p6
I29
sS'falseneg'
p7
I2
sS'unknownyes'
p8
I14
sS'falsepos'
p9
I4
sS'unique'
p10
I410
ssS'none'
p11
(dp12
g5
I450
sg6
I31
sg7
I3
sg8
I11
sg9
I17
sg10
I450
ssS'three'
p13
(dp14
g5
I949
sg6
I35
sg7
I0
sg8
I10
sg9
I3
sg10
I460
ssS'machine3'
p15
(dp16
g5
I659
sg6
I31
sg7
I4
sg8
I10
sg9
I4
sg10
I560
ssS'machine2'
p17
(dp18
g5
I521
sg6
I30
sg7
I1
sg8
I14
sg9
I2
sg10
I410
sssS'Wahono.csv'
p19
(dp20
g3
(dp21
g5
I1754
sg6
I59
sg7
I0
sg8
I3
sg9
I2
sg10
I1360
ssg11
(dp22
g5
I3030
sg6
I57
sg7
I2
sg8
I3
sg9
I153
sg10
I3030
ssg13
(dp23
g5
I2963
sg6
I58
sg7
I0
sg8
I4
sg9
I9
sg10
I1420
ssg15
(dp24
g5
I1431
sg6
I59
sg7
I0
sg8
I3
sg9
I4
sg10
I1110
ssg17
(dp25
g5
I1481
sg6
I58
sg7
I3
sg8
I1
sg9
I6
sg10
I1110
sssS'Hall.csv'
p26
(dp27
g3
(dp28
g5
I630
sg6
I100
sg7
I2
sg8
I4
sg9
I3
sg10
I450
ssg11
(dp29
g5
I1960
sg6
I100
sg7
I3
sg8
I3
sg9
I90
sg10
I1960
ssg13
(dp30
g5
I1023
sg6
I102
sg7
I0
sg8
I4
sg9
I2
sg10
I490
ssg15
(dp31
g5
I672
sg6
I100
sg7
I1
sg8
I5
sg9
I1
sg10
I460
ssg17
(dp32
g5
I656
sg6
I101
sg7
I1
sg8
I4
sg9
I8
sg10
I460
sssS'Danijel.csv'
p33
(dp34
g3
(dp35
g5
I1039
sg6
I42
sg7
I3
sg8
I3
sg9
I5
sg10
I810
ssg11
(dp36
g5
I1100
sg6
I41
sg7
I3
sg8
I4
sg9
I44
sg10
I1100
ssg13
(dp37
g5
I1872
sg6
I45
sg7
I1
sg8
I2
sg9
I7
sg10
I890
ssg15
(dp38
g5
I976
sg6
I44
sg7
I1
sg8
I3
sg9
I3
sg10
I760
ssg17
(dp39
g5
I1063
sg6
I44
sg7
I2
sg8
I2
sg9
I3
sg10
I810
sss.