(dp0
S'K_all3.csv'
p1
(dp2
S'machine'
p3
(dp4
S'count'
p5
I785
sS'truepos'
p6
I41
sS'falseneg'
p7
I0
sS'correction'
p8
I0
sS'unknownyes'
p9
I4
sS'falsepos'
p10
I0
sS'unique'
p11
I520
ssS'knee'
p12
(dp13
g5
I1088
sg6
I44
sg7
I0
sg8
I0
sg9
I1
sg10
I0
sg11
I760
ssS'none'
p14
(dp15
g5
I520
sg6
I42
sg7
I0
sg8
I0
sg9
I3
sg10
I0
sg11
I520
ssS'three'
p16
(dp17
g5
I1040
sg6
I41
sg7
I0
sg8
I0
sg9
I4
sg10
I0
sg11
I520
sssS'Wahono.csv'
p18
(dp19
g3
(dp20
g5
I1688
sg6
I59
sg7
I0
sg8
I0
sg9
I3
sg10
I0
sg11
I1160
ssg12
(dp21
g5
I1030
sg6
I58
sg7
I0
sg8
I0
sg9
I4
sg10
I0
sg11
I800
ssg14
(dp22
g5
I1190
sg6
I59
sg7
I0
sg8
I0
sg9
I3
sg10
I0
sg11
I1190
ssg16
(dp23
g5
I2300
sg6
I59
sg7
I0
sg8
I0
sg9
I3
sg10
I0
sg11
I1150
sssS'Hall.csv'
p24
(dp25
g3
(dp26
g5
I610
sg6
I102
sg7
I0
sg8
I0
sg9
I2
sg10
I0
sg11
I460
ssg12
(dp27
g5
I495
sg6
I99
sg7
I0
sg8
I0
sg9
I5
sg10
I0
sg11
I350
ssg14
(dp28
g5
I520
sg6
I102
sg7
I0
sg8
I0
sg9
I2
sg10
I0
sg11
I520
ssg16
(dp29
g5
I1000
sg6
I102
sg7
I0
sg8
I0
sg9
I2
sg10
I0
sg11
I500
sssS'Danijel.csv'
p30
(dp31
g3
(dp32
g5
I1231
sg6
I46
sg7
I0
sg8
I0
sg9
I2
sg10
I0
sg11
I770
ssg12
(dp33
g5
I424
sg6
I40
sg7
I0
sg8
I0
sg9
I8
sg10
I0
sg11
I320
ssg14
(dp34
g5
I730
sg6
I45
sg7
I0
sg8
I0
sg9
I3
sg10
I0
sg11
I730
ssg16
(dp35
g5
I1400
sg6
I45
sg7
I0
sg8
I0
sg9
I3
sg10
I0
sg11
I700
sss.(dp0
S'K_all3.csv'
p1
(dp2
S'machine'
p3
(dp4
S'count'
p5
I663
sS'truepos'
p6
I27
sS'falseneg'
p7
I13
sS'correction'
p8
I3
sS'unknownyes'
p9
I5
sS'falsepos'
p10
I8
sS'unique'
p11
I610
ssS'knee'
p12
(dp13
g5
I907
sg6
I37
sg7
I6
sg8
I13
sg9
I2
sg10
I3
sg11
I690
ssS'none'
p14
(dp15
g5
I470
sg6
I33
sg7
I6
sg8
I0
sg9
I6
sg10
I5
sg11
I470
ssS'three'
p16
(dp17
g5
I1267
sg6
I35
sg7
I8
sg8
I26
sg9
I2
sg10
I0
sg11
I620
sssS'Wahono.csv'
p18
(dp19
g3
(dp20
g5
I1801
sg6
I54
sg7
I5
sg8
I13
sg9
I3
sg10
I5
sg11
I1170
ssg12
(dp21
g5
I222
sg6
I23
sg7
I5
sg8
I5
sg9
I34
sg10
I0
sg11
I140
ssg14
(dp22
g5
I1620
sg6
I45
sg7
I14
sg8
I0
sg9
I3
sg10
I4
sg11
I1620
ssg16
(dp23
g5
I2870
sg6
I43
sg7
I15
sg8
I24
sg9
I4
sg10
I1
sg11
I1420
sssS'Hall.csv'
p24
(dp25
g3
(dp26
g5
I787
sg6
I88
sg7
I14
sg8
I23
sg9
I2
sg10
I2
sg11
I540
ssg12
(dp27
g5
I651
sg6
I92
sg7
I9
sg8
I21
sg9
I3
sg10
I0
sg11
I440
ssg14
(dp28
g5
I620
sg6
I78
sg7
I24
sg8
I0
sg9
I2
sg10
I0
sg11
I620
ssg16
(dp29
g5
I1329
sg6
I82
sg7
I20
sg8
I41
sg9
I2
sg10
I0
sg11
I640
sssS'Danijel.csv'
p30
(dp31
g3
(dp32
g5
I1306
sg6
I43
sg7
I2
sg8
I9
sg9
I3
sg10
I2
sg11
I790
ssg12
(dp33
g5
I813
sg6
I38
sg7
I7
sg8
I13
sg9
I3
sg10
I0
sg11
I580
ssg14
(dp34
g5
I1240
sg6
I29
sg7
I17
sg8
I0
sg9
I2
sg10
I6
sg11
I1240
ssg16
(dp35
g5
I2004
sg6
I33
sg7
I13
sg8
I21
sg9
I2
sg10
I0
sg11
I990
sss.(dp0
S'K_all3.csv'
p1
(dp2
S'machine'
p3
(dp4
S'count'
p5
I462
sS'truepos'
p6
I35
sS'falseneg'
p7
I5
sS'correction'
p8
I1
sS'unknownyes'
p9
I5
sS'falsepos'
p10
I4
sS'unique'
p11
I410
ssS'knee'
p12
(dp13
g5
I1014
sg6
I32
sg7
I9
sg8
I7
sg9
I4
sg10
I5
sg11
I640
ssS'none'
p14
(dp15
g5
I820
sg6
I27
sg7
I13
sg8
I0
sg9
I5
sg10
I3
sg11
I820
ssS'three'
p16
(dp17
g5
I1306
sg6
I32
sg7
I10
sg8
I24
sg9
I3
sg10
I0
sg11
I640
sssS'Wahono.csv'
p18
(dp19
g3
(dp20
g5
I1934
sg6
I55
sg7
I6
sg8
I15
sg9
I1
sg10
I2
sg11
I1310
ssg12
(dp21
g5
I388
sg6
I32
sg7
I4
sg8
I10
sg9
I26
sg10
I0
sg11
I230
ssg14
(dp22
g5
I1520
sg6
I37
sg7
I24
sg8
I0
sg9
I1
sg10
I3
sg11
I1520
ssg16
(dp23
g5
I2793
sg6
I50
sg7
I10
sg8
I32
sg9
I2
sg10
I0
sg11
I1380
sssS'Hall.csv'
p24
(dp25
g3
(dp26
g5
I739
sg6
I93
sg7
I9
sg8
I14
sg9
I2
sg10
I2
sg11
I530
ssg12
(dp27
g5
I623
sg6
I93
sg7
I8
sg8
I16
sg9
I3
sg10
I1
sg11
I430
ssg14
(dp28
g5
I920
sg6
I73
sg7
I29
sg8
I0
sg9
I2
sg10
I1
sg11
I920
ssg16
(dp29
g5
I1198
sg6
I81
sg7
I21
sg8
I32
sg9
I2
sg10
I0
sg11
I580
sssS'Danijel.csv'
p30
(dp31
g3
(dp32
g5
I1452
sg6
I41
sg7
I5
sg8
I4
sg9
I2
sg10
I4
sg11
I910
ssg12
(dp33
g5
I855
sg6
I38
sg7
I3
sg8
I9
sg9
I7
sg10
I0
sg11
I580
ssg14
(dp34
g5
I750
sg6
I38
sg7
I8
sg8
I0
sg9
I2
sg10
I0
sg11
I750
ssg16
(dp35
g5
I2164
sg6
I33
sg7
I13
sg8
I20
sg9
I2
sg10
I0
sg11
I1070
sss.(dp0
S'K_all3.csv'
p1
(dp2
S'machine'
p3
(dp4
S'count'
p5
I1030
sS'truepos'
p6
I30
sS'falseneg'
p7
I13
sS'correction'
p8
I8
sS'unknownyes'
p9
I2
sS'falsepos'
p10
I7
sS'unique'
p11
I970
ssS'knee'
p12
(dp13
g5
I879
sg6
I42
sg7
I2
sg8
I12
sg9
I1
sg10
I7
sg11
I560
ssS'none'
p14
(dp15
g5
I760
sg6
I33
sg7
I11
sg8
I0
sg9
I1
sg10
I4
sg11
I760
ssS'three'
p16
(dp17
g5
I1511
sg6
I33
sg7
I9
sg8
I27
sg9
I3
sg10
I1
sg11
I740
sssS'Wahono.csv'
p18
(dp19
g3
(dp20
g5
I2164
sg6
I52
sg7
I9
sg8
I13
sg9
I1
sg10
I5
sg11
I1430
ssg12
(dp21
g5
I948
sg6
I47
sg7
I7
sg8
I15
sg9
I8
sg10
I4
sg11
I680
ssg14
(dp22
g5
I1780
sg6
I44
sg7
I17
sg8
I0
sg9
I1
sg10
I4
sg11
I1780
ssg16
(dp23
g5
I2792
sg6
I50
sg7
I9
sg8
I29
sg9
I3
sg10
I0
sg11
I1380
sssS'Hall.csv'
p24
(dp25
g3
(dp26
g5
I833
sg6
I95
sg7
I7
sg8
I27
sg9
I2
sg10
I2
sg11
I600
ssg12
(dp27
g5
I611
sg6
I90
sg7
I11
sg8
I20
sg9
I3
sg10
I0
sg11
I420
ssg14
(dp28
g5
I1020
sg6
I72
sg7
I30
sg8
I0
sg9
I2
sg10
I4
sg11
I1020
ssg16
(dp29
g5
I1131
sg6
I76
sg7
I26
sg8
I47
sg9
I2
sg10
I0
sg11
I540
sssS'Danijel.csv'
p30
(dp31
g3
(dp32
g5
I1333
sg6
I40
sg7
I5
sg8
I9
sg9
I3
sg10
I2
sg11
I840
ssg12
(dp33
g5
I583
sg6
I40
sg7
I3
sg8
I8
sg9
I5
sg10
I1
sg11
I450
ssg14
(dp34
g5
I1010
sg6
I34
sg7
I11
sg8
I0
sg9
I3
sg10
I7
sg11
I1010
ssg16
(dp35
g5
I1742
sg6
I39
sg7
I7
sg8
I21
sg9
I2
sg10
I0
sg11
I860
sss.(dp0
S'K_all3.csv'
p1
(dp2
S'machine'
p3
(dp4
S'count'
p5
I753
sS'truepos'
p6
I36
sS'falseneg'
p7
I7
sS'correction'
p8
I3
sS'unknownyes'
p9
I2
sS'falsepos'
p10
I6
sS'unique'
p11
I550
ssS'knee'
p12
(dp13
g5
I550
sg6
I24
sg7
I7
sg8
I1
sg9
I14
sg10
I3
sg11
I370
ssS'none'
p14
(dp15
g5
I1030
sg6
I24
sg7
I16
sg8
I0
sg9
I5
sg10
I6
sg11
I1030
ssS'three'
p16
(dp17
g5
I1726
sg6
I33
sg7
I12
sg8
I23
sg9
I0
sg10
I0
sg11
I850
sssS'Wahono.csv'
p18
(dp19
g3
(dp20
g5
I1825
sg6
I54
sg7
I6
sg8
I5
sg9
I2
sg10
I7
sg11
I1160
ssg12
(dp21
g5
I90
sg6
I10
sg7
I6
sg8
I2
sg9
I46
sg10
I0
sg11
I80
ssg14
(dp22
g5
I1930
sg6
I42
sg7
I19
sg8
I0
sg9
I1
sg10
I7
sg11
I1930
ssg16
(dp23
g5
I2644
sg6
I49
sg7
I10
sg8
I22
sg9
I3
sg10
I0
sg11
I1310
sssS'Hall.csv'
p24
(dp25
g3
(dp26
g5
I732
sg6
I94
sg7
I8
sg8
I19
sg9
I2
sg10
I2
sg11
I510
ssg12
(dp27
g5
I609
sg6
I87
sg7
I13
sg8
I15
sg9
I4
sg10
I3
sg11
I400
ssg14
(dp28
g5
I1100
sg6
I69
sg7
I33
sg8
I0
sg9
I2
sg10
I4
sg11
I1100
ssg16
(dp29
g5
I1562
sg6
I90
sg7
I13
sg8
I42
sg9
I1
sg10
I0
sg11
I760
sssS'Danijel.csv'
p30
(dp31
g3
(dp32
g5
I1259
sg6
I38
sg7
I8
sg8
I7
sg9
I2
sg10
I1
sg11
I820
ssg12
(dp33
g5
I584
sg6
I31
sg7
I5
sg8
I4
sg9
I12
sg10
I1
sg11
I380
ssg14
(dp34
g5
I1520
sg6
I30
sg7
I16
sg8
I0
sg9
I2
sg10
I2
sg11
I1520
ssg16
(dp35
g5
I2222
sg6
I34
sg7
I12
sg8
I17
sg9
I2
sg10
I0
sg11
I1100
sss.(dp0
S'K_all3.csv'
p1
(dp2
S'machine'
p3
(dp4
S'count'
p5
I672
sS'truepos'
p6
I35
sS'falseneg'
p7
I7
sS'correction'
p8
I3
sS'unknownyes'
p9
I3
sS'falsepos'
p10
I3
sS'unique'
p11
I570
ssS'knee'
p12
(dp13
g5
I806
sg6
I32
sg7
I8
sg8
I6
sg9
I5
sg10
I5
sg11
I540
ssS'none'
p14
(dp15
g5
I690
sg6
I28
sg7
I12
sg8
I0
sg9
I5
sg10
I8
sg11
I690
ssS'three'
p16
(dp17
g5
I2181
sg6
I30
sg7
I12
sg8
I35
sg9
I3
sg10
I0
sg11
I1070
sssS'Wahono.csv'
p18
(dp19
g3
(dp20
g5
I2165
sg6
I53
sg7
I8
sg8
I13
sg9
I1
sg10
I3
sg11
I1510
ssg12
(dp21
g5
I640
sg6
I41
sg7
I9
sg8
I7
sg9
I12
sg10
I0
sg11
I520
ssg14
(dp22
g5
I1780
sg6
I38
sg7
I21
sg8
I0
sg9
I3
sg10
I1
sg11
I1780
ssg16
(dp23
g5
I2772
sg6
I48
sg7
I12
sg8
I29
sg9
I2
sg10
I0
sg11
I1370
sssS'Hall.csv'
p24
(dp25
g3
(dp26
g5
I641
sg6
I91
sg7
I10
sg8
I19
sg9
I3
sg10
I1
sg11
I450
ssg12
(dp27
g5
I491
sg6
I91
sg7
I7
sg8
I18
sg9
I6
sg10
I1
sg11
I320
ssg14
(dp28
g5
I700
sg6
I72
sg7
I30
sg8
I0
sg9
I2
sg10
I0
sg11
I700
ssg16
(dp29
g5
I1448
sg6
I76
sg7
I26
sg8
I41
sg9
I2
sg10
I0
sg11
I700
sssS'Danijel.csv'
p30
(dp31
g3
(dp32
g5
I1116
sg6
I42
sg7
I3
sg8
I10
sg9
I3
sg10
I1
sg11
I750
ssg12
(dp33
g5
I549
sg6
I33
sg7
I7
sg8
I10
sg9
I8
sg10
I0
sg11
I460
ssg14
(dp34
g5
I1440
sg6
I33
sg7
I13
sg8
I0
sg9
I2
sg10
I4
sg11
I1440
ssg16
(dp35
g5
I2523
sg6
I35
sg7
I11
sg8
I19
sg9
I2
sg10
I0
sg11
I1250
sss.(dp0
S'K_all3.csv'
p1
(dp2
S'machine'
p3
(dp4
S'count'
p5
I661
sS'truepos'
p6
I41
sS'falseneg'
p7
I3
sS'correction'
p8
I5
sS'unknownyes'
p9
I1
sS'falsepos'
p10
I3
sS'unique'
p11
I510
ssS'knee'
p12
(dp13
g5
I1533
sg6
I39
sg7
I5
sg8
I10
sg9
I1
sg10
I13
sg11
I890
ssS'none'
p14
(dp15
g5
I640
sg6
I32
sg7
I12
sg8
I0
sg9
I1
sg10
I4
sg11
I640
ssS'three'
p16
(dp17
g5
I1468
sg6
I35
sg7
I8
sg8
I25
sg9
I2
sg10
I0
sg11
I720
sssS'Wahono.csv'
p18
(dp19
g3
(dp20
g5
I1677
sg6
I56
sg7
I3
sg8
I16
sg9
I3
sg10
I4
sg11
I1140
ssg12
(dp21
g5
I1043
sg6
I50
sg7
I7
sg8
I9
sg9
I5
sg10
I0
sg11
I820
ssg14
(dp22
g5
I1670
sg6
I42
sg7
I17
sg8
I0
sg9
I3
sg10
I4
sg11
I1670
ssg16
(dp23
g5
I2428
sg6
I43
sg7
I15
sg8
I22
sg9
I4
sg10
I0
sg11
I1200
sssS'Hall.csv'
p24
(dp25
g3
(dp26
g5
I688
sg6
I96
sg7
I6
sg8
I24
sg9
I2
sg10
I2
sg11
I480
ssg12
(dp27
g5
I575
sg6
I90
sg7
I8
sg8
I14
sg9
I6
sg10
I1
sg11
I390
ssg14
(dp28
g5
I870
sg6
I71
sg7
I31
sg8
I0
sg9
I2
sg10
I5
sg11
I870
ssg16
(dp29
g5
I1148
sg6
I82
sg7
I20
sg8
I41
sg9
I2
sg10
I0
sg11
I550
sssS'Danijel.csv'
p30
(dp31
g3
(dp32
g5
I1290
sg6
I37
sg7
I8
sg8
I7
sg9
I3
sg10
I1
sg11
I890
ssg12
(dp33
g5
I822
sg6
I36
sg7
I6
sg8
I9
sg9
I6
sg10
I2
sg11
I470
ssg14
(dp34
g5
I980
sg6
I36
sg7
I10
sg8
I0
sg9
I2
sg10
I2
sg11
I980
ssg16
(dp35
g5
I2159
sg6
I36
sg7
I10
sg8
I15
sg9
I2
sg10
I0
sg11
I1070
sss.(dp0
S'K_all3.csv'
p1
(dp2
S'machine'
p3
(dp4
S'count'
p5
I838
sS'truepos'
p6
I30
sS'falseneg'
p7
I10
sS'correction'
p8
I5
sS'unknownyes'
p9
I5
sS'falsepos'
p10
I4
sS'unique'
p11
I780
ssS'knee'
p12
(dp13
g5
I1737
sg6
I41
sg7
I4
sg8
I11
sg9
I0
sg10
I19
sg11
I1040
ssS'none'
p14
(dp15
g5
I630
sg6
I30
sg7
I10
sg8
I0
sg9
I5
sg10
I4
sg11
I630
ssS'three'
p16
(dp17
g5
I1229
sg6
I33
sg7
I9
sg8
I24
sg9
I3
sg10
I0
sg11
I600
sssS'Wahono.csv'
p18
(dp19
g3
(dp20
g5
I2943
sg6
I50
sg7
I10
sg8
I11
sg9
I2
sg10
I6
sg11
I2050
ssg12
(dp21
g5
I185
sg6
I21
sg7
I5
sg8
I1
sg9
I36
sg10
I1
sg11
I140
ssg14
(dp22
g5
I1370
sg6
I38
sg7
I22
sg8
I0
sg9
I2
sg10
I2
sg11
I1370
ssg16
(dp23
g5
I2772
sg6
I47
sg7
I12
sg8
I28
sg9
I3
sg10
I0
sg11
I1370
sssS'Hall.csv'
p24
(dp25
g3
(dp26
g5
I789
sg6
I93
sg7
I9
sg8
I19
sg9
I2
sg10
I4
sg11
I520
ssg12
(dp27
g5
I642
sg6
I85
sg7
I14
sg8
I19
sg9
I5
sg10
I1
sg11
I440
ssg14
(dp28
g5
I1160
sg6
I67
sg7
I35
sg8
I0
sg9
I2
sg10
I4
sg11
I1160
ssg16
(dp29
g5
I1172
sg6
I81
sg7
I21
sg8
I45
sg9
I2
sg10
I0
sg11
I560
sssS'Danijel.csv'
p30
(dp31
g3
(dp32
g5
I1474
sg6
I37
sg7
I8
sg8
I8
sg9
I3
sg10
I4
sg11
I1020
ssg12
(dp33
g5
I637
sg6
I36
sg7
I8
sg8
I5
sg9
I4
sg10
I2
sg11
I440
ssg14
(dp34
g5
I1440
sg6
I33
sg7
I13
sg8
I0
sg9
I2
sg10
I4
sg11
I1440
ssg16
(dp35
g5
I1581
sg6
I38
sg7
I8
sg8
I20
sg9
I2
sg10
I1
sg11
I780
sss.(dp0
S'K_all3.csv'
p1
(dp2
S'machine'
p3
(dp4
S'count'
p5
I713
sS'truepos'
p6
I36
sS'falseneg'
p7
I6
sS'correction'
p8
I6
sS'unknownyes'
p9
I3
sS'falsepos'
p10
I4
sS'unique'
p11
I610
ssS'knee'
p12
(dp13
g5
I1755
sg6
I42
sg7
I1
sg8
I9
sg9
I2
sg10
I8
sg11
I1130
ssS'none'
p14
(dp15
g5
I590
sg6
I31
sg7
I10
sg8
I0
sg9
I4
sg10
I4
sg11
I590
ssS'three'
p16
(dp17
g5
I1504
sg6
I30
sg7
I11
sg8
I21
sg9
I4
sg10
I0
sg11
I740
sssS'Wahono.csv'
p18
(dp19
g3
(dp20
g5
I2540
sg6
I46
sg7
I13
sg8
I12
sg9
I3
sg10
I6
sg11
I1650
ssg12
(dp21
g5
I919
sg6
I39
sg7
I10
sg8
I10
sg9
I13
sg10
I0
sg11
I650
ssg14
(dp22
g5
I1620
sg6
I45
sg7
I15
sg8
I0
sg9
I2
sg10
I6
sg11
I1620
ssg16
(dp23
g5
I3217
sg6
I42
sg7
I19
sg8
I35
sg9
I1
sg10
I0
sg11
I1590
sssS'Hall.csv'
p24
(dp25
g3
(dp26
g5
I718
sg6
I94
sg7
I8
sg8
I15
sg9
I2
sg10
I2
sg11
I490
ssg12
(dp27
g5
I549
sg6
I90
sg7
I10
sg8
I17
sg9
I4
sg10
I0
sg11
I380
ssg14
(dp28
g5
I1330
sg6
I62
sg7
I41
sg8
I0
sg9
I1
sg10
I4
sg11
I1330
ssg16
(dp29
g5
I1808
sg6
I79
sg7
I24
sg8
I39
sg9
I1
sg10
I0
sg11
I880
sssS'Danijel.csv'
p30
(dp31
g3
(dp32
g5
I1216
sg6
I40
sg7
I4
sg8
I9
sg9
I4
sg10
I4
sg11
I810
ssg12
(dp33
g5
I702
sg6
I39
sg7
I4
sg8
I5
sg9
I5
sg10
I0
sg11
I540
ssg14
(dp34
g5
I1310
sg6
I35
sg7
I11
sg8
I0
sg9
I2
sg10
I3
sg11
I1310
ssg16
(dp35
g5
I1788
sg6
I38
sg7
I8
sg8
I25
sg9
I2
sg10
I0
sg11
I880
sss.(dp0
S'K_all3.csv'
p1
(dp2
S'machine'
p3
(dp4
S'count'
p5
I679
sS'truepos'
p6
I28
sS'falseneg'
p7
I14
sS'correction'
p8
I3
sS'unknownyes'
p9
I3
sS'falsepos'
p10
I3
sS'unique'
p11
I620
ssS'knee'
p12
(dp13
g5
I2204
sg6
I38
sg7
I7
sg8
I11
sg9
I0
sg10
I14
sg11
I1520
ssS'none'
p14
(dp15
g5
I950
sg6
I28
sg7
I15
sg8
I0
sg9
I2
sg10
I2
sg11
I950
ssS'three'
p16
(dp17
g5
I1366
sg6
I33
sg7
I10
sg8
I26
sg9
I2
sg10
I0
sg11
I670
sssS'Wahono.csv'
p18
(dp19
g3
(dp20
g5
I2059
sg6
I51
sg7
I10
sg8
I12
sg9
I1
sg10
I14
sg11
I1270
ssg12
(dp21
g5
I130
sg6
I16
sg7
I6
sg8
I2
sg9
I40
sg10
I0
sg11
I100
ssg14
(dp22
g5
I1790
sg6
I36
sg7
I25
sg8
I0
sg9
I1
sg10
I3
sg11
I1790
ssg16
(dp23
g5
I2635
sg6
I50
sg7
I9
sg8
I34
sg9
I3
sg10
I0
sg11
I1300
sssS'Hall.csv'
p24
(dp25
g3
(dp26
g5
I771
sg6
I93
sg7
I9
sg8
I22
sg9
I2
sg10
I3
sg11
I530
ssg12
(dp27
g5
I689
sg6
I89
sg7
I12
sg8
I17
sg9
I3
sg10
I3
sg11
I480
ssg14
(dp28
g5
I940
sg6
I59
sg7
I43
sg8
I0
sg9
I2
sg10
I3
sg11
I940
ssg16
(dp29
g5
I1566
sg6
I76
sg7
I26
sg8
I40
sg9
I2
sg10
I0
sg11
I760
sssS'Danijel.csv'
p30
(dp31
g3
(dp32
g5
I1363
sg6
I39
sg7
I8
sg8
I9
sg9
I1
sg10
I1
sg11
I900
ssg12
(dp33
g5
I376
sg6
I29
sg7
I2
sg8
I6
sg9
I17
sg10
I1
sg11
I240
ssg14
(dp34
g5
I1710
sg6
I31
sg7
I16
sg8
I0
sg9
I1
sg10
I3
sg11
I1710
ssg16
(dp35
g5
I2198
sg6
I36
sg7
I9
sg8
I14
sg9
I3
sg10
I0
sg11
I1090
sss.(dp0
S'K_all3.csv'
p1
(dp2
S'machine'
p3
(dp4
S'count'
p5
I823
sS'truepos'
p6
I31
sS'falseneg'
p7
I9
sS'correction'
p8
I4
sS'unknownyes'
p9
I5
sS'falsepos'
p10
I7
sS'unique'
p11
I620
ssS'knee'
p12
(dp13
g5
I1079
sg6
I31
sg7
I2
sg8
I11
sg9
I12
sg10
I2
sg11
I620
ssS'none'
p14
(dp15
g5
I700
sg6
I33
sg7
I10
sg8
I0
sg9
I2
sg10
I1
sg11
I700
ssS'three'
p16
(dp17
g5
I1415
sg6
I32
sg7
I10
sg8
I29
sg9
I3
sg10
I0
sg11
I690
sssS'Wahono.csv'
p18
(dp19
g3
(dp20
g5
I2236
sg6
I54
sg7
I6
sg8
I15
sg9
I2
sg10
I7
sg11
I1420
ssg12
(dp21
g5
I1595
sg6
I51
sg7
I6
sg8
I16
sg9
I5
sg10
I3
sg11
I1140
ssg14
(dp22
g5
I1410
sg6
I38
sg7
I21
sg8
I0
sg9
I3
sg10
I3
sg11
I1410
ssg16
(dp23
g5
I3474
sg6
I49
sg7
I12
sg8
I27
sg9
I1
sg10
I0
sg11
I1720
sssS'Hall.csv'
p24
(dp25
g3
(dp26
g5
I1118
sg6
I85
sg7
I17
sg8
I25
sg9
I2
sg10
I3
sg11
I820
ssg12
(dp27
g5
I680
sg6
I86
sg7
I15
sg8
I17
sg9
I3
sg10
I1
sg11
I490
ssg14
(dp28
g5
I720
sg6
I73
sg7
I29
sg8
I0
sg9
I2
sg10
I2
sg11
I720
ssg16
(dp29
g5
I2052
sg6
I74
sg7
I28
sg8
I47
sg9
I2
sg10
I0
sg11
I1000
sssS'Danijel.csv'
p30
(dp31
g3
(dp32
g5
I1625
sg6
I37
sg7
I9
sg8
I9
sg9
I2
sg10
I6
sg11
I1170
ssg12
(dp33
g5
I1096
sg6
I44
sg7
I1
sg8
I11
sg9
I3
sg10
I0
sg11
I770
ssg14
(dp34
g5
I1290
sg6
I34
sg7
I12
sg8
I0
sg9
I2
sg10
I2
sg11
I1290
ssg16
(dp35
g5
I2166
sg6
I35
sg7
I11
sg8
I22
sg9
I2
sg10
I0
sg11
I1070
sss.(dp0
S'K_all3.csv'
p1
(dp2
S'machine'
p3
(dp4
S'count'
p5
I836
sS'truepos'
p6
I38
sS'falseneg'
p7
I3
sS'correction'
p8
I4
sS'unknownyes'
p9
I4
sS'falsepos'
p10
I6
sS'unique'
p11
I600
ssS'knee'
p12
(dp13
g5
I1490
sg6
I37
sg7
I8
sg8
I6
sg9
I0
sg10
I5
sg11
I1110
ssS'none'
p14
(dp15
g5
I640
sg6
I32
sg7
I11
sg8
I0
sg9
I2
sg10
I3
sg11
I640
ssS'three'
p16
(dp17
g5
I1389
sg6
I35
sg7
I9
sg8
I25
sg9
I1
sg10
I0
sg11
I680
sssS'Wahono.csv'
p18
(dp19
g3
(dp20
g5
I2006
sg6
I54
sg7
I5
sg8
I12
sg9
I3
sg10
I4
sg11
I1370
ssg12
(dp21
g5
I1067
sg6
I38
sg7
I12
sg8
I14
sg9
I12
sg10
I0
sg11
I800
ssg14
(dp22
g5
I1560
sg6
I44
sg7
I16
sg8
I0
sg9
I2
sg10
I2
sg11
I1560
ssg16
(dp23
g5
I2352
sg6
I47
sg7
I13
sg8
I29
sg9
I2
sg10
I0
sg11
I1160
sssS'Hall.csv'
p24
(dp25
g3
(dp26
g5
I905
sg6
I91
sg7
I11
sg8
I26
sg9
I2
sg10
I3
sg11
I670
ssg12
(dp27
g5
I565
sg6
I83
sg7
I18
sg8
I20
sg9
I3
sg10
I0
sg11
I440
ssg14
(dp28
g5
I1110
sg6
I69
sg7
I33
sg8
I0
sg9
I2
sg10
I7
sg11
I1110
ssg16
(dp29
g5
I1460
sg6
I81
sg7
I21
sg8
I33
sg9
I2
sg10
I0
sg11
I710
sssS'Danijel.csv'
p30
(dp31
g3
(dp32
g5
I1084
sg6
I34
sg7
I9
sg8
I8
sg9
I5
sg10
I4
sg11
I880
ssg12
(dp33
g5
I1145
sg6
I36
sg7
I10
sg8
I8
sg9
I2
sg10
I0
sg11
I860
ssg14
(dp34
g5
I1320
sg6
I30
sg7
I17
sg8
I0
sg9
I1
sg10
I0
sg11
I1320
ssg16
(dp35
g5
I2323
sg6
I31
sg7
I16
sg8
I16
sg9
I1
sg10
I0
sg11
I1150
sss.(dp0
S'K_all3.csv'
p1
(dp2
S'machine'
p3
(dp4
S'count'
p5
I764
sS'truepos'
p6
I30
sS'falseneg'
p7
I15
sS'correction'
p8
I1
sS'unknownyes'
p9
I0
sS'falsepos'
p10
I2
sS'unique'
p11
I760
ssS'knee'
p12
(dp13
g5
I1391
sg6
I35
sg7
I8
sg8
I9
sg9
I2
sg10
I7
sg11
I880
ssS'none'
p14
(dp15
g5
I680
sg6
I29
sg7
I15
sg8
I0
sg9
I1
sg10
I3
sg11
I680
ssS'three'
p16
(dp17
g5
I1348
sg6
I36
sg7
I8
sg8
I27
sg9
I1
sg10
I0
sg11
I660
sssS'Wahono.csv'
p18
(dp19
g3
(dp20
g5
I1916
sg6
I54
sg7
I5
sg8
I13
sg9
I3
sg10
I7
sg11
I1260
ssg12
(dp21
g5
I1663
sg6
I54
sg7
I5
sg8
I16
sg9
I3
sg10
I1
sg11
I1290
ssg14
(dp22
g5
I1310
sg6
I47
sg7
I13
sg8
I0
sg9
I2
sg10
I2
sg11
I1310
ssg16
(dp23
g5
I2799
sg6
I42
sg7
I17
sg8
I33
sg9
I3
sg10
I0
sg11
I1380
sssS'Hall.csv'
p24
(dp25
g3
(dp26
g5
I765
sg6
I93
sg7
I9
sg8
I17
sg9
I2
sg10
I4
sg11
I560
ssg12
(dp27
g5
I746
sg6
I95
sg7
I7
sg8
I25
sg9
I2
sg10
I1
sg11
I590
ssg14
(dp28
g5
I910
sg6
I69
sg7
I34
sg8
I0
sg9
I1
sg10
I4
sg11
I910
ssg16
(dp29
g5
I1590
sg6
I86
sg7
I16
sg8
I45
sg9
I2
sg10
I0
sg11
I770
sssS'Danijel.csv'
p30
(dp31
g3
(dp32
g5
I1419
sg6
I40
sg7
I6
sg8
I4
sg9
I2
sg10
I4
sg11
I880
ssg12
(dp33
g5
I837
sg6
I34
sg7
I9
sg8
I11
sg9
I5
sg10
I3
sg11
I550
ssg14
(dp34
g5
I1420
sg6
I32
sg7
I14
sg8
I0
sg9
I2
sg10
I4
sg11
I1420
ssg16
(dp35
g5
I2441
sg6
I31
sg7
I14
sg8
I15
sg9
I3
sg10
I0
sg11
I1210
sss.(dp0
S'K_all3.csv'
p1
(dp2
S'machine'
p3
(dp4
S'count'
p5
I754
sS'truepos'
p6
I38
sS'falseneg'
p7
I1
sS'correction'
p8
I6
sS'unknownyes'
p9
I6
sS'falsepos'
p10
I2
sS'unique'
p11
I550
ssS'knee'
p12
(dp13
g5
I1817
sg6
I42
sg7
I3
sg8
I17
sg9
I0
sg10
I10
sg11
I1290
ssS'none'
p14
(dp15
g5
I750
sg6
I27
sg7
I16
sg8
I0
sg9
I2
sg10
I4
sg11
I750
ssS'three'
p16
(dp17
g5
I1372
sg6
I36
sg7
I6
sg8
I29
sg9
I3
sg10
I0
sg11
I670
sssS'Wahono.csv'
p18
(dp19
g3
(dp20
g5
I2117
sg6
I53
sg7
I7
sg8
I19
sg9
I2
sg10
I8
sg11
I1560
ssg12
(dp21
g5
I1422
sg6
I49
sg7
I9
sg8
I9
sg9
I4
sg10
I0
sg11
I990
ssg14
(dp22
g5
I1930
sg6
I43
sg7
I18
sg8
I0
sg9
I1
sg10
I5
sg11
I1930
ssg16
(dp23
g5
I3090
sg6
I54
sg7
I7
sg8
I28
sg9
I1
sg10
I0
sg11
I1530
sssS'Hall.csv'
p24
(dp25
g3
(dp26
g5
I800
sg6
I90
sg7
I12
sg8
I19
sg9
I2
sg10
I0
sg11
I560
ssg12
(dp27
g5
I683
sg6
I87
sg7
I15
sg8
I15
sg9
I2
sg10
I1
sg11
I510
ssg14
(dp28
g5
I1470
sg6
I68
sg7
I35
sg8
I0
sg9
I1
sg10
I6
sg11
I1470
ssg16
(dp29
g5
I1269
sg6
I86
sg7
I16
sg8
I41
sg9
I2
sg10
I0
sg11
I610
sssS'Danijel.csv'
p30
(dp31
g3
(dp32
g5
I1148
sg6
I43
sg7
I2
sg8
I12
sg9
I3
sg10
I2
sg11
I740
ssg12
(dp33
g5
I351
sg6
I30
sg7
I7
sg8
I7
sg9
I11
sg10
I0
sg11
I240
ssg14
(dp34
g5
I1040
sg6
I35
sg7
I11
sg8
I0
sg9
I2
sg10
I3
sg11
I1040
ssg16
(dp35
g5
I1705
sg6
I38
sg7
I7
sg8
I22
sg9
I3
sg10
I0
sg11
I840
sss.(dp0
S'K_all3.csv'
p1
(dp2
S'machine'
p3
(dp4
S'count'
p5
I745
sS'truepos'
p6
I32
sS'falseneg'
p7
I12
sS'correction'
p8
I5
sS'unknownyes'
p9
I1
sS'falsepos'
p10
I6
sS'unique'
p11
I640
ssS'knee'
p12
(dp13
g5
I497
sg6
I28
sg7
I2
sg8
I4
sg9
I15
sg10
I3
sg11
I330
ssS'none'
p14
(dp15
g5
I680
sg6
I32
sg7
I11
sg8
I0
sg9
I2
sg10
I5
sg11
I680
ssS'three'
p16
(dp17
g5
I1714
sg6
I33
sg7
I12
sg8
I31
sg9
I0
sg10
I0
sg11
I840
sssS'Wahono.csv'
p18
(dp19
g3
(dp20
g5
I2031
sg6
I55
sg7
I4
sg8
I19
sg9
I3
sg10
I3
sg11
I1390
ssg12
(dp21
g5
I2148
sg6
I55
sg7
I4
sg8
I12
sg9
I3
sg10
I4
sg11
I1410
ssg14
(dp22
g5
I1730
sg6
I50
sg7
I10
sg8
I0
sg9
I2
sg10
I4
sg11
I1730
ssg16
(dp23
g5
I2958
sg6
I47
sg7
I13
sg8
I33
sg9
I2
sg10
I0
sg11
I1460
sssS'Hall.csv'
p24
(dp25
g3
(dp26
g5
I824
sg6
I94
sg7
I9
sg8
I22
sg9
I1
sg10
I3
sg11
I610
ssg12
(dp27
g5
I640
sg6
I88
sg7
I14
sg8
I25
sg9
I2
sg10
I0
sg11
I480
ssg14
(dp28
g5
I810
sg6
I75
sg7
I27
sg8
I0
sg9
I2
sg10
I1
sg11
I810
ssg16
(dp29
g5
I1127
sg6
I84
sg7
I18
sg8
I40
sg9
I2
sg10
I0
sg11
I540
sssS'Danijel.csv'
p30
(dp31
g3
(dp32
g5
I1427
sg6
I39
sg7
I8
sg8
I9
sg9
I1
sg10
I3
sg11
I1170
ssg12
(dp33
g5
I701
sg6
I36
sg7
I6
sg8
I9
sg9
I6
sg10
I0
sg11
I500
ssg14
(dp34
g5
I1560
sg6
I33
sg7
I14
sg8
I0
sg9
I1
sg10
I3
sg11
I1560
ssg16
(dp35
g5
I2377
sg6
I36
sg7
I10
sg8
I13
sg9
I2
sg10
I0
sg11
I1180
sss.(dp0
S'K_all3.csv'
p1
(dp2
S'machine'
p3
(dp4
S'count'
p5
I864
sS'truepos'
p6
I38
sS'falseneg'
p7
I6
sS'correction'
p8
I6
sS'unknownyes'
p9
I1
sS'falsepos'
p10
I1
sS'unique'
p11
I660
ssS'knee'
p12
(dp13
g5
I1634
sg6
I37
sg7
I6
sg8
I12
sg9
I2
sg10
I5
sg11
I1210
ssS'none'
p14
(dp15
g5
I790
sg6
I28
sg7
I14
sg8
I0
sg9
I3
sg10
I3
sg11
I790
ssS'three'
p16
(dp17
g5
I1616
sg6
I31
sg7
I12
sg8
I31
sg9
I2
sg10
I0
sg11
I790
sssS'Wahono.csv'
p18
(dp19
g3
(dp20
g5
I1920
sg6
I57
sg7
I2
sg8
I10
sg9
I3
sg10
I11
sg11
I1310
ssg12
(dp21
g5
I1558
sg6
I49
sg7
I10
sg8
I14
sg9
I3
sg10
I2
sg11
I1310
ssg14
(dp22
g5
I2010
sg6
I41
sg7
I20
sg8
I0
sg9
I1
sg10
I4
sg11
I2010
ssg16
(dp23
g5
I2538
sg6
I46
sg7
I13
sg8
I33
sg9
I3
sg10
I0
sg11
I1250
sssS'Hall.csv'
p24
(dp25
g3
(dp26
g5
I766
sg6
I94
sg7
I8
sg8
I24
sg9
I2
sg10
I4
sg11
I520
ssg12
(dp27
g5
I667
sg6
I92
sg7
I10
sg8
I21
sg9
I2
sg10
I1
sg11
I490
ssg14
(dp28
g5
I960
sg6
I65
sg7
I37
sg8
I0
sg9
I2
sg10
I3
sg11
I960
ssg16
(dp29
g5
I1446
sg6
I87
sg7
I15
sg8
I42
sg9
I2
sg10
I0
sg11
I700
sssS'Danijel.csv'
p30
(dp31
g3
(dp32
g5
I1431
sg6
I33
sg7
I13
sg8
I8
sg9
I2
sg10
I5
sg11
I1380
ssg12
(dp33
g5
I565
sg6
I33
sg7
I7
sg8
I5
sg9
I8
sg10
I1
sg11
I380
ssg14
(dp34
g5
I1210
sg6
I32
sg7
I13
sg8
I0
sg9
I3
sg10
I3
sg11
I1210
ssg16
(dp35
g5
I2703
sg6
I36
sg7
I11
sg8
I21
sg9
I1
sg10
I0
sg11
I1340
sss.(dp0
S'K_all3.csv'
p1
(dp2
S'machine'
p3
(dp4
S'count'
p5
I765
sS'truepos'
p6
I26
sS'falseneg'
p7
I17
sS'correction'
p8
I1
sS'unknownyes'
p9
I2
sS'falsepos'
p10
I4
sS'unique'
p11
I760
ssS'knee'
p12
(dp13
g5
I2377
sg6
I42
sg7
I3
sg8
I16
sg9
I0
sg10
I9
sg11
I1680
ssS'none'
p14
(dp15
g5
I590
sg6
I28
sg7
I15
sg8
I0
sg9
I2
sg10
I8
sg11
I590
ssS'three'
p16
(dp17
g5
I1376
sg6
I34
sg7
I8
sg8
I15
sg9
I3
sg10
I0
sg11
I680
sssS'Wahono.csv'
p18
(dp19
g3
(dp20
g5
I1778
sg6
I48
sg7
I11
sg8
I16
sg9
I3
sg10
I2
sg11
I1240
ssg12
(dp21
g5
I1056
sg6
I46
sg7
I12
sg8
I9
sg9
I4
sg10
I1
sg11
I880
ssg14
(dp22
g5
I1720
sg6
I42
sg7
I18
sg8
I0
sg9
I2
sg10
I7
sg11
I1720
ssg16
(dp23
g5
I3124
sg6
I47
sg7
I14
sg8
I22
sg9
I1
sg10
I0
sg11
I1550
sssS'Hall.csv'
p24
(dp25
g3
(dp26
g5
I696
sg6
I92
sg7
I10
sg8
I19
sg9
I2
sg10
I2
sg11
I500
ssg12
(dp27
g5
I44
sg6
I10
sg7
I8
sg8
I0
sg9
I86
sg10
I0
sg11
I40
ssg14
(dp28
g5
I1490
sg6
I73
sg7
I30
sg8
I0
sg9
I1
sg10
I5
sg11
I1490
ssg16
(dp29
g5
I1447
sg6
I85
sg7
I17
sg8
I40
sg9
I2
sg10
I0
sg11
I700
sssS'Danijel.csv'
p30
(dp31
g3
(dp32
g5
I1721
sg6
I27
sg7
I14
sg8
I3
sg9
I7
sg10
I5
sg11
I1520
ssg12
(dp33
g5
I348
sg6
I27
sg7
I7
sg8
I5
sg9
I14
sg10
I0
sg11
I220
ssg14
(dp34
g5
I800
sg6
I38
sg7
I8
sg8
I0
sg9
I2
sg10
I0
sg11
I800
ssg16
(dp35
g5
I2288
sg6
I36
sg7
I10
sg8
I24
sg9
I2
sg10
I0
sg11
I1130
sss.(dp0
S'K_all3.csv'
p1
(dp2
S'machine'
p3
(dp4
S'count'
p5
I660
sS'truepos'
p6
I29
sS'falseneg'
p7
I9
sS'correction'
p8
I0
sS'unknownyes'
p9
I7
sS'falsepos'
p10
I5
sS'unique'
p11
I660
ssS'knee'
p12
(dp13
g5
I1490
sg6
I39
sg7
I5
sg8
I16
sg9
I1
sg10
I11
sg11
I1080
ssS'none'
p14
(dp15
g5
I630
sg6
I27
sg7
I15
sg8
I0
sg9
I3
sg10
I8
sg11
I630
ssS'three'
p16
(dp17
g5
I1247
sg6
I38
sg7
I4
sg8
I27
sg9
I3
sg10
I0
sg11
I610
sssS'Wahono.csv'
p18
(dp19
g3
(dp20
g5
I1582
sg6
I50
sg7
I10
sg8
I6
sg9
I2
sg10
I8
sg11
I1030
ssg12
(dp21
g5
I1176
sg6
I49
sg7
I6
sg8
I11
sg9
I7
sg10
I2
sg11
I750
ssg14
(dp22
g5
I1310
sg6
I43
sg7
I16
sg8
I0
sg9
I3
sg10
I3
sg11
I1310
ssg16
(dp23
g5
I2890
sg6
I48
sg7
I12
sg8
I24
sg9
I2
sg10
I0
sg11
I1430
sssS'Hall.csv'
p24
(dp25
g3
(dp26
g5
I748
sg6
I93
sg7
I9
sg8
I28
sg9
I2
sg10
I3
sg11
I510
ssg12
(dp27
g5
I555
sg6
I94
sg7
I7
sg8
I22
sg9
I3
sg10
I2
sg11
I380
ssg14
(dp28
g5
I950
sg6
I75
sg7
I27
sg8
I0
sg9
I2
sg10
I4
sg11
I950
ssg16
(dp29
g5
I1450
sg6
I85
sg7
I17
sg8
I45
sg9
I2
sg10
I0
sg11
I700
sssS'Danijel.csv'
p30
(dp31
g3
(dp32
g5
I1561
sg6
I40
sg7
I6
sg8
I9
sg9
I2
sg10
I3
sg11
I1060
ssg12
(dp33
g5
I860
sg6
I33
sg7
I8
sg8
I10
sg9
I7
sg10
I0
sg11
I670
ssg14
(dp34
g5
I1580
sg6
I32
sg7
I14
sg8
I0
sg9
I2
sg10
I6
sg11
I1580
ssg16
(dp35
g5
I2247
sg6
I36
sg7
I10
sg8
I24
sg9
I2
sg10
I0
sg11
I1110
sss.(dp0
S'K_all3.csv'
p1
(dp2
S'machine'
p3
(dp4
S'count'
p5
I570
sS'truepos'
p6
I33
sS'falseneg'
p7
I5
sS'correction'
p8
I5
sS'unknownyes'
p9
I7
sS'falsepos'
p10
I7
sS'unique'
p11
I470
ssS'knee'
p12
(dp13
g5
I1694
sg6
I40
sg7
I5
sg8
I13
sg9
I0
sg10
I4
sg11
I1380
ssS'none'
p14
(dp15
g5
I750
sg6
I24
sg7
I18
sg8
I0
sg9
I3
sg10
I9
sg11
I750
ssS'three'
p16
(dp17
g5
I1414
sg6
I32
sg7
I10
sg8
I31
sg9
I3
sg10
I0
sg11
I690
sssS'Wahono.csv'
p18
(dp19
g3
(dp20
g5
I2025
sg6
I57
sg7
I4
sg8
I12
sg9
I1
sg10
I4
sg11
I1350
ssg12
(dp21
g5
I636
sg6
I46
sg7
I5
sg8
I12
sg9
I11
sg10
I1
sg11
I380
ssg14
(dp22
g5
I1930
sg6
I40
sg7
I21
sg8
I0
sg9
I1
sg10
I3
sg11
I1930
ssg16
(dp23
g5
I3594
sg6
I48
sg7
I14
sg8
I28
sg9
I0
sg10
I0
sg11
I1780
sssS'Hall.csv'
p24
(dp25
g3
(dp26
g5
I767
sg6
I92
sg7
I10
sg8
I29
sg9
I2
sg10
I3
sg11
I510
ssg12
(dp27
g5
I635
sg6
I82
sg7
I19
sg8
I20
sg9
I3
sg10
I0
sg11
I460
ssg14
(dp28
g5
I660
sg6
I75
sg7
I27
sg8
I0
sg9
I2
sg10
I2
sg11
I660
ssg16
(dp29
g5
I1336
sg6
I79
sg7
I23
sg8
I32
sg9
I2
sg10
I0
sg11
I650
sssS'Danijel.csv'
p30
(dp31
g3
(dp32
g5
I1453
sg6
I38
sg7
I9
sg8
I8
sg9
I1
sg10
I1
sg11
I1350
ssg12
(dp33
g5
I724
sg6
I35
sg7
I4
sg8
I9
sg9
I9
sg10
I1
sg11
I460
ssg14
(dp34
g5
I920
sg6
I39
sg7
I7
sg8
I0
sg9
I2
sg10
I3
sg11
I920
ssg16
(dp35
g5
I1793
sg6
I39
sg7
I7
sg8
I11
sg9
I2
sg10
I0
sg11
I890
sss.