(dp0
S'K_all3.csv'
p1
(dp2
S'machine'
p3
(dp4
S'count'
p5
I691
sS'truepos'
p6
I32
sS'falseneg'
p7
I4
sS'correction'
p8
I7
sS'unknownyes'
p9
I9
sS'falsepos'
p10
I6
sS'unique'
p11
I440
ssS'knee'
p12
(dp13
g5
I66
sg6
I7
sg7
I1
sg8
I3
sg9
I37
sg10
I0
sg11
I50
ssS'none'
p14
(dp15
g5
I560
sg6
I23
sg7
I13
sg8
I0
sg9
I9
sg10
I6
sg11
I560
ssS'three'
p16
(dp17
g5
I1232
sg6
I27
sg7
I11
sg8
I29
sg9
I7
sg10
I1
sg11
I600
sssS'Wahono.csv'
p18
(dp19
g3
(dp20
g5
I1662
sg6
I55
sg7
I5
sg8
I12
sg9
I2
sg10
I2
sg11
I1120
ssg12
(dp21
g5
I649
sg6
I39
sg7
I8
sg8
I6
sg9
I15
sg10
I0
sg11
I490
ssg14
(dp22
g5
I1680
sg6
I38
sg7
I21
sg8
I0
sg9
I3
sg10
I5
sg11
I1680
ssg16
(dp23
g5
I3137
sg6
I46
sg7
I14
sg8
I33
sg9
I2
sg10
I0
sg11
I1550
sssS'Hall.csv'
p24
(dp25
g3
(dp26
g5
I678
sg6
I94
sg7
I8
sg8
I21
sg9
I4
sg10
I4
sg11
I460
ssg12
(dp27
g5
I22
sg6
I8
sg7
I2
sg8
I0
sg9
I96
sg10
I0
sg11
I20
ssg14
(dp28
g5
I710
sg6
I76
sg7
I27
sg8
I0
sg9
I3
sg10
I0
sg11
I710
ssg16
(dp29
g5
I1029
sg6
I82
sg7
I20
sg8
I42
sg9
I4
sg10
I0
sg11
I490
sssS'Danijel.csv'
p30
(dp31
g3
(dp32
g5
I1416
sg6
I44
sg7
I2
sg8
I8
sg9
I2
sg10
I5
sg11
I890
ssg12
(dp33
g5
I144
sg6
I9
sg7
I3
sg8
I3
sg9
I36
sg10
I0
sg11
I100
ssg14
(dp34
g5
I1300
sg6
I30
sg7
I15
sg8
I0
sg9
I3
sg10
I5
sg11
I1300
ssg16
(dp35
g5
I2181
sg6
I37
sg7
I9
sg8
I15
sg9
I2
sg10
I0
sg11
I1080
sss.(dp0
S'K_all3.csv'
p1
(dp2
S'machine'
p3
(dp4
S'count'
p5
I684
sS'truepos'
p6
I31
sS'falseneg'
p7
I5
sS'correction'
p8
I5
sS'unknownyes'
p9
I9
sS'falsepos'
p10
I5
sS'unique'
p11
I460
ssS'knee'
p12
(dp13
g5
I1214
sg6
I39
sg7
I3
sg8
I13
sg9
I3
sg10
I5
sg11
I840
ssS'none'
p14
(dp15
g5
I540
sg6
I31
sg7
I9
sg8
I0
sg9
I5
sg10
I7
sg11
I540
ssS'three'
p16
(dp17
g5
I1065
sg6
I31
sg7
I7
sg8
I20
sg9
I7
sg10
I1
sg11
I520
sssS'Wahono.csv'
p18
(dp19
g3
(dp20
g5
I1822
sg6
I56
sg7
I3
sg8
I12
sg9
I3
sg10
I4
sg11
I1220
ssg12
(dp21
g5
I1213
sg6
I49
sg7
I11
sg8
I9
sg9
I2
sg10
I0
sg11
I990
ssg14
(dp22
g5
I1310
sg6
I46
sg7
I14
sg8
I0
sg9
I2
sg10
I4
sg11
I1310
ssg16
(dp23
g5
I2514
sg6
I51
sg7
I8
sg8
I32
sg9
I3
sg10
I0
sg11
I1240
sssS'Hall.csv'
p24
(dp25
g3
(dp26
g5
I905
sg6
I92
sg7
I10
sg8
I24
sg9
I4
sg10
I4
sg11
I660
ssg12
(dp27
g5
I657
sg6
I92
sg7
I9
sg8
I24
sg9
I5
sg10
I2
sg11
I480
ssg14
(dp28
g5
I740
sg6
I74
sg7
I29
sg8
I0
sg9
I3
sg10
I2
sg11
I740
ssg16
(dp29
g5
I1525
sg6
I85
sg7
I17
sg8
I37
sg9
I4
sg10
I0
sg11
I740
sssS'Danijel.csv'
p30
(dp31
g3
(dp32
g5
I1296
sg6
I39
sg7
I7
sg8
I14
sg9
I2
sg10
I2
sg11
I800
ssg12
(dp33
g5
I36
sg6
I4
sg7
I1
sg8
I0
sg9
I43
sg10
I0
sg11
I30
ssg14
(dp34
g5
I1140
sg6
I34
sg7
I12
sg8
I0
sg9
I2
sg10
I4
sg11
I1140
ssg16
(dp35
g5
I1724
sg6
I39
sg7
I6
sg8
I21
sg9
I3
sg10
I0
sg11
I850
sss.(dp0
S'K_all3.csv'
p1
(dp2
S'machine'
p3
(dp4
S'count'
p5
I714
sS'truepos'
p6
I31
sS'falseneg'
p7
I5
sS'correction'
p8
I6
sS'unknownyes'
p9
I9
sS'falsepos'
p10
I5
sS'unique'
p11
I480
ssS'knee'
p12
(dp13
g5
I106
sg6
I10
sg7
I4
sg8
I2
sg9
I31
sg10
I0
sg11
I90
ssS'none'
p14
(dp15
g5
I560
sg6
I30
sg7
I12
sg8
I0
sg9
I3
sg10
I8
sg11
I560
ssS'three'
p16
(dp17
g5
I1124
sg6
I28
sg7
I8
sg8
I23
sg9
I9
sg10
I0
sg11
I550
sssS'Wahono.csv'
p18
(dp19
g3
(dp20
g5
I2018
sg6
I54
sg7
I5
sg8
I15
sg9
I3
sg10
I7
sg11
I1340
ssg12
(dp21
g5
I559
sg6
I37
sg7
I8
sg8
I7
sg9
I17
sg10
I2
sg11
I330
ssg14
(dp22
g5
I1580
sg6
I44
sg7
I17
sg8
I0
sg9
I1
sg10
I6
sg11
I1580
ssg16
(dp23
g5
I2531
sg6
I42
sg7
I17
sg8
I27
sg9
I3
sg10
I0
sg11
I1250
sssS'Hall.csv'
p24
(dp25
g3
(dp26
g5
I669
sg6
I92
sg7
I10
sg8
I17
sg9
I4
sg10
I1
sg11
I480
ssg12
(dp27
g5
I772
sg6
I81
sg7
I21
sg8
I19
sg9
I4
sg10
I1
sg11
I560
ssg14
(dp28
g5
I670
sg6
I77
sg7
I25
sg8
I0
sg9
I4
sg10
I4
sg11
I670
ssg16
(dp29
g5
I1347
sg6
I82
sg7
I20
sg8
I40
sg9
I4
sg10
I0
sg11
I650
sssS'Danijel.csv'
p30
(dp31
g3
(dp32
g5
I1309
sg6
I43
sg7
I2
sg8
I14
sg9
I3
sg10
I2
sg11
I830
ssg12
(dp33
g5
I66
sg6
I5
sg7
I0
sg8
I1
sg9
I43
sg10
I0
sg11
I50
ssg14
(dp34
g5
I1210
sg6
I31
sg7
I15
sg8
I0
sg9
I2
sg10
I1
sg11
I1210
ssg16
(dp35
g5
I2524
sg6
I36
sg7
I11
sg8
I22
sg9
I1
sg10
I0
sg11
I1250
sss.(dp0
S'K_all3.csv'
p1
(dp2
S'machine'
p3
(dp4
S'count'
p5
I736
sS'truepos'
p6
I31
sS'falseneg'
p7
I7
sS'correction'
p8
I3
sS'unknownyes'
p9
I7
sS'falsepos'
p10
I4
sS'unique'
p11
I510
ssS'knee'
p12
(dp13
g5
I141
sg6
I5
sg7
I6
sg8
I1
sg9
I34
sg10
I0
sg11
I130
ssS'none'
p14
(dp15
g5
I500
sg6
I30
sg7
I10
sg8
I0
sg9
I5
sg10
I3
sg11
I500
ssS'three'
p16
(dp17
g5
I1229
sg6
I25
sg7
I13
sg8
I24
sg9
I7
sg10
I0
sg11
I600
sssS'Wahono.csv'
p18
(dp19
g3
(dp20
g5
I1942
sg6
I54
sg7
I5
sg8
I12
sg9
I3
sg10
I8
sg11
I1250
ssg12
(dp21
g5
I1117
sg6
I48
sg7
I8
sg8
I15
sg9
I6
sg10
I4
sg11
I750
ssg14
(dp22
g5
I1270
sg6
I36
sg7
I24
sg8
I0
sg9
I2
sg10
I2
sg11
I1270
ssg16
(dp23
g5
I2591
sg6
I50
sg7
I9
sg8
I28
sg9
I3
sg10
I0
sg11
I1280
sssS'Hall.csv'
p24
(dp25
g3
(dp26
g5
I819
sg6
I89
sg7
I13
sg8
I21
sg9
I4
sg10
I1
sg11
I580
ssg12
(dp27
g5
I682
sg6
I86
sg7
I16
sg8
I18
sg9
I4
sg10
I1
sg11
I520
ssg14
(dp28
g5
I790
sg6
I74
sg7
I28
sg8
I0
sg9
I4
sg10
I2
sg11
I790
ssg16
(dp29
g5
I2025
sg6
I77
sg7
I26
sg8
I38
sg9
I3
sg10
I0
sg11
I990
sssS'Danijel.csv'
p30
(dp31
g3
(dp32
g5
I1187
sg6
I43
sg7
I2
sg8
I7
sg9
I3
sg10
I1
sg11
I740
ssg12
(dp33
g5
I284
sg6
I22
sg7
I5
sg8
I2
sg9
I21
sg10
I0
sg11
I200
ssg14
(dp34
g5
I1420
sg6
I31
sg7
I17
sg8
I0
sg9
I0
sg10
I7
sg11
I1420
ssg16
(dp35
g5
I1988
sg6
I37
sg7
I9
sg8
I24
sg9
I2
sg10
I0
sg11
I980
sss.(dp0
S'K_all3.csv'
p1
(dp2
S'machine'
p3
(dp4
S'count'
p5
I621
sS'truepos'
p6
I33
sS'falseneg'
p7
I5
sS'correction'
p8
I4
sS'unknownyes'
p9
I7
sS'falsepos'
p10
I4
sS'unique'
p11
I430
ssS'knee'
p12
(dp13
g5
I928
sg6
I30
sg7
I10
sg8
I11
sg9
I5
sg10
I2
sg11
I740
ssS'none'
p14
(dp15
g5
I490
sg6
I33
sg7
I7
sg8
I0
sg9
I5
sg10
I5
sg11
I490
ssS'three'
p16
(dp17
g5
I1103
sg6
I32
sg7
I7
sg8
I19
sg9
I6
sg10
I0
sg11
I540
sssS'Wahono.csv'
p18
(dp19
g3
(dp20
g5
I1874
sg6
I54
sg7
I6
sg8
I9
sg9
I2
sg10
I3
sg11
I1280
ssg12
(dp21
g5
I24
sg6
I6
sg7
I0
sg8
I0
sg9
I56
sg10
I0
sg11
I20
ssg14
(dp22
g5
I1580
sg6
I37
sg7
I21
sg8
I0
sg9
I4
sg10
I6
sg11
I1580
ssg16
(dp23
g5
I2497
sg6
I53
sg7
I7
sg8
I33
sg9
I2
sg10
I0
sg11
I1230
sssS'Hall.csv'
p24
(dp25
g3
(dp26
g5
I674
sg6
I88
sg7
I14
sg8
I23
sg9
I4
sg10
I3
sg11
I470
ssg12
(dp27
g5
I615
sg6
I93
sg7
I8
sg8
I14
sg9
I5
sg10
I1
sg11
I400
ssg14
(dp28
g5
I620
sg6
I69
sg7
I32
sg8
I0
sg9
I5
sg10
I0
sg11
I620
ssg16
(dp29
g5
I1389
sg6
I86
sg7
I16
sg8
I46
sg9
I4
sg10
I0
sg11
I670
sssS'Danijel.csv'
p30
(dp31
g3
(dp32
g5
I1339
sg6
I41
sg7
I4
sg8
I10
sg9
I3
sg10
I5
sg11
I830
ssg12
(dp33
g5
I699
sg6
I41
sg7
I3
sg8
I8
sg9
I4
sg10
I2
sg11
I520
ssg14
(dp34
g5
I1570
sg6
I29
sg7
I18
sg8
I0
sg9
I1
sg10
I4
sg11
I1570
ssg16
(dp35
g5
I2525
sg6
I33
sg7
I13
sg8
I19
sg9
I2
sg10
I0
sg11
I1250
sss.(dp0
S'K_all3.csv'
p1
(dp2
S'machine'
p3
(dp4
S'count'
p5
I633
sS'truepos'
p6
I34
sS'falseneg'
p7
I3
sS'correction'
p8
I6
sS'unknownyes'
p9
I8
sS'falsepos'
p10
I4
sS'unique'
p11
I430
ssS'knee'
p12
(dp13
g5
I888
sg6
I32
sg7
I10
sg8
I7
sg9
I3
sg10
I0
sg11
I730
ssS'none'
p14
(dp15
g5
I630
sg6
I26
sg7
I13
sg8
I0
sg9
I6
sg10
I6
sg11
I630
ssS'three'
p16
(dp17
g5
I982
sg6
I27
sg7
I13
sg8
I18
sg9
I5
sg10
I0
sg11
I480
sssS'Wahono.csv'
p18
(dp19
g3
(dp20
g5
I1563
sg6
I56
sg7
I3
sg8
I13
sg9
I3
sg10
I1
sg11
I980
ssg12
(dp21
g5
I1410
sg6
I51
sg7
I8
sg8
I16
sg9
I3
sg10
I3
sg11
I1100
ssg14
(dp22
g5
I1550
sg6
I42
sg7
I19
sg8
I0
sg9
I1
sg10
I2
sg11
I1550
ssg16
(dp23
g5
I2432
sg6
I43
sg7
I16
sg8
I28
sg9
I3
sg10
I0
sg11
I1200
sssS'Hall.csv'
p24
(dp25
g3
(dp26
g5
I913
sg6
I87
sg7
I15
sg8
I22
sg9
I4
sg10
I0
sg11
I670
ssg12
(dp27
g5
I705
sg6
I90
sg7
I12
sg8
I19
sg9
I4
sg10
I0
sg11
I510
ssg14
(dp28
g5
I980
sg6
I72
sg7
I31
sg8
I0
sg9
I3
sg10
I1
sg11
I980
ssg16
(dp29
g5
I1486
sg6
I80
sg7
I22
sg8
I41
sg9
I4
sg10
I0
sg11
I720
sssS'Danijel.csv'
p30
(dp31
g3
(dp32
g5
I1211
sg6
I43
sg7
I2
sg8
I1
sg9
I3
sg10
I2
sg11
I730
ssg12
(dp33
g5
I357
sg6
I30
sg7
I5
sg8
I5
sg9
I13
sg10
I0
sg11
I230
ssg14
(dp34
g5
I1050
sg6
I36
sg7
I10
sg8
I0
sg9
I2
sg10
I2
sg11
I1050
ssg16
(dp35
g5
I2546
sg6
I35
sg7
I12
sg8
I25
sg9
I1
sg10
I0
sg11
I1260
sss.(dp0
S'K_all3.csv'
p1
(dp2
S'machine'
p3
(dp4
S'count'
p5
I626
sS'truepos'
p6
I30
sS'falseneg'
p7
I6
sS'correction'
p8
I2
sS'unknownyes'
p9
I9
sS'falsepos'
p10
I2
sS'unique'
p11
I430
ssS'knee'
p12
(dp13
g5
I205
sg6
I20
sg7
I3
sg8
I3
sg9
I22
sg10
I1
sg11
I140
ssS'none'
p14
(dp15
g5
I610
sg6
I30
sg7
I12
sg8
I0
sg9
I3
sg10
I8
sg11
I610
ssS'three'
p16
(dp17
g5
I1245
sg6
I34
sg7
I7
sg8
I24
sg9
I4
sg10
I0
sg11
I610
sssS'Wahono.csv'
p18
(dp19
g3
(dp20
g5
I1403
sg6
I43
sg7
I13
sg8
I10
sg9
I6
sg10
I1
sg11
I900
ssg12
(dp21
g5
I902
sg6
I35
sg7
I22
sg8
I5
sg9
I5
sg10
I0
sg11
I800
ssg14
(dp22
g5
I1560
sg6
I41
sg7
I18
sg8
I0
sg9
I3
sg10
I2
sg11
I1560
ssg16
(dp23
g5
I2815
sg6
I42
sg7
I17
sg8
I29
sg9
I3
sg10
I0
sg11
I1390
sssS'Hall.csv'
p24
(dp25
g3
(dp26
g5
I920
sg6
I92
sg7
I10
sg8
I15
sg9
I4
sg10
I2
sg11
I660
ssg12
(dp27
g5
I24
sg6
I8
sg7
I4
sg8
I2
sg9
I94
sg10
I0
sg11
I20
ssg14
(dp28
g5
I1110
sg6
I69
sg7
I33
sg8
I0
sg9
I4
sg10
I4
sg11
I1110
ssg16
(dp29
g5
I1400
sg6
I86
sg7
I16
sg8
I37
sg9
I4
sg10
I0
sg11
I680
sssS'Danijel.csv'
p30
(dp31
g3
(dp32
g5
I1485
sg6
I38
sg7
I6
sg8
I9
sg9
I4
sg10
I4
sg11
I970
ssg12
(dp33
g5
I751
sg6
I37
sg7
I5
sg8
I5
sg9
I6
sg10
I2
sg11
I480
ssg14
(dp34
g5
I1310
sg6
I32
sg7
I14
sg8
I0
sg9
I2
sg10
I2
sg11
I1310
ssg16
(dp35
g5
I2665
sg6
I38
sg7
I9
sg8
I22
sg9
I1
sg10
I0
sg11
I1320
sss.(dp0
S'K_all3.csv'
p1
(dp2
S'machine'
p3
(dp4
S'count'
p5
I836
sS'truepos'
p6
I30
sS'falseneg'
p7
I7
sS'correction'
p8
I7
sS'unknownyes'
p9
I8
sS'falsepos'
p10
I4
sS'unique'
p11
I600
ssS'knee'
p12
(dp13
g5
I352
sg6
I28
sg7
I3
sg8
I3
sg9
I14
sg10
I2
sg11
I260
ssS'none'
p14
(dp15
g5
I600
sg6
I27
sg7
I13
sg8
I0
sg9
I5
sg10
I8
sg11
I600
ssS'three'
p16
(dp17
g5
I984
sg6
I28
sg7
I11
sg8
I22
sg9
I6
sg10
I0
sg11
I480
sssS'Wahono.csv'
p18
(dp19
g3
(dp20
g5
I2164
sg6
I50
sg7
I9
sg8
I9
sg9
I3
sg10
I2
sg11
I1460
ssg12
(dp21
g5
I171
sg6
I20
sg7
I3
sg8
I3
sg9
I39
sg10
I0
sg11
I140
ssg14
(dp22
g5
I1480
sg6
I45
sg7
I14
sg8
I0
sg9
I3
sg10
I2
sg11
I1480
ssg16
(dp23
g5
I3108
sg6
I49
sg7
I12
sg8
I24
sg9
I1
sg10
I0
sg11
I1540
sssS'Hall.csv'
p24
(dp25
g3
(dp26
g5
I776
sg6
I93
sg7
I9
sg8
I21
sg9
I4
sg10
I2
sg11
I540
ssg12
(dp27
g5
I573
sg6
I93
sg7
I8
sg8
I21
sg9
I5
sg10
I0
sg11
I370
ssg14
(dp28
g5
I1000
sg6
I70
sg7
I33
sg8
I0
sg9
I3
sg10
I8
sg11
I1000
ssg16
(dp29
g5
I1623
sg6
I82
sg7
I21
sg8
I42
sg9
I3
sg10
I0
sg11
I790
sssS'Danijel.csv'
p30
(dp31
g3
(dp32
g5
I1448
sg6
I42
sg7
I3
sg8
I8
sg9
I3
sg10
I4
sg11
I890
ssg12
(dp33
g5
I420
sg6
I34
sg7
I7
sg8
I5
sg9
I7
sg10
I1
sg11
I320
ssg14
(dp34
g5
I900
sg6
I33
sg7
I12
sg8
I0
sg9
I3
sg10
I5
sg11
I900
ssg16
(dp35
g5
I2304
sg6
I36
sg7
I10
sg8
I24
sg9
I2
sg10
I0
sg11
I1140
sss.(dp0
S'K_all3.csv'
p1
(dp2
S'machine'
p3
(dp4
S'count'
p5
I823
sS'truepos'
p6
I31
sS'falseneg'
p7
I8
sS'correction'
p8
I5
sS'unknownyes'
p9
I6
sS'falsepos'
p10
I7
sS'unique'
p11
I530
ssS'knee'
p12
(dp13
g5
I258
sg6
I24
sg7
I4
sg8
I1
sg9
I17
sg10
I1
sg11
I170
ssS'none'
p14
(dp15
g5
I510
sg6
I29
sg7
I11
sg8
I0
sg9
I5
sg10
I6
sg11
I510
ssS'three'
p16
(dp17
g5
I1346
sg6
I28
sg7
I8
sg8
I23
sg9
I9
sg10
I0
sg11
I660
sssS'Wahono.csv'
p18
(dp19
g3
(dp20
g5
I2296
sg6
I56
sg7
I5
sg8
I13
sg9
I1
sg10
I5
sg11
I1500
ssg12
(dp21
g5
I1049
sg6
I48
sg7
I7
sg8
I10
sg9
I7
sg10
I1
sg11
I740
ssg14
(dp22
g5
I1180
sg6
I40
sg7
I19
sg8
I0
sg9
I3
sg10
I0
sg11
I1180
ssg16
(dp23
g5
I2991
sg6
I44
sg7
I15
sg8
I26
sg9
I3
sg10
I0
sg11
I1480
sssS'Hall.csv'
p24
(dp25
g3
(dp26
g5
I907
sg6
I87
sg7
I15
sg8
I13
sg9
I4
sg10
I6
sg11
I670
ssg12
(dp27
g5
I271
sg6
I63
sg7
I6
sg8
I14
sg9
I37
sg10
I0
sg11
I170
ssg14
(dp28
g5
I820
sg6
I69
sg7
I33
sg8
I0
sg9
I4
sg10
I1
sg11
I820
ssg16
(dp29
g5
I2040
sg6
I78
sg7
I25
sg8
I51
sg9
I3
sg10
I0
sg11
I990
sssS'Danijel.csv'
p30
(dp31
g3
(dp32
g5
I1280
sg6
I41
sg7
I4
sg8
I6
sg9
I3
sg10
I1
sg11
I830
ssg12
(dp33
g5
I820
sg6
I38
sg7
I7
sg8
I8
sg9
I3
sg10
I1
sg11
I550
ssg14
(dp34
g5
I1320
sg6
I30
sg7
I16
sg8
I0
sg9
I2
sg10
I1
sg11
I1320
ssg16
(dp35
g5
I1620
sg6
I39
sg7
I7
sg8
I19
sg9
I2
sg10
I0
sg11
I800
sss.(dp0
S'K_all3.csv'
p1
(dp2
S'machine'
p3
(dp4
S'count'
p5
I783
sS'truepos'
p6
I29
sS'falseneg'
p7
I10
sS'correction'
p8
I6
sS'unknownyes'
p9
I6
sS'falsepos'
p10
I11
sS'unique'
p11
I530
ssS'knee'
p12
(dp13
g5
I1214
sg6
I37
sg7
I5
sg8
I14
sg9
I3
sg10
I3
sg11
I960
ssS'none'
p14
(dp15
g5
I580
sg6
I28
sg7
I12
sg8
I0
sg9
I5
sg10
I1
sg11
I580
ssS'three'
p16
(dp17
g5
I1103
sg6
I28
sg7
I10
sg8
I21
sg9
I7
sg10
I0
sg11
I540
sssS'Wahono.csv'
p18
(dp19
g3
(dp20
g5
I2181
sg6
I52
sg7
I8
sg8
I9
sg9
I2
sg10
I6
sg11
I1400
ssg12
(dp21
g5
I1196
sg6
I48
sg7
I10
sg8
I5
sg9
I4
sg10
I3
sg11
I920
ssg14
(dp22
g5
I1370
sg6
I45
sg7
I14
sg8
I0
sg9
I3
sg10
I1
sg11
I1370
ssg16
(dp23
g5
I2537
sg6
I43
sg7
I17
sg8
I30
sg9
I2
sg10
I0
sg11
I1250
sssS'Hall.csv'
p24
(dp25
g3
(dp26
g5
I995
sg6
I91
sg7
I11
sg8
I13
sg9
I4
sg10
I1
sg11
I760
ssg12
(dp27
g5
I593
sg6
I89
sg7
I12
sg8
I15
sg9
I5
sg10
I2
sg11
I400
ssg14
(dp28
g5
I570
sg6
I74
sg7
I28
sg8
I0
sg9
I4
sg10
I5
sg11
I570
ssg16
(dp29
g5
I1655
sg6
I80
sg7
I22
sg8
I46
sg9
I4
sg10
I0
sg11
I800
sssS'Danijel.csv'
p30
(dp31
g3
(dp32
g5
I1487
sg6
I42
sg7
I4
sg8
I10
sg9
I2
sg10
I5
sg11
I920
ssg12
(dp33
g5
I37
sg6
I4
sg7
I1
sg8
I1
sg9
I43
sg10
I0
sg11
I30
ssg14
(dp34
g5
I1160
sg6
I33
sg7
I13
sg8
I0
sg9
I2
sg10
I4
sg11
I1160
ssg16
(dp35
g5
I2045
sg6
I37
sg7
I10
sg8
I21
sg9
I1
sg10
I0
sg11
I1010
sss.(dp0
S'K_all3.csv'
p1
(dp2
S'machine'
p3
(dp4
S'count'
p5
I644
sS'truepos'
p6
I32
sS'falseneg'
p7
I8
sS'correction'
p8
I6
sS'unknownyes'
p9
I5
sS'falsepos'
p10
I3
sS'unique'
p11
I450
ssS'knee'
p12
(dp13
g5
I111
sg6
I8
sg7
I4
sg8
I2
sg9
I33
sg10
I0
sg11
I100
ssS'none'
p14
(dp15
g5
I630
sg6
I26
sg7
I14
sg8
I0
sg9
I5
sg10
I5
sg11
I630
ssS'three'
p16
(dp17
g5
I1108
sg6
I32
sg7
I7
sg8
I25
sg9
I6
sg10
I0
sg11
I540
sssS'Wahono.csv'
p18
(dp19
g3
(dp20
g5
I2307
sg6
I52
sg7
I9
sg8
I9
sg9
I1
sg10
I7
sg11
I1490
ssg12
(dp21
g5
I232
sg6
I20
sg7
I5
sg8
I2
sg9
I37
sg10
I0
sg11
I150
ssg14
(dp22
g5
I1640
sg6
I42
sg7
I17
sg8
I0
sg9
I3
sg10
I3
sg11
I1640
ssg16
(dp23
g5
I2674
sg6
I44
sg7
I16
sg8
I25
sg9
I2
sg10
I0
sg11
I1320
sssS'Hall.csv'
p24
(dp25
g3
(dp26
g5
I1086
sg6
I89
sg7
I13
sg8
I22
sg9
I4
sg10
I5
sg11
I800
ssg12
(dp27
g5
I699
sg6
I92
sg7
I9
sg8
I21
sg9
I5
sg10
I1
sg11
I490
ssg14
(dp28
g5
I900
sg6
I76
sg7
I27
sg8
I0
sg9
I3
sg10
I5
sg11
I900
ssg16
(dp29
g5
I1186
sg6
I86
sg7
I16
sg8
I43
sg9
I4
sg10
I0
sg11
I570
sssS'Danijel.csv'
p30
(dp31
g3
(dp32
g5
I1221
sg6
I42
sg7
I4
sg8
I8
sg9
I2
sg10
I1
sg11
I730
ssg12
(dp33
g5
I734
sg6
I31
sg7
I9
sg8
I9
sg9
I8
sg10
I2
sg11
I550
ssg14
(dp34
g5
I1250
sg6
I30
sg7
I16
sg8
I0
sg9
I2
sg10
I3
sg11
I1250
ssg16
(dp35
g5
I1704
sg6
I38
sg7
I7
sg8
I22
sg9
I3
sg10
I0
sg11
I840
sss.(dp0
S'K_all3.csv'
p1
(dp2
S'machine'
p3
(dp4
S'count'
p5
I650
sS'truepos'
p6
I32
sS'falseneg'
p7
I3
sS'correction'
p8
I5
sS'unknownyes'
p9
I10
sS'falsepos'
p10
I7
sS'unique'
p11
I400
ssS'knee'
p12
(dp13
g5
I519
sg6
I26
sg7
I4
sg8
I6
sg9
I15
sg10
I6
sg11
I360
ssS'none'
p14
(dp15
g5
I480
sg6
I25
sg7
I12
sg8
I0
sg9
I8
sg10
I3
sg11
I480
ssS'three'
p16
(dp17
g5
I1085
sg6
I28
sg7
I8
sg8
I24
sg9
I9
sg10
I0
sg11
I530
sssS'Wahono.csv'
p18
(dp19
g3
(dp20
g5
I2020
sg6
I53
sg7
I6
sg8
I10
sg9
I3
sg10
I5
sg11
I1390
ssg12
(dp21
g5
I24
sg6
I6
sg7
I0
sg8
I0
sg9
I56
sg10
I0
sg11
I20
ssg14
(dp22
g5
I1420
sg6
I46
sg7
I14
sg8
I0
sg9
I2
sg10
I0
sg11
I1420
ssg16
(dp23
g5
I2915
sg6
I45
sg7
I16
sg8
I31
sg9
I1
sg10
I0
sg11
I1440
sssS'Hall.csv'
p24
(dp25
g3
(dp26
g5
I792
sg6
I94
sg7
I8
sg8
I22
sg9
I4
sg10
I2
sg11
I570
ssg12
(dp27
g5
I676
sg6
I88
sg7
I14
sg8
I24
sg9
I4
sg10
I2
sg11
I520
ssg14
(dp28
g5
I1370
sg6
I70
sg7
I33
sg8
I0
sg9
I3
sg10
I6
sg11
I1370
ssg16
(dp29
g5
I1486
sg6
I84
sg7
I18
sg8
I42
sg9
I4
sg10
I0
sg11
I720
sssS'Danijel.csv'
p30
(dp31
g3
(dp32
g5
I1327
sg6
I42
sg7
I4
sg8
I9
sg9
I2
sg10
I6
sg11
I850
ssg12
(dp33
g5
I655
sg6
I31
sg7
I11
sg8
I6
sg9
I6
sg10
I0
sg11
I510
ssg14
(dp34
g5
I1370
sg6
I28
sg7
I18
sg8
I0
sg9
I2
sg10
I2
sg11
I1370
ssg16
(dp35
g5
I2140
sg6
I37
sg7
I9
sg8
I15
sg9
I2
sg10
I0
sg11
I1060
sss.(dp0
S'K_all3.csv'
p1
(dp2
S'machine'
p3
(dp4
S'count'
p5
I722
sS'truepos'
p6
I32
sS'falseneg'
p7
I5
sS'correction'
p8
I1
sS'unknownyes'
p9
I8
sS'falsepos'
p10
I6
sS'unique'
p11
I450
ssS'knee'
p12
(dp13
g5
I1416
sg6
I36
sg7
I5
sg8
I8
sg9
I4
sg10
I13
sg11
I800
ssS'none'
p14
(dp15
g5
I500
sg6
I33
sg7
I8
sg8
I0
sg9
I4
sg10
I3
sg11
I500
ssS'three'
p16
(dp17
g5
I1057
sg6
I36
sg7
I4
sg8
I17
sg9
I5
sg10
I0
sg11
I520
sssS'Wahono.csv'
p18
(dp19
g3
(dp20
g5
I2114
sg6
I52
sg7
I7
sg8
I13
sg9
I3
sg10
I4
sg11
I1360
ssg12
(dp21
g5
I385
sg6
I23
sg7
I6
sg8
I6
sg9
I33
sg10
I0
sg11
I260
ssg14
(dp22
g5
I1690
sg6
I34
sg7
I22
sg8
I0
sg9
I6
sg10
I4
sg11
I1690
ssg16
(dp23
g5
I3092
sg6
I40
sg7
I20
sg8
I24
sg9
I2
sg10
I0
sg11
I1530
sssS'Hall.csv'
p24
(dp25
g3
(dp26
g5
I687
sg6
I93
sg7
I9
sg8
I18
sg9
I4
sg10
I3
sg11
I470
ssg12
(dp27
g5
I1011
sg6
I86
sg7
I15
sg8
I18
sg9
I5
sg10
I2
sg11
I680
ssg14
(dp28
g5
I1180
sg6
I68
sg7
I34
sg8
I0
sg9
I4
sg10
I2
sg11
I1180
ssg16
(dp29
g5
I1268
sg6
I78
sg7
I24
sg8
I38
sg9
I4
sg10
I0
sg11
I610
sssS'Danijel.csv'
p30
(dp31
g3
(dp32
g5
I1165
sg6
I35
sg7
I10
sg8
I9
sg9
I3
sg10
I3
sg11
I740
ssg12
(dp33
g5
I424
sg6
I34
sg7
I6
sg8
I6
sg9
I8
sg10
I2
sg11
I280
ssg14
(dp34
g5
I1400
sg6
I29
sg7
I17
sg8
I0
sg9
I2
sg10
I5
sg11
I1400
ssg16
(dp35
g5
I2770
sg6
I33
sg7
I13
sg8
I27
sg9
I2
sg10
I0
sg11
I1370
sss.(dp0
S'K_all3.csv'
p1
(dp2
S'machine'
p3
(dp4
S'count'
p5
I591
sS'truepos'
p6
I27
sS'falseneg'
p7
I8
sS'correction'
p8
I4
sS'unknownyes'
p9
I10
sS'falsepos'
p10
I2
sS'unique'
p11
I440
ssS'knee'
p12
(dp13
g5
I1540
sg6
I38
sg7
I5
sg8
I9
sg9
I2
sg10
I13
sg11
I1140
ssS'none'
p14
(dp15
g5
I570
sg6
I31
sg7
I10
sg8
I0
sg9
I4
sg10
I6
sg11
I570
ssS'three'
p16
(dp17
g5
I984
sg6
I32
sg7
I5
sg8
I23
sg9
I8
sg10
I0
sg11
I480
sssS'Wahono.csv'
p18
(dp19
g3
(dp20
g5
I1994
sg6
I54
sg7
I4
sg8
I12
sg9
I4
sg10
I10
sg11
I1260
ssg12
(dp21
g5
I1822
sg6
I50
sg7
I8
sg8
I14
sg9
I4
sg10
I2
sg11
I1370
ssg14
(dp22
g5
I1460
sg6
I36
sg7
I23
sg8
I0
sg9
I3
sg10
I6
sg11
I1460
ssg16
(dp23
g5
I2830
sg6
I47
sg7
I12
sg8
I28
sg9
I3
sg10
I1
sg11
I1400
sssS'Hall.csv'
p24
(dp25
g3
(dp26
g5
I758
sg6
I99
sg7
I3
sg8
I23
sg9
I4
sg10
I3
sg11
I540
ssg12
(dp27
g5
I24
sg6
I6
sg7
I2
sg8
I0
sg9
I98
sg10
I0
sg11
I20
ssg14
(dp28
g5
I1020
sg6
I73
sg7
I30
sg8
I0
sg9
I3
sg10
I2
sg11
I1020
ssg16
(dp29
g5
I1285
sg6
I88
sg7
I14
sg8
I42
sg9
I4
sg10
I0
sg11
I620
sssS'Danijel.csv'
p30
(dp31
g3
(dp32
g5
I1042
sg6
I40
sg7
I5
sg8
I13
sg9
I3
sg10
I2
sg11
I690
ssg12
(dp33
g5
I566
sg6
I33
sg7
I9
sg8
I4
sg9
I6
sg10
I0
sg11
I450
ssg14
(dp34
g5
I980
sg6
I36
sg7
I10
sg8
I0
sg9
I2
sg10
I2
sg11
I980
ssg16
(dp35
g5
I2504
sg6
I37
sg7
I9
sg8
I21
sg9
I2
sg10
I0
sg11
I1240
sss.(dp0
S'K_all3.csv'
p1
(dp2
S'machine'
p3
(dp4
S'count'
p5
I833
sS'truepos'
p6
I30
sS'falseneg'
p7
I7
sS'correction'
p8
I4
sS'unknownyes'
p9
I8
sS'falsepos'
p10
I6
sS'unique'
p11
I580
ssS'knee'
p12
(dp13
g5
I344
sg6
I21
sg7
I8
sg8
I3
sg9
I16
sg10
I2
sg11
I240
ssS'none'
p14
(dp15
g5
I430
sg6
I27
sg7
I8
sg8
I0
sg9
I10
sg10
I4
sg11
I430
ssS'three'
p16
(dp17
g5
I1083
sg6
I32
sg7
I6
sg8
I22
sg9
I7
sg10
I0
sg11
I530
sssS'Wahono.csv'
p18
(dp19
g3
(dp20
g5
I2143
sg6
I51
sg7
I10
sg8
I8
sg9
I1
sg10
I2
sg11
I1430
ssg12
(dp21
g5
I207
sg6
I22
sg7
I5
sg8
I7
sg9
I35
sg10
I0
sg11
I150
ssg14
(dp22
g5
I1660
sg6
I48
sg7
I11
sg8
I0
sg9
I3
sg10
I8
sg11
I1660
ssg16
(dp23
g5
I2798
sg6
I46
sg7
I15
sg8
I32
sg9
I1
sg10
I1
sg11
I1380
sssS'Hall.csv'
p24
(dp25
g3
(dp26
g5
I784
sg6
I94
sg7
I8
sg8
I18
sg9
I4
sg10
I2
sg11
I580
ssg12
(dp27
g5
I768
sg6
I79
sg7
I23
sg8
I23
sg9
I4
sg10
I2
sg11
I570
ssg14
(dp28
g5
I1050
sg6
I78
sg7
I25
sg8
I0
sg9
I3
sg10
I4
sg11
I1050
ssg16
(dp29
g5
I2012
sg6
I76
sg7
I26
sg8
I44
sg9
I4
sg10
I0
sg11
I980
sssS'Danijel.csv'
p30
(dp31
g3
(dp32
g5
I1024
sg6
I39
sg7
I5
sg8
I12
sg9
I4
sg10
I1
sg11
I680
ssg12
(dp33
g5
I775
sg6
I34
sg7
I9
sg8
I6
sg9
I5
sg10
I0
sg11
I620
ssg14
(dp34
g5
I930
sg6
I33
sg7
I11
sg8
I0
sg9
I4
sg10
I5
sg11
I930
ssg16
(dp35
g5
I2346
sg6
I36
sg7
I10
sg8
I23
sg9
I2
sg10
I0
sg11
I1160
sss.(dp0
S'K_all3.csv'
p1
(dp2
S'machine'
p3
(dp4
S'count'
p5
I801
sS'truepos'
p6
I34
sS'falseneg'
p7
I5
sS'correction'
p8
I10
sS'unknownyes'
p9
I6
sS'falsepos'
p10
I4
sS'unique'
p11
I550
ssS'knee'
p12
(dp13
g5
I36
sg6
I5
sg7
I2
sg8
I1
sg9
I38
sg10
I0
sg11
I30
ssS'none'
p14
(dp15
g5
I570
sg6
I28
sg7
I13
sg8
I0
sg9
I4
sg10
I5
sg11
I570
ssS'three'
p16
(dp17
g5
I1040
sg6
I38
sg7
I2
sg8
I19
sg9
I5
sg10
I0
sg11
I510
sssS'Wahono.csv'
p18
(dp19
g3
(dp20
g5
I2086
sg6
I57
sg7
I3
sg8
I10
sg9
I2
sg10
I4
sg11
I1390
ssg12
(dp21
g5
I1263
sg6
I47
sg7
I13
sg8
I11
sg9
I2
sg10
I2
sg11
I1020
ssg14
(dp22
g5
I1550
sg6
I45
sg7
I15
sg8
I0
sg9
I2
sg10
I4
sg11
I1550
ssg16
(dp23
g5
I2495
sg6
I42
sg7
I19
sg8
I31
sg9
I1
sg10
I0
sg11
I1230
sssS'Hall.csv'
p24
(dp25
g3
(dp26
g5
I765
sg6
I94
sg7
I8
sg8
I22
sg9
I4
sg10
I1
sg11
I540
ssg12
(dp27
g5
I609
sg6
I88
sg7
I12
sg8
I19
sg9
I6
sg10
I1
sg11
I410
ssg14
(dp28
g5
I1150
sg6
I70
sg7
I33
sg8
I0
sg9
I3
sg10
I8
sg11
I1150
ssg16
(dp29
g5
I1654
sg6
I82
sg7
I20
sg8
I48
sg9
I4
sg10
I0
sg11
I800
sssS'Danijel.csv'
p30
(dp31
g3
(dp32
g5
I1484
sg6
I36
sg7
I10
sg8
I12
sg9
I2
sg10
I2
sg11
I1020
ssg12
(dp33
g5
I457
sg6
I28
sg7
I5
sg8
I5
sg9
I15
sg10
I0
sg11
I270
ssg14
(dp34
g5
I770
sg6
I36
sg7
I10
sg8
I0
sg9
I2
sg10
I2
sg11
I770
ssg16
(dp35
g5
I2621
sg6
I37
sg7
I9
sg8
I20
sg9
I2
sg10
I0
sg11
I1300
sss.(dp0
S'K_all3.csv'
p1
(dp2
S'machine'
p3
(dp4
S'count'
p5
I683
sS'truepos'
p6
I23
sS'falseneg'
p7
I16
sS'correction'
p8
I5
sS'unknownyes'
p9
I6
sS'falsepos'
p10
I5
sS'unique'
p11
I630
ssS'knee'
p12
(dp13
g5
I854
sg6
I35
sg7
I4
sg8
I7
sg9
I6
sg10
I4
sg11
I550
ssS'none'
p14
(dp15
g5
I550
sg6
I25
sg7
I13
sg8
I0
sg9
I7
sg10
I3
sg11
I550
ssS'three'
p16
(dp17
g5
I1082
sg6
I35
sg7
I5
sg8
I20
sg9
I5
sg10
I0
sg11
I530
sssS'Wahono.csv'
p18
(dp19
g3
(dp20
g5
I2139
sg6
I56
sg7
I4
sg8
I14
sg9
I2
sg10
I8
sg11
I1410
ssg12
(dp21
g5
I788
sg6
I42
sg7
I8
sg8
I9
sg9
I12
sg10
I0
sg11
I590
ssg14
(dp22
g5
I1810
sg6
I38
sg7
I22
sg8
I0
sg9
I2
sg10
I4
sg11
I1810
ssg16
(dp23
g5
I2437
sg6
I51
sg7
I10
sg8
I34
sg9
I1
sg10
I0
sg11
I1200
sssS'Hall.csv'
p24
(dp25
g3
(dp26
g5
I802
sg6
I95
sg7
I7
sg8
I24
sg9
I4
sg10
I2
sg11
I540
ssg12
(dp27
g5
I661
sg6
I82
sg7
I19
sg8
I18
sg9
I5
sg10
I0
sg11
I450
ssg14
(dp28
g5
I930
sg6
I69
sg7
I34
sg8
I0
sg9
I3
sg10
I2
sg11
I930
ssg16
(dp29
g5
I1563
sg6
I83
sg7
I19
sg8
I39
sg9
I4
sg10
I0
sg11
I760
sssS'Danijel.csv'
p30
(dp31
g3
(dp32
g5
I1759
sg6
I41
sg7
I4
sg8
I7
sg9
I3
sg10
I3
sg11
I1110
ssg12
(dp33
g5
I68
sg6
I5
sg7
I4
sg8
I0
sg9
I39
sg10
I0
sg11
I60
ssg14
(dp34
g5
I1220
sg6
I32
sg7
I15
sg8
I0
sg9
I1
sg10
I2
sg11
I1220
ssg16
(dp35
g5
I2790
sg6
I35
sg7
I11
sg8
I26
sg9
I2
sg10
I0
sg11
I1380
sss.(dp0
S'K_all3.csv'
p1
(dp2
S'machine'
p3
(dp4
S'count'
p5
I667
sS'truepos'
p6
I34
sS'falseneg'
p7
I4
sS'correction'
p8
I4
sS'unknownyes'
p9
I7
sS'falsepos'
p10
I4
sS'unique'
p11
I450
ssS'knee'
p12
(dp13
g5
I2010
sg6
I35
sg7
I10
sg8
I15
sg9
I0
sg10
I4
sg11
I1680
ssS'none'
p14
(dp15
g5
I470
sg6
I27
sg7
I10
sg8
I0
sg9
I8
sg10
I2
sg11
I470
ssS'three'
p16
(dp17
g5
I981
sg6
I32
sg7
I8
sg8
I18
sg9
I5
sg10
I0
sg11
I480
sssS'Wahono.csv'
p18
(dp19
g3
(dp20
g5
I1897
sg6
I58
sg7
I2
sg8
I13
sg9
I2
sg10
I3
sg11
I1300
ssg12
(dp21
g5
I203
sg6
I24
sg7
I1
sg8
I5
sg9
I37
sg10
I0
sg11
I140
ssg14
(dp22
g5
I1750
sg6
I41
sg7
I20
sg8
I0
sg9
I1
sg10
I5
sg11
I1750
ssg16
(dp23
g5
I3082
sg6
I43
sg7
I17
sg8
I38
sg9
I2
sg10
I0
sg11
I1520
sssS'Hall.csv'
p24
(dp25
g3
(dp26
g5
I792
sg6
I92
sg7
I10
sg8
I17
sg9
I4
sg10
I3
sg11
I530
ssg12
(dp27
g5
I590
sg6
I85
sg7
I14
sg8
I20
sg9
I7
sg10
I1
sg11
I380
ssg14
(dp28
g5
I720
sg6
I69
sg7
I33
sg8
I0
sg9
I4
sg10
I4
sg11
I720
ssg16
(dp29
g5
I1310
sg6
I83
sg7
I19
sg8
I44
sg9
I4
sg10
I0
sg11
I630
sssS'Danijel.csv'
p30
(dp31
g3
(dp32
g5
I1398
sg6
I43
sg7
I3
sg8
I5
sg9
I2
sg10
I2
sg11
I890
ssg12
(dp33
g5
I755
sg6
I37
sg7
I6
sg8
I9
sg9
I5
sg10
I2
sg11
I510
ssg14
(dp34
g5
I1510
sg6
I32
sg7
I14
sg8
I0
sg9
I2
sg10
I2
sg11
I1510
ssg16
(dp35
g5
I2189
sg6
I37
sg7
I10
sg8
I26
sg9
I1
sg10
I0
sg11
I1080
sss.(dp0
S'K_all3.csv'
p1
(dp2
S'machine'
p3
(dp4
S'count'
p5
I859
sS'truepos'
p6
I28
sS'falseneg'
p7
I12
sS'correction'
p8
I6
sS'unknownyes'
p9
I5
sS'falsepos'
p10
I6
sS'unique'
p11
I580
ssS'knee'
p12
(dp13
g5
I336
sg6
I21
sg7
I8
sg8
I6
sg9
I16
sg10
I2
sg11
I240
ssS'none'
p14
(dp15
g5
I540
sg6
I32
sg7
I7
sg8
I0
sg9
I6
sg10
I6
sg11
I540
ssS'three'
p16
(dp17
g5
I1120
sg6
I27
sg7
I11
sg8
I17
sg9
I7
sg10
I0
sg11
I550
sssS'Wahono.csv'
p18
(dp19
g3
(dp20
g5
I1887
sg6
I54
sg7
I5
sg8
I7
sg9
I3
sg10
I4
sg11
I1270
ssg12
(dp21
g5
I24
sg6
I6
sg7
I0
sg8
I0
sg9
I56
sg10
I0
sg11
I20
ssg14
(dp22
g5
I1410
sg6
I46
sg7
I14
sg8
I0
sg9
I2
sg10
I5
sg11
I1410
ssg16
(dp23
g5
I2518
sg6
I48
sg7
I12
sg8
I35
sg9
I2
sg10
I0
sg11
I1240
sssS'Hall.csv'
p24
(dp25
g3
(dp26
g5
I850
sg6
I88
sg7
I14
sg8
I13
sg9
I4
sg10
I4
sg11
I620
ssg12
(dp27
g5
I628
sg6
I81
sg7
I19
sg8
I16
sg9
I6
sg10
I0
sg11
I460
ssg14
(dp28
g5
I1620
sg6
I72
sg7
I31
sg8
I0
sg9
I3
sg10
I7
sg11
I1620
ssg16
(dp29
g5
I1104
sg6
I76
sg7
I26
sg8
I36
sg9
I4
sg10
I0
sg11
I530
sssS'Danijel.csv'
p30
(dp31
g3
(dp32
g5
I1183
sg6
I40
sg7
I4
sg8
I9
sg9
I4
sg10
I3
sg11
I690
ssg12
(dp33
g5
I510
sg6
I36
sg7
I2
sg8
I3
sg9
I10
sg10
I0
sg11
I340
ssg14
(dp34
g5
I1670
sg6
I30
sg7
I16
sg8
I0
sg9
I2
sg10
I4
sg11
I1670
ssg16
(dp35
g5
I3023
sg6
I33
sg7
I13
sg8
I18
sg9
I2
sg10
I0
sg11
I1500
sss.(dp0
S'K_all3.csv'
p1
(dp2
S'machine'
p3
(dp4
S'count'
p5
I567
sS'truepos'
p6
I32
sS'falseneg'
p7
I4
sS'correction'
p8
I4
sS'unknownyes'
p9
I9
sS'falsepos'
p10
I4
sS'unique'
p11
I380
ssS'knee'
p12
(dp13
g5
I99
sg6
I11
sg7
I4
sg8
I0
sg9
I30
sg10
I0
sg11
I70
ssS'none'
p14
(dp15
g5
I530
sg6
I22
sg7
I17
sg8
I0
sg9
I6
sg10
I1
sg11
I530
ssS'three'
p16
(dp17
g5
I1104
sg6
I28
sg7
I10
sg8
I21
sg9
I7
sg10
I0
sg11
I540
sssS'Wahono.csv'
p18
(dp19
g3
(dp20
g5
I2358
sg6
I49
sg7
I12
sg8
I16
sg9
I1
sg10
I5
sg11
I1580
ssg12
(dp21
g5
I173
sg6
I18
sg7
I9
sg8
I1
sg9
I35
sg10
I1
sg11
I110
ssg14
(dp22
g5
I1910
sg6
I45
sg7
I14
sg8
I0
sg9
I3
sg10
I6
sg11
I1910
ssg16
(dp23
g5
I2678
sg6
I45
sg7
I15
sg8
I32
sg9
I2
sg10
I0
sg11
I1320
sssS'Hall.csv'
p24
(dp25
g3
(dp26
g5
I852
sg6
I90
sg7
I12
sg8
I22
sg9
I4
sg10
I1
sg11
I640
ssg12
(dp27
g5
I563
sg6
I90
sg7
I9
sg8
I20
sg9
I7
sg10
I1
sg11
I370
ssg14
(dp28
g5
I770
sg6
I75
sg7
I27
sg8
I0
sg9
I4
sg10
I2
sg11
I770
ssg16
(dp29
g5
I1728
sg6
I81
sg7
I22
sg8
I41
sg9
I3
sg10
I0
sg11
I840
sssS'Danijel.csv'
p30
(dp31
g3
(dp32
g5
I1344
sg6
I39
sg7
I7
sg8
I8
sg9
I2
sg10
I1
sg11
I830
ssg12
(dp33
g5
I150
sg6
I10
sg7
I3
sg8
I0
sg9
I35
sg10
I0
sg11
I100
ssg14
(dp34
g5
I1780
sg6
I31
sg7
I16
sg8
I0
sg9
I1
sg10
I2
sg11
I1780
ssg16
(dp35
g5
I2083
sg6
I34
sg7
I12
sg8
I17
sg9
I2
sg10
I0
sg11
I1030
sss.(dp0
S'K_all3.csv'
p1
(dp2
S'machine'
p3
(dp4
S'count'
p5
I687
sS'truepos'
p6
I32
sS'falseneg'
p7
I4
sS'correction'
p8
I4
sS'unknownyes'
p9
I9
sS'falsepos'
p10
I9
sS'unique'
p11
I440
ssS'knee'
p12
(dp13
g5
I1647
sg6
I38
sg7
I6
sg8
I12
sg9
I1
sg10
I6
sg11
I1240
ssS'none'
p14
(dp15
g5
I550
sg6
I26
sg7
I12
sg8
I0
sg9
I7
sg10
I2
sg11
I550
ssS'three'
p16
(dp17
g5
I1106
sg6
I30
sg7
I10
sg8
I23
sg9
I5
sg10
I1
sg11
I540
sssS'Wahono.csv'
p18
(dp19
g3
(dp20
g5
I2166
sg6
I54
sg7
I6
sg8
I16
sg9
I2
sg10
I8
sg11
I1420
ssg12
(dp21
g5
I169
sg6
I17
sg7
I5
sg8
I4
sg9
I40
sg10
I0
sg11
I120
ssg14
(dp22
g5
I1780
sg6
I50
sg7
I10
sg8
I0
sg9
I2
sg10
I4
sg11
I1780
ssg16
(dp23
g5
I2729
sg6
I51
sg7
I9
sg8
I26
sg9
I2
sg10
I0
sg11
I1350
sssS'Hall.csv'
p24
(dp25
g3
(dp26
g5
I789
sg6
I93
sg7
I9
sg8
I24
sg9
I4
sg10
I2
sg11
I550
ssg12
(dp27
g5
I785
sg6
I81
sg7
I20
sg8
I22
sg9
I5
sg10
I0
sg11
I520
ssg14
(dp28
g5
I1190
sg6
I72
sg7
I31
sg8
I0
sg9
I3
sg10
I6
sg11
I1190
ssg16
(dp29
g5
I1183
sg6
I79
sg7
I23
sg8
I39
sg9
I4
sg10
I0
sg11
I570
sssS'Danijel.csv'
p30
(dp31
g3
(dp32
g5
I1271
sg6
I40
sg7
I4
sg8
I7
sg9
I4
sg10
I3
sg11
I780
ssg12
(dp33
g5
I543
sg6
I36
sg7
I5
sg8
I7
sg9
I7
sg10
I0
sg11
I340
ssg14
(dp34
g5
I1170
sg6
I34
sg7
I12
sg8
I0
sg9
I2
sg10
I2
sg11
I1170
ssg16
(dp35
g5
I1838
sg6
I38
sg7
I7
sg8
I17
sg9
I3
sg10
I0
sg11
I910
sss.(dp0
S'K_all3.csv'
p1
(dp2
S'machine'
p3
(dp4
S'count'
p5
I632
sS'truepos'
p6
I33
sS'falseneg'
p7
I3
sS'correction'
p8
I5
sS'unknownyes'
p9
I9
sS'falsepos'
p10
I6
sS'unique'
p11
I430
ssS'knee'
p12
(dp13
g5
I1306
sg6
I36
sg7
I7
sg8
I8
sg9
I2
sg10
I9
sg11
I920
ssS'none'
p14
(dp15
g5
I630
sg6
I26
sg7
I15
sg8
I0
sg9
I4
sg10
I5
sg11
I630
ssS'three'
p16
(dp17
g5
I1251
sg6
I34
sg7
I8
sg8
I30
sg9
I3
sg10
I0
sg11
I610
sssS'Wahono.csv'
p18
(dp19
g3
(dp20
g5
I2091
sg6
I57
sg7
I4
sg8
I22
sg9
I1
sg10
I6
sg11
I1390
ssg12
(dp21
g5
I743
sg6
I40
sg7
I8
sg8
I8
sg9
I14
sg10
I1
sg11
I590
ssg14
(dp22
g5
I1610
sg6
I38
sg7
I21
sg8
I0
sg9
I3
sg10
I4
sg11
I1610
ssg16
(dp23
g5
I2987
sg6
I52
sg7
I7
sg8
I23
sg9
I3
sg10
I0
sg11
I1480
sssS'Hall.csv'
p24
(dp25
g3
(dp26
g5
I998
sg6
I90
sg7
I12
sg8
I25
sg9
I4
sg10
I1
sg11
I720
ssg12
(dp27
g5
I575
sg6
I88
sg7
I12
sg8
I21
sg9
I6
sg10
I2
sg11
I410
ssg14
(dp28
g5
I1090
sg6
I72
sg7
I30
sg8
I0
sg9
I4
sg10
I5
sg11
I1090
ssg16
(dp29
g5
I1966
sg6
I81
sg7
I21
sg8
I40
sg9
I4
sg10
I0
sg11
I960
sssS'Danijel.csv'
p30
(dp31
g3
(dp32
g5
I1257
sg6
I38
sg7
I7
sg8
I10
sg9
I3
sg10
I2
sg11
I850
ssg12
(dp33
g5
I277
sg6
I29
sg7
I3
sg8
I5
sg9
I16
sg10
I0
sg11
I180
ssg14
(dp34
g5
I1140
sg6
I33
sg7
I13
sg8
I0
sg9
I2
sg10
I3
sg11
I1140
ssg16
(dp35
g5
I2107
sg6
I34
sg7
I12
sg8
I25
sg9
I2
sg10
I0
sg11
I1040
sss.(dp0
S'K_all3.csv'
p1
(dp2
S'machine'
p3
(dp4
S'count'
p5
I578
sS'truepos'
p6
I34
sS'falseneg'
p7
I3
sS'correction'
p8
I6
sS'unknownyes'
p9
I8
sS'falsepos'
p10
I4
sS'unique'
p11
I410
ssS'knee'
p12
(dp13
g5
I37
sg6
I5
sg7
I2
sg8
I2
sg9
I38
sg10
I0
sg11
I30
ssS'none'
p14
(dp15
g5
I630
sg6
I30
sg7
I9
sg8
I0
sg9
I6
sg10
I2
sg11
I630
ssS'three'
p16
(dp17
g5
I1292
sg6
I34
sg7
I9
sg8
I28
sg9
I2
sg10
I0
sg11
I630
sssS'Wahono.csv'
p18
(dp19
g3
(dp20
g5
I2362
sg6
I51
sg7
I9
sg8
I14
sg9
I2
sg10
I8
sg11
I1500
ssg12
(dp21
g5
I946
sg6
I45
sg7
I13
sg8
I4
sg9
I4
sg10
I2
sg11
I780
ssg14
(dp22
g5
I1750
sg6
I47
sg7
I13
sg8
I0
sg9
I2
sg10
I4
sg11
I1750
ssg16
(dp23
g5
I2791
sg6
I44
sg7
I15
sg8
I28
sg9
I3
sg10
I0
sg11
I1380
sssS'Hall.csv'
p24
(dp25
g3
(dp26
g5
I677
sg6
I96
sg7
I6
sg8
I19
sg9
I4
sg10
I1
sg11
I470
ssg12
(dp27
g5
I805
sg6
I78
sg7
I24
sg8
I10
sg9
I4
sg10
I2
sg11
I620
ssg14
(dp28
g5
I780
sg6
I77
sg7
I25
sg8
I0
sg9
I4
sg10
I4
sg11
I780
ssg16
(dp29
g5
I1810
sg6
I80
sg7
I23
sg8
I42
sg9
I3
sg10
I0
sg11
I880
sssS'Danijel.csv'
p30
(dp31
g3
(dp32
g5
I1338
sg6
I41
sg7
I5
sg8
I7
sg9
I2
sg10
I6
sg11
I780
ssg12
(dp33
g5
I565
sg6
I34
sg7
I5
sg8
I6
sg9
I9
sg10
I0
sg11
I370
ssg14
(dp34
g5
I1690
sg6
I31
sg7
I16
sg8
I0
sg9
I1
sg10
I3
sg11
I1690
ssg16
(dp35
g5
I2361
sg6
I34
sg7
I13
sg8
I18
sg9
I1
sg10
I0
sg11
I1170
sss.(dp0
S'K_all3.csv'
p1
(dp2
S'machine'
p3
(dp4
S'count'
p5
I740
sS'truepos'
p6
I31
sS'falseneg'
p7
I8
sS'correction'
p8
I7
sS'unknownyes'
p9
I6
sS'falsepos'
p10
I5
sS'unique'
p11
I490
ssS'knee'
p12
(dp13
g5
I619
sg6
I31
sg7
I6
sg8
I5
sg9
I8
sg10
I3
sg11
I440
ssS'none'
p14
(dp15
g5
I450
sg6
I31
sg7
I8
sg8
I0
sg9
I6
sg10
I1
sg11
I450
ssS'three'
p16
(dp17
g5
I1086
sg6
I29
sg7
I11
sg8
I23
sg9
I5
sg10
I0
sg11
I530
sssS'Wahono.csv'
p18
(dp19
g3
(dp20
g5
I1697
sg6
I56
sg7
I3
sg8
I17
sg9
I3
sg10
I4
sg11
I1050
ssg12
(dp21
g5
I138
sg6
I15
sg7
I6
sg8
I3
sg9
I41
sg10
I0
sg11
I90
ssg14
(dp22
g5
I1570
sg6
I35
sg7
I25
sg8
I0
sg9
I2
sg10
I7
sg11
I1570
ssg16
(dp23
g5
I2853
sg6
I52
sg7
I8
sg8
I30
sg9
I2
sg10
I0
sg11
I1410
sssS'Hall.csv'
p24
(dp25
g3
(dp26
g5
I858
sg6
I90
sg7
I12
sg8
I24
sg9
I4
sg10
I3
sg11
I630
ssg12
(dp27
g5
I606
sg6
I94
sg7
I6
sg8
I26
sg9
I6
sg10
I0
sg11
I390
ssg14
(dp28
g5
I1550
sg6
I71
sg7
I32
sg8
I0
sg9
I3
sg10
I4
sg11
I1550
ssg16
(dp29
g5
I1585
sg6
I79
sg7
I23
sg8
I37
sg9
I4
sg10
I0
sg11
I770
sssS'Danijel.csv'
p30
(dp31
g3
(dp32
g5
I1624
sg6
I42
sg7
I4
sg8
I7
sg9
I2
sg10
I5
sg11
I1010
ssg12
(dp33
g5
I736
sg6
I37
sg7
I5
sg8
I8
sg9
I6
sg10
I0
sg11
I500
ssg14
(dp34
g5
I1440
sg6
I32
sg7
I14
sg8
I0
sg9
I2
sg10
I3
sg11
I1440
ssg16
(dp35
g5
I3025
sg6
I35
sg7
I11
sg8
I20
sg9
I2
sg10
I0
sg11
I1500
sss.(dp0
S'K_all3.csv'
p1
(dp2
S'machine'
p3
(dp4
S'count'
p5
I696
sS'truepos'
p6
I34
sS'falseneg'
p7
I5
sS'correction'
p8
I6
sS'unknownyes'
p9
I6
sS'falsepos'
p10
I5
sS'unique'
p11
I450
ssS'knee'
p12
(dp13
g5
I619
sg6
I29
sg7
I10
sg8
I3
sg9
I6
sg10
I4
sg11
I460
ssS'none'
p14
(dp15
g5
I690
sg6
I24
sg7
I14
sg8
I0
sg9
I7
sg10
I3
sg11
I690
ssS'three'
p16
(dp17
g5
I1067
sg6
I33
sg7
I8
sg8
I25
sg9
I4
sg10
I0
sg11
I520
sssS'Wahono.csv'
p18
(dp19
g3
(dp20
g5
I1951
sg6
I55
sg7
I5
sg8
I12
sg9
I2
sg10
I7
sg11
I1300
ssg12
(dp21
g5
I979
sg6
I45
sg7
I11
sg8
I12
sg9
I6
sg10
I0
sg11
I750
ssg14
(dp22
g5
I1650
sg6
I36
sg7
I23
sg8
I0
sg9
I3
sg10
I2
sg11
I1650
ssg16
(dp23
g5
I3219
sg6
I46
sg7
I13
sg8
I34
sg9
I3
sg10
I0
sg11
I1590
sssS'Hall.csv'
p24
(dp25
g3
(dp26
g5
I673
sg6
I96
sg7
I6
sg8
I14
sg9
I4
sg10
I2
sg11
I480
ssg12
(dp27
g5
I853
sg6
I94
sg7
I8
sg8
I24
sg9
I4
sg10
I0
sg11
I610
ssg14
(dp28
g5
I1590
sg6
I70
sg7
I33
sg8
I0
sg9
I3
sg10
I6
sg11
I1590
ssg16
(dp29
g5
I954
sg6
I81
sg7
I20
sg8
I44
sg9
I5
sg10
I1
sg11
I450
sssS'Danijel.csv'
p30
(dp31
g3
(dp32
g5
I1541
sg6
I37
sg7
I9
sg8
I5
sg9
I2
sg10
I6
sg11
I950
ssg12
(dp33
g5
I326
sg6
I30
sg7
I4
sg8
I4
sg9
I14
sg10
I0
sg11
I210
ssg14
(dp34
g5
I1220
sg6
I33
sg7
I14
sg8
I0
sg9
I1
sg10
I3
sg11
I1220
ssg16
(dp35
g5
I2396
sg6
I36
sg7
I10
sg8
I13
sg9
I2
sg10
I0
sg11
I1190
sss.(dp0
S'K_all3.csv'
p1
(dp2
S'machine'
p3
(dp4
S'count'
p5
I774
sS'truepos'
p6
I32
sS'falseneg'
p7
I5
sS'correction'
p8
I7
sS'unknownyes'
p9
I8
sS'falsepos'
p10
I6
sS'unique'
p11
I490
ssS'knee'
p12
(dp13
g5
I46
sg6
I6
sg7
I3
sg8
I0
sg9
I36
sg10
I0
sg11
I40
ssS'none'
p14
(dp15
g5
I480
sg6
I33
sg7
I6
sg8
I0
sg9
I6
sg10
I8
sg11
I480
ssS'three'
p16
(dp17
g5
I1133
sg6
I35
sg7
I6
sg8
I33
sg9
I4
sg10
I0
sg11
I550
sssS'Wahono.csv'
p18
(dp19
g3
(dp20
g5
I2052
sg6
I55
sg7
I5
sg8
I15
sg9
I2
sg10
I8
sg11
I1320
ssg12
(dp21
g5
I1465
sg6
I46
sg7
I13
sg8
I15
sg9
I3
sg10
I0
sg11
I1190
ssg14
(dp22
g5
I1640
sg6
I42
sg7
I18
sg8
I0
sg9
I2
sg10
I4
sg11
I1640
ssg16
(dp23
g5
I2782
sg6
I42
sg7
I18
sg8
I39
sg9
I2
sg10
I0
sg11
I1370
sssS'Hall.csv'
p24
(dp25
g3
(dp26
g5
I1054
sg6
I90
sg7
I12
sg8
I15
sg9
I4
sg10
I3
sg11
I820
ssg12
(dp27
g5
I767
sg6
I87
sg7
I15
sg8
I20
sg9
I4
sg10
I4
sg11
I570
ssg14
(dp28
g5
I630
sg6
I77
sg7
I25
sg8
I0
sg9
I4
sg10
I0
sg11
I630
ssg16
(dp29
g5
I1986
sg6
I75
sg7
I27
sg8
I40
sg9
I4
sg10
I0
sg11
I970
sssS'Danijel.csv'
p30
(dp31
g3
(dp32
g5
I1021
sg6
I41
sg7
I4
sg8
I9
sg9
I3
sg10
I0
sg11
I670
ssg12
(dp33
g5
I121
sg6
I6
sg7
I5
sg8
I0
sg9
I37
sg10
I0
sg11
I110
ssg14
(dp34
g5
I1060
sg6
I36
sg7
I10
sg8
I0
sg9
I2
sg10
I2
sg11
I1060
ssg16
(dp35
g5
I2685
sg6
I36
sg7
I10
sg8
I22
sg9
I2
sg10
I0
sg11
I1330
sss.(dp0
S'K_all3.csv'
p1
(dp2
S'machine'
p3
(dp4
S'count'
p5
I745
sS'truepos'
p6
I31
sS'falseneg'
p7
I7
sS'correction'
p8
I4
sS'unknownyes'
p9
I7
sS'falsepos'
p10
I5
sS'unique'
p11
I490
ssS'knee'
p12
(dp13
g5
I156
sg6
I20
sg7
I1
sg8
I6
sg9
I24
sg10
I1
sg11
I100
ssS'none'
p14
(dp15
g5
I500
sg6
I30
sg7
I11
sg8
I0
sg9
I4
sg10
I4
sg11
I500
ssS'three'
p16
(dp17
g5
I1201
sg6
I30
sg7
I11
sg8
I19
sg9
I4
sg10
I0
sg11
I590
sssS'Wahono.csv'
p18
(dp19
g3
(dp20
g5
I2538
sg6
I52
sg7
I8
sg8
I7
sg9
I2
sg10
I11
sg11
I1620
ssg12
(dp21
g5
I1162
sg6
I45
sg7
I13
sg8
I11
sg9
I4
sg10
I3
sg11
I850
ssg14
(dp22
g5
I2010
sg6
I40
sg7
I20
sg8
I0
sg9
I2
sg10
I11
sg11
I2010
ssg16
(dp23
g5
I3037
sg6
I50
sg7
I11
sg8
I36
sg9
I1
sg10
I0
sg11
I1500
sssS'Hall.csv'
p24
(dp25
g3
(dp26
g5
I871
sg6
I92
sg7
I11
sg8
I21
sg9
I3
sg10
I6
sg11
I640
ssg12
(dp27
g5
I556
sg6
I77
sg7
I18
sg8
I15
sg9
I11
sg10
I1
sg11
I380
ssg14
(dp28
g5
I1110
sg6
I67
sg7
I36
sg8
I0
sg9
I3
sg10
I0
sg11
I1110
ssg16
(dp29
g5
I1435
sg6
I89
sg7
I14
sg8
I50
sg9
I3
sg10
I0
sg11
I690
sssS'Danijel.csv'
p30
(dp31
g3
(dp32
g5
I1168
sg6
I43
sg7
I2
sg8
I7
sg9
I3
sg10
I1
sg11
I760
ssg12
(dp33
g5
I368
sg6
I30
sg7
I5
sg8
I6
sg9
I13
sg10
I0
sg11
I240
ssg14
(dp34
g5
I920
sg6
I37
sg7
I9
sg8
I0
sg9
I2
sg10
I3
sg11
I920
ssg16
(dp35
g5
I2488
sg6
I32
sg7
I14
sg8
I22
sg9
I2
sg10
I0
sg11
I1230
sss.(dp0
S'K_all3.csv'
p1
(dp2
S'machine'
p3
(dp4
S'count'
p5
I654
sS'truepos'
p6
I36
sS'falseneg'
p7
I3
sS'correction'
p8
I8
sS'unknownyes'
p9
I6
sS'falsepos'
p10
I4
sS'unique'
p11
I420
ssS'knee'
p12
(dp13
g5
I2155
sg6
I42
sg7
I3
sg8
I19
sg9
I0
sg10
I10
sg11
I1650
ssS'none'
p14
(dp15
g5
I560
sg6
I27
sg7
I14
sg8
I0
sg9
I4
sg10
I4
sg11
I560
ssS'three'
p16
(dp17
g5
I1085
sg6
I34
sg7
I5
sg8
I23
sg9
I6
sg10
I0
sg11
I530
sssS'Wahono.csv'
p18
(dp19
g3
(dp20
g5
I2139
sg6
I52
sg7
I7
sg8
I17
sg9
I3
sg10
I7
sg11
I1390
ssg12
(dp21
g5
I823
sg6
I43
sg7
I8
sg8
I8
sg9
I11
sg10
I2
sg11
I590
ssg14
(dp22
g5
I1690
sg6
I40
sg7
I21
sg8
I0
sg9
I1
sg10
I3
sg11
I1690
ssg16
(dp23
g5
I2532
sg6
I50
sg7
I9
sg8
I30
sg9
I3
sg10
I0
sg11
I1250
sssS'Hall.csv'
p24
(dp25
g3
(dp26
g5
I855
sg6
I87
sg7
I15
sg8
I18
sg9
I4
sg10
I3
sg11
I600
ssg12
(dp27
g5
I669
sg6
I86
sg7
I14
sg8
I20
sg9
I6
sg10
I2
sg11
I480
ssg14
(dp28
g5
I1370
sg6
I72
sg7
I30
sg8
I0
sg9
I4
sg10
I6
sg11
I1370
ssg16
(dp29
g5
I1361
sg6
I78
sg7
I24
sg8
I36
sg9
I4
sg10
I0
sg11
I660
sssS'Danijel.csv'
p30
(dp31
g3
(dp32
g5
I1416
sg6
I38
sg7
I7
sg8
I7
sg9
I3
sg10
I2
sg11
I880
ssg12
(dp33
g5
I1545
sg6
I43
sg7
I4
sg8
I10
sg9
I1
sg10
I1
sg11
I1140
ssg14
(dp34
g5
I1600
sg6
I29
sg7
I17
sg8
I0
sg9
I2
sg10
I2
sg11
I1600
ssg16
(dp35
g5
I1500
sg6
I41
sg7
I4
sg8
I19
sg9
I3
sg10
I0
sg11
I740
sss.(dp0
S'K_all3.csv'
p1
(dp2
S'machine'
p3
(dp4
S'count'
p5
I675
sS'truepos'
p6
I34
sS'falseneg'
p7
I5
sS'correction'
p8
I10
sS'unknownyes'
p9
I6
sS'falsepos'
p10
I8
sS'unique'
p11
I450
ssS'knee'
p12
(dp13
g5
I1264
sg6
I40
sg7
I4
sg8
I12
sg9
I1
sg10
I5
sg11
I860
ssS'none'
p14
(dp15
g5
I550
sg6
I24
sg7
I14
sg8
I0
sg9
I7
sg10
I6
sg11
I550
ssS'three'
p16
(dp17
g5
I1048
sg6
I30
sg7
I8
sg8
I26
sg9
I7
sg10
I0
sg11
I510
sssS'Wahono.csv'
p18
(dp19
g3
(dp20
g5
I3668
sg6
I52
sg7
I9
sg8
I23
sg9
I1
sg10
I12
sg11
I2480
ssg12
(dp21
g5
I113
sg6
I11
sg7
I5
sg8
I4
sg9
I46
sg10
I0
sg11
I80
ssg14
(dp22
g5
I2000
sg6
I42
sg7
I19
sg8
I0
sg9
I1
sg10
I8
sg11
I2000
ssg16
(dp23
g5
I2695
sg6
I47
sg7
I13
sg8
I31
sg9
I2
sg10
I0
sg11
I1330
sssS'Hall.csv'
p24
(dp25
g3
(dp26
g5
I652
sg6
I91
sg7
I10
sg8
I21
sg9
I5
sg10
I4
sg11
I460
ssg12
(dp27
g5
I644
sg6
I81
sg7
I20
sg8
I14
sg9
I5
sg10
I0
sg11
I490
ssg14
(dp28
g5
I950
sg6
I73
sg7
I29
sg8
I0
sg9
I4
sg10
I3
sg11
I950
ssg16
(dp29
g5
I1239
sg6
I80
sg7
I22
sg8
I33
sg9
I4
sg10
I0
sg11
I600
sssS'Danijel.csv'
p30
(dp31
g3
(dp32
g5
I1241
sg6
I40
sg7
I5
sg8
I12
sg9
I3
sg10
I2
sg11
I810
ssg12
(dp33
g5
I900
sg6
I37
sg7
I7
sg8
I6
sg9
I4
sg10
I2
sg11
I580
ssg14
(dp34
g5
I1210
sg6
I35
sg7
I11
sg8
I0
sg9
I2
sg10
I2
sg11
I1210
ssg16
(dp35
g5
I2703
sg6
I32
sg7
I14
sg8
I20
sg9
I2
sg10
I0
sg11
I1340
sss.