(dp0
S'K_all3.csv'
p1
(dp2
S'none'
p3
(dp4
S'count'
p5
I470
sS'truepos'
p6
I32
sS'falseneg'
p7
I3
sS'correction'
p8
I0
sS'unknownyes'
p9
I10
sS'falsepos'
p10
I27
sS'unique'
p11
I470
ssS'three'
p12
(dp13
g5
I1044
sg6
I37
sg7
I0
sg8
I81
sg9
I8
sg10
I14
sg11
I480
ssS'machine'
p14
(dp15
g5
I640
sg6
I33
sg7
I3
sg8
I43
sg9
I9
sg10
I2
sg11
I510
ssS'machine4'
p16
(dp17
g5
I400
sg6
I34
sg7
I3
sg8
I0
sg9
I8
sg10
I35
sg11
I400
ssS'machine3'
p18
(dp19
g5
I527
sg6
I24
sg7
I5
sg8
I40
sg9
I16
sg10
I11
sg11
I390
ssS'machine2'
p20
(dp21
g5
I567
sg6
I28
sg7
I6
sg8
I41
sg9
I11
sg10
I7
sg11
I410
sssS'Wahono.csv'
p22
(dp23
g3
(dp24
g5
I2950
sg6
I56
sg7
I5
sg8
I0
sg9
I1
sg10
I269
sg11
I2950
ssg12
(dp25
g5
I3671
sg6
I58
sg7
I2
sg8
I279
sg9
I2
sg10
I50
sg11
I1690
ssg14
(dp26
g5
I2083
sg6
I54
sg7
I5
sg8
I156
sg9
I3
sg10
I28
sg11
I1560
ssg16
(dp27
g5
I3030
sg6
I53
sg7
I6
sg8
I0
sg9
I3
sg10
I289
sg11
I3030
ssg18
(dp28
g5
I1885
sg6
I57
sg7
I2
sg8
I142
sg9
I3
sg10
I17
sg11
I1320
ssg20
(dp29
g5
I2000
sg6
I55
sg7
I3
sg8
I145
sg9
I4
sg10
I24
sg11
I1410
sssS'Hall.csv'
p30
(dp31
g3
(dp32
g5
I2010
sg6
I94
sg7
I10
sg8
I0
sg9
I2
sg10
I180
sg11
I2010
ssg12
(dp33
g5
I1377
sg6
I98
sg7
I4
sg8
I109
sg9
I4
sg10
I16
sg11
I630
ssg14
(dp34
g5
I903
sg6
I101
sg7
I1
sg8
I66
sg9
I4
sg10
I13
sg11
I650
ssg16
(dp35
g5
I3270
sg6
I94
sg7
I11
sg8
I0
sg9
I1
sg10
I325
sg11
I3270
ssg18
(dp36
g5
I1160
sg6
I99
sg7
I4
sg8
I88
sg9
I3
sg10
I11
sg11
I760
ssg20
(dp37
g5
I781
sg6
I99
sg7
I3
sg8
I49
sg9
I4
sg10
I12
sg11
I530
sssS'Danijel.csv'
p38
(dp39
g3
(dp40
g5
I2630
sg6
I38
sg7
I8
sg8
I0
sg9
I2
sg10
I255
sg11
I2630
ssg12
(dp41
g5
I1905
sg6
I46
sg7
I0
sg8
I158
sg9
I2
sg10
I27
sg11
I870
ssg14
(dp42
g5
I1017
sg6
I41
sg7
I4
sg8
I76
sg9
I3
sg10
I13
sg11
I760
ssg16
(dp43
g5
I1910
sg6
I42
sg7
I2
sg8
I0
sg9
I4
sg10
I174
sg11
I1910
ssg18
(dp44
g5
I1047
sg6
I43
sg7
I2
sg8
I80
sg9
I3
sg10
I8
sg11
I730
ssg20
(dp45
g5
I1017
sg6
I40
sg7
I4
sg8
I77
sg9
I4
sg10
I9
sg11
I710
sss.(dp0
S'K_all3.csv'
p1
(dp2
S'none'
p3
(dp4
S'count'
p5
I470
sS'truepos'
p6
I37
sS'falseneg'
p7
I1
sS'correction'
p8
I0
sS'unknownyes'
p9
I7
sS'falsepos'
p10
I43
sS'unique'
p11
I470
ssS'three'
p12
(dp13
g5
I901
sg6
I33
sg7
I0
sg8
I56
sg9
I12
sg10
I11
sg11
I420
ssS'machine'
p14
(dp15
g5
I576
sg6
I35
sg7
I3
sg8
I34
sg9
I7
sg10
I8
sg11
I460
ssS'machine4'
p16
(dp17
g5
I530
sg6
I37
sg7
I3
sg8
I0
sg9
I5
sg10
I56
sg11
I530
ssS'machine3'
p18
(dp19
g5
I565
sg6
I33
sg7
I1
sg8
I33
sg9
I11
sg10
I7
sg11
I420
ssS'machine2'
p20
(dp21
g5
I892
sg6
I34
sg7
I2
sg8
I55
sg9
I9
sg10
I18
sg11
I660
sssS'Wahono.csv'
p22
(dp23
g3
(dp24
g5
I3470
sg6
I50
sg7
I11
sg8
I0
sg9
I1
sg10
I330
sg11
I3470
ssg12
(dp25
g5
I5321
sg6
I59
sg7
I0
sg8
I435
sg9
I3
sg10
I78
sg11
I2430
ssg14
(dp26
g5
I1873
sg6
I54
sg7
I5
sg8
I144
sg9
I3
sg10
I22
sg11
I1410
ssg16
(dp27
g5
I2810
sg6
I51
sg7
I9
sg8
I0
sg9
I2
sg10
I263
sg11
I2810
ssg18
(dp28
g5
I2039
sg6
I56
sg7
I2
sg8
I161
sg9
I4
sg10
I25
sg11
I1410
ssg20
(dp29
g5
I2207
sg6
I52
sg7
I6
sg8
I150
sg9
I4
sg10
I36
sg11
I1560
sssS'Hall.csv'
p30
(dp31
g3
(dp32
g5
I3360
sg6
I96
sg7
I9
sg8
I0
sg9
I1
sg10
I303
sg11
I3360
ssg12
(dp33
g5
I1650
sg6
I98
sg7
I4
sg8
I146
sg9
I4
sg10
I11
sg11
I750
ssg14
(dp34
g5
I653
sg6
I93
sg7
I7
sg8
I36
sg9
I6
sg10
I6
sg11
I460
ssg16
(dp35
g5
I2090
sg6
I94
sg7
I9
sg8
I0
sg9
I3
sg10
I187
sg11
I2090
ssg18
(dp36
g5
I777
sg6
I99
sg7
I3
sg8
I42
sg9
I4
sg10
I6
sg11
I500
ssg20
(dp37
g5
I1129
sg6
I101
sg7
I1
sg8
I85
sg9
I4
sg10
I21
sg11
I760
sssS'Danijel.csv'
p38
(dp39
g3
(dp40
g5
I2090
sg6
I46
sg7
I1
sg8
I0
sg9
I1
sg10
I201
sg11
I2090
ssg12
(dp41
g5
I2297
sg6
I44
sg7
I1
sg8
I184
sg9
I3
sg10
I28
sg11
I1050
ssg14
(dp42
g5
I1260
sg6
I41
sg7
I4
sg8
I82
sg9
I3
sg10
I6
sg11
I960
ssg16
(dp43
g5
I2210
sg6
I43
sg7
I4
sg8
I0
sg9
I1
sg10
I204
sg11
I2210
ssg18
(dp44
g5
I1410
sg6
I40
sg7
I3
sg8
I110
sg9
I5
sg10
I17
sg11
I1000
ssg20
(dp45
g5
I1202
sg6
I43
sg7
I2
sg8
I90
sg9
I3
sg10
I9
sg11
I860
sss.(dp0
S'K_all3.csv'
p1
(dp2
S'none'
p3
(dp4
S'count'
p5
I540
sS'truepos'
p6
I34
sS'falseneg'
p7
I5
sS'correction'
p8
I0
sS'unknownyes'
p9
I6
sS'falsepos'
p10
I46
sS'unique'
p11
I540
ssS'three'
p12
(dp13
g5
I1172
sg6
I39
sg7
I0
sg8
I89
sg9
I6
sg10
I18
sg11
I540
ssS'machine'
p14
(dp15
g5
I550
sg6
I31
sg7
I5
sg8
I32
sg9
I9
sg10
I4
sg11
I430
ssS'machine4'
p16
(dp17
g5
I420
sg6
I33
sg7
I5
sg8
I0
sg9
I7
sg10
I30
sg11
I420
ssS'machine3'
p18
(dp19
g5
I611
sg6
I29
sg7
I3
sg8
I43
sg9
I13
sg10
I11
sg11
I440
ssS'machine2'
p20
(dp21
g5
I551
sg6
I33
sg7
I4
sg8
I30
sg9
I8
sg10
I7
sg11
I410
sssS'Wahono.csv'
p22
(dp23
g3
(dp24
g5
I3000
sg6
I52
sg7
I6
sg8
I0
sg9
I4
sg10
I278
sg11
I3000
ssg12
(dp25
g5
I2495
sg6
I59
sg7
I1
sg8
I206
sg9
I2
sg10
I25
sg11
I1140
ssg14
(dp26
g5
I1497
sg6
I56
sg7
I3
sg8
I130
sg9
I3
sg10
I9
sg11
I1110
ssg16
(dp27
g5
I3500
sg6
I52
sg7
I8
sg8
I0
sg9
I2
sg10
I355
sg11
I3500
ssg18
(dp28
g5
I2407
sg6
I58
sg7
I2
sg8
I183
sg9
I2
sg10
I34
sg11
I1680
ssg20
(dp29
g5
I2086
sg6
I55
sg7
I4
sg8
I148
sg9
I3
sg10
I34
sg11
I1460
sssS'Hall.csv'
p30
(dp31
g3
(dp32
g5
I3500
sg6
I94
sg7
I10
sg8
I0
sg9
I2
sg10
I340
sg11
I3500
ssg12
(dp33
g5
I1819
sg6
I100
sg7
I2
sg8
I146
sg9
I4
sg10
I25
sg11
I830
ssg14
(dp34
g5
I751
sg6
I92
sg7
I8
sg8
I56
sg9
I6
sg10
I19
sg11
I540
ssg16
(dp35
g5
I1500
sg6
I97
sg7
I6
sg8
I0
sg9
I3
sg10
I133
sg11
I1500
ssg18
(dp36
g5
I782
sg6
I98
sg7
I3
sg8
I47
sg9
I5
sg10
I14
sg11
I500
ssg20
(dp37
g5
I865
sg6
I98
sg7
I3
sg8
I54
sg9
I5
sg10
I13
sg11
I580
sssS'Danijel.csv'
p38
(dp39
g3
(dp40
g5
I2570
sg6
I39
sg7
I7
sg8
I0
sg9
I2
sg10
I252
sg11
I2570
ssg12
(dp41
g5
I1864
sg6
I44
sg7
I1
sg8
I137
sg9
I3
sg10
I15
sg11
I860
ssg14
(dp42
g5
I1539
sg6
I41
sg7
I4
sg8
I131
sg9
I3
sg10
I17
sg11
I1160
ssg16
(dp43
g5
I2630
sg6
I40
sg7
I6
sg8
I0
sg9
I2
sg10
I268
sg11
I2630
ssg18
(dp44
g5
I1404
sg6
I45
sg7
I0
sg8
I95
sg9
I3
sg10
I15
sg11
I1010
ssg20
(dp45
g5
I1572
sg6
I43
sg7
I3
sg8
I111
sg9
I2
sg10
I24
sg11
I1110
sss.(dp0
S'K_all3.csv'
p1
(dp2
S'none'
p3
(dp4
S'count'
p5
I610
sS'truepos'
p6
I32
sS'falseneg'
p7
I5
sS'correction'
p8
I0
sS'unknownyes'
p9
I8
sS'falsepos'
p10
I64
sS'unique'
p11
I610
ssS'three'
p12
(dp13
g5
I1052
sg6
I37
sg7
I1
sg8
I86
sg9
I7
sg10
I21
sg11
I480
ssS'machine'
p14
(dp15
g5
I646
sg6
I31
sg7
I7
sg8
I43
sg9
I7
sg10
I8
sg11
I510
ssS'machine4'
p16
(dp17
g5
I530
sg6
I33
sg7
I1
sg8
I0
sg9
I11
sg10
I54
sg11
I530
ssS'machine3'
p18
(dp19
g5
I655
sg6
I33
sg7
I2
sg8
I51
sg9
I10
sg10
I8
sg11
I460
ssS'machine2'
p20
(dp21
g5
I532
sg6
I29
sg7
I3
sg8
I26
sg9
I13
sg10
I10
sg11
I410
sssS'Wahono.csv'
p22
(dp23
g3
(dp24
g5
I2880
sg6
I58
sg7
I3
sg8
I0
sg9
I1
sg10
I286
sg11
I2880
ssg12
(dp25
g5
I2613
sg6
I55
sg7
I3
sg8
I204
sg9
I4
sg10
I28
sg11
I1200
ssg14
(dp26
g5
I1738
sg6
I57
sg7
I2
sg8
I123
sg9
I3
sg10
I13
sg11
I1310
ssg16
(dp27
g5
I2620
sg6
I55
sg7
I4
sg8
I0
sg9
I3
sg10
I272
sg11
I2620
ssg18
(dp28
g5
I1445
sg6
I55
sg7
I4
sg8
I96
sg9
I3
sg10
I21
sg11
I1030
ssg20
(dp29
g5
I1971
sg6
I55
sg7
I4
sg8
I126
sg9
I3
sg10
I24
sg11
I1410
sssS'Hall.csv'
p30
(dp31
g3
(dp32
g5
I4210
sg6
I86
sg7
I19
sg8
I0
sg9
I1
sg10
I437
sg11
I4210
ssg12
(dp33
g5
I1447
sg6
I99
sg7
I3
sg8
I101
sg9
I4
sg10
I20
sg11
I670
ssg14
(dp34
g5
I631
sg6
I90
sg7
I11
sg8
I34
sg9
I5
sg10
I11
sg11
I460
ssg16
(dp35
g5
I580
sg6
I94
sg7
I8
sg8
I0
sg9
I4
sg10
I39
sg11
I580
ssg18
(dp36
g5
I868
sg6
I97
sg7
I5
sg8
I58
sg9
I4
sg10
I8
sg11
I550
ssg20
(dp37
g5
I967
sg6
I98
sg7
I4
sg8
I66
sg9
I4
sg10
I29
sg11
I650
sssS'Danijel.csv'
p38
(dp39
g3
(dp40
g5
I2340
sg6
I39
sg7
I5
sg8
I0
sg9
I4
sg10
I239
sg11
I2340
ssg12
(dp41
g5
I1850
sg6
I42
sg7
I3
sg8
I142
sg9
I3
sg10
I17
sg11
I850
ssg14
(dp42
g5
I1113
sg6
I43
sg7
I3
sg8
I85
sg9
I2
sg10
I11
sg11
I840
ssg16
(dp43
g5
I2690
sg6
I37
sg7
I7
sg8
I0
sg9
I4
sg10
I272
sg11
I2690
ssg18
(dp44
g5
I1290
sg6
I43
sg7
I3
sg8
I88
sg9
I2
sg10
I20
sg11
I930
ssg20
(dp45
g5
I1092
sg6
I40
sg7
I3
sg8
I81
sg9
I5
sg10
I16
sg11
I760
sss.(dp0
S'K_all3.csv'
p1
(dp2
S'none'
p3
(dp4
S'count'
p5
I450
sS'truepos'
p6
I26
sS'falseneg'
p7
I5
sS'correction'
p8
I0
sS'unknownyes'
p9
I14
sS'falsepos'
p10
I51
sS'unique'
p11
I450
ssS'three'
p12
(dp13
g5
I942
sg6
I33
sg7
I1
sg8
I76
sg9
I11
sg10
I10
sg11
I430
ssS'machine'
p14
(dp15
g5
I667
sg6
I35
sg7
I5
sg8
I54
sg9
I5
sg10
I7
sg11
I510
ssS'machine4'
p16
(dp17
g5
I610
sg6
I36
sg7
I5
sg8
I0
sg9
I4
sg10
I61
sg11
I610
ssS'machine3'
p18
(dp19
g5
I577
sg6
I34
sg7
I0
sg8
I42
sg9
I11
sg10
I5
sg11
I410
ssS'machine2'
p20
(dp21
g5
I550
sg6
I29
sg7
I1
sg8
I39
sg9
I15
sg10
I5
sg11
I410
sssS'Wahono.csv'
p22
(dp23
g3
(dp24
g5
I2760
sg6
I53
sg7
I6
sg8
I0
sg9
I3
sg10
I254
sg11
I2760
ssg12
(dp25
g5
I2810
sg6
I58
sg7
I1
sg8
I238
sg9
I3
sg10
I38
sg11
I1280
ssg14
(dp26
g5
I1558
sg6
I51
sg7
I6
sg8
I129
sg9
I5
sg10
I19
sg11
I1160
ssg16
(dp27
g5
I3530
sg6
I54
sg7
I6
sg8
I0
sg9
I2
sg10
I315
sg11
I3530
ssg18
(dp28
g5
I2410
sg6
I60
sg7
I1
sg8
I182
sg9
I1
sg10
I35
sg11
I1680
ssg20
(dp29
g5
I2136
sg6
I56
sg7
I3
sg8
I146
sg9
I3
sg10
I34
sg11
I1510
sssS'Hall.csv'
p30
(dp31
g3
(dp32
g5
I3360
sg6
I88
sg7
I14
sg8
I0
sg9
I4
sg10
I284
sg11
I3360
ssg12
(dp33
g5
I2872
sg6
I95
sg7
I8
sg8
I234
sg9
I3
sg10
I43
sg11
I1310
ssg14
(dp34
g5
I422
sg6
I89
sg7
I5
sg8
I24
sg9
I12
sg10
I15
sg11
I310
ssg16
(dp35
g5
I1840
sg6
I86
sg7
I16
sg8
I0
sg9
I4
sg10
I172
sg11
I1840
ssg18
(dp36
g5
I686
sg6
I94
sg7
I8
sg8
I45
sg9
I4
sg10
I3
sg11
I430
ssg20
(dp37
g5
I664
sg6
I93
sg7
I8
sg8
I37
sg9
I5
sg10
I10
sg11
I460
sssS'Danijel.csv'
p38
(dp39
g3
(dp40
g5
I2440
sg6
I40
sg7
I7
sg8
I0
sg9
I1
sg10
I239
sg11
I2440
ssg12
(dp41
g5
I1514
sg6
I42
sg7
I2
sg8
I107
sg9
I4
sg10
I20
sg11
I700
ssg14
(dp42
g5
I1276
sg6
I40
sg7
I5
sg8
I100
sg9
I3
sg10
I7
sg11
I960
ssg16
(dp43
g5
I2910
sg6
I43
sg7
I4
sg8
I0
sg9
I1
sg10
I286
sg11
I2910
ssg18
(dp44
g5
I1141
sg6
I43
sg7
I2
sg8
I76
sg9
I3
sg10
I15
sg11
I810
ssg20
(dp45
g5
I707
sg6
I41
sg7
I4
sg8
I48
sg9
I3
sg10
I11
sg11
I510
sss.(dp0
S'K_all3.csv'
p1
(dp2
S'none'
p3
(dp4
S'count'
p5
I830
sS'truepos'
p6
I35
sS'falseneg'
p7
I4
sS'correction'
p8
I0
sS'unknownyes'
p9
I6
sS'falsepos'
p10
I72
sS'unique'
p11
I830
ssS'three'
p12
(dp13
g5
I1042
sg6
I31
sg7
I0
sg8
I77
sg9
I14
sg10
I14
sg11
I480
ssS'machine'
p14
(dp15
g5
I627
sg6
I28
sg7
I6
sg8
I51
sg9
I11
sg10
I7
sg11
I500
ssS'machine4'
p16
(dp17
g5
I360
sg6
I29
sg7
I2
sg8
I0
sg9
I14
sg10
I36
sg11
I360
ssS'machine3'
p18
(dp19
g5
I577
sg6
I31
sg7
I3
sg8
I48
sg9
I11
sg10
I8
sg11
I410
ssS'machine2'
p20
(dp21
g5
I734
sg6
I32
sg7
I3
sg8
I59
sg9
I10
sg10
I8
sg11
I510
sssS'Wahono.csv'
p22
(dp23
g3
(dp24
g5
I3080
sg6
I52
sg7
I9
sg8
I0
sg9
I1
sg10
I291
sg11
I3080
ssg12
(dp25
g5
I2840
sg6
I60
sg7
I0
sg8
I244
sg9
I2
sg10
I35
sg11
I1290
ssg14
(dp26
g5
I1710
sg6
I57
sg7
I4
sg8
I152
sg9
I1
sg10
I18
sg11
I1260
ssg16
(dp27
g5
I3560
sg6
I53
sg7
I8
sg8
I0
sg9
I1
sg10
I362
sg11
I3560
ssg18
(dp28
g5
I2047
sg6
I59
sg7
I0
sg8
I171
sg9
I3
sg10
I30
sg11
I1410
ssg20
(dp29
g5
I2189
sg6
I55
sg7
I4
sg8
I175
sg9
I3
sg10
I31
sg11
I1510
sssS'Hall.csv'
p30
(dp31
g3
(dp32
g5
I2880
sg6
I94
sg7
I9
sg8
I0
sg9
I3
sg10
I308
sg11
I2880
ssg12
(dp33
g5
I1777
sg6
I100
sg7
I2
sg8
I149
sg9
I4
sg10
I23
sg11
I810
ssg14
(dp34
g5
I1072
sg6
I91
sg7
I11
sg8
I89
sg9
I4
sg10
I7
sg11
I760
ssg16
(dp35
g5
I2220
sg6
I93
sg7
I9
sg8
I0
sg9
I4
sg10
I193
sg11
I2220
ssg18
(dp36
g5
I714
sg6
I99
sg7
I3
sg8
I45
sg9
I4
sg10
I8
sg11
I450
ssg20
(dp37
g5
I719
sg6
I100
sg7
I2
sg8
I48
sg9
I4
sg10
I13
sg11
I490
sssS'Danijel.csv'
p38
(dp39
g3
(dp40
g5
I2800
sg6
I38
sg7
I8
sg8
I0
sg9
I2
sg10
I289
sg11
I2800
ssg12
(dp41
g5
I2258
sg6
I44
sg7
I0
sg8
I191
sg9
I4
sg10
I33
sg11
I1030
ssg14
(dp42
g5
I1428
sg6
I42
sg7
I2
sg8
I126
sg9
I4
sg10
I19
sg11
I1060
ssg16
(dp43
g5
I2180
sg6
I39
sg7
I9
sg8
I0
sg9
I0
sg10
I212
sg11
I2180
ssg18
(dp44
g5
I2242
sg6
I46
sg7
I1
sg8
I176
sg9
I1
sg10
I39
sg11
I1560
ssg20
(dp45
g5
I1231
sg6
I38
sg7
I3
sg8
I99
sg9
I7
sg10
I20
sg11
I850
sss.(dp0
S'K_all3.csv'
p1
(dp2
S'none'
p3
(dp4
S'count'
p5
I400
sS'truepos'
p6
I30
sS'falseneg'
p7
I3
sS'correction'
p8
I0
sS'unknownyes'
p9
I12
sS'falsepos'
p10
I38
sS'unique'
p11
I400
ssS'three'
p12
(dp13
g5
I847
sg6
I37
sg7
I1
sg8
I62
sg9
I7
sg10
I11
sg11
I390
ssS'machine'
p14
(dp15
g5
I566
sg6
I31
sg7
I2
sg8
I49
sg9
I12
sg10
I9
sg11
I420
ssS'machine4'
p16
(dp17
g5
I380
sg6
I30
sg7
I3
sg8
I0
sg9
I12
sg10
I29
sg11
I380
ssS'machine3'
p18
(dp19
g5
I662
sg6
I34
sg7
I1
sg8
I53
sg9
I10
sg10
I8
sg11
I470
ssS'machine2'
p20
(dp21
g5
I594
sg6
I31
sg7
I0
sg8
I40
sg9
I14
sg10
I6
sg11
I420
sssS'Wahono.csv'
p22
(dp23
g3
(dp24
g5
I3110
sg6
I52
sg7
I8
sg8
I0
sg9
I2
sg10
I305
sg11
I3110
ssg12
(dp25
g5
I3888
sg6
I56
sg7
I2
sg8
I292
sg9
I4
sg10
I48
sg11
I1790
ssg14
(dp26
g5
I1350
sg6
I58
sg7
I2
sg8
I105
sg9
I2
sg10
I8
sg11
I1010
ssg16
(dp27
g5
I2300
sg6
I49
sg7
I5
sg8
I0
sg9
I8
sg10
I214
sg11
I2300
ssg18
(dp28
g5
I2069
sg6
I57
sg7
I2
sg8
I164
sg9
I3
sg10
I22
sg11
I1430
ssg20
(dp29
g5
I2529
sg6
I55
sg7
I5
sg8
I197
sg9
I2
sg10
I43
sg11
I1760
sssS'Hall.csv'
p30
(dp31
g3
(dp32
g5
I2960
sg6
I92
sg7
I11
sg8
I0
sg9
I3
sg10
I273
sg11
I2960
ssg12
(dp33
g5
I1986
sg6
I94
sg7
I8
sg8
I155
sg9
I4
sg10
I24
sg11
I910
ssg14
(dp34
g5
I842
sg6
I96
sg7
I6
sg8
I60
sg9
I4
sg10
I19
sg11
I610
ssg16
(dp35
g5
I3970
sg6
I91
sg7
I12
sg8
I0
sg9
I3
sg10
I380
sg11
I3970
ssg18
(dp36
g5
I672
sg6
I95
sg7
I6
sg8
I34
sg9
I5
sg10
I9
sg11
I430
ssg20
(dp37
g5
I890
sg6
I100
sg7
I2
sg8
I54
sg9
I4
sg10
I8
sg11
I610
sssS'Danijel.csv'
p38
(dp39
g3
(dp40
g5
I3130
sg6
I47
sg7
I0
sg8
I0
sg9
I1
sg10
I332
sg11
I3130
ssg12
(dp41
g5
I2050
sg6
I43
sg7
I2
sg8
I161
sg9
I3
sg10
I29
sg11
I940
ssg14
(dp42
g5
I860
sg6
I36
sg7
I6
sg8
I47
sg9
I6
sg10
I7
sg11
I710
ssg16
(dp43
g5
I1330
sg6
I42
sg7
I3
sg8
I0
sg9
I3
sg10
I124
sg11
I1330
ssg18
(dp44
g5
I1128
sg6
I44
sg7
I1
sg8
I88
sg9
I3
sg10
I20
sg11
I790
ssg20
(dp45
g5
I1069
sg6
I43
sg7
I1
sg8
I70
sg9
I4
sg10
I18
sg11
I760
sss.(dp0
S'K_all3.csv'
p1
(dp2
S'none'
p3
(dp4
S'count'
p5
I540
sS'truepos'
p6
I26
sS'falseneg'
p7
I3
sS'correction'
p8
I0
sS'unknownyes'
p9
I16
sS'falsepos'
p10
I42
sS'unique'
p11
I540
ssS'three'
p12
(dp13
g5
I1091
sg6
I38
sg7
I0
sg8
I86
sg9
I7
sg10
I15
sg11
I500
ssS'machine'
p14
(dp15
g5
I587
sg6
I32
sg7
I4
sg8
I45
sg9
I9
sg10
I3
sg11
I460
ssS'machine4'
p16
(dp17
g5
I460
sg6
I26
sg7
I4
sg8
I0
sg9
I15
sg10
I53
sg11
I460
ssS'machine3'
p18
(dp19
g5
I601
sg6
I32
sg7
I0
sg8
I44
sg9
I13
sg10
I7
sg11
I420
ssS'machine2'
p20
(dp21
g5
I559
sg6
I35
sg7
I1
sg8
I32
sg9
I9
sg10
I8
sg11
I410
sssS'Wahono.csv'
p22
(dp23
g3
(dp24
g5
I3560
sg6
I55
sg7
I7
sg8
I0
sg9
I0
sg10
I345
sg11
I3560
ssg12
(dp25
g5
I3929
sg6
I61
sg7
I0
sg8
I326
sg9
I1
sg10
I56
sg11
I1790
ssg14
(dp26
g5
I1815
sg6
I53
sg7
I5
sg8
I151
sg9
I4
sg10
I19
sg11
I1360
ssg16
(dp27
g5
I2310
sg6
I53
sg7
I6
sg8
I0
sg9
I3
sg10
I245
sg11
I2310
ssg18
(dp28
g5
I2102
sg6
I58
sg7
I2
sg8
I158
sg9
I2
sg10
I33
sg11
I1470
ssg20
(dp29
g5
I1151
sg6
I48
sg7
I3
sg8
I75
sg9
I11
sg10
I19
sg11
I810
sssS'Hall.csv'
p30
(dp31
g3
(dp32
g5
I3990
sg6
I97
sg7
I8
sg8
I0
sg9
I1
sg10
I399
sg11
I3990
ssg12
(dp33
g5
I1368
sg6
I98
sg7
I4
sg8
I104
sg9
I4
sg10
I10
sg11
I630
ssg14
(dp34
g5
I832
sg6
I93
sg7
I9
sg8
I44
sg9
I4
sg10
I6
sg11
I600
ssg16
(dp35
g5
I2100
sg6
I95
sg7
I7
sg8
I0
sg9
I4
sg10
I234
sg11
I2100
ssg18
(dp36
g5
I1169
sg6
I100
sg7
I2
sg8
I75
sg9
I4
sg10
I13
sg11
I780
ssg20
(dp37
g5
I511
sg6
I97
sg7
I4
sg8
I21
sg9
I5
sg10
I15
sg11
I360
sssS'Danijel.csv'
p38
(dp39
g3
(dp40
g5
I1910
sg6
I41
sg7
I5
sg8
I0
sg9
I2
sg10
I172
sg11
I1910
ssg12
(dp41
g5
I1953
sg6
I43
sg7
I1
sg8
I165
sg9
I4
sg10
I27
sg11
I890
ssg14
(dp42
g5
I1261
sg6
I42
sg7
I2
sg8
I92
sg9
I4
sg10
I15
sg11
I960
ssg16
(dp43
g5
I3130
sg6
I42
sg7
I4
sg8
I0
sg9
I2
sg10
I341
sg11
I3130
ssg18
(dp44
g5
I1018
sg6
I43
sg7
I2
sg8
I70
sg9
I3
sg10
I14
sg11
I710
ssg20
(dp45
g5
I1241
sg6
I43
sg7
I2
sg8
I95
sg9
I3
sg10
I21
sg11
I860
sss.(dp0
S'K_all3.csv'
p1
(dp2
S'none'
p3
(dp4
S'count'
p5
I690
sS'truepos'
p6
I35
sS'falseneg'
p7
I4
sS'correction'
p8
I0
sS'unknownyes'
p9
I6
sS'falsepos'
p10
I64
sS'unique'
p11
I690
ssS'three'
p12
(dp13
g5
I916
sg6
I31
sg7
I1
sg8
I75
sg9
I13
sg10
I7
sg11
I420
ssS'machine'
p14
(dp15
g5
I589
sg6
I32
sg7
I4
sg8
I39
sg9
I9
sg10
I6
sg11
I460
ssS'machine4'
p16
(dp17
g5
I350
sg6
I30
sg7
I3
sg8
I0
sg9
I12
sg10
I28
sg11
I350
ssS'machine3'
p18
(dp19
g5
I668
sg6
I30
sg7
I6
sg8
I48
sg9
I9
sg10
I8
sg11
I510
ssS'machine2'
p20
(dp21
g5
I608
sg6
I33
sg7
I3
sg8
I40
sg9
I9
sg10
I6
sg11
I440
sssS'Wahono.csv'
p22
(dp23
g3
(dp24
g5
I3010
sg6
I56
sg7
I3
sg8
I0
sg9
I3
sg10
I274
sg11
I3010
ssg12
(dp25
g5
I2592
sg6
I58
sg7
I1
sg8
I185
sg9
I3
sg10
I27
sg11
I1200
ssg14
(dp26
g5
I1484
sg6
I57
sg7
I1
sg8
I109
sg9
I4
sg10
I15
sg11
I1110
ssg16
(dp27
g5
I2990
sg6
I55
sg7
I5
sg8
I0
sg9
I2
sg10
I301
sg11
I2990
ssg18
(dp28
g5
I2804
sg6
I58
sg7
I2
sg8
I192
sg9
I2
sg10
I38
sg11
I2000
ssg20
(dp29
g5
I2338
sg6
I56
sg7
I5
sg8
I155
sg9
I1
sg10
I34
sg11
I1660
sssS'Hall.csv'
p30
(dp31
g3
(dp32
g5
I1740
sg6
I94
sg7
I8
sg8
I0
sg9
I4
sg10
I176
sg11
I1740
ssg12
(dp33
g5
I1344
sg6
I98
sg7
I4
sg8
I117
sg9
I4
sg10
I19
sg11
I610
ssg14
(dp34
g5
I671
sg6
I93
sg7
I8
sg8
I40
sg9
I5
sg10
I15
sg11
I480
ssg16
(dp35
g5
I3770
sg6
I97
sg7
I7
sg8
I0
sg9
I2
sg10
I386
sg11
I3770
ssg18
(dp36
g5
I803
sg6
I98
sg7
I3
sg8
I50
sg9
I5
sg10
I8
sg11
I510
ssg20
(dp37
g5
I1016
sg6
I99
sg7
I3
sg8
I68
sg9
I4
sg10
I16
sg11
I680
sssS'Danijel.csv'
p38
(dp39
g3
(dp40
g5
I3280
sg6
I45
sg7
I1
sg8
I0
sg9
I2
sg10
I358
sg11
I3280
ssg12
(dp41
g5
I2470
sg6
I44
sg7
I1
sg8
I197
sg9
I3
sg10
I38
sg11
I1130
ssg14
(dp42
g5
I1081
sg6
I42
sg7
I2
sg8
I86
sg9
I4
sg10
I8
sg11
I810
ssg16
(dp43
g5
I1140
sg6
I39
sg7
I5
sg8
I0
sg9
I4
sg10
I106
sg11
I1140
ssg18
(dp44
g5
I1165
sg6
I45
sg7
I0
sg8
I78
sg9
I3
sg10
I15
sg11
I830
ssg20
(dp45
g5
I1527
sg6
I45
sg7
I1
sg8
I122
sg9
I2
sg10
I23
sg11
I1060
sss.(dp0
S'K_all3.csv'
p1
(dp2
S'none'
p3
(dp4
S'count'
p5
I390
sS'truepos'
p6
I34
sS'falseneg'
p7
I3
sS'correction'
p8
I0
sS'unknownyes'
p9
I8
sS'falsepos'
p10
I30
sS'unique'
p11
I390
ssS'three'
p12
(dp13
g5
I997
sg6
I33
sg7
I1
sg8
I75
sg9
I11
sg10
I10
sg11
I460
ssS'machine'
p14
(dp15
g5
I703
sg6
I31
sg7
I9
sg8
I53
sg9
I5
sg10
I5
sg11
I560
ssS'machine4'
p16
(dp17
g5
I520
sg6
I29
sg7
I5
sg8
I0
sg9
I11
sg10
I57
sg11
I520
ssS'machine3'
p18
(dp19
g5
I592
sg6
I31
sg7
I3
sg8
I44
sg9
I11
sg10
I9
sg11
I430
ssS'machine2'
p20
(dp21
g5
I684
sg6
I33
sg7
I2
sg8
I47
sg9
I10
sg10
I12
sg11
I470
sssS'Wahono.csv'
p22
(dp23
g3
(dp24
g5
I3500
sg6
I59
sg7
I1
sg8
I0
sg9
I2
sg10
I327
sg11
I3500
ssg12
(dp25
g5
I3061
sg6
I55
sg7
I2
sg8
I255
sg9
I5
sg10
I45
sg11
I1400
ssg14
(dp26
g5
I1415
sg6
I51
sg7
I6
sg8
I102
sg9
I5
sg10
I13
sg11
I1060
ssg16
(dp27
g5
I2930
sg6
I54
sg7
I4
sg8
I0
sg9
I4
sg10
I263
sg11
I2930
ssg18
(dp28
g5
I1956
sg6
I53
sg7
I3
sg8
I150
sg9
I6
sg10
I43
sg11
I1350
ssg20
(dp29
g5
I2306
sg6
I55
sg7
I4
sg8
I181
sg9
I3
sg10
I29
sg11
I1610
sssS'Hall.csv'
p30
(dp31
g3
(dp32
g5
I4020
sg6
I94
sg7
I11
sg8
I0
sg9
I1
sg10
I423
sg11
I4020
ssg12
(dp33
g5
I2654
sg6
I96
sg7
I7
sg8
I220
sg9
I3
sg10
I34
sg11
I1210
ssg14
(dp34
g5
I472
sg6
I90
sg7
I9
sg8
I28
sg9
I7
sg10
I7
sg11
I340
ssg16
(dp35
g5
I1500
sg6
I93
sg7
I10
sg8
I0
sg9
I3
sg10
I126
sg11
I1500
ssg18
(dp36
g5
I1009
sg6
I97
sg7
I5
sg8
I58
sg9
I4
sg10
I12
sg11
I660
ssg20
(dp37
g5
I764
sg6
I98
sg7
I4
sg8
I41
sg9
I4
sg10
I13
sg11
I510
sssS'Danijel.csv'
p38
(dp39
g3
(dp40
g5
I3390
sg6
I44
sg7
I3
sg8
I0
sg9
I1
sg10
I341
sg11
I3390
ssg12
(dp41
g5
I4401
sg6
I46
sg7
I0
sg8
I346
sg9
I2
sg10
I64
sg11
I2020
ssg14
(dp42
g5
I1224
sg6
I42
sg7
I2
sg8
I98
sg9
I4
sg10
I13
sg11
I910
ssg16
(dp43
g5
I1690
sg6
I40
sg7
I5
sg8
I0
sg9
I3
sg10
I169
sg11
I1690
ssg18
(dp44
g5
I1212
sg6
I43
sg7
I3
sg8
I78
sg9
I2
sg10
I14
sg11
I870
ssg20
(dp45
g5
I1221
sg6
I44
sg7
I0
sg8
I85
sg9
I4
sg10
I18
sg11
I860
sss.(dp0
S'K_all3.csv'
p1
(dp2
S'none'
p3
(dp4
S'count'
p5
I550
sS'truepos'
p6
I36
sS'falseneg'
p7
I1
sS'correction'
p8
I0
sS'unknownyes'
p9
I8
sS'falsepos'
p10
I42
sS'unique'
p11
I550
ssS'three'
p12
(dp13
g5
I1128
sg6
I30
sg7
I3
sg8
I83
sg9
I12
sg10
I16
sg11
I520
ssS'machine'
p14
(dp15
g5
I507
sg6
I28
sg7
I3
sg8
I32
sg9
I14
sg10
I7
sg11
I410
ssS'machine4'
p16
(dp17
g5
I510
sg6
I32
sg7
I7
sg8
I0
sg9
I6
sg10
I35
sg11
I510
ssS'machine3'
p18
(dp19
g5
I572
sg6
I29
sg7
I2
sg8
I36
sg9
I14
sg10
I9
sg11
I420
ssS'machine2'
p20
(dp21
g5
I750
sg6
I38
sg7
I1
sg8
I54
sg9
I6
sg10
I12
sg11
I520
sssS'Wahono.csv'
p22
(dp23
g3
(dp24
g5
I3050
sg6
I50
sg7
I11
sg8
I0
sg9
I1
sg10
I273
sg11
I3050
ssg12
(dp25
g5
I4711
sg6
I60
sg7
I1
sg8
I371
sg9
I1
sg10
I75
sg11
I2160
ssg14
(dp26
g5
I1886
sg6
I55
sg7
I4
sg8
I147
sg9
I3
sg10
I23
sg11
I1410
ssg16
(dp27
g5
I2410
sg6
I52
sg7
I7
sg8
I0
sg9
I3
sg10
I215
sg11
I2410
ssg18
(dp28
g5
I2492
sg6
I56
sg7
I4
sg8
I184
sg9
I2
sg10
I55
sg11
I1730
ssg20
(dp29
g5
I2725
sg6
I57
sg7
I2
sg8
I201
sg9
I3
sg10
I47
sg11
I1910
sssS'Hall.csv'
p30
(dp31
g3
(dp32
g5
I3210
sg6
I92
sg7
I12
sg8
I0
sg9
I2
sg10
I278
sg11
I3210
ssg12
(dp33
g5
I1692
sg6
I100
sg7
I2
sg8
I125
sg9
I4
sg10
I14
sg11
I780
ssg14
(dp34
g5
I752
sg6
I97
sg7
I4
sg8
I51
sg9
I5
sg10
I14
sg11
I540
ssg16
(dp35
g5
I3440
sg6
I96
sg7
I9
sg8
I0
sg9
I1
sg10
I352
sg11
I3440
ssg18
(dp36
g5
I913
sg6
I101
sg7
I1
sg8
I48
sg9
I4
sg10
I15
sg11
I600
ssg20
(dp37
g5
I663
sg6
I99
sg7
I3
sg8
I37
sg9
I4
sg10
I13
sg11
I460
sssS'Danijel.csv'
p38
(dp39
g3
(dp40
g5
I2710
sg6
I42
sg7
I5
sg8
I0
sg9
I1
sg10
I250
sg11
I2710
ssg12
(dp41
g5
I1697
sg6
I43
sg7
I2
sg8
I151
sg9
I3
sg10
I21
sg11
I770
ssg14
(dp42
g5
I821
sg6
I40
sg7
I4
sg8
I70
sg9
I4
sg10
I4
sg11
I610
ssg16
(dp43
g5
I2800
sg6
I39
sg7
I8
sg8
I0
sg9
I1
sg10
I283
sg11
I2800
ssg18
(dp44
g5
I1236
sg6
I41
sg7
I3
sg8
I85
sg9
I4
sg10
I13
sg11
I880
ssg20
(dp45
g5
I965
sg6
I42
sg7
I2
sg8
I80
sg9
I4
sg10
I22
sg11
I660
sss.(dp0
S'K_all3.csv'
p1
(dp2
S'none'
p3
(dp4
S'count'
p5
I470
sS'truepos'
p6
I35
sS'falseneg'
p7
I2
sS'correction'
p8
I0
sS'unknownyes'
p9
I8
sS'falsepos'
p10
I43
sS'unique'
p11
I470
ssS'three'
p12
(dp13
g5
I1049
sg6
I37
sg7
I0
sg8
I86
sg9
I8
sg10
I9
sg11
I480
ssS'machine'
p14
(dp15
g5
I627
sg6
I29
sg7
I2
sg8
I48
sg9
I14
sg10
I9
sg11
I480
ssS'machine4'
p16
(dp17
g5
I500
sg6
I6
sg7
I1
sg8
I0
sg9
I38
sg10
I51
sg11
I500
ssS'machine3'
p18
(dp19
g5
I663
sg6
I31
sg7
I1
sg8
I38
sg9
I13
sg10
I7
sg11
I500
ssS'machine2'
p20
(dp21
g5
I713
sg6
I29
sg7
I6
sg8
I40
sg9
I10
sg10
I9
sg11
I560
sssS'Wahono.csv'
p22
(dp23
g3
(dp24
g5
I2790
sg6
I52
sg7
I7
sg8
I0
sg9
I3
sg10
I280
sg11
I2790
ssg12
(dp25
g5
I3641
sg6
I60
sg7
I0
sg8
I272
sg9
I2
sg10
I35
sg11
I1680
ssg14
(dp26
g5
I1681
sg6
I51
sg7
I7
sg8
I140
sg9
I4
sg10
I15
sg11
I1260
ssg16
(dp27
g5
I2780
sg6
I51
sg7
I8
sg8
I0
sg9
I3
sg10
I262
sg11
I2780
ssg18
(dp28
g5
I1701
sg6
I52
sg7
I3
sg8
I135
sg9
I7
sg10
I23
sg11
I1180
ssg20
(dp29
g5
I2381
sg6
I59
sg7
I1
sg8
I174
sg9
I2
sg10
I36
sg11
I1660
sssS'Hall.csv'
p30
(dp31
g3
(dp32
g5
I3410
sg6
I92
sg7
I10
sg8
I0
sg9
I4
sg10
I307
sg11
I3410
ssg12
(dp33
g5
I1018
sg6
I96
sg7
I5
sg8
I92
sg9
I5
sg10
I10
sg11
I460
ssg14
(dp34
g5
I792
sg6
I96
sg7
I6
sg8
I57
sg9
I4
sg10
I9
sg11
I560
ssg16
(dp35
g5
I4130
sg6
I97
sg7
I6
sg8
I0
sg9
I3
sg10
I395
sg11
I4130
ssg18
(dp36
g5
I790
sg6
I95
sg7
I7
sg8
I46
sg9
I4
sg10
I7
sg11
I510
ssg20
(dp37
g5
I1053
sg6
I99
sg7
I3
sg8
I73
sg9
I4
sg10
I22
sg11
I710
sssS'Danijel.csv'
p38
(dp39
g3
(dp40
g5
I1960
sg6
I45
sg7
I1
sg8
I0
sg9
I2
sg10
I172
sg11
I1960
ssg12
(dp41
g5
I2793
sg6
I45
sg7
I1
sg8
I201
sg9
I2
sg10
I35
sg11
I1290
ssg14
(dp42
g5
I1209
sg6
I42
sg7
I4
sg8
I86
sg9
I2
sg10
I15
sg11
I910
ssg16
(dp43
g5
I3210
sg6
I41
sg7
I5
sg8
I0
sg9
I2
sg10
I321
sg11
I3210
ssg18
(dp44
g5
I1387
sg6
I42
sg7
I3
sg8
I105
sg9
I3
sg10
I20
sg11
I970
ssg20
(dp45
g5
I1243
sg6
I43
sg7
I2
sg8
I86
sg9
I3
sg10
I14
sg11
I860
sss.(dp0
S'K_all3.csv'
p1
(dp2
S'none'
p3
(dp4
S'count'
p5
I430
sS'truepos'
p6
I35
sS'falseneg'
p7
I2
sS'correction'
p8
I0
sS'unknownyes'
p9
I8
sS'falsepos'
p10
I42
sS'unique'
p11
I430
ssS'three'
p12
(dp13
g5
I1011
sg6
I33
sg7
I0
sg8
I66
sg9
I12
sg10
I11
sg11
I470
ssS'machine'
p14
(dp15
g5
I701
sg6
I28
sg7
I8
sg8
I50
sg9
I9
sg10
I4
sg11
I560
ssS'machine4'
p16
(dp17
g5
I610
sg6
I39
sg7
I1
sg8
I0
sg9
I5
sg10
I55
sg11
I610
ssS'machine3'
p18
(dp19
g5
I669
sg6
I37
sg7
I1
sg8
I57
sg9
I7
sg10
I11
sg11
I460
ssS'machine2'
p20
(dp21
g5
I588
sg6
I28
sg7
I4
sg8
I47
sg9
I13
sg10
I10
sg11
I410
sssS'Wahono.csv'
p22
(dp23
g3
(dp24
g5
I2480
sg6
I55
sg7
I6
sg8
I0
sg9
I1
sg10
I245
sg11
I2480
ssg12
(dp25
g5
I3789
sg6
I57
sg7
I4
sg8
I311
sg9
I1
sg10
I62
sg11
I1730
ssg14
(dp26
g5
I1569
sg6
I52
sg7
I6
sg8
I136
sg9
I4
sg10
I19
sg11
I1160
ssg16
(dp27
g5
I3570
sg6
I51
sg7
I9
sg8
I0
sg9
I2
sg10
I314
sg11
I3570
ssg18
(dp28
g5
I2778
sg6
I60
sg7
I2
sg8
I202
sg9
I0
sg10
I33
sg11
I1960
ssg20
(dp29
g5
I1691
sg6
I54
sg7
I5
sg8
I106
sg9
I3
sg10
I23
sg11
I1210
sssS'Hall.csv'
p30
(dp31
g3
(dp32
g5
I4030
sg6
I90
sg7
I14
sg8
I0
sg9
I2
sg10
I382
sg11
I4030
ssg12
(dp33
g5
I1294
sg6
I98
sg7
I4
sg8
I109
sg9
I4
sg10
I10
sg11
I590
ssg14
(dp34
g5
I584
sg6
I95
sg7
I5
sg8
I41
sg9
I6
sg10
I6
sg11
I410
ssg16
(dp35
g5
I2920
sg6
I97
sg7
I6
sg8
I0
sg9
I3
sg10
I285
sg11
I2920
ssg18
(dp36
g5
I791
sg6
I99
sg7
I3
sg8
I50
sg9
I4
sg10
I8
sg11
I510
ssg20
(dp37
g5
I517
sg6
I96
sg7
I5
sg8
I29
sg9
I5
sg10
I10
sg11
I360
sssS'Danijel.csv'
p38
(dp39
g3
(dp40
g5
I1850
sg6
I39
sg7
I5
sg8
I0
sg9
I4
sg10
I178
sg11
I1850
ssg12
(dp41
g5
I3391
sg6
I43
sg7
I3
sg8
I253
sg9
I2
sg10
I47
sg11
I1560
ssg14
(dp42
g5
I1155
sg6
I42
sg7
I3
sg8
I96
sg9
I3
sg10
I10
sg11
I860
ssg16
(dp43
g5
I2930
sg6
I44
sg7
I2
sg8
I0
sg9
I2
sg10
I300
sg11
I2930
ssg18
(dp44
g5
I1254
sg6
I44
sg7
I1
sg8
I85
sg9
I3
sg10
I10
sg11
I890
ssg20
(dp45
g5
I1219
sg6
I39
sg7
I4
sg8
I91
sg9
I5
sg10
I19
sg11
I860
sss.(dp0
S'K_all3.csv'
p1
(dp2
S'none'
p3
(dp4
S'count'
p5
I550
sS'truepos'
p6
I33
sS'falseneg'
p7
I4
sS'correction'
p8
I0
sS'unknownyes'
p9
I8
sS'falsepos'
p10
I43
sS'unique'
p11
I550
ssS'three'
p12
(dp13
g5
I973
sg6
I37
sg7
I0
sg8
I70
sg9
I8
sg10
I9
sg11
I450
ssS'machine'
p14
(dp15
g5
I706
sg6
I31
sg7
I4
sg8
I51
sg9
I10
sg10
I8
sg11
I560
ssS'machine4'
p16
(dp17
g5
I350
sg6
I26
sg7
I3
sg8
I0
sg9
I16
sg10
I31
sg11
I350
ssS'machine3'
p18
(dp19
g5
I693
sg6
I35
sg7
I2
sg8
I50
sg9
I8
sg10
I9
sg11
I490
ssS'machine2'
p20
(dp21
g5
I602
sg6
I33
sg7
I1
sg8
I43
sg9
I11
sg10
I8
sg11
I430
sssS'Wahono.csv'
p22
(dp23
g3
(dp24
g5
I3370
sg6
I53
sg7
I9
sg8
I0
sg9
I0
sg10
I334
sg11
I3370
ssg12
(dp25
g5
I4308
sg6
I58
sg7
I1
sg8
I328
sg9
I3
sg10
I55
sg11
I1980
ssg14
(dp26
g5
I1882
sg6
I56
sg7
I2
sg8
I147
sg9
I4
sg10
I23
sg11
I1410
ssg16
(dp27
g5
I3060
sg6
I48
sg7
I9
sg8
I0
sg9
I5
sg10
I299
sg11
I3060
ssg18
(dp28
g5
I823
sg6
I48
sg7
I4
sg8
I59
sg9
I10
sg10
I9
sg11
I570
ssg20
(dp29
g5
I2034
sg6
I59
sg7
I1
sg8
I164
sg9
I2
sg10
I29
sg11
I1410
sssS'Hall.csv'
p30
(dp31
g3
(dp32
g5
I2790
sg6
I95
sg7
I8
sg8
I0
sg9
I3
sg10
I282
sg11
I2790
ssg12
(dp33
g5
I1914
sg6
I96
sg7
I6
sg8
I143
sg9
I4
sg10
I21
sg11
I880
ssg14
(dp34
g5
I701
sg6
I101
sg7
I1
sg8
I40
sg9
I4
sg10
I8
sg11
I510
ssg16
(dp35
g5
I4000
sg6
I93
sg7
I10
sg8
I0
sg9
I3
sg10
I382
sg11
I4000
ssg18
(dp36
g5
I2134
sg6
I101
sg7
I3
sg8
I146
sg9
I2
sg10
I32
sg11
I1470
ssg20
(dp37
g5
I585
sg6
I96
sg7
I5
sg8
I30
sg9
I5
sg10
I17
sg11
I410
sssS'Danijel.csv'
p38
(dp39
g3
(dp40
g5
I2400
sg6
I43
sg7
I2
sg8
I0
sg9
I3
sg10
I241
sg11
I2400
ssg12
(dp41
g5
I1984
sg6
I45
sg7
I0
sg8
I153
sg9
I3
sg10
I20
sg11
I910
ssg14
(dp42
g5
I1382
sg6
I40
sg7
I6
sg8
I102
sg9
I2
sg10
I14
sg11
I1060
ssg16
(dp43
g5
I3020
sg6
I45
sg7
I0
sg8
I0
sg9
I3
sg10
I283
sg11
I3020
ssg18
(dp44
g5
I1732
sg6
I45
sg7
I1
sg8
I138
sg9
I2
sg10
I24
sg11
I1200
ssg20
(dp45
g5
I1076
sg6
I43
sg7
I3
sg8
I74
sg9
I2
sg10
I17
sg11
I760
sss.(dp0
S'K_all3.csv'
p1
(dp2
S'none'
p3
(dp4
S'count'
p5
I530
sS'truepos'
p6
I38
sS'falseneg'
p7
I0
sS'correction'
p8
I0
sS'unknownyes'
p9
I7
sS'falsepos'
p10
I47
sS'unique'
p11
I530
ssS'three'
p12
(dp13
g5
I897
sg6
I30
sg7
I0
sg8
I75
sg9
I15
sg10
I9
sg11
I410
ssS'machine'
p14
(dp15
g5
I583
sg6
I30
sg7
I1
sg8
I42
sg9
I14
sg10
I11
sg11
I460
ssS'machine4'
p16
(dp17
g5
I410
sg6
I34
sg7
I3
sg8
I0
sg9
I8
sg10
I33
sg11
I410
ssS'machine3'
p18
(dp19
g5
I585
sg6
I33
sg7
I1
sg8
I43
sg9
I11
sg10
I10
sg11
I410
ssS'machine2'
p20
(dp21
g5
I615
sg6
I35
sg7
I1
sg8
I41
sg9
I9
sg10
I10
sg11
I450
sssS'Wahono.csv'
p22
(dp23
g3
(dp24
g5
I3350
sg6
I54
sg7
I4
sg8
I0
sg9
I4
sg10
I357
sg11
I3350
ssg12
(dp25
g5
I4048
sg6
I59
sg7
I0
sg8
I333
sg9
I3
sg10
I42
sg11
I1850
ssg14
(dp26
g5
I1957
sg6
I58
sg7
I3
sg8
I171
sg9
I1
sg10
I23
sg11
I1450
ssg16
(dp27
g5
I2900
sg6
I52
sg7
I9
sg8
I0
sg9
I1
sg10
I280
sg11
I2900
ssg18
(dp28
g5
I2159
sg6
I58
sg7
I1
sg8
I170
sg9
I3
sg10
I38
sg11
I1490
ssg20
(dp29
g5
I2876
sg6
I58
sg7
I1
sg8
I216
sg9
I3
sg10
I35
sg11
I2040
sssS'Hall.csv'
p30
(dp31
g3
(dp32
g5
I2790
sg6
I97
sg7
I6
sg8
I0
sg9
I3
sg10
I262
sg11
I2790
ssg12
(dp33
g5
I1348
sg6
I97
sg7
I4
sg8
I124
sg9
I5
sg10
I16
sg11
I610
ssg14
(dp34
g5
I591
sg6
I90
sg7
I9
sg8
I40
sg9
I7
sg10
I10
sg11
I420
ssg16
(dp35
g5
I2770
sg6
I95
sg7
I9
sg8
I0
sg9
I2
sg10
I249
sg11
I2770
ssg18
(dp36
g5
I959
sg6
I97
sg7
I5
sg8
I65
sg9
I4
sg10
I9
sg11
I620
ssg20
(dp37
g5
I921
sg6
I99
sg7
I3
sg8
I57
sg9
I4
sg10
I20
sg11
I620
sssS'Danijel.csv'
p38
(dp39
g3
(dp40
g5
I2950
sg6
I44
sg7
I2
sg8
I0
sg9
I2
sg10
I273
sg11
I2950
ssg12
(dp41
g5
I2420
sg6
I46
sg7
I0
sg8
I186
sg9
I2
sg10
I25
sg11
I1110
ssg14
(dp42
g5
I1372
sg6
I38
sg7
I6
sg8
I101
sg9
I4
sg10
I17
sg11
I1040
ssg16
(dp43
g5
I1650
sg6
I39
sg7
I4
sg8
I0
sg9
I5
sg10
I147
sg11
I1650
ssg18
(dp44
g5
I1348
sg6
I44
sg7
I1
sg8
I92
sg9
I3
sg10
I13
sg11
I970
ssg20
(dp45
g5
I1505
sg6
I42
sg7
I2
sg8
I108
sg9
I4
sg10
I24
sg11
I1060
sss.(dp0
S'K_all3.csv'
p1
(dp2
S'none'
p3
(dp4
S'count'
p5
I590
sS'truepos'
p6
I33
sS'falseneg'
p7
I9
sS'correction'
p8
I0
sS'unknownyes'
p9
I3
sS'falsepos'
p10
I43
sS'unique'
p11
I590
ssS'three'
p12
(dp13
g5
I979
sg6
I33
sg7
I1
sg8
I76
sg9
I11
sg10
I9
sg11
I450
ssS'machine'
p14
(dp15
g5
I508
sg6
I27
sg7
I7
sg8
I33
sg9
I11
sg10
I4
sg11
I410
ssS'machine4'
p16
(dp17
g5
I520
sg6
I31
sg7
I5
sg8
I0
sg9
I9
sg10
I51
sg11
I520
ssS'machine3'
p18
(dp19
g5
I671
sg6
I32
sg7
I6
sg8
I43
sg9
I7
sg10
I6
sg11
I510
ssS'machine2'
p20
(dp21
g5
I541
sg6
I31
sg7
I1
sg8
I31
sg9
I13
sg10
I8
sg11
I410
sssS'Wahono.csv'
p22
(dp23
g3
(dp24
g5
I3800
sg6
I54
sg7
I5
sg8
I0
sg9
I3
sg10
I389
sg11
I3800
ssg12
(dp25
g5
I2920
sg6
I58
sg7
I1
sg8
I231
sg9
I3
sg10
I28
sg11
I1340
ssg14
(dp26
g5
I2011
sg6
I59
sg7
I1
sg8
I148
sg9
I2
sg10
I28
sg11
I1510
ssg16
(dp27
g5
I3900
sg6
I58
sg7
I4
sg8
I0
sg9
I0
sg10
I380
sg11
I3900
ssg18
(dp28
g5
I2050
sg6
I51
sg7
I6
sg8
I141
sg9
I5
sg10
I29
sg11
I1450
ssg20
(dp29
g5
I1955
sg6
I56
sg7
I3
sg8
I143
sg9
I3
sg10
I21
sg11
I1360
sssS'Hall.csv'
p30
(dp31
g3
(dp32
g5
I2140
sg6
I94
sg7
I8
sg8
I0
sg9
I4
sg10
I192
sg11
I2140
ssg12
(dp33
g5
I1294
sg6
I99
sg7
I3
sg8
I86
sg9
I4
sg10
I15
sg11
I600
ssg14
(dp34
g5
I811
sg6
I95
sg7
I7
sg8
I61
sg9
I4
sg10
I13
sg11
I580
ssg16
(dp35
g5
I3990
sg6
I91
sg7
I12
sg8
I0
sg9
I3
sg10
I398
sg11
I3990
ssg18
(dp36
g5
I699
sg6
I97
sg7
I5
sg8
I43
sg9
I4
sg10
I7
sg11
I450
ssg20
(dp37
g5
I1723
sg6
I101
sg7
I2
sg8
I124
sg9
I3
sg10
I21
sg11
I1160
sssS'Danijel.csv'
p38
(dp39
g3
(dp40
g5
I2330
sg6
I44
sg7
I3
sg8
I0
sg9
I1
sg10
I221
sg11
I2330
ssg12
(dp41
g5
I2238
sg6
I45
sg7
I0
sg8
I165
sg9
I3
sg10
I31
sg11
I1030
ssg14
(dp42
g5
I1115
sg6
I40
sg7
I5
sg8
I84
sg9
I3
sg10
I7
sg11
I860
ssg16
(dp43
g5
I2530
sg6
I39
sg7
I3
sg8
I0
sg9
I6
sg10
I250
sg11
I2530
ssg18
(dp44
g5
I1925
sg6
I46
sg7
I2
sg8
I154
sg9
I0
sg10
I21
sg11
I1350
ssg20
(dp45
g5
I1102
sg6
I42
sg7
I3
sg8
I95
sg9
I3
sg10
I19
sg11
I760
sss.(dp0
S'K_all3.csv'
p1
(dp2
S'none'
p3
(dp4
S'count'
p5
I490
sS'truepos'
p6
I31
sS'falseneg'
p7
I2
sS'correction'
p8
I0
sS'unknownyes'
p9
I12
sS'falsepos'
p10
I62
sS'unique'
p11
I490
ssS'three'
p12
(dp13
g5
I1367
sg6
I40
sg7
I1
sg8
I96
sg9
I4
sg10
I25
sg11
I630
ssS'machine'
p14
(dp15
g5
I675
sg6
I32
sg7
I2
sg8
I49
sg9
I11
sg10
I5
sg11
I530
ssS'machine4'
p16
(dp17
g5
I360
sg6
I28
sg7
I5
sg8
I0
sg9
I12
sg10
I32
sg11
I360
ssS'machine3'
p18
(dp19
g5
I647
sg6
I30
sg7
I5
sg8
I44
sg9
I10
sg10
I8
sg11
I480
ssS'machine2'
p20
(dp21
g5
I642
sg6
I29
sg7
I2
sg8
I51
sg9
I14
sg10
I5
sg11
I460
sssS'Wahono.csv'
p22
(dp23
g3
(dp24
g5
I2810
sg6
I57
sg7
I4
sg8
I0
sg9
I1
sg10
I268
sg11
I2810
ssg12
(dp25
g5
I3792
sg6
I58
sg7
I2
sg8
I299
sg9
I2
sg10
I39
sg11
I1740
ssg14
(dp26
g5
I2162
sg6
I56
sg7
I5
sg8
I163
sg9
I1
sg10
I18
sg11
I1620
ssg16
(dp27
g5
I2410
sg6
I56
sg7
I3
sg8
I0
sg9
I3
sg10
I202
sg11
I2410
ssg18
(dp28
g5
I1810
sg6
I56
sg7
I1
sg8
I115
sg9
I5
sg10
I28
sg11
I1290
ssg20
(dp29
g5
I1866
sg6
I55
sg7
I5
sg8
I152
sg9
I2
sg10
I24
sg11
I1290
sssS'Hall.csv'
p30
(dp31
g3
(dp32
g5
I4230
sg6
I99
sg7
I5
sg8
I0
sg9
I2
sg10
I397
sg11
I4230
ssg12
(dp33
g5
I1504
sg6
I98
sg7
I4
sg8
I116
sg9
I4
sg10
I16
sg11
I690
ssg14
(dp34
g5
I561
sg6
I88
sg7
I11
sg8
I34
sg9
I7
sg10
I14
sg11
I410
ssg16
(dp35
g5
I4270
sg6
I83
sg7
I20
sg8
I0
sg9
I3
sg10
I412
sg11
I4270
ssg18
(dp36
g5
I956
sg6
I97
sg7
I5
sg8
I53
sg9
I4
sg10
I14
sg11
I650
ssg20
(dp37
g5
I779
sg6
I100
sg7
I2
sg8
I43
sg9
I4
sg10
I12
sg11
I520
sssS'Danijel.csv'
p38
(dp39
g3
(dp40
g5
I1280
sg6
I39
sg7
I3
sg8
I0
sg9
I6
sg10
I140
sg11
I1280
ssg12
(dp41
g5
I1838
sg6
I43
sg7
I2
sg8
I148
sg9
I3
sg10
I25
sg11
I840
ssg14
(dp42
g5
I1033
sg6
I40
sg7
I4
sg8
I95
sg9
I4
sg10
I15
sg11
I760
ssg16
(dp43
g5
I2510
sg6
I37
sg7
I8
sg8
I0
sg9
I3
sg10
I233
sg11
I2510
ssg18
(dp44
g5
I884
sg6
I44
sg7
I1
sg8
I58
sg9
I3
sg10
I13
sg11
I630
ssg20
(dp45
g5
I1824
sg6
I45
sg7
I1
sg8
I122
sg9
I2
sg10
I26
sg11
I1310
sss.(dp0
S'K_all3.csv'
p1
(dp2
S'none'
p3
(dp4
S'count'
p5
I450
sS'truepos'
p6
I37
sS'falseneg'
p7
I0
sS'correction'
p8
I0
sS'unknownyes'
p9
I8
sS'falsepos'
p10
I44
sS'unique'
p11
I450
ssS'three'
p12
(dp13
g5
I1068
sg6
I29
sg7
I1
sg8
I86
sg9
I15
sg10
I15
sg11
I490
ssS'machine'
p14
(dp15
g5
I702
sg6
I27
sg7
I5
sg8
I65
sg9
I13
sg10
I6
sg11
I560
ssS'machine4'
p16
(dp17
g5
I460
sg6
I29
sg7
I5
sg8
I0
sg9
I11
sg10
I48
sg11
I460
ssS'machine3'
p18
(dp19
g5
I664
sg6
I32
sg7
I1
sg8
I52
sg9
I12
sg10
I12
sg11
I480
ssS'machine2'
p20
(dp21
g5
I718
sg6
I34
sg7
I3
sg8
I50
sg9
I8
sg10
I14
sg11
I510
sssS'Wahono.csv'
p22
(dp23
g3
(dp24
g5
I3870
sg6
I54
sg7
I5
sg8
I0
sg9
I3
sg10
I377
sg11
I3870
ssg12
(dp25
g5
I2790
sg6
I56
sg7
I2
sg8
I202
sg9
I4
sg10
I39
sg11
I1290
ssg14
(dp26
g5
I1792
sg6
I52
sg7
I6
sg8
I127
sg9
I4
sg10
I21
sg11
I1360
ssg16
(dp27
g5
I2740
sg6
I51
sg7
I4
sg8
I0
sg9
I7
sg10
I267
sg11
I2740
ssg18
(dp28
g5
I2369
sg6
I58
sg7
I3
sg8
I180
sg9
I1
sg10
I37
sg11
I1650
ssg20
(dp29
g5
I2438
sg6
I56
sg7
I5
sg8
I175
sg9
I1
sg10
I29
sg11
I1710
sssS'Hall.csv'
p30
(dp31
g3
(dp32
g5
I2370
sg6
I92
sg7
I11
sg8
I0
sg9
I3
sg10
I205
sg11
I2370
ssg12
(dp33
g5
I3112
sg6
I101
sg7
I2
sg8
I222
sg9
I3
sg10
I26
sg11
I1440
ssg14
(dp34
g5
I743
sg6
I95
sg7
I7
sg8
I58
sg9
I4
sg10
I5
sg11
I530
ssg16
(dp35
g5
I4200
sg6
I94
sg7
I8
sg8
I0
sg9
I4
sg10
I429
sg11
I4200
ssg18
(dp36
g5
I1103
sg6
I99
sg7
I3
sg8
I79
sg9
I4
sg10
I14
sg11
I730
ssg20
(dp37
g5
I765
sg6
I101
sg7
I1
sg8
I42
sg9
I4
sg10
I14
sg11
I520
sssS'Danijel.csv'
p38
(dp39
g3
(dp40
g5
I2480
sg6
I41
sg7
I5
sg8
I0
sg9
I2
sg10
I245
sg11
I2480
ssg12
(dp41
g5
I4524
sg6
I44
sg7
I3
sg8
I334
sg9
I1
sg10
I51
sg11
I2090
ssg14
(dp42
g5
I875
sg6
I43
sg7
I3
sg8
I58
sg9
I2
sg10
I6
sg11
I660
ssg16
(dp43
g5
I2950
sg6
I39
sg7
I7
sg8
I0
sg9
I2
sg10
I312
sg11
I2950
ssg18
(dp44
g5
I1388
sg6
I43
sg7
I1
sg8
I99
sg9
I4
sg10
I23
sg11
I990
ssg20
(dp45
g5
I1609
sg6
I44
sg7
I2
sg8
I106
sg9
I2
sg10
I22
sg11
I1160
sss.(dp0
S'K_all3.csv'
p1
(dp2
S'none'
p3
(dp4
S'count'
p5
I640
sS'truepos'
p6
I32
sS'falseneg'
p7
I5
sS'correction'
p8
I0
sS'unknownyes'
p9
I8
sS'falsepos'
p10
I62
sS'unique'
p11
I640
ssS'three'
p12
(dp13
g5
I805
sg6
I35
sg7
I1
sg8
I62
sg9
I9
sg10
I9
sg11
I370
ssS'machine'
p14
(dp15
g5
I748
sg6
I28
sg7
I9
sg8
I58
sg9
I8
sg10
I8
sg11
I610
ssS'machine4'
p16
(dp17
g5
I480
sg6
I32
sg7
I4
sg8
I0
sg9
I9
sg10
I46
sg11
I480
ssS'machine3'
p18
(dp19
g5
I606
sg6
I27
sg7
I4
sg8
I50
sg9
I14
sg10
I9
sg11
I440
ssS'machine2'
p20
(dp21
g5
I621
sg6
I32
sg7
I5
sg8
I44
sg9
I8
sg10
I11
sg11
I460
sssS'Wahono.csv'
p22
(dp23
g3
(dp24
g5
I3170
sg6
I49
sg7
I6
sg8
I0
sg9
I7
sg10
I325
sg11
I3170
ssg12
(dp25
g5
I2988
sg6
I58
sg7
I2
sg8
I234
sg9
I2
sg10
I44
sg11
I1370
ssg14
(dp26
g5
I1859
sg6
I55
sg7
I5
sg8
I125
sg9
I2
sg10
I14
sg11
I1410
ssg16
(dp27
g5
I3520
sg6
I54
sg7
I6
sg8
I0
sg9
I2
sg10
I343
sg11
I3520
ssg18
(dp28
g5
I1981
sg6
I52
sg7
I7
sg8
I132
sg9
I3
sg10
I22
sg11
I1420
ssg20
(dp29
g5
I2438
sg6
I57
sg7
I5
sg8
I187
sg9
I0
sg10
I26
sg11
I1710
sssS'Hall.csv'
p30
(dp31
g3
(dp32
g5
I2100
sg6
I98
sg7
I5
sg8
I0
sg9
I3
sg10
I197
sg11
I2100
ssg12
(dp33
g5
I3775
sg6
I99
sg7
I4
sg8
I297
sg9
I3
sg10
I50
sg11
I1730
ssg14
(dp34
g5
I802
sg6
I93
sg7
I9
sg8
I63
sg9
I4
sg10
I19
sg11
I570
ssg16
(dp35
g5
I4210
sg6
I96
sg7
I8
sg8
I0
sg9
I2
sg10
I380
sg11
I4210
ssg18
(dp36
g5
I797
sg6
I98
sg7
I4
sg8
I54
sg9
I4
sg10
I5
sg11
I500
ssg20
(dp37
g5
I1192
sg6
I100
sg7
I3
sg8
I81
sg9
I3
sg10
I32
sg11
I810
sssS'Danijel.csv'
p38
(dp39
g3
(dp40
g5
I2830
sg6
I40
sg7
I5
sg8
I0
sg9
I3
sg10
I294
sg11
I2830
ssg12
(dp41
g5
I2391
sg6
I45
sg7
I1
sg8
I162
sg9
I2
sg10
I31
sg11
I1110
ssg14
(dp42
g5
I1223
sg6
I43
sg7
I1
sg8
I96
sg9
I4
sg10
I18
sg11
I910
ssg16
(dp43
g5
I3340
sg6
I42
sg7
I4
sg8
I0
sg9
I2
sg10
I350
sg11
I3340
ssg18
(dp44
g5
I1524
sg6
I42
sg7
I3
sg8
I117
sg9
I3
sg10
I19
sg11
I1070
ssg20
(dp45
g5
I1505
sg6
I40
sg7
I3
sg8
I107
sg9
I5
sg10
I36
sg11
I1060
sss.(dp0
S'K_all3.csv'
p1
(dp2
S'none'
p3
(dp4
S'count'
p5
I460
sS'truepos'
p6
I33
sS'falseneg'
p7
I3
sS'correction'
p8
I0
sS'unknownyes'
p9
I9
sS'falsepos'
p10
I29
sS'unique'
p11
I460
ssS'three'
p12
(dp13
g5
I997
sg6
I39
sg7
I0
sg8
I73
sg9
I6
sg10
I10
sg11
I460
ssS'machine'
p14
(dp15
g5
I625
sg6
I30
sg7
I4
sg8
I45
sg9
I11
sg10
I2
sg11
I510
ssS'machine4'
p16
(dp17
g5
I570
sg6
I35
sg7
I5
sg8
I0
sg9
I5
sg10
I50
sg11
I570
ssS'machine3'
p18
(dp19
g5
I714
sg6
I33
sg7
I4
sg8
I46
sg9
I8
sg10
I10
sg11
I530
ssS'machine2'
p20
(dp21
g5
I615
sg6
I31
sg7
I4
sg8
I41
sg9
I10
sg10
I7
sg11
I460
sssS'Wahono.csv'
p22
(dp23
g3
(dp24
g5
I3560
sg6
I57
sg7
I3
sg8
I0
sg9
I2
sg10
I362
sg11
I3560
ssg12
(dp25
g5
I3469
sg6
I57
sg7
I2
sg8
I275
sg9
I3
sg10
I39
sg11
I1590
ssg14
(dp26
g5
I1011
sg6
I46
sg7
I8
sg8
I70
sg9
I8
sg10
I8
sg11
I760
ssg16
(dp27
g5
I3760
sg6
I53
sg7
I8
sg8
I0
sg9
I1
sg10
I377
sg11
I3760
ssg18
(dp28
g5
I1881
sg6
I60
sg7
I2
sg8
I133
sg9
I0
sg10
I20
sg11
I1330
ssg20
(dp29
g5
I1657
sg6
I56
sg7
I2
sg8
I124
sg9
I4
sg10
I24
sg11
I1160
sssS'Hall.csv'
p30
(dp31
g3
(dp32
g5
I3820
sg6
I92
sg7
I13
sg8
I0
sg9
I1
sg10
I385
sg11
I3820
ssg12
(dp33
g5
I2418
sg6
I101
sg7
I2
sg8
I187
sg9
I3
sg10
I28
sg11
I1110
ssg14
(dp34
g5
I763
sg6
I94
sg7
I8
sg8
I54
sg9
I4
sg10
I9
sg11
I560
ssg16
(dp35
g5
I3650
sg6
I91
sg7
I12
sg8
I0
sg9
I3
sg10
I363
sg11
I3650
ssg18
(dp36
g5
I1286
sg6
I98
sg7
I4
sg8
I74
sg9
I4
sg10
I19
sg11
I870
ssg20
(dp37
g5
I515
sg6
I100
sg7
I2
sg8
I23
sg9
I4
sg10
I12
sg11
I360
sssS'Danijel.csv'
p38
(dp39
g3
(dp40
g5
I1930
sg6
I42
sg7
I4
sg8
I0
sg9
I2
sg10
I184
sg11
I1930
ssg12
(dp41
g5
I1980
sg6
I43
sg7
I1
sg8
I150
sg9
I4
sg10
I28
sg11
I910
ssg14
(dp42
g5
I1099
sg6
I41
sg7
I3
sg8
I92
sg9
I4
sg10
I11
sg11
I820
ssg16
(dp43
g5
I1390
sg6
I40
sg7
I6
sg8
I0
sg9
I2
sg10
I130
sg11
I1390
ssg18
(dp44
g5
I1457
sg6
I41
sg7
I3
sg8
I112
sg9
I4
sg10
I26
sg11
I1020
ssg20
(dp45
g5
I1216
sg6
I43
sg7
I2
sg8
I84
sg9
I3
sg10
I12
sg11
I860
sss.(dp0
S'K_all3.csv'
p1
(dp2
S'none'
p3
(dp4
S'count'
p5
I440
sS'truepos'
p6
I29
sS'falseneg'
p7
I1
sS'correction'
p8
I0
sS'unknownyes'
p9
I15
sS'falsepos'
p10
I50
sS'unique'
p11
I440
ssS'three'
p12
(dp13
g5
I1051
sg6
I38
sg7
I0
sg8
I81
sg9
I7
sg10
I15
sg11
I480
ssS'machine'
p14
(dp15
g5
I539
sg6
I33
sg7
I2
sg8
I44
sg9
I10
sg10
I3
sg11
I410
ssS'machine4'
p16
(dp17
g5
I540
sg6
I27
sg7
I7
sg8
I0
sg9
I11
sg10
I53
sg11
I540
ssS'machine3'
p18
(dp19
g5
I567
sg6
I32
sg7
I2
sg8
I38
sg9
I11
sg10
I7
sg11
I400
ssS'machine2'
p20
(dp21
g5
I590
sg6
I31
sg7
I0
sg8
I44
sg9
I14
sg10
I9
sg11
I410
sssS'Wahono.csv'
p22
(dp23
g3
(dp24
g5
I2880
sg6
I56
sg7
I4
sg8
I0
sg9
I2
sg10
I268
sg11
I2880
ssg12
(dp25
g5
I2639
sg6
I57
sg7
I1
sg8
I188
sg9
I4
sg10
I30
sg11
I1220
ssg14
(dp26
g5
I2067
sg6
I60
sg7
I2
sg8
I152
sg9
I0
sg10
I23
sg11
I1560
ssg16
(dp27
g5
I3150
sg6
I52
sg7
I10
sg8
I0
sg9
I0
sg10
I309
sg11
I3150
ssg18
(dp28
g5
I1915
sg6
I54
sg7
I2
sg8
I155
sg9
I6
sg10
I24
sg11
I1330
ssg20
(dp29
g5
I2052
sg6
I54
sg7
I5
sg8
I136
sg9
I3
sg10
I31
sg11
I1460
sssS'Hall.csv'
p30
(dp31
g3
(dp32
g5
I5200
sg6
I93
sg7
I11
sg8
I0
sg9
I2
sg10
I536
sg11
I5200
ssg12
(dp33
g5
I2260
sg6
I97
sg7
I6
sg8
I173
sg9
I3
sg10
I29
sg11
I1040
ssg14
(dp34
g5
I802
sg6
I94
sg7
I8
sg8
I59
sg9
I4
sg10
I12
sg11
I570
ssg16
(dp35
g5
I2150
sg6
I96
sg7
I6
sg8
I0
sg9
I4
sg10
I183
sg11
I2150
ssg18
(dp36
g5
I681
sg6
I95
sg7
I7
sg8
I39
sg9
I4
sg10
I8
sg11
I430
ssg20
(dp37
g5
I593
sg6
I96
sg7
I5
sg8
I37
sg9
I5
sg10
I17
sg11
I410
sssS'Danijel.csv'
p38
(dp39
g3
(dp40
g5
I2660
sg6
I41
sg7
I6
sg8
I0
sg9
I1
sg10
I278
sg11
I2660
ssg12
(dp41
g5
I2213
sg6
I45
sg7
I0
sg8
I181
sg9
I3
sg10
I26
sg11
I1010
ssg14
(dp42
g5
I1022
sg6
I36
sg7
I5
sg8
I85
sg9
I7
sg10
I13
sg11
I760
ssg16
(dp43
g5
I1470
sg6
I40
sg7
I5
sg8
I0
sg9
I3
sg10
I142
sg11
I1470
ssg18
(dp44
g5
I1340
sg6
I43
sg7
I1
sg8
I104
sg9
I4
sg10
I18
sg11
I930
ssg20
(dp45
g5
I1055
sg6
I43
sg7
I3
sg8
I69
sg9
I2
sg10
I17
sg11
I750
sss.(dp0
S'K_all3.csv'
p1
(dp2
S'none'
p3
(dp4
S'count'
p5
I810
sS'truepos'
p6
I36
sS'falseneg'
p7
I5
sS'correction'
p8
I0
sS'unknownyes'
p9
I4
sS'falsepos'
p10
I80
sS'unique'
p11
I810
ssS'three'
p12
(dp13
g5
I998
sg6
I35
sg7
I1
sg8
I75
sg9
I9
sg10
I13
sg11
I460
ssS'machine'
p14
(dp15
g5
I543
sg6
I29
sg7
I3
sg8
I51
sg9
I13
sg10
I5
sg11
I410
ssS'machine4'
p16
(dp17
g5
I550
sg6
I28
sg7
I7
sg8
I0
sg9
I10
sg10
I43
sg11
I550
ssS'machine3'
p18
(dp19
g5
I594
sg6
I29
sg7
I1
sg8
I38
sg9
I15
sg10
I10
sg11
I430
ssS'machine2'
p20
(dp21
g5
I580
sg6
I31
sg7
I0
sg8
I43
sg9
I14
sg10
I10
sg11
I410
sssS'Wahono.csv'
p22
(dp23
g3
(dp24
g5
I3610
sg6
I54
sg7
I7
sg8
I0
sg9
I1
sg10
I348
sg11
I3610
ssg12
(dp25
g5
I3588
sg6
I57
sg7
I1
sg8
I293
sg9
I4
sg10
I48
sg11
I1640
ssg14
(dp26
g5
I2000
sg6
I52
sg7
I8
sg8
I146
sg9
I2
sg10
I28
sg11
I1510
ssg16
(dp27
g5
I3920
sg6
I58
sg7
I1
sg8
I0
sg9
I3
sg10
I391
sg11
I3920
ssg18
(dp28
g5
I2552
sg6
I58
sg7
I0
sg8
I199
sg9
I4
sg10
I35
sg11
I1780
ssg20
(dp29
g5
I1592
sg6
I58
sg7
I0
sg8
I118
sg9
I4
sg10
I17
sg11
I1110
sssS'Hall.csv'
p30
(dp31
g3
(dp32
g5
I4330
sg6
I93
sg7
I12
sg8
I0
sg9
I1
sg10
I453
sg11
I4330
ssg12
(dp33
g5
I1709
sg6
I99
sg7
I3
sg8
I144
sg9
I4
sg10
I19
sg11
I780
ssg14
(dp34
g5
I724
sg6
I98
sg7
I3
sg8
I58
sg9
I5
sg10
I17
sg11
I510
ssg16
(dp35
g5
I3060
sg6
I89
sg7
I14
sg8
I0
sg9
I3
sg10
I286
sg11
I3060
ssg18
(dp36
g5
I824
sg6
I97
sg7
I5
sg8
I43
sg9
I4
sg10
I4
sg11
I540
ssg20
(dp37
g5
I955
sg6
I100
sg7
I2
sg8
I50
sg9
I4
sg10
I10
sg11
I660
sssS'Danijel.csv'
p38
(dp39
g3
(dp40
g5
I2880
sg6
I44
sg7
I2
sg8
I0
sg9
I2
sg10
I268
sg11
I2880
ssg12
(dp41
g5
I2373
sg6
I44
sg7
I1
sg8
I202
sg9
I3
sg10
I30
sg11
I1080
ssg14
(dp42
g5
I1209
sg6
I42
sg7
I3
sg8
I107
sg9
I3
sg10
I5
sg11
I910
ssg16
(dp43
g5
I880
sg6
I37
sg7
I4
sg8
I0
sg9
I7
sg10
I73
sg11
I880
ssg18
(dp44
g5
I1111
sg6
I43
sg7
I1
sg8
I79
sg9
I4
sg10
I17
sg11
I780
ssg20
(dp45
g5
I1421
sg6
I46
sg7
I0
sg8
I105
sg9
I2
sg10
I28
sg11
I990
sss.(dp0
S'K_all3.csv'
p1
(dp2
S'none'
p3
(dp4
S'count'
p5
I530
sS'truepos'
p6
I35
sS'falseneg'
p7
I2
sS'correction'
p8
I0
sS'unknownyes'
p9
I8
sS'falsepos'
p10
I60
sS'unique'
p11
I530
ssS'three'
p12
(dp13
g5
I990
sg6
I32
sg7
I1
sg8
I67
sg9
I12
sg10
I11
sg11
I460
ssS'machine'
p14
(dp15
g5
I635
sg6
I29
sg7
I4
sg8
I50
sg9
I12
sg10
I6
sg11
I510
ssS'machine4'
p16
(dp17
g5
I550
sg6
I30
sg7
I3
sg8
I0
sg9
I12
sg10
I54
sg11
I550
ssS'machine3'
p18
(dp19
g5
I555
sg6
I33
sg7
I1
sg8
I34
sg9
I11
sg10
I6
sg11
I400
ssS'machine2'
p20
(dp21
g5
I589
sg6
I31
sg7
I0
sg8
I37
sg9
I14
sg10
I6
sg11
I420
sssS'Wahono.csv'
p22
(dp23
g3
(dp24
g5
I3930
sg6
I53
sg7
I5
sg8
I0
sg9
I4
sg10
I394
sg11
I3930
ssg12
(dp25
g5
I4119
sg6
I58
sg7
I3
sg8
I309
sg9
I1
sg10
I62
sg11
I1900
ssg14
(dp26
g5
I1994
sg6
I53
sg7
I6
sg8
I147
sg9
I3
sg10
I22
sg11
I1510
ssg16
(dp27
g5
I3240
sg6
I54
sg7
I7
sg8
I0
sg9
I1
sg10
I316
sg11
I3240
ssg18
(dp28
g5
I2490
sg6
I56
sg7
I2
sg8
I170
sg9
I4
sg10
I29
sg11
I1770
ssg20
(dp29
g5
I2562
sg6
I54
sg7
I4
sg8
I180
sg9
I4
sg10
I36
sg11
I1810
sssS'Hall.csv'
p30
(dp31
g3
(dp32
g5
I4220
sg6
I94
sg7
I8
sg8
I0
sg9
I4
sg10
I409
sg11
I4220
ssg12
(dp33
g5
I2609
sg6
I104
sg7
I1
sg8
I198
sg9
I1
sg10
I28
sg11
I1200
ssg14
(dp34
g5
I831
sg6
I96
sg7
I5
sg8
I67
sg9
I5
sg10
I11
sg11
I600
ssg16
(dp35
g5
I4640
sg6
I95
sg7
I8
sg8
I0
sg9
I3
sg10
I465
sg11
I4640
ssg18
(dp36
g5
I695
sg6
I94
sg7
I7
sg8
I43
sg9
I5
sg10
I7
sg11
I440
ssg20
(dp37
g5
I1116
sg6
I98
sg7
I4
sg8
I73
sg9
I4
sg10
I13
sg11
I760
sssS'Danijel.csv'
p38
(dp39
g3
(dp40
g5
I2920
sg6
I43
sg7
I2
sg8
I0
sg9
I3
sg10
I277
sg11
I2920
ssg12
(dp41
g5
I2052
sg6
I44
sg7
I1
sg8
I164
sg9
I3
sg10
I27
sg11
I940
ssg14
(dp42
g5
I1236
sg6
I42
sg7
I4
sg8
I85
sg9
I2
sg10
I13
sg11
I940
ssg16
(dp43
g5
I1810
sg6
I41
sg7
I4
sg8
I0
sg9
I3
sg10
I168
sg11
I1810
ssg18
(dp44
g5
I1290
sg6
I41
sg7
I3
sg8
I99
sg9
I4
sg10
I25
sg11
I890
ssg20
(dp45
g5
I970
sg6
I41
sg7
I4
sg8
I79
sg9
I3
sg10
I28
sg11
I660
sss.(dp0
S'K_all3.csv'
p1
(dp2
S'none'
p3
(dp4
S'count'
p5
I540
sS'truepos'
p6
I38
sS'falseneg'
p7
I3
sS'correction'
p8
I0
sS'unknownyes'
p9
I4
sS'falsepos'
p10
I44
sS'unique'
p11
I540
ssS'three'
p12
(dp13
g5
I860
sg6
I30
sg7
I1
sg8
I77
sg9
I14
sg10
I13
sg11
I390
ssS'machine'
p14
(dp15
g5
I620
sg6
I33
sg7
I5
sg8
I46
sg9
I7
sg10
I5
sg11
I480
ssS'machine4'
p16
(dp17
g5
I390
sg6
I34
sg7
I0
sg8
I0
sg9
I11
sg10
I46
sg11
I390
ssS'machine3'
p18
(dp19
g5
I715
sg6
I39
sg7
I1
sg8
I45
sg9
I5
sg10
I9
sg11
I530
ssS'machine2'
p20
(dp21
g5
I713
sg6
I37
sg7
I2
sg8
I49
sg9
I6
sg10
I15
sg11
I510
sssS'Wahono.csv'
p22
(dp23
g3
(dp24
g5
I3810
sg6
I53
sg7
I8
sg8
I0
sg9
I1
sg10
I386
sg11
I3810
ssg12
(dp25
g5
I4338
sg6
I59
sg7
I1
sg8
I320
sg9
I2
sg10
I55
sg11
I2000
ssg14
(dp26
g5
I1649
sg6
I55
sg7
I4
sg8
I117
sg9
I3
sg10
I21
sg11
I1230
ssg16
(dp27
g5
I3130
sg6
I53
sg7
I7
sg8
I0
sg9
I2
sg10
I290
sg11
I3130
ssg18
(dp28
g5
I2435
sg6
I59
sg7
I3
sg8
I205
sg9
I0
sg10
I37
sg11
I1680
ssg20
(dp29
g5
I2496
sg6
I55
sg7
I3
sg8
I180
sg9
I4
sg10
I33
sg11
I1760
sssS'Hall.csv'
p30
(dp31
g3
(dp32
g5
I2530
sg6
I91
sg7
I11
sg8
I0
sg9
I4
sg10
I265
sg11
I2530
ssg12
(dp33
g5
I1512
sg6
I98
sg7
I4
sg8
I125
sg9
I4
sg10
I16
sg11
I690
ssg14
(dp34
g5
I1113
sg6
I96
sg7
I6
sg8
I89
sg9
I4
sg10
I12
sg11
I800
ssg16
(dp35
g5
I4610
sg6
I99
sg7
I6
sg8
I0
sg9
I1
sg10
I459
sg11
I4610
ssg18
(dp36
g5
I912
sg6
I100
sg7
I2
sg8
I58
sg9
I4
sg10
I12
sg11
I590
ssg20
(dp37
g5
I764
sg6
I101
sg7
I1
sg8
I49
sg9
I4
sg10
I12
sg11
I510
sssS'Danijel.csv'
p38
(dp39
g3
(dp40
g5
I2480
sg6
I44
sg7
I3
sg8
I0
sg9
I1
sg10
I238
sg11
I2480
ssg12
(dp41
g5
I1634
sg6
I45
sg7
I0
sg8
I129
sg9
I3
sg10
I13
sg11
I750
ssg14
(dp42
g5
I1174
sg6
I39
sg7
I6
sg8
I78
sg9
I3
sg10
I11
sg11
I890
ssg16
(dp43
g5
I2420
sg6
I43
sg7
I5
sg8
I0
sg9
I0
sg10
I225
sg11
I2420
ssg18
(dp44
g5
I1314
sg6
I36
sg7
I7
sg8
I106
sg9
I5
sg10
I22
sg11
I920
ssg20
(dp45
g5
I1571
sg6
I43
sg7
I1
sg8
I112
sg9
I4
sg10
I22
sg11
I1110
sss.(dp0
S'K_all3.csv'
p1
(dp2
S'none'
p3
(dp4
S'count'
p5
I630
sS'truepos'
p6
I30
sS'falseneg'
p7
I5
sS'correction'
p8
I0
sS'unknownyes'
p9
I10
sS'falsepos'
p10
I55
sS'unique'
p11
I630
ssS'three'
p12
(dp13
g5
I1421
sg6
I33
sg7
I2
sg8
I94
sg9
I10
sg10
I18
sg11
I660
ssS'machine'
p14
(dp15
g5
I584
sg6
I30
sg7
I5
sg8
I33
sg9
I10
sg10
I4
sg11
I460
ssS'machine4'
p16
(dp17
g5
I580
sg6
I16
sg7
I3
sg8
I0
sg9
I26
sg10
I43
sg11
I580
ssS'machine3'
p18
(dp19
g5
I565
sg6
I31
sg7
I2
sg8
I33
sg9
I12
sg10
I7
sg11
I430
ssS'machine2'
p20
(dp21
g5
I492
sg6
I28
sg7
I2
sg8
I36
sg9
I15
sg10
I12
sg11
I360
sssS'Wahono.csv'
p22
(dp23
g3
(dp24
g5
I3880
sg6
I55
sg7
I5
sg8
I0
sg9
I2
sg10
I414
sg11
I3880
ssg12
(dp25
g5
I4371
sg6
I59
sg7
I1
sg8
I327
sg9
I2
sg10
I61
sg11
I2010
ssg14
(dp26
g5
I1683
sg6
I48
sg7
I7
sg8
I137
sg9
I7
sg10
I10
sg11
I1260
ssg16
(dp27
g5
I3660
sg6
I50
sg7
I10
sg8
I0
sg9
I2
sg10
I376
sg11
I3660
ssg18
(dp28
g5
I2423
sg6
I57
sg7
I2
sg8
I182
sg9
I3
sg10
I45
sg11
I1690
ssg20
(dp29
g5
I2134
sg6
I57
sg7
I2
sg8
I157
sg9
I3
sg10
I38
sg11
I1480
sssS'Hall.csv'
p30
(dp31
g3
(dp32
g5
I4470
sg6
I94
sg7
I10
sg8
I0
sg9
I2
sg10
I425
sg11
I4470
ssg12
(dp33
g5
I2469
sg6
I102
sg7
I1
sg8
I201
sg9
I3
sg10
I21
sg11
I1130
ssg14
(dp34
g5
I581
sg6
I97
sg7
I3
sg8
I35
sg9
I6
sg10
I11
sg11
I410
ssg16
(dp35
g5
I1490
sg6
I90
sg7
I13
sg8
I0
sg9
I3
sg10
I138
sg11
I1490
ssg18
(dp36
g5
I867
sg6
I100
sg7
I2
sg8
I59
sg9
I4
sg10
I9
sg11
I560
ssg20
(dp37
g5
I839
sg6
I99
sg7
I3
sg8
I51
sg9
I4
sg10
I16
sg11
I560
sssS'Danijel.csv'
p38
(dp39
g3
(dp40
g5
I2850
sg6
I42
sg7
I5
sg8
I0
sg9
I1
sg10
I284
sg11
I2850
ssg12
(dp41
g5
I2454
sg6
I46
sg7
I0
sg8
I190
sg9
I2
sg10
I24
sg11
I1130
ssg14
(dp42
g5
I1080
sg6
I46
sg7
I0
sg8
I85
sg9
I2
sg10
I4
sg11
I810
ssg16
(dp43
g5
I3550
sg6
I45
sg7
I1
sg8
I0
sg9
I2
sg10
I361
sg11
I3550
ssg18
(dp44
g5
I1221
sg6
I44
sg7
I2
sg8
I105
sg9
I2
sg10
I14
sg11
I830
ssg20
(dp45
g5
I721
sg6
I43
sg7
I1
sg8
I46
sg9
I4
sg10
I11
sg11
I510
sss.(dp0
S'K_all3.csv'
p1
(dp2
S'none'
p3
(dp4
S'count'
p5
I460
sS'truepos'
p6
I33
sS'falseneg'
p7
I3
sS'correction'
p8
I0
sS'unknownyes'
p9
I9
sS'falsepos'
p10
I43
sS'unique'
p11
I460
ssS'three'
p12
(dp13
g5
I807
sg6
I30
sg7
I0
sg8
I63
sg9
I15
sg10
I11
sg11
I370
ssS'machine'
p14
(dp15
g5
I525
sg6
I31
sg7
I5
sg8
I39
sg9
I9
sg10
I4
sg11
I410
ssS'machine4'
p16
(dp17
g5
I500
sg6
I33
sg7
I3
sg8
I0
sg9
I9
sg10
I44
sg11
I500
ssS'machine3'
p18
(dp19
g5
I645
sg6
I30
sg7
I4
sg8
I36
sg9
I11
sg10
I7
sg11
I500
ssS'machine2'
p20
(dp21
g5
I609
sg6
I34
sg7
I4
sg8
I36
sg9
I7
sg10
I8
sg11
I440
sssS'Wahono.csv'
p22
(dp23
g3
(dp24
g5
I3550
sg6
I51
sg7
I10
sg8
I0
sg9
I1
sg10
I334
sg11
I3550
ssg12
(dp25
g5
I3901
sg6
I57
sg7
I1
sg8
I308
sg9
I4
sg10
I37
sg11
I1790
ssg14
(dp26
g5
I1763
sg6
I53
sg7
I3
sg8
I147
sg9
I6
sg10
I21
sg11
I1310
ssg16
(dp27
g5
I3890
sg6
I46
sg7
I12
sg8
I0
sg9
I4
sg10
I414
sg11
I3890
ssg18
(dp28
g5
I2045
sg6
I56
sg7
I3
sg8
I153
sg9
I3
sg10
I26
sg11
I1430
ssg20
(dp29
g5
I2211
sg6
I56
sg7
I2
sg8
I157
sg9
I4
sg10
I29
sg11
I1560
sssS'Hall.csv'
p30
(dp31
g3
(dp32
g5
I4680
sg6
I94
sg7
I11
sg8
I0
sg9
I1
sg10
I487
sg11
I4680
ssg12
(dp33
g5
I1060
sg6
I101
sg7
I1
sg8
I78
sg9
I4
sg10
I6
sg11
I490
ssg14
(dp34
g5
I542
sg6
I94
sg7
I4
sg8
I32
sg9
I8
sg10
I15
sg11
I390
ssg16
(dp35
g5
I2220
sg6
I96
sg7
I8
sg8
I0
sg9
I2
sg10
I214
sg11
I2220
ssg18
(dp36
g5
I719
sg6
I97
sg7
I4
sg8
I34
sg9
I5
sg10
I8
sg11
I460
ssg20
(dp37
g5
I947
sg6
I101
sg7
I1
sg8
I63
sg9
I4
sg10
I16
sg11
I640
sssS'Danijel.csv'
p38
(dp39
g3
(dp40
g5
I2340
sg6
I40
sg7
I4
sg8
I0
sg9
I4
sg10
I249
sg11
I2340
ssg12
(dp41
g5
I1749
sg6
I40
sg7
I2
sg8
I142
sg9
I6
sg10
I17
sg11
I800
ssg14
(dp42
g5
I934
sg6
I41
sg7
I4
sg8
I70
sg9
I3
sg10
I10
sg11
I710
ssg16
(dp43
g5
I2950
sg6
I45
sg7
I2
sg8
I0
sg9
I1
sg10
I298
sg11
I2950
ssg18
(dp44
g5
I1406
sg6
I44
sg7
I2
sg8
I113
sg9
I2
sg10
I17
sg11
I980
ssg20
(dp45
g5
I1580
sg6
I41
sg7
I4
sg8
I115
sg9
I3
sg10
I28
sg11
I1130
sss.(dp0
S'K_all3.csv'
p1
(dp2
S'none'
p3
(dp4
S'count'
p5
I450
sS'truepos'
p6
I11
sS'falseneg'
p7
I3
sS'correction'
p8
I0
sS'unknownyes'
p9
I31
sS'falsepos'
p10
I46
sS'unique'
p11
I450
ssS'three'
p12
(dp13
g5
I995
sg6
I33
sg7
I0
sg8
I92
sg9
I12
sg10
I10
sg11
I450
ssS'machine'
p14
(dp15
g5
I671
sg6
I33
sg7
I6
sg8
I43
sg9
I6
sg10
I3
sg11
I560
ssS'machine4'
p16
(dp17
g5
I490
sg6
I35
sg7
I1
sg8
I0
sg9
I9
sg10
I39
sg11
I490
ssS'machine3'
p18
(dp19
g5
I516
sg6
I29
sg7
I5
sg8
I40
sg9
I11
sg10
I10
sg11
I390
ssS'machine2'
p20
(dp21
g5
I628
sg6
I28
sg7
I3
sg8
I44
sg9
I14
sg10
I7
sg11
I460
sssS'Wahono.csv'
p22
(dp23
g3
(dp24
g5
I3740
sg6
I55
sg7
I6
sg8
I0
sg9
I1
sg10
I396
sg11
I3740
ssg12
(dp25
g5
I4826
sg6
I60
sg7
I0
sg8
I383
sg9
I2
sg10
I65
sg11
I2210
ssg14
(dp26
g5
I1489
sg6
I47
sg7
I10
sg8
I113
sg9
I5
sg10
I25
sg11
I1110
ssg16
(dp27
g5
I3690
sg6
I58
sg7
I4
sg8
I0
sg9
I0
sg10
I418
sg11
I3690
ssg18
(dp28
g5
I1741
sg6
I58
sg7
I1
sg8
I131
sg9
I3
sg10
I20
sg11
I1210
ssg20
(dp29
g5
I3089
sg6
I55
sg7
I5
sg8
I239
sg9
I2
sg10
I48
sg11
I2160
sssS'Hall.csv'
p30
(dp31
g3
(dp32
g5
I3620
sg6
I92
sg7
I12
sg8
I0
sg9
I2
sg10
I385
sg11
I3620
ssg12
(dp33
g5
I1795
sg6
I99
sg7
I3
sg8
I145
sg9
I4
sg10
I22
sg11
I820
ssg14
(dp34
g5
I602
sg6
I91
sg7
I6
sg8
I40
sg9
I9
sg10
I15
sg11
I430
ssg16
(dp35
g5
I3310
sg6
I91
sg7
I12
sg8
I0
sg9
I3
sg10
I314
sg11
I3310
ssg18
(dp36
g5
I1633
sg6
I98
sg7
I5
sg8
I114
sg9
I3
sg10
I22
sg11
I1110
ssg20
(dp37
g5
I633
sg6
I93
sg7
I6
sg8
I31
sg9
I7
sg10
I19
sg11
I440
sssS'Danijel.csv'
p38
(dp39
g3
(dp40
g5
I2450
sg6
I39
sg7
I6
sg8
I0
sg9
I3
sg10
I216
sg11
I2450
ssg12
(dp41
g5
I1666
sg6
I44
sg7
I1
sg8
I118
sg9
I3
sg10
I20
sg11
I770
ssg14
(dp42
g5
I1275
sg6
I42
sg7
I3
sg8
I101
sg9
I3
sg10
I21
sg11
I960
ssg16
(dp43
g5
I2680
sg6
I44
sg7
I2
sg8
I0
sg9
I2
sg10
I289
sg11
I2680
ssg18
(dp44
g5
I1060
sg6
I45
sg7
I1
sg8
I80
sg9
I2
sg10
I19
sg11
I730
ssg20
(dp45
g5
I811
sg6
I38
sg7
I5
sg8
I64
sg9
I5
sg10
I6
sg11
I560
sss.(dp0
S'K_all3.csv'
p1
(dp2
S'none'
p3
(dp4
S'count'
p5
I570
sS'truepos'
p6
I33
sS'falseneg'
p7
I5
sS'correction'
p8
I0
sS'unknownyes'
p9
I7
sS'falsepos'
p10
I49
sS'unique'
p11
I570
ssS'three'
p12
(dp13
g5
I998
sg6
I34
sg7
I0
sg8
I75
sg9
I11
sg10
I18
sg11
I460
ssS'machine'
p14
(dp15
g5
I805
sg6
I30
sg7
I6
sg8
I65
sg9
I9
sg10
I9
sg11
I660
ssS'machine4'
p16
(dp17
g5
I610
sg6
I22
sg7
I4
sg8
I0
sg9
I19
sg10
I59
sg11
I610
ssS'machine3'
p18
(dp19
g5
I745
sg6
I32
sg7
I2
sg8
I53
sg9
I11
sg10
I9
sg11
I560
ssS'machine2'
p20
(dp21
g5
I628
sg6
I31
sg7
I4
sg8
I41
sg9
I10
sg10
I5
sg11
I460
sssS'Wahono.csv'
p22
(dp23
g3
(dp24
g5
I3440
sg6
I50
sg7
I10
sg8
I0
sg9
I2
sg10
I330
sg11
I3440
ssg12
(dp25
g5
I3140
sg6
I59
sg7
I1
sg8
I270
sg9
I2
sg10
I30
sg11
I1430
ssg14
(dp26
g5
I1553
sg6
I55
sg7
I4
sg8
I118
sg9
I3
sg10
I17
sg11
I1160
ssg16
(dp27
g5
I3700
sg6
I53
sg7
I7
sg8
I0
sg9
I2
sg10
I356
sg11
I3700
ssg18
(dp28
g5
I2021
sg6
I57
sg7
I2
sg8
I148
sg9
I3
sg10
I32
sg11
I1410
ssg20
(dp29
g5
I1578
sg6
I51
sg7
I2
sg8
I111
sg9
I9
sg10
I25
sg11
I1110
sssS'Hall.csv'
p30
(dp31
g3
(dp32
g5
I3380
sg6
I87
sg7
I16
sg8
I0
sg9
I3
sg10
I331
sg11
I3380
ssg12
(dp33
g5
I1505
sg6
I98
sg7
I4
sg8
I101
sg9
I4
sg10
I12
sg11
I700
ssg14
(dp34
g5
I733
sg6
I94
sg7
I7
sg8
I57
sg9
I5
sg10
I12
sg11
I520
ssg16
(dp35
g5
I4700
sg6
I93
sg7
I11
sg8
I0
sg9
I2
sg10
I481
sg11
I4700
ssg18
(dp36
g5
I1190
sg6
I101
sg7
I2
sg8
I103
sg9
I3
sg10
I15
sg11
I760
ssg20
(dp37
g5
I1565
sg6
I98
sg7
I4
sg8
I109
sg9
I4
sg10
I19
sg11
I1060
sssS'Danijel.csv'
p38
(dp39
g3
(dp40
g5
I2610
sg6
I43
sg7
I4
sg8
I0
sg9
I1
sg10
I263
sg11
I2610
ssg12
(dp41
g5
I2412
sg6
I44
sg7
I1
sg8
I202
sg9
I3
sg10
I29
sg11
I1100
ssg14
(dp42
g5
I1057
sg6
I41
sg7
I4
sg8
I96
sg9
I3
sg10
I11
sg11
I810
ssg16
(dp43
g5
I1090
sg6
I42
sg7
I4
sg8
I0
sg9
I2
sg10
I111
sg11
I1090
ssg18
(dp44
g5
I1313
sg6
I45
sg7
I1
sg8
I89
sg9
I2
sg10
I22
sg11
I950
ssg20
(dp45
g5
I1449
sg6
I41
sg7
I4
sg8
I110
sg9
I3
sg10
I19
sg11
I1020
sss.(dp0
S'K_all3.csv'
p1
(dp2
S'none'
p3
(dp4
S'count'
p5
I690
sS'truepos'
p6
I37
sS'falseneg'
p7
I3
sS'correction'
p8
I0
sS'unknownyes'
p9
I5
sS'falsepos'
p10
I67
sS'unique'
p11
I690
ssS'three'
p12
(dp13
g5
I1067
sg6
I36
sg7
I1
sg8
I82
sg9
I8
sg10
I12
sg11
I490
ssS'machine'
p14
(dp15
g5
I650
sg6
I34
sg7
I4
sg8
I51
sg9
I7
sg10
I5
sg11
I510
ssS'machine4'
p16
(dp17
g5
I590
sg6
I29
sg7
I4
sg8
I0
sg9
I12
sg10
I47
sg11
I590
ssS'machine3'
p18
(dp19
g5
I757
sg6
I32
sg7
I5
sg8
I58
sg9
I8
sg10
I17
sg11
I550
ssS'machine2'
p20
(dp21
g5
I535
sg6
I33
sg7
I2
sg8
I36
sg9
I10
sg10
I4
sg11
I380
sssS'Wahono.csv'
p22
(dp23
g3
(dp24
g5
I4690
sg6
I54
sg7
I8
sg8
I0
sg9
I0
sg10
I489
sg11
I4690
ssg12
(dp25
g5
I3556
sg6
I58
sg7
I2
sg8
I282
sg9
I2
sg10
I35
sg11
I1630
ssg14
(dp26
g5
I1613
sg6
I56
sg7
I4
sg8
I122
sg9
I2
sg10
I26
sg11
I1210
ssg16
(dp27
g5
I3750
sg6
I59
sg7
I3
sg8
I0
sg9
I0
sg10
I400
sg11
I3750
ssg18
(dp28
g5
I2057
sg6
I60
sg7
I1
sg8
I146
sg9
I1
sg10
I38
sg11
I1440
ssg20
(dp29
g5
I2602
sg6
I55
sg7
I4
sg8
I183
sg9
I3
sg10
I25
sg11
I1860
sssS'Hall.csv'
p30
(dp31
g3
(dp32
g5
I3950
sg6
I96
sg7
I10
sg8
I0
sg9
I0
sg10
I388
sg11
I3950
ssg12
(dp33
g5
I2917
sg6
I100
sg7
I2
sg8
I204
sg9
I4
sg10
I45
sg11
I1350
ssg14
(dp34
g5
I582
sg6
I92
sg7
I9
sg8
I38
sg9
I5
sg10
I10
sg11
I410
ssg16
(dp35
g5
I4640
sg6
I86
sg7
I16
sg8
I0
sg9
I4
sg10
I462
sg11
I4640
ssg18
(dp36
g5
I787
sg6
I96
sg7
I6
sg8
I50
sg9
I4
sg10
I5
sg11
I500
ssg20
(dp37
g5
I1399
sg6
I98
sg7
I4
sg8
I87
sg9
I4
sg10
I23
sg11
I950
sssS'Danijel.csv'
p38
(dp39
g3
(dp40
g5
I1890
sg6
I43
sg7
I2
sg8
I0
sg9
I3
sg10
I166
sg11
I1890
ssg12
(dp41
g5
I2243
sg6
I46
sg7
I0
sg8
I175
sg9
I2
sg10
I27
sg11
I1030
ssg14
(dp42
g5
I1189
sg6
I41
sg7
I5
sg8
I86
sg9
I2
sg10
I11
sg11
I910
ssg16
(dp43
g5
I1210
sg6
I40
sg7
I4
sg8
I0
sg9
I4
sg10
I95
sg11
I1210
ssg18
(dp44
g5
I1559
sg6
I46
sg7
I0
sg8
I123
sg9
I2
sg10
I26
sg11
I1080
ssg20
(dp45
g5
I935
sg6
I41
sg7
I3
sg8
I64
sg9
I4
sg10
I12
sg11
I660
sss.(dp0
S'K_all3.csv'
p1
(dp2
S'none'
p3
(dp4
S'count'
p5
I410
sS'truepos'
p6
I27
sS'falseneg'
p7
I4
sS'correction'
p8
I0
sS'unknownyes'
p9
I14
sS'falsepos'
p10
I49
sS'unique'
p11
I410
ssS'three'
p12
(dp13
g5
I1039
sg6
I32
sg7
I2
sg8
I72
sg9
I11
sg10
I10
sg11
I480
ssS'machine'
p14
(dp15
g5
I678
sg6
I33
sg7
I2
sg8
I48
sg9
I10
sg10
I9
sg11
I510
ssS'machine4'
p16
(dp17
g5
I520
sg6
I23
sg7
I7
sg8
I0
sg9
I15
sg10
I56
sg11
I520
ssS'machine3'
p18
(dp19
g5
I553
sg6
I28
sg7
I2
sg8
I32
sg9
I15
sg10
I11
sg11
I410
ssS'machine2'
p20
(dp21
g5
I597
sg6
I30
sg7
I1
sg8
I47
sg9
I14
sg10
I9
sg11
I410
sssS'Wahono.csv'
p22
(dp23
g3
(dp24
g5
I3590
sg6
I54
sg7
I5
sg8
I0
sg9
I3
sg10
I393
sg11
I3590
ssg12
(dp25
g5
I3817
sg6
I60
sg7
I0
sg8
I301
sg9
I2
sg10
I63
sg11
I1750
ssg14
(dp26
g5
I1777
sg6
I55
sg7
I4
sg8
I153
sg9
I3
sg10
I19
sg11
I1310
ssg16
(dp27
g5
I2990
sg6
I52
sg7
I9
sg8
I0
sg9
I1
sg10
I295
sg11
I2990
ssg18
(dp28
g5
I2136
sg6
I55
sg7
I2
sg8
I157
sg9
I5
sg10
I27
sg11
I1500
ssg20
(dp29
g5
I2263
sg6
I58
sg7
I0
sg8
I183
sg9
I4
sg10
I41
sg11
I1560
sssS'Hall.csv'
p30
(dp31
g3
(dp32
g5
I3820
sg6
I98
sg7
I6
sg8
I0
sg9
I2
sg10
I356
sg11
I3820
ssg12
(dp33
g5
I1751
sg6
I100
sg7
I2
sg8
I146
sg9
I4
sg10
I15
sg11
I800
ssg14
(dp34
g5
I492
sg6
I85
sg7
I10
sg8
I28
sg9
I11
sg10
I14
sg11
I360
ssg16
(dp35
g5
I4270
sg6
I95
sg7
I8
sg8
I0
sg9
I3
sg10
I435
sg11
I4270
ssg18
(dp36
g5
I828
sg6
I99
sg7
I3
sg8
I45
sg9
I4
sg10
I6
sg11
I540
ssg20
(dp37
g5
I638
sg6
I98
sg7
I2
sg8
I31
sg9
I6
sg10
I17
sg11
I440
sssS'Danijel.csv'
p38
(dp39
g3
(dp40
g5
I3140
sg6
I41
sg7
I6
sg8
I0
sg9
I1
sg10
I324
sg11
I3140
ssg12
(dp41
g5
I2069
sg6
I44
sg7
I2
sg8
I161
sg9
I2
sg10
I24
sg11
I950
ssg14
(dp42
g5
I1041
sg6
I40
sg7
I5
sg8
I64
sg9
I3
sg10
I13
sg11
I810
ssg16
(dp43
g5
I3050
sg6
I45
sg7
I2
sg8
I0
sg9
I1
sg10
I282
sg11
I3050
ssg18
(dp44
g5
I1327
sg6
I43
sg7
I3
sg8
I77
sg9
I2
sg10
I17
sg11
I950
ssg20
(dp45
g5
I1304
sg6
I34
sg7
I3
sg8
I104
sg9
I11
sg10
I23
sg11
I910
sss.(dp0
S'K_all3.csv'
p1
(dp2
S'none'
p3
(dp4
S'count'
p5
I430
sS'truepos'
p6
I30
sS'falseneg'
p7
I2
sS'correction'
p8
I0
sS'unknownyes'
p9
I13
sS'falsepos'
p10
I44
sS'unique'
p11
I430
ssS'three'
p12
(dp13
g5
I1009
sg6
I32
sg7
I2
sg8
I87
sg9
I11
sg10
I9
sg11
I460
ssS'machine'
p14
(dp15
g5
I641
sg6
I29
sg7
I5
sg8
I40
sg9
I11
sg10
I7
sg11
I510
ssS'machine4'
p16
(dp17
g5
I450
sg6
I35
sg7
I1
sg8
I0
sg9
I9
sg10
I41
sg11
I450
ssS'machine3'
p18
(dp19
g5
I565
sg6
I29
sg7
I3
sg8
I46
sg9
I13
sg10
I10
sg11
I410
ssS'machine2'
p20
(dp21
g5
I554
sg6
I32
sg7
I1
sg8
I34
sg9
I12
sg10
I6
sg11
I410
sssS'Wahono.csv'
p22
(dp23
g3
(dp24
g5
I3280
sg6
I56
sg7
I3
sg8
I0
sg9
I3
sg10
I290
sg11
I3280
ssg12
(dp25
g5
I3274
sg6
I60
sg7
I0
sg8
I247
sg9
I2
sg10
I30
sg11
I1510
ssg14
(dp26
g5
I1682
sg6
I57
sg7
I2
sg8
I122
sg9
I3
sg10
I16
sg11
I1260
ssg16
(dp27
g5
I3920
sg6
I56
sg7
I4
sg8
I0
sg9
I2
sg10
I389
sg11
I3920
ssg18
(dp28
g5
I2047
sg6
I57
sg7
I2
sg8
I138
sg9
I3
sg10
I30
sg11
I1450
ssg20
(dp29
g5
I2160
sg6
I55
sg7
I4
sg8
I159
sg9
I3
sg10
I41
sg11
I1510
sssS'Hall.csv'
p30
(dp31
g3
(dp32
g5
I5210
sg6
I94
sg7
I11
sg8
I0
sg9
I1
sg10
I511
sg11
I5210
ssg12
(dp33
g5
I2024
sg6
I98
sg7
I4
sg8
I153
sg9
I4
sg10
I22
sg11
I930
ssg14
(dp34
g5
I731
sg6
I93
sg7
I8
sg8
I48
sg9
I5
sg10
I8
sg11
I520
ssg16
(dp35
g5
I4480
sg6
I94
sg7
I10
sg8
I0
sg9
I2
sg10
I444
sg11
I4480
ssg18
(dp36
g5
I898
sg6
I94
sg7
I8
sg8
I66
sg9
I4
sg10
I15
sg11
I570
ssg20
(dp37
g5
I807
sg6
I96
sg7
I6
sg8
I45
sg9
I4
sg10
I14
sg11
I560
sssS'Danijel.csv'
p38
(dp39
g3
(dp40
g5
I2620
sg6
I45
sg7
I1
sg8
I0
sg9
I2
sg10
I261
sg11
I2620
ssg12
(dp41
g5
I3141
sg6
I43
sg7
I2
sg8
I246
sg9
I3
sg10
I35
sg11
I1440
ssg14
(dp42
g5
I1316
sg6
I40
sg7
I4
sg8
I95
sg9
I4
sg10
I12
sg11
I1010
ssg16
(dp43
g5
I3000
sg6
I43
sg7
I4
sg8
I0
sg9
I1
sg10
I302
sg11
I3000
ssg18
(dp44
g5
I1367
sg6
I40
sg7
I3
sg8
I113
sg9
I5
sg10
I17
sg11
I940
ssg20
(dp45
g5
I1216
sg6
I43
sg7
I2
sg8
I82
sg9
I3
sg10
I16
sg11
I860
sss.