(dp0
S'K_all3.csv'
p1
(dp2
S'machine'
p3
(dp4
S'count'
p5
I524
sS'truepos'
p6
I29
sS'falseneg'
p7
I2
sS'unknownyes'
p8
I14
sS'falsepos'
p9
I20
sS'unique'
p10
I410
ssS'none'
p11
(dp12
g5
I500
sg6
I33
sg7
I1
sg8
I11
sg9
I40
sg10
I500
ssS'three'
p13
(dp14
g5
I871
sg6
I29
sg7
I3
sg8
I13
sg9
I9
sg10
I400
sssS'Wahono.csv'
p15
(dp16
g3
(dp17
g5
I1803
sg6
I57
sg7
I2
sg8
I3
sg9
I19
sg10
I1360
ssg11
(dp18
g5
I4290
sg6
I60
sg7
I2
sg8
I0
sg9
I434
sg10
I4290
ssg13
(dp19
g5
I3665
sg6
I57
sg7
I3
sg8
I2
sg9
I50
sg10
I1680
sssS'Hall.csv'
p20
(dp21
g3
(dp22
g5
I780
sg6
I96
sg7
I4
sg8
I6
sg9
I13
sg10
I560
ssg11
(dp23
g5
I4980
sg6
I96
sg7
I9
sg8
I1
sg9
I489
sg10
I4980
ssg13
(dp24
g5
I1338
sg6
I98
sg7
I4
sg8
I4
sg9
I16
sg10
I620
sssS'Danijel.csv'
p25
(dp26
g3
(dp27
g5
I1399
sg6
I41
sg7
I4
sg8
I3
sg9
I11
sg10
I1070
ssg11
(dp28
g5
I2920
sg6
I40
sg7
I7
sg8
I1
sg9
I285
sg10
I2920
ssg13
(dp29
g5
I2374
sg6
I46
sg7
I0
sg8
I2
sg9
I31
sg10
I1080
sss.