(dp0
S'K_all3.csv'
p1
(dp2
S'none'
p3
(dp4
S'count'
p5
I490
sS'truepos'
p6
I30
sS'falseneg'
p7
I6
sS'correction'
p8
I0
sS'unknownyes'
p9
I9
sS'falsepos'
p10
I47
sS'unique'
p11
I490
ssS'three'
p12
(dp13
g5
I1092
sg6
I33
sg7
I2
sg8
I84
sg9
I10
sg10
I13
sg11
I500
ssS'machine'
p14
(dp15
g5
I601
sg6
I33
sg7
I3
sg8
I44
sg9
I9
sg10
I4
sg11
I460
ssS'machine4'
p16
(dp17
g5
I500
sg6
I29
sg7
I6
sg8
I0
sg9
I10
sg10
I56
sg11
I500
ssS'machine3'
p18
(dp19
g5
I668
sg6
I28
sg7
I2
sg8
I57
sg9
I15
sg10
I12
sg11
I490
ssS'machine2'
p20
(dp21
g5
I478
sg6
I30
sg7
I3
sg8
I29
sg9
I12
sg10
I8
sg11
I340
sssS'Wahono.csv'
p22
(dp23
g3
(dp24
g5
I3380
sg6
I54
sg7
I6
sg8
I0
sg9
I2
sg10
I330
sg11
I3380
ssg12
(dp25
g5
I3317
sg6
I59
sg7
I1
sg8
I246
sg9
I2
sg10
I39
sg11
I1530
ssg14
(dp26
g5
I1897
sg6
I54
sg7
I6
sg8
I169
sg9
I2
sg10
I16
sg11
I1410
ssg16
(dp27
g5
I3050
sg6
I57
sg7
I4
sg8
I0
sg9
I1
sg10
I285
sg11
I3050
ssg18
(dp28
g5
I1960
sg6
I56
sg7
I4
sg8
I150
sg9
I2
sg10
I21
sg11
I1380
ssg20
(dp29
g5
I2541
sg6
I58
sg7
I3
sg8
I195
sg9
I1
sg10
I51
sg11
I1760
sssS'Hall.csv'
p30
(dp31
g3
(dp32
g5
I1020
sg6
I95
sg7
I7
sg8
I0
sg9
I4
sg10
I84
sg11
I1020
ssg12
(dp33
g5
I1902
sg6
I100
sg7
I3
sg8
I133
sg9
I3
sg10
I25
sg11
I880
ssg14
(dp34
g5
I493
sg6
I92
sg7
I8
sg8
I24
sg9
I6
sg10
I12
sg11
I360
ssg16
(dp35
g5
I3140
sg6
I94
sg7
I10
sg8
I0
sg9
I2
sg10
I305
sg11
I3140
ssg18
(dp36
g5
I997
sg6
I97
sg7
I4
sg8
I63
sg9
I5
sg10
I13
sg11
I660
ssg20
(dp37
g5
I692
sg6
I97
sg7
I5
sg8
I41
sg9
I4
sg10
I5
sg11
I460
sssS'Danijel.csv'
p38
(dp39
g3
(dp40
g5
I1440
sg6
I44
sg7
I1
sg8
I0
sg9
I3
sg10
I133
sg11
I1440
ssg12
(dp41
g5
I1933
sg6
I42
sg7
I2
sg8
I143
sg9
I4
sg10
I15
sg11
I890
ssg14
(dp42
g5
I893
sg6
I33
sg7
I8
sg8
I71
sg9
I7
sg10
I10
sg11
I670
ssg16
(dp43
g5
I1040
sg6
I35
sg7
I7
sg8
I0
sg9
I6
sg10
I100
sg11
I1040
ssg18
(dp44
g5
I1290
sg6
I42
sg7
I2
sg8
I100
sg9
I4
sg10
I17
sg11
I890
ssg20
(dp45
g5
I1286
sg6
I43
sg7
I2
sg8
I91
sg9
I3
sg10
I13
sg11
I910
sss.(dp0
S'K_all3.csv'
p1
(dp2
S'none'
p3
(dp4
S'count'
p5
I350
sS'truepos'
p6
I24
sS'falseneg'
p7
I3
sS'correction'
p8
I0
sS'unknownyes'
p9
I18
sS'falsepos'
p10
I34
sS'unique'
p11
I350
ssS'three'
p12
(dp13
g5
I1015
sg6
I37
sg7
I1
sg8
I69
sg9
I7
sg10
I15
sg11
I470
ssS'machine'
p14
(dp15
g5
I539
sg6
I31
sg7
I3
sg8
I38
sg9
I11
sg10
I10
sg11
I410
ssS'machine4'
p16
(dp17
g5
I480
sg6
I29
sg7
I7
sg8
I0
sg9
I9
sg10
I35
sg11
I480
ssS'machine3'
p18
(dp19
g5
I684
sg6
I35
sg7
I0
sg8
I49
sg9
I10
sg10
I8
sg11
I480
ssS'machine2'
p20
(dp21
g5
I730
sg6
I30
sg7
I5
sg8
I61
sg9
I10
sg10
I10
sg11
I530
sssS'Wahono.csv'
p22
(dp23
g3
(dp24
g5
I3170
sg6
I55
sg7
I5
sg8
I0
sg9
I2
sg10
I295
sg11
I3170
ssg12
(dp25
g5
I4222
sg6
I57
sg7
I2
sg8
I342
sg9
I3
sg10
I47
sg11
I1930
ssg14
(dp26
g5
I2563
sg6
I56
sg7
I4
sg8
I210
sg9
I2
sg10
I25
sg11
I1910
ssg16
(dp27
g5
I3210
sg6
I55
sg7
I5
sg8
I0
sg9
I2
sg10
I326
sg11
I3210
ssg18
(dp28
g5
I2524
sg6
I57
sg7
I3
sg8
I174
sg9
I2
sg10
I40
sg11
I1780
ssg20
(dp29
g5
I2361
sg6
I57
sg7
I3
sg8
I171
sg9
I2
sg10
I38
sg11
I1660
sssS'Hall.csv'
p30
(dp31
g3
(dp32
g5
I1470
sg6
I94
sg7
I9
sg8
I0
sg9
I3
sg10
I134
sg11
I1470
ssg12
(dp33
g5
I1442
sg6
I99
sg7
I3
sg8
I113
sg9
I4
sg10
I13
sg11
I660
ssg14
(dp34
g5
I551
sg6
I92
sg7
I9
sg8
I34
sg9
I5
sg10
I14
sg11
I400
ssg16
(dp35
g5
I3290
sg6
I93
sg7
I10
sg8
I0
sg9
I3
sg10
I302
sg11
I3290
ssg18
(dp36
g5
I688
sg6
I94
sg7
I5
sg8
I50
sg9
I7
sg10
I4
sg11
I420
ssg20
(dp37
g5
I844
sg6
I98
sg7
I4
sg8
I61
sg9
I4
sg10
I21
sg11
I560
sssS'Danijel.csv'
p38
(dp39
g3
(dp40
g5
I560
sg6
I41
sg7
I1
sg8
I0
sg9
I6
sg10
I50
sg11
I560
ssg12
(dp41
g5
I2804
sg6
I44
sg7
I2
sg8
I212
sg9
I2
sg10
I35
sg11
I1290
ssg14
(dp42
g5
I1389
sg6
I42
sg7
I3
sg8
I105
sg9
I3
sg10
I16
sg11
I1060
ssg16
(dp43
g5
I1320
sg6
I35
sg7
I8
sg8
I0
sg9
I5
sg10
I117
sg11
I1320
ssg18
(dp44
g5
I1670
sg6
I42
sg7
I2
sg8
I127
sg9
I4
sg10
I34
sg11
I1170
ssg20
(dp45
g5
I865
sg6
I38
sg7
I5
sg8
I62
sg9
I5
sg10
I17
sg11
I610
sss.(dp0
S'K_all3.csv'
p1
(dp2
S'none'
p3
(dp4
S'count'
p5
I580
sS'truepos'
p6
I32
sS'falseneg'
p7
I6
sS'correction'
p8
I0
sS'unknownyes'
p9
I7
sS'falsepos'
p10
I51
sS'unique'
p11
I580
ssS'three'
p12
(dp13
g5
I870
sg6
I31
sg7
I0
sg8
I65
sg9
I14
sg10
I9
sg11
I400
ssS'machine'
p14
(dp15
g5
I582
sg6
I28
sg7
I7
sg8
I42
sg9
I10
sg10
I10
sg11
I460
ssS'machine4'
p16
(dp17
g5
I390
sg6
I29
sg7
I5
sg8
I0
sg9
I11
sg10
I28
sg11
I390
ssS'machine3'
p18
(dp19
g5
I550
sg6
I29
sg7
I4
sg8
I35
sg9
I12
sg10
I9
sg11
I410
ssS'machine2'
p20
(dp21
g5
I572
sg6
I33
sg7
I1
sg8
I33
sg9
I11
sg10
I9
sg11
I410
sssS'Wahono.csv'
p22
(dp23
g3
(dp24
g5
I2910
sg6
I56
sg7
I4
sg8
I0
sg9
I2
sg10
I270
sg11
I2910
ssg12
(dp25
g5
I5527
sg6
I60
sg7
I0
sg8
I407
sg9
I2
sg10
I61
sg11
I2550
ssg14
(dp26
g5
I1959
sg6
I52
sg7
I7
sg8
I135
sg9
I3
sg10
I21
sg11
I1490
ssg16
(dp27
g5
I2590
sg6
I53
sg7
I6
sg8
I0
sg9
I3
sg10
I256
sg11
I2590
ssg18
(dp28
g5
I1629
sg6
I56
sg7
I3
sg8
I128
sg9
I3
sg10
I20
sg11
I1130
ssg20
(dp29
g5
I1780
sg6
I58
sg7
I2
sg8
I149
sg9
I2
sg10
I35
sg11
I1210
sssS'Hall.csv'
p30
(dp31
g3
(dp32
g5
I2460
sg6
I93
sg7
I10
sg8
I0
sg9
I3
sg10
I245
sg11
I2460
ssg12
(dp33
g5
I2943
sg6
I100
sg7
I2
sg8
I230
sg9
I4
sg10
I33
sg11
I1350
ssg14
(dp34
g5
I862
sg6
I94
sg7
I7
sg8
I63
sg9
I5
sg10
I12
sg11
I610
ssg16
(dp35
g5
I1560
sg6
I94
sg7
I8
sg8
I0
sg9
I4
sg10
I152
sg11
I1560
ssg18
(dp36
g5
I801
sg6
I100
sg7
I2
sg8
I46
sg9
I4
sg10
I5
sg11
I510
ssg20
(dp37
g5
I992
sg6
I100
sg7
I2
sg8
I70
sg9
I4
sg10
I15
sg11
I660
sssS'Danijel.csv'
p38
(dp39
g3
(dp40
g5
I1840
sg6
I42
sg7
I4
sg8
I0
sg9
I2
sg10
I156
sg11
I1840
ssg12
(dp41
g5
I2337
sg6
I45
sg7
I1
sg8
I168
sg9
I2
sg10
I37
sg11
I1080
ssg14
(dp42
g5
I1597
sg6
I42
sg7
I4
sg8
I133
sg9
I2
sg10
I15
sg11
I1210
ssg16
(dp43
g5
I2920
sg6
I40
sg7
I7
sg8
I0
sg9
I1
sg10
I283
sg11
I2920
ssg18
(dp44
g5
I1164
sg6
I42
sg7
I2
sg8
I83
sg9
I4
sg10
I18
sg11
I830
ssg20
(dp45
g5
I1284
sg6
I44
sg7
I1
sg8
I89
sg9
I3
sg10
I14
sg11
I910
sss.(dp0
S'K_all3.csv'
p1
(dp2
S'none'
p3
(dp4
S'count'
p5
I430
sS'truepos'
p6
I29
sS'falseneg'
p7
I5
sS'correction'
p8
I0
sS'unknownyes'
p9
I11
sS'falsepos'
p10
I34
sS'unique'
p11
I430
ssS'three'
p12
(dp13
g5
I988
sg6
I31
sg7
I2
sg8
I82
sg9
I12
sg10
I9
sg11
I450
ssS'machine'
p14
(dp15
g5
I463
sg6
I25
sg7
I5
sg8
I32
sg9
I15
sg10
I3
sg11
I360
ssS'machine4'
p16
(dp17
g5
I500
sg6
I30
sg7
I6
sg8
I0
sg9
I9
sg10
I48
sg11
I500
ssS'machine3'
p18
(dp19
g5
I525
sg6
I33
sg7
I2
sg8
I38
sg9
I10
sg10
I6
sg11
I370
ssS'machine2'
p20
(dp21
g5
I594
sg6
I30
sg7
I1
sg8
I34
sg9
I14
sg10
I12
sg11
I440
sssS'Wahono.csv'
p22
(dp23
g3
(dp24
g5
I3270
sg6
I54
sg7
I3
sg8
I0
sg9
I5
sg10
I344
sg11
I3270
ssg12
(dp25
g5
I3379
sg6
I53
sg7
I5
sg8
I268
sg9
I4
sg10
I32
sg11
I1550
ssg14
(dp26
g5
I1824
sg6
I58
sg7
I2
sg8
I146
sg9
I2
sg10
I17
sg11
I1360
ssg16
(dp27
g5
I2960
sg6
I55
sg7
I4
sg8
I0
sg9
I3
sg10
I330
sg11
I2960
ssg18
(dp28
g5
I2770
sg6
I58
sg7
I2
sg8
I225
sg9
I2
sg10
I40
sg11
I1920
ssg20
(dp29
g5
I2107
sg6
I58
sg7
I2
sg8
I160
sg9
I2
sg10
I41
sg11
I1460
sssS'Hall.csv'
p30
(dp31
g3
(dp32
g5
I2110
sg6
I90
sg7
I14
sg8
I0
sg9
I2
sg10
I216
sg11
I2110
ssg12
(dp33
g5
I1472
sg6
I101
sg7
I1
sg8
I124
sg9
I4
sg10
I16
sg11
I670
ssg14
(dp34
g5
I582
sg6
I94
sg7
I5
sg8
I32
sg9
I7
sg10
I9
sg11
I410
ssg16
(dp35
g5
I3020
sg6
I90
sg7
I12
sg8
I0
sg9
I4
sg10
I289
sg11
I3020
ssg18
(dp36
g5
I1008
sg6
I98
sg7
I5
sg8
I60
sg9
I3
sg10
I10
sg11
I660
ssg20
(dp37
g5
I742
sg6
I93
sg7
I7
sg8
I44
sg9
I6
sg10
I15
sg11
I510
sssS'Danijel.csv'
p38
(dp39
g3
(dp40
g5
I1490
sg6
I45
sg7
I2
sg8
I0
sg9
I1
sg10
I140
sg11
I1490
ssg12
(dp41
g5
I2134
sg6
I46
sg7
I0
sg8
I189
sg9
I2
sg10
I11
sg11
I970
ssg14
(dp42
g5
I1204
sg6
I42
sg7
I1
sg8
I85
sg9
I5
sg10
I13
sg11
I910
ssg16
(dp43
g5
I2740
sg6
I42
sg7
I5
sg8
I0
sg9
I1
sg10
I269
sg11
I2740
ssg18
(dp44
g5
I1514
sg6
I46
sg7
I0
sg8
I126
sg9
I2
sg10
I17
sg11
I1030
ssg20
(dp45
g5
I1040
sg6
I37
sg7
I5
sg8
I90
sg9
I6
sg10
I14
sg11
I710
sss.(dp0
S'K_all3.csv'
p1
(dp2
S'none'
p3
(dp4
S'count'
p5
I520
sS'truepos'
p6
I34
sS'falseneg'
p7
I2
sS'correction'
p8
I0
sS'unknownyes'
p9
I9
sS'falsepos'
p10
I50
sS'unique'
p11
I520
ssS'three'
p12
(dp13
g5
I930
sg6
I31
sg7
I1
sg8
I83
sg9
I13
sg10
I15
sg11
I420
ssS'machine'
p14
(dp15
g5
I481
sg6
I30
sg7
I3
sg8
I36
sg9
I12
sg10
I12
sg11
I360
ssS'machine4'
p16
(dp17
g5
I640
sg6
I39
sg7
I2
sg8
I0
sg9
I4
sg10
I56
sg11
I640
ssS'machine3'
p18
(dp19
g5
I693
sg6
I33
sg7
I3
sg8
I46
sg9
I9
sg10
I6
sg11
I500
ssS'machine2'
p20
(dp21
g5
I566
sg6
I31
sg7
I2
sg8
I32
sg9
I12
sg10
I6
sg11
I410
sssS'Wahono.csv'
p22
(dp23
g3
(dp24
g5
I1760
sg6
I53
sg7
I7
sg8
I0
sg9
I2
sg10
I164
sg11
I1760
ssg12
(dp25
g5
I4083
sg6
I59
sg7
I1
sg8
I311
sg9
I2
sg10
I42
sg11
I1880
ssg14
(dp26
g5
I1695
sg6
I54
sg7
I6
sg8
I149
sg9
I2
sg10
I14
sg11
I1260
ssg16
(dp27
g5
I3080
sg6
I55
sg7
I5
sg8
I0
sg9
I2
sg10
I304
sg11
I3080
ssg18
(dp28
g5
I2882
sg6
I59
sg7
I2
sg8
I215
sg9
I1
sg10
I34
sg11
I2030
ssg20
(dp29
g5
I2307
sg6
I59
sg7
I1
sg8
I182
sg9
I2
sg10
I36
sg11
I1610
sssS'Hall.csv'
p30
(dp31
g3
(dp32
g5
I2670
sg6
I94
sg7
I9
sg8
I0
sg9
I3
sg10
I267
sg11
I2670
ssg12
(dp33
g5
I874
sg6
I99
sg7
I0
sg8
I72
sg9
I7
sg10
I7
sg11
I400
ssg14
(dp34
g5
I631
sg6
I97
sg7
I3
sg8
I39
sg9
I6
sg10
I12
sg11
I460
ssg16
(dp35
g5
I2640
sg6
I93
sg7
I9
sg8
I0
sg9
I4
sg10
I259
sg11
I2640
ssg18
(dp36
g5
I1338
sg6
I98
sg7
I4
sg8
I94
sg9
I4
sg10
I18
sg11
I890
ssg20
(dp37
g5
I988
sg6
I96
sg7
I6
sg8
I65
sg9
I4
sg10
I16
sg11
I660
sssS'Danijel.csv'
p38
(dp39
g3
(dp40
g5
I3180
sg6
I41
sg7
I5
sg8
I0
sg9
I2
sg10
I311
sg11
I3180
ssg12
(dp41
g5
I2066
sg6
I45
sg7
I1
sg8
I156
sg9
I2
sg10
I18
sg11
I950
ssg14
(dp42
g5
I886
sg6
I43
sg7
I2
sg8
I69
sg9
I3
sg10
I11
sg11
I660
ssg16
(dp43
g5
I2880
sg6
I42
sg7
I6
sg8
I0
sg9
I0
sg10
I280
sg11
I2880
ssg18
(dp44
g5
I1123
sg6
I45
sg7
I0
sg8
I87
sg9
I3
sg10
I12
sg11
I780
ssg20
(dp45
g5
I3122
sg6
I43
sg7
I2
sg8
I235
sg9
I3
sg10
I51
sg11
I2210
sss.(dp0
S'K_all3.csv'
p1
(dp2
S'none'
p3
(dp4
S'count'
p5
I420
sS'truepos'
p6
I28
sS'falseneg'
p7
I3
sS'correction'
p8
I0
sS'unknownyes'
p9
I14
sS'falsepos'
p10
I30
sS'unique'
p11
I420
ssS'three'
p12
(dp13
g5
I873
sg6
I28
sg7
I1
sg8
I68
sg9
I16
sg10
I13
sg11
I400
ssS'machine'
p14
(dp15
g5
I610
sg6
I28
sg7
I4
sg8
I53
sg9
I13
sg10
I9
sg11
I460
ssS'machine4'
p16
(dp17
g5
I540
sg6
I36
sg7
I0
sg8
I0
sg9
I9
sg10
I58
sg11
I540
ssS'machine3'
p18
(dp19
g5
I593
sg6
I32
sg7
I3
sg8
I43
sg9
I10
sg10
I7
sg11
I430
ssS'machine2'
p20
(dp21
g5
I730
sg6
I34
sg7
I3
sg8
I49
sg9
I8
sg10
I9
sg11
I530
sssS'Wahono.csv'
p22
(dp23
g3
(dp24
g5
I2690
sg6
I56
sg7
I4
sg8
I0
sg9
I2
sg10
I256
sg11
I2690
ssg12
(dp25
g5
I4474
sg6
I59
sg7
I2
sg8
I380
sg9
I1
sg10
I57
sg11
I2040
ssg14
(dp26
g5
I1695
sg6
I55
sg7
I4
sg8
I139
sg9
I3
sg10
I21
sg11
I1260
ssg16
(dp27
g5
I1930
sg6
I54
sg7
I4
sg8
I0
sg9
I4
sg10
I182
sg11
I1930
ssg18
(dp28
g5
I2254
sg6
I56
sg7
I4
sg8
I173
sg9
I2
sg10
I37
sg11
I1570
ssg20
(dp29
g5
I2332
sg6
I60
sg7
I0
sg8
I193
sg9
I2
sg10
I33
sg11
I1610
sssS'Hall.csv'
p30
(dp31
g3
(dp32
g5
I3750
sg6
I95
sg7
I8
sg8
I0
sg9
I3
sg10
I388
sg11
I3750
ssg12
(dp33
g5
I3989
sg6
I98
sg7
I4
sg8
I328
sg9
I4
sg10
I52
sg11
I1820
ssg14
(dp34
g5
I663
sg6
I91
sg7
I10
sg8
I45
sg9
I5
sg10
I9
sg11
I470
ssg16
(dp35
g5
I2140
sg6
I92
sg7
I9
sg8
I0
sg9
I5
sg10
I208
sg11
I2140
ssg18
(dp36
g5
I998
sg6
I101
sg7
I1
sg8
I56
sg9
I4
sg10
I10
sg11
I670
ssg20
(dp37
g5
I918
sg6
I101
sg7
I1
sg8
I66
sg9
I4
sg10
I10
sg11
I610
sssS'Danijel.csv'
p38
(dp39
g3
(dp40
g5
I3040
sg6
I42
sg7
I4
sg8
I0
sg9
I2
sg10
I280
sg11
I3040
ssg12
(dp41
g5
I1932
sg6
I43
sg7
I3
sg8
I160
sg9
I2
sg10
I34
sg11
I880
ssg14
(dp42
g5
I1388
sg6
I43
sg7
I2
sg8
I122
sg9
I3
sg10
I14
sg11
I1030
ssg16
(dp43
g5
I2870
sg6
I43
sg7
I4
sg8
I0
sg9
I1
sg10
I283
sg11
I2870
ssg18
(dp44
g5
I1151
sg6
I41
sg7
I5
sg8
I78
sg9
I2
sg10
I18
sg11
I810
ssg20
(dp45
g5
I1203
sg6
I40
sg7
I3
sg8
I91
sg9
I5
sg10
I15
sg11
I860
sss.(dp0
S'K_all3.csv'
p1
(dp2
S'none'
p3
(dp4
S'count'
p5
I600
sS'truepos'
p6
I30
sS'falseneg'
p7
I5
sS'correction'
p8
I0
sS'unknownyes'
p9
I10
sS'falsepos'
p10
I51
sS'unique'
p11
I600
ssS'three'
p12
(dp13
g5
I908
sg6
I28
sg7
I3
sg8
I63
sg9
I14
sg10
I10
sg11
I420
ssS'machine'
p14
(dp15
g5
I601
sg6
I29
sg7
I4
sg8
I44
sg9
I12
sg10
I5
sg11
I460
ssS'machine4'
p16
(dp17
g5
I430
sg6
I33
sg7
I1
sg8
I0
sg9
I11
sg10
I37
sg11
I430
ssS'machine3'
p18
(dp19
g5
I671
sg6
I34
sg7
I3
sg8
I44
sg9
I8
sg10
I10
sg11
I480
ssS'machine2'
p20
(dp21
g5
I786
sg6
I32
sg7
I3
sg8
I65
sg9
I10
sg10
I12
sg11
I530
sssS'Wahono.csv'
p22
(dp23
g3
(dp24
g5
I2880
sg6
I47
sg7
I8
sg8
I0
sg9
I7
sg10
I298
sg11
I2880
ssg12
(dp25
g5
I4294
sg6
I60
sg7
I1
sg8
I315
sg9
I1
sg10
I64
sg11
I1980
ssg14
(dp26
g5
I2034
sg6
I57
sg7
I2
sg8
I167
sg9
I3
sg10
I29
sg11
I1510
ssg16
(dp27
g5
I4000
sg6
I53
sg7
I9
sg8
I0
sg9
I0
sg10
I405
sg11
I4000
ssg18
(dp28
g5
I2094
sg6
I54
sg7
I4
sg8
I143
sg9
I4
sg10
I26
sg11
I1480
ssg20
(dp29
g5
I1594
sg6
I55
sg7
I4
sg8
I120
sg9
I3
sg10
I21
sg11
I1110
sssS'Hall.csv'
p30
(dp31
g3
(dp32
g5
I2280
sg6
I98
sg7
I7
sg8
I0
sg9
I1
sg10
I201
sg11
I2280
ssg12
(dp33
g5
I1409
sg6
I101
sg7
I2
sg8
I119
sg9
I3
sg10
I17
sg11
I640
ssg14
(dp34
g5
I653
sg6
I91
sg7
I7
sg8
I51
sg9
I8
sg10
I7
sg11
I460
ssg16
(dp35
g5
I2740
sg6
I99
sg7
I4
sg8
I0
sg9
I3
sg10
I263
sg11
I2740
ssg18
(dp36
g5
I1427
sg6
I96
sg7
I7
sg8
I107
sg9
I3
sg10
I25
sg11
I930
ssg20
(dp37
g5
I726
sg6
I98
sg7
I4
sg8
I33
sg9
I4
sg10
I14
sg11
I500
sssS'Danijel.csv'
p38
(dp39
g3
(dp40
g5
I2430
sg6
I40
sg7
I4
sg8
I0
sg9
I4
sg10
I207
sg11
I2430
ssg12
(dp41
g5
I2358
sg6
I42
sg7
I3
sg8
I203
sg9
I3
sg10
I33
sg11
I1070
ssg14
(dp42
g5
I1311
sg6
I40
sg7
I3
sg8
I100
sg9
I5
sg10
I16
sg11
I1000
ssg16
(dp43
g5
I2770
sg6
I41
sg7
I6
sg8
I0
sg9
I1
sg10
I246
sg11
I2770
ssg18
(dp44
g5
I966
sg6
I42
sg7
I3
sg8
I66
sg9
I3
sg10
I16
sg11
I690
ssg20
(dp45
g5
I1415
sg6
I39
sg7
I6
sg8
I97
sg9
I3
sg10
I17
sg11
I1010
sss.(dp0
S'K_all3.csv'
p1
(dp2
S'none'
p3
(dp4
S'count'
p5
I510
sS'truepos'
p6
I34
sS'falseneg'
p7
I3
sS'correction'
p8
I0
sS'unknownyes'
p9
I8
sS'falsepos'
p10
I49
sS'unique'
p11
I510
ssS'three'
p12
(dp13
g5
I1019
sg6
I34
sg7
I1
sg8
I75
sg9
I10
sg10
I14
sg11
I470
ssS'machine'
p14
(dp15
g5
I593
sg6
I34
sg7
I5
sg8
I35
sg9
I6
sg10
I15
sg11
I450
ssS'machine4'
p16
(dp17
g5
I520
sg6
I32
sg7
I4
sg8
I0
sg9
I9
sg10
I44
sg11
I520
ssS'machine3'
p18
(dp19
g5
I631
sg6
I34
sg7
I2
sg8
I47
sg9
I9
sg10
I7
sg11
I460
ssS'machine2'
p20
(dp21
g5
I810
sg6
I34
sg7
I4
sg8
I60
sg9
I7
sg10
I9
sg11
I570
sssS'Wahono.csv'
p22
(dp23
g3
(dp24
g5
I3730
sg6
I55
sg7
I6
sg8
I0
sg9
I1
sg10
I391
sg11
I3730
ssg12
(dp25
g5
I2808
sg6
I57
sg7
I2
sg8
I214
sg9
I3
sg10
I39
sg11
I1290
ssg14
(dp26
g5
I1549
sg6
I57
sg7
I3
sg8
I119
sg9
I2
sg10
I13
sg11
I1160
ssg16
(dp27
g5
I2870
sg6
I54
sg7
I5
sg8
I0
sg9
I3
sg10
I286
sg11
I2870
ssg18
(dp28
g5
I1914
sg6
I59
sg7
I0
sg8
I150
sg9
I3
sg10
I20
sg11
I1330
ssg20
(dp29
g5
I2151
sg6
I53
sg7
I6
sg8
I143
sg9
I3
sg10
I29
sg11
I1520
sssS'Hall.csv'
p30
(dp31
g3
(dp32
g5
I1620
sg6
I85
sg7
I18
sg8
I0
sg9
I3
sg10
I150
sg11
I1620
ssg12
(dp33
g5
I2430
sg6
I99
sg7
I3
sg8
I178
sg9
I4
sg10
I32
sg11
I1120
ssg14
(dp34
g5
I583
sg6
I91
sg7
I9
sg8
I39
sg9
I6
sg10
I11
sg11
I410
ssg16
(dp35
g5
I3340
sg6
I91
sg7
I10
sg8
I0
sg9
I5
sg10
I311
sg11
I3340
ssg18
(dp36
g5
I868
sg6
I96
sg7
I6
sg8
I57
sg9
I4
sg10
I4
sg11
I560
ssg20
(dp37
g5
I543
sg6
I94
sg7
I4
sg8
I25
sg9
I8
sg10
I13
sg11
I370
sssS'Danijel.csv'
p38
(dp39
g3
(dp40
g5
I1820
sg6
I41
sg7
I5
sg8
I0
sg9
I2
sg10
I181
sg11
I1820
ssg12
(dp41
g5
I3590
sg6
I43
sg7
I1
sg8
I276
sg9
I4
sg10
I40
sg11
I1650
ssg14
(dp42
g5
I1197
sg6
I39
sg7
I6
sg8
I96
sg9
I3
sg10
I10
sg11
I910
ssg16
(dp43
g5
I2910
sg6
I40
sg7
I6
sg8
I0
sg9
I2
sg10
I285
sg11
I2910
ssg18
(dp44
g5
I1521
sg6
I45
sg7
I1
sg8
I104
sg9
I2
sg10
I22
sg11
I1090
ssg20
(dp45
g5
I1365
sg6
I41
sg7
I5
sg8
I100
sg9
I2
sg10
I17
sg11
I960
sss.(dp0
S'K_all3.csv'
p1
(dp2
S'none'
p3
(dp4
S'count'
p5
I470
sS'truepos'
p6
I26
sS'falseneg'
p7
I7
sS'correction'
p8
I0
sS'unknownyes'
p9
I12
sS'falsepos'
p10
I50
sS'unique'
p11
I470
ssS'three'
p12
(dp13
g5
I890
sg6
I33
sg7
I0
sg8
I68
sg9
I12
sg10
I5
sg11
I410
ssS'machine'
p14
(dp15
g5
I616
sg6
I32
sg7
I1
sg8
I52
sg9
I12
sg10
I5
sg11
I470
ssS'machine4'
p16
(dp17
g5
I520
sg6
I30
sg7
I4
sg8
I0
sg9
I11
sg10
I43
sg11
I520
ssS'machine3'
p18
(dp19
g5
I581
sg6
I33
sg7
I4
sg8
I42
sg9
I8
sg10
I5
sg11
I420
ssS'machine2'
p20
(dp21
g5
I723
sg6
I35
sg7
I3
sg8
I50
sg9
I7
sg10
I14
sg11
I510
sssS'Wahono.csv'
p22
(dp23
g3
(dp24
g5
I3780
sg6
I58
sg7
I3
sg8
I0
sg9
I1
sg10
I364
sg11
I3780
ssg12
(dp25
g5
I3781
sg6
I59
sg7
I1
sg8
I309
sg9
I2
sg10
I43
sg11
I1730
ssg14
(dp26
g5
I2064
sg6
I54
sg7
I6
sg8
I159
sg9
I2
sg10
I14
sg11
I1550
ssg16
(dp27
g5
I1780
sg6
I53
sg7
I6
sg8
I0
sg9
I3
sg10
I145
sg11
I1780
ssg18
(dp28
g5
I2790
sg6
I60
sg7
I1
sg8
I199
sg9
I1
sg10
I37
sg11
I1980
ssg20
(dp29
g5
I2331
sg6
I54
sg7
I4
sg8
I176
sg9
I4
sg10
I41
sg11
I1610
sssS'Hall.csv'
p30
(dp31
g3
(dp32
g5
I3130
sg6
I96
sg7
I9
sg8
I0
sg9
I1
sg10
I304
sg11
I3130
ssg12
(dp33
g5
I1221
sg6
I100
sg7
I2
sg8
I98
sg9
I4
sg10
I15
sg11
I560
ssg14
(dp34
g5
I422
sg6
I90
sg7
I6
sg8
I24
sg9
I10
sg10
I16
sg11
I310
ssg16
(dp35
g5
I3260
sg6
I95
sg7
I9
sg8
I0
sg9
I2
sg10
I312
sg11
I3260
ssg18
(dp36
g5
I1072
sg6
I99
sg7
I3
sg8
I88
sg9
I4
sg10
I16
sg11
I690
ssg20
(dp37
g5
I818
sg6
I101
sg7
I1
sg8
I43
sg9
I4
sg10
I18
sg11
I560
sssS'Danijel.csv'
p38
(dp39
g3
(dp40
g5
I2570
sg6
I43
sg7
I4
sg8
I0
sg9
I1
sg10
I261
sg11
I2570
ssg12
(dp41
g5
I1743
sg6
I45
sg7
I1
sg8
I138
sg9
I2
sg10
I12
sg11
I800
ssg14
(dp42
g5
I1199
sg6
I43
sg7
I2
sg8
I81
sg9
I3
sg10
I10
sg11
I910
ssg16
(dp43
g5
I2990
sg6
I43
sg7
I3
sg8
I0
sg9
I2
sg10
I282
sg11
I2990
ssg18
(dp44
g5
I1112
sg6
I44
sg7
I1
sg8
I80
sg9
I3
sg10
I13
sg11
I780
ssg20
(dp45
g5
I1013
sg6
I40
sg7
I4
sg8
I78
sg9
I4
sg10
I17
sg11
I710
sss.(dp0
S'K_all3.csv'
p1
(dp2
S'none'
p3
(dp4
S'count'
p5
I480
sS'truepos'
p6
I34
sS'falseneg'
p7
I2
sS'correction'
p8
I0
sS'unknownyes'
p9
I9
sS'falsepos'
p10
I41
sS'unique'
p11
I480
ssS'three'
p12
(dp13
g5
I1015
sg6
I37
sg7
I0
sg8
I88
sg9
I8
sg10
I17
sg11
I460
ssS'machine'
p14
(dp15
g5
I473
sg6
I32
sg7
I5
sg8
I31
sg9
I8
sg10
I10
sg11
I360
ssS'machine4'
p16
(dp17
g5
I510
sg6
I32
sg7
I4
sg8
I0
sg9
I9
sg10
I41
sg11
I510
ssS'machine3'
p18
(dp19
g5
I586
sg6
I29
sg7
I2
sg8
I33
sg9
I14
sg10
I9
sg11
I440
ssS'machine2'
p20
(dp21
g5
I510
sg6
I28
sg7
I4
sg8
I38
sg9
I13
sg10
I10
sg11
I360
sssS'Wahono.csv'
p22
(dp23
g3
(dp24
g5
I3590
sg6
I48
sg7
I10
sg8
I0
sg9
I4
sg10
I369
sg11
I3590
ssg12
(dp25
g5
I3631
sg6
I60
sg7
I0
sg8
I276
sg9
I2
sg10
I54
sg11
I1670
ssg14
(dp26
g5
I1798
sg6
I54
sg7
I7
sg8
I135
sg9
I1
sg10
I19
sg11
I1360
ssg16
(dp27
g5
I3020
sg6
I56
sg7
I1
sg8
I0
sg9
I5
sg10
I287
sg11
I3020
ssg18
(dp28
g5
I2212
sg6
I58
sg7
I2
sg8
I147
sg9
I2
sg10
I37
sg11
I1570
ssg20
(dp29
g5
I2716
sg6
I56
sg7
I3
sg8
I213
sg9
I3
sg10
I44
sg11
I1890
sssS'Hall.csv'
p30
(dp31
g3
(dp32
g5
I1450
sg6
I93
sg7
I10
sg8
I0
sg9
I3
sg10
I147
sg11
I1450
ssg12
(dp33
g5
I1164
sg6
I99
sg7
I3
sg8
I78
sg9
I4
sg10
I11
sg11
I540
ssg14
(dp34
g5
I420
sg6
I86
sg7
I9
sg8
I15
sg9
I11
sg10
I18
sg11
I310
ssg16
(dp35
g5
I3830
sg6
I95
sg7
I10
sg8
I0
sg9
I1
sg10
I382
sg11
I3830
ssg18
(dp36
g5
I747
sg6
I97
sg7
I5
sg8
I55
sg9
I4
sg10
I5
sg11
I460
ssg20
(dp37
g5
I1115
sg6
I100
sg7
I1
sg8
I71
sg9
I5
sg10
I11
sg11
I760
sssS'Danijel.csv'
p38
(dp39
g3
(dp40
g5
I1900
sg6
I43
sg7
I4
sg8
I0
sg9
I1
sg10
I161
sg11
I1900
ssg12
(dp41
g5
I2584
sg6
I45
sg7
I1
sg8
I193
sg9
I2
sg10
I32
sg11
I1190
ssg14
(dp42
g5
I1399
sg6
I42
sg7
I3
sg8
I103
sg9
I3
sg10
I18
sg11
I1060
ssg16
(dp43
g5
I2840
sg6
I40
sg7
I7
sg8
I0
sg9
I1
sg10
I246
sg11
I2840
ssg18
(dp44
g5
I1250
sg6
I41
sg7
I5
sg8
I91
sg9
I2
sg10
I13
sg11
I870
ssg20
(dp45
g5
I996
sg6
I40
sg7
I4
sg8
I62
sg9
I4
sg10
I12
sg11
I710
sss.(dp0
S'K_all3.csv'
p1
(dp2
S'none'
p3
(dp4
S'count'
p5
I540
sS'truepos'
p6
I23
sS'falseneg'
p7
I6
sS'correction'
p8
I0
sS'unknownyes'
p9
I16
sS'falsepos'
p10
I50
sS'unique'
p11
I540
ssS'three'
p12
(dp13
g5
I992
sg6
I31
sg7
I0
sg8
I70
sg9
I14
sg10
I7
sg11
I460
ssS'machine'
p14
(dp15
g5
I566
sg6
I22
sg7
I9
sg8
I42
sg9
I14
sg10
I9
sg11
I470
ssS'machine4'
p16
(dp17
g5
I390
sg6
I23
sg7
I5
sg8
I0
sg9
I17
sg10
I37
sg11
I390
ssS'machine3'
p18
(dp19
g5
I571
sg6
I31
sg7
I3
sg8
I37
sg9
I11
sg10
I7
sg11
I430
ssS'machine2'
p20
(dp21
g5
I621
sg6
I33
sg7
I2
sg8
I30
sg9
I10
sg10
I15
sg11
I460
sssS'Wahono.csv'
p22
(dp23
g3
(dp24
g5
I3700
sg6
I52
sg7
I7
sg8
I0
sg9
I3
sg10
I356
sg11
I3700
ssg12
(dp25
g5
I3877
sg6
I59
sg7
I0
sg8
I315
sg9
I3
sg10
I55
sg11
I1770
ssg14
(dp26
g5
I1324
sg6
I49
sg7
I4
sg8
I89
sg9
I9
sg10
I13
sg11
I1010
ssg16
(dp27
g5
I3310
sg6
I54
sg7
I6
sg8
I0
sg9
I2
sg10
I327
sg11
I3310
ssg18
(dp28
g5
I1916
sg6
I54
sg7
I4
sg8
I143
sg9
I4
sg10
I39
sg11
I1330
ssg20
(dp29
g5
I1244
sg6
I57
sg7
I1
sg8
I86
sg9
I4
sg10
I28
sg11
I860
sssS'Hall.csv'
p30
(dp31
g3
(dp32
g5
I2640
sg6
I96
sg7
I8
sg8
I0
sg9
I2
sg10
I264
sg11
I2640
ssg12
(dp33
g5
I1632
sg6
I96
sg7
I6
sg8
I127
sg9
I4
sg10
I13
sg11
I750
ssg14
(dp34
g5
I591
sg6
I89
sg7
I10
sg8
I34
sg9
I7
sg10
I11
sg11
I420
ssg16
(dp35
g5
I2970
sg6
I94
sg7
I8
sg8
I0
sg9
I4
sg10
I272
sg11
I2970
ssg18
(dp36
g5
I1045
sg6
I99
sg7
I3
sg8
I76
sg9
I4
sg10
I15
sg11
I670
ssg20
(dp37
g5
I838
sg6
I96
sg7
I5
sg8
I56
sg9
I5
sg10
I15
sg11
I560
sssS'Danijel.csv'
p38
(dp39
g3
(dp40
g5
I2560
sg6
I41
sg7
I5
sg8
I0
sg9
I2
sg10
I262
sg11
I2560
ssg12
(dp41
g5
I2374
sg6
I46
sg7
I0
sg8
I183
sg9
I2
sg10
I29
sg11
I1090
ssg14
(dp42
g5
I1001
sg6
I41
sg7
I3
sg8
I86
sg9
I4
sg10
I6
sg11
I760
ssg16
(dp43
g5
I2340
sg6
I35
sg7
I9
sg8
I0
sg9
I4
sg10
I222
sg11
I2340
ssg18
(dp44
g5
I1100
sg6
I42
sg7
I2
sg8
I77
sg9
I4
sg10
I17
sg11
I770
ssg20
(dp45
g5
I1431
sg6
I43
sg7
I2
sg8
I94
sg9
I3
sg10
I21
sg11
I1020
sss.(dp0
S'K_all3.csv'
p1
(dp2
S'none'
p3
(dp4
S'count'
p5
I470
sS'truepos'
p6
I32
sS'falseneg'
p7
I4
sS'correction'
p8
I0
sS'unknownyes'
p9
I9
sS'falsepos'
p10
I45
sS'unique'
p11
I470
ssS'three'
p12
(dp13
g5
I992
sg6
I34
sg7
I1
sg8
I71
sg9
I10
sg10
I4
sg11
I460
ssS'machine'
p14
(dp15
g5
I541
sg6
I31
sg7
I2
sg8
I52
sg9
I12
sg10
I3
sg11
I410
ssS'machine4'
p16
(dp17
g5
I580
sg6
I32
sg7
I3
sg8
I0
sg9
I10
sg10
I44
sg11
I580
ssS'machine3'
p18
(dp19
g5
I446
sg6
I30
sg7
I0
sg8
I25
sg9
I15
sg10
I9
sg11
I330
ssS'machine2'
p20
(dp21
g5
I742
sg6
I35
sg7
I0
sg8
I64
sg9
I10
sg10
I9
sg11
I510
sssS'Wahono.csv'
p22
(dp23
g3
(dp24
g5
I3380
sg6
I53
sg7
I8
sg8
I0
sg9
I1
sg10
I340
sg11
I3380
ssg12
(dp25
g5
I2590
sg6
I59
sg7
I0
sg8
I204
sg9
I3
sg10
I26
sg11
I1190
ssg14
(dp26
g5
I1955
sg6
I58
sg7
I2
sg8
I157
sg9
I2
sg10
I18
sg11
I1460
ssg16
(dp27
g5
I3250
sg6
I55
sg7
I6
sg8
I0
sg9
I1
sg10
I289
sg11
I3250
ssg18
(dp28
g5
I1902
sg6
I57
sg7
I2
sg8
I144
sg9
I3
sg10
I20
sg11
I1340
ssg20
(dp29
g5
I1879
sg6
I56
sg7
I2
sg8
I140
sg9
I4
sg10
I33
sg11
I1310
sssS'Hall.csv'
p30
(dp31
g3
(dp32
g5
I2260
sg6
I88
sg7
I14
sg8
I0
sg9
I4
sg10
I219
sg11
I2260
ssg12
(dp33
g5
I1171
sg6
I101
sg7
I1
sg8
I89
sg9
I4
sg10
I11
sg11
I540
ssg14
(dp34
g5
I882
sg6
I97
sg7
I5
sg8
I62
sg9
I4
sg10
I10
sg11
I640
ssg16
(dp35
g5
I3680
sg6
I94
sg7
I10
sg8
I0
sg9
I2
sg10
I378
sg11
I3680
ssg18
(dp36
g5
I1104
sg6
I96
sg7
I6
sg8
I74
sg9
I4
sg10
I18
sg11
I730
ssg20
(dp37
g5
I664
sg6
I98
sg7
I3
sg8
I36
sg9
I5
sg10
I13
sg11
I460
sssS'Danijel.csv'
p38
(dp39
g3
(dp40
g5
I2590
sg6
I43
sg7
I5
sg8
I0
sg9
I0
sg10
I243
sg11
I2590
ssg12
(dp41
g5
I1643
sg6
I45
sg7
I0
sg8
I140
sg9
I3
sg10
I13
sg11
I750
ssg14
(dp42
g5
I1011
sg6
I42
sg7
I3
sg8
I69
sg9
I3
sg10
I14
sg11
I760
ssg16
(dp43
g5
I2920
sg6
I39
sg7
I6
sg8
I0
sg9
I3
sg10
I294
sg11
I2920
ssg18
(dp44
g5
I1182
sg6
I43
sg7
I2
sg8
I91
sg9
I3
sg10
I14
sg11
I830
ssg20
(dp45
g5
I1851
sg6
I44
sg7
I2
sg8
I133
sg9
I2
sg10
I31
sg11
I1310
sss.(dp0
S'K_all3.csv'
p1
(dp2
S'none'
p3
(dp4
S'count'
p5
I490
sS'truepos'
p6
I37
sS'falseneg'
p7
I1
sS'correction'
p8
I0
sS'unknownyes'
p9
I7
sS'falsepos'
p10
I40
sS'unique'
p11
I490
ssS'three'
p12
(dp13
g5
I1235
sg6
I36
sg7
I0
sg8
I93
sg9
I9
sg10
I14
sg11
I570
ssS'machine'
p14
(dp15
g5
I600
sg6
I31
sg7
I4
sg8
I44
sg9
I10
sg10
I6
sg11
I450
ssS'machine4'
p16
(dp17
g5
I570
sg6
I34
sg7
I5
sg8
I0
sg9
I6
sg10
I53
sg11
I570
ssS'machine3'
p18
(dp19
g5
I660
sg6
I33
sg7
I3
sg8
I49
sg9
I9
sg10
I7
sg11
I490
ssS'machine2'
p20
(dp21
g5
I558
sg6
I29
sg7
I3
sg8
I38
sg9
I13
sg10
I5
sg11
I410
sssS'Wahono.csv'
p22
(dp23
g3
(dp24
g5
I4000
sg6
I55
sg7
I5
sg8
I0
sg9
I2
sg10
I396
sg11
I4000
ssg12
(dp25
g5
I4137
sg6
I60
sg7
I1
sg8
I333
sg9
I1
sg10
I56
sg11
I1890
ssg14
(dp26
g5
I1437
sg6
I51
sg7
I5
sg8
I120
sg9
I6
sg10
I10
sg11
I1060
ssg16
(dp27
g5
I3670
sg6
I56
sg7
I4
sg8
I0
sg9
I2
sg10
I375
sg11
I3670
ssg18
(dp28
g5
I2443
sg6
I57
sg7
I3
sg8
I180
sg9
I2
sg10
I28
sg11
I1720
ssg20
(dp29
g5
I2514
sg6
I59
sg7
I2
sg8
I199
sg9
I1
sg10
I28
sg11
I1760
sssS'Hall.csv'
p30
(dp31
g3
(dp32
g5
I2620
sg6
I93
sg7
I10
sg8
I0
sg9
I3
sg10
I256
sg11
I2620
ssg12
(dp33
g5
I2803
sg6
I100
sg7
I3
sg8
I228
sg9
I3
sg10
I31
sg11
I1280
ssg14
(dp34
g5
I482
sg6
I83
sg7
I13
sg8
I23
sg9
I10
sg10
I9
sg11
I350
ssg16
(dp35
g5
I2200
sg6
I93
sg7
I10
sg8
I0
sg9
I3
sg10
I210
sg11
I2200
ssg18
(dp36
g5
I1188
sg6
I96
sg7
I6
sg8
I86
sg9
I4
sg10
I19
sg11
I780
ssg20
(dp37
g5
I724
sg6
I99
sg7
I1
sg8
I45
sg9
I6
sg10
I12
sg11
I490
sssS'Danijel.csv'
p38
(dp39
g3
(dp40
g5
I1930
sg6
I40
sg7
I3
sg8
I0
sg9
I5
sg10
I199
sg11
I1930
ssg12
(dp41
g5
I2286
sg6
I42
sg7
I3
sg8
I157
sg9
I3
sg10
I22
sg11
I1060
ssg14
(dp42
g5
I937
sg6
I43
sg7
I3
sg8
I71
sg9
I2
sg10
I7
sg11
I710
ssg16
(dp43
g5
I2390
sg6
I45
sg7
I2
sg8
I0
sg9
I1
sg10
I216
sg11
I2390
ssg18
(dp44
g5
I1362
sg6
I44
sg7
I1
sg8
I110
sg9
I3
sg10
I20
sg11
I950
ssg20
(dp45
g5
I1848
sg6
I42
sg7
I4
sg8
I143
sg9
I2
sg10
I17
sg11
I1310
sss.(dp0
S'K_all3.csv'
p1
(dp2
S'none'
p3
(dp4
S'count'
p5
I480
sS'truepos'
p6
I33
sS'falseneg'
p7
I3
sS'correction'
p8
I0
sS'unknownyes'
p9
I9
sS'falsepos'
p10
I41
sS'unique'
p11
I480
ssS'three'
p12
(dp13
g5
I832
sg6
I31
sg7
I0
sg8
I70
sg9
I14
sg10
I8
sg11
I380
ssS'machine'
p14
(dp15
g5
I735
sg6
I31
sg7
I5
sg8
I56
sg9
I9
sg10
I7
sg11
I580
ssS'machine4'
p16
(dp17
g5
I410
sg6
I31
sg7
I1
sg8
I0
sg9
I13
sg10
I45
sg11
I410
ssS'machine3'
p18
(dp19
g5
I662
sg6
I31
sg7
I2
sg8
I47
sg9
I12
sg10
I6
sg11
I500
ssS'machine2'
p20
(dp21
g5
I624
sg6
I36
sg7
I1
sg8
I30
sg9
I8
sg10
I6
sg11
I450
sssS'Wahono.csv'
p22
(dp23
g3
(dp24
g5
I3040
sg6
I55
sg7
I5
sg8
I0
sg9
I2
sg10
I273
sg11
I3040
ssg12
(dp25
g5
I4130
sg6
I57
sg7
I3
sg8
I295
sg9
I2
sg10
I47
sg11
I1910
ssg14
(dp26
g5
I1621
sg6
I56
sg7
I3
sg8
I129
sg9
I3
sg10
I20
sg11
I1210
ssg16
(dp27
g5
I3320
sg6
I55
sg7
I5
sg8
I0
sg9
I2
sg10
I333
sg11
I3320
ssg18
(dp28
g5
I1793
sg6
I58
sg7
I1
sg8
I125
sg9
I3
sg10
I18
sg11
I1280
ssg20
(dp29
g5
I2240
sg6
I60
sg7
I1
sg8
I162
sg9
I1
sg10
I28
sg11
I1570
sssS'Hall.csv'
p30
(dp31
g3
(dp32
g5
I2900
sg6
I96
sg7
I7
sg8
I0
sg9
I3
sg10
I278
sg11
I2900
ssg12
(dp33
g5
I2977
sg6
I101
sg7
I2
sg8
I242
sg9
I3
sg10
I51
sg11
I1360
ssg14
(dp34
g5
I971
sg6
I100
sg7
I2
sg8
I70
sg9
I4
sg10
I8
sg11
I700
ssg16
(dp35
g5
I3450
sg6
I92
sg7
I9
sg8
I0
sg9
I5
sg10
I352
sg11
I3450
ssg18
(dp36
g5
I941
sg6
I98
sg7
I4
sg8
I60
sg9
I4
sg10
I17
sg11
I610
ssg20
(dp37
g5
I958
sg6
I98
sg7
I4
sg8
I56
sg9
I4
sg10
I10
sg11
I660
sssS'Danijel.csv'
p38
(dp39
g3
(dp40
g5
I2630
sg6
I40
sg7
I7
sg8
I0
sg9
I1
sg10
I277
sg11
I2630
ssg12
(dp41
g5
I2345
sg6
I44
sg7
I1
sg8
I176
sg9
I3
sg10
I28
sg11
I1080
ssg14
(dp42
g5
I2252
sg6
I43
sg7
I4
sg8
I158
sg9
I1
sg10
I30
sg11
I1710
ssg16
(dp43
g5
I2310
sg6
I41
sg7
I5
sg8
I0
sg9
I2
sg10
I208
sg11
I2310
ssg18
(dp44
g5
I1500
sg6
I42
sg7
I4
sg8
I121
sg9
I2
sg10
I19
sg11
I1040
ssg20
(dp45
g5
I1371
sg6
I44
sg7
I1
sg8
I106
sg9
I3
sg10
I14
sg11
I960
sss.(dp0
S'K_all3.csv'
p1
(dp2
S'none'
p3
(dp4
S'count'
p5
I680
sS'truepos'
p6
I37
sS'falseneg'
p7
I5
sS'correction'
p8
I0
sS'unknownyes'
p9
I3
sS'falsepos'
p10
I59
sS'unique'
p11
I680
ssS'three'
p12
(dp13
g5
I1234
sg6
I40
sg7
I2
sg8
I90
sg9
I3
sg10
I17
sg11
I570
ssS'machine'
p14
(dp15
g5
I518
sg6
I28
sg7
I3
sg8
I34
sg9
I14
sg10
I1
sg11
I410
ssS'machine4'
p16
(dp17
g5
I520
sg6
I30
sg7
I3
sg8
I0
sg9
I12
sg10
I48
sg11
I520
ssS'machine3'
p18
(dp19
g5
I585
sg6
I31
sg7
I0
sg8
I33
sg9
I14
sg10
I11
sg11
I430
ssS'machine2'
p20
(dp21
g5
I642
sg6
I37
sg7
I2
sg8
I39
sg9
I6
sg10
I7
sg11
I470
sssS'Wahono.csv'
p22
(dp23
g3
(dp24
g5
I3980
sg6
I50
sg7
I12
sg8
I0
sg9
I0
sg10
I395
sg11
I3980
ssg12
(dp25
g5
I2936
sg6
I55
sg7
I4
sg8
I230
sg9
I3
sg10
I28
sg11
I1350
ssg14
(dp26
g5
I1633
sg6
I58
sg7
I2
sg8
I145
sg9
I2
sg10
I12
sg11
I1210
ssg16
(dp27
g5
I2990
sg6
I56
sg7
I6
sg8
I0
sg9
I0
sg10
I292
sg11
I2990
ssg18
(dp28
g5
I2379
sg6
I58
sg7
I3
sg8
I181
sg9
I1
sg10
I31
sg11
I1690
ssg20
(dp29
g5
I1363
sg6
I51
sg7
I4
sg8
I89
sg9
I7
sg10
I22
sg11
I960
sssS'Hall.csv'
p30
(dp31
g3
(dp32
g5
I3770
sg6
I89
sg7
I15
sg8
I0
sg9
I2
sg10
I397
sg11
I3770
ssg12
(dp33
g5
I1855
sg6
I98
sg7
I4
sg8
I143
sg9
I4
sg10
I23
sg11
I850
ssg14
(dp34
g5
I634
sg6
I98
sg7
I4
sg8
I35
sg9
I4
sg10
I8
sg11
I460
ssg16
(dp35
g5
I2590
sg6
I94
sg7
I8
sg8
I0
sg9
I4
sg10
I242
sg11
I2590
ssg18
(dp36
g5
I1287
sg6
I98
sg7
I4
sg8
I95
sg9
I4
sg10
I21
sg11
I840
ssg20
(dp37
g5
I1222
sg6
I100
sg7
I3
sg8
I97
sg9
I3
sg10
I26
sg11
I810
sssS'Danijel.csv'
p38
(dp39
g3
(dp40
g5
I990
sg6
I44
sg7
I2
sg8
I0
sg9
I2
sg10
I90
sg11
I990
ssg12
(dp41
g5
I1744
sg6
I41
sg7
I2
sg8
I139
sg9
I5
sg10
I26
sg11
I800
ssg14
(dp42
g5
I1397
sg6
I41
sg7
I4
sg8
I108
sg9
I3
sg10
I14
sg11
I1060
ssg16
(dp43
g5
I1750
sg6
I42
sg7
I2
sg8
I0
sg9
I4
sg10
I172
sg11
I1750
ssg18
(dp44
g5
I1080
sg6
I42
sg7
I2
sg8
I72
sg9
I4
sg10
I19
sg11
I760
ssg20
(dp45
g5
I1141
sg6
I42
sg7
I3
sg8
I74
sg9
I3
sg10
I15
sg11
I810
sss.(dp0
S'K_all3.csv'
p1
(dp2
S'none'
p3
(dp4
S'count'
p5
I390
sS'truepos'
p6
I29
sS'falseneg'
p7
I6
sS'correction'
p8
I0
sS'unknownyes'
p9
I10
sS'falsepos'
p10
I30
sS'unique'
p11
I390
ssS'three'
p12
(dp13
g5
I1101
sg6
I37
sg7
I1
sg8
I95
sg9
I7
sg10
I15
sg11
I500
ssS'machine'
p14
(dp15
g5
I521
sg6
I29
sg7
I4
sg8
I34
sg9
I12
sg10
I5
sg11
I410
ssS'machine4'
p16
(dp17
g5
I490
sg6
I34
sg7
I1
sg8
I0
sg9
I10
sg10
I52
sg11
I490
ssS'machine3'
p18
(dp19
g5
I642
sg6
I30
sg7
I6
sg8
I38
sg9
I9
sg10
I8
sg11
I490
ssS'machine2'
p20
(dp21
g5
I793
sg6
I37
sg7
I1
sg8
I56
sg9
I7
sg10
I12
sg11
I560
sssS'Wahono.csv'
p22
(dp23
g3
(dp24
g5
I2470
sg6
I55
sg7
I3
sg8
I0
sg9
I4
sg10
I216
sg11
I2470
ssg12
(dp25
g5
I3263
sg6
I57
sg7
I3
sg8
I251
sg9
I2
sg10
I31
sg11
I1500
ssg14
(dp26
g5
I1595
sg6
I59
sg7
I1
sg8
I110
sg9
I2
sg10
I14
sg11
I1210
ssg16
(dp27
g5
I3570
sg6
I50
sg7
I10
sg8
I0
sg9
I2
sg10
I328
sg11
I3570
ssg18
(dp28
g5
I1669
sg6
I55
sg7
I4
sg8
I120
sg9
I3
sg10
I23
sg11
I1160
ssg20
(dp29
g5
I1773
sg6
I60
sg7
I0
sg8
I113
sg9
I2
sg10
I21
sg11
I1260
sssS'Hall.csv'
p30
(dp31
g3
(dp32
g5
I4320
sg6
I99
sg7
I6
sg8
I0
sg9
I1
sg10
I414
sg11
I4320
ssg12
(dp33
g5
I2819
sg6
I99
sg7
I3
sg8
I245
sg9
I4
sg10
I38
sg11
I1280
ssg14
(dp34
g5
I651
sg6
I93
sg7
I9
sg8
I42
sg9
I4
sg10
I7
sg11
I460
ssg16
(dp35
g5
I2480
sg6
I94
sg7
I8
sg8
I0
sg9
I4
sg10
I250
sg11
I2480
ssg18
(dp36
g5
I1012
sg6
I96
sg7
I6
sg8
I77
sg9
I4
sg10
I11
sg11
I650
ssg20
(dp37
g5
I733
sg6
I99
sg7
I3
sg8
I40
sg9
I4
sg10
I6
sg11
I510
sssS'Danijel.csv'
p38
(dp39
g3
(dp40
g5
I2630
sg6
I43
sg7
I5
sg8
I0
sg9
I0
sg10
I270
sg11
I2630
ssg12
(dp41
g5
I1813
sg6
I45
sg7
I0
sg8
I128
sg9
I3
sg10
I24
sg11
I840
ssg14
(dp42
g5
I1205
sg6
I40
sg7
I5
sg8
I88
sg9
I3
sg10
I12
sg11
I910
ssg16
(dp43
g5
I2830
sg6
I44
sg7
I3
sg8
I0
sg9
I1
sg10
I287
sg11
I2830
ssg18
(dp44
g5
I1038
sg6
I42
sg7
I2
sg8
I76
sg9
I4
sg10
I15
sg11
I720
ssg20
(dp45
g5
I950
sg6
I43
sg7
I1
sg8
I68
sg9
I4
sg10
I10
sg11
I660
sss.(dp0
S'K_all3.csv'
p1
(dp2
S'none'
p3
(dp4
S'count'
p5
I490
sS'truepos'
p6
I33
sS'falseneg'
p7
I1
sS'correction'
p8
I0
sS'unknownyes'
p9
I11
sS'falsepos'
p10
I36
sS'unique'
p11
I490
ssS'three'
p12
(dp13
g5
I890
sg6
I32
sg7
I1
sg8
I66
sg9
I12
sg10
I12
sg11
I410
ssS'machine'
p14
(dp15
g5
I652
sg6
I31
sg7
I4
sg8
I55
sg9
I10
sg10
I5
sg11
I500
ssS'machine4'
p16
(dp17
g5
I430
sg6
I31
sg7
I3
sg8
I0
sg9
I11
sg10
I40
sg11
I430
ssS'machine3'
p18
(dp19
g5
I582
sg6
I36
sg7
I2
sg8
I40
sg9
I7
sg10
I5
sg11
I410
ssS'machine2'
p20
(dp21
g5
I551
sg6
I29
sg7
I3
sg8
I34
sg9
I13
sg10
I5
sg11
I410
sssS'Wahono.csv'
p22
(dp23
g3
(dp24
g5
I3470
sg6
I58
sg7
I3
sg8
I0
sg9
I1
sg10
I349
sg11
I3470
ssg12
(dp25
g5
I5009
sg6
I60
sg7
I1
sg8
I404
sg9
I1
sg10
I73
sg11
I2290
ssg14
(dp26
g5
I1213
sg6
I51
sg7
I7
sg8
I81
sg9
I4
sg10
I14
sg11
I910
ssg16
(dp27
g5
I3030
sg6
I50
sg7
I12
sg8
I0
sg9
I0
sg10
I301
sg11
I3030
ssg18
(dp28
g5
I2009
sg6
I58
sg7
I1
sg8
I150
sg9
I3
sg10
I28
sg11
I1400
ssg20
(dp29
g5
I2007
sg6
I56
sg7
I3
sg8
I151
sg9
I3
sg10
I34
sg11
I1410
sssS'Hall.csv'
p30
(dp31
g3
(dp32
g5
I2440
sg6
I94
sg7
I9
sg8
I0
sg9
I3
sg10
I207
sg11
I2440
ssg12
(dp33
g5
I1287
sg6
I97
sg7
I5
sg8
I98
sg9
I4
sg10
I10
sg11
I590
ssg14
(dp34
g5
I632
sg6
I90
sg7
I8
sg8
I38
sg9
I8
sg10
I14
sg11
I460
ssg16
(dp35
g5
I3930
sg6
I92
sg7
I11
sg8
I0
sg9
I3
sg10
I368
sg11
I3930
ssg18
(dp36
g5
I957
sg6
I99
sg7
I3
sg8
I64
sg9
I4
sg10
I8
sg11
I620
ssg20
(dp37
g5
I659
sg6
I95
sg7
I5
sg8
I32
sg9
I6
sg10
I15
sg11
I460
sssS'Danijel.csv'
p38
(dp39
g3
(dp40
g5
I2640
sg6
I39
sg7
I7
sg8
I0
sg9
I2
sg10
I254
sg11
I2640
ssg12
(dp41
g5
I1899
sg6
I44
sg7
I2
sg8
I132
sg9
I2
sg10
I13
sg11
I880
ssg14
(dp42
g5
I1514
sg6
I41
sg7
I4
sg8
I127
sg9
I3
sg10
I16
sg11
I1120
ssg16
(dp43
g5
I2390
sg6
I45
sg7
I2
sg8
I0
sg9
I1
sg10
I224
sg11
I2390
ssg18
(dp44
g5
I980
sg6
I40
sg7
I4
sg8
I77
sg9
I4
sg10
I7
sg11
I680
ssg20
(dp45
g5
I1459
sg6
I37
sg7
I8
sg8
I112
sg9
I3
sg10
I24
sg11
I1010
sss.(dp0
S'K_all3.csv'
p1
(dp2
S'none'
p3
(dp4
S'count'
p5
I680
sS'truepos'
p6
I32
sS'falseneg'
p7
I7
sS'correction'
p8
I0
sS'unknownyes'
p9
I6
sS'falsepos'
p10
I52
sS'unique'
p11
I680
ssS'three'
p12
(dp13
g5
I768
sg6
I31
sg7
I2
sg8
I65
sg9
I12
sg10
I11
sg11
I350
ssS'machine'
p14
(dp15
g5
I607
sg6
I32
sg7
I3
sg8
I48
sg9
I10
sg10
I5
sg11
I470
ssS'machine4'
p16
(dp17
g5
I870
sg6
I38
sg7
I5
sg8
I0
sg9
I2
sg10
I96
sg11
I870
ssS'machine3'
p18
(dp19
g5
I603
sg6
I35
sg7
I3
sg8
I30
sg9
I7
sg10
I6
sg11
I460
ssS'machine2'
p20
(dp21
g5
I670
sg6
I33
sg7
I0
sg8
I47
sg9
I12
sg10
I7
sg11
I460
sssS'Wahono.csv'
p22
(dp23
g3
(dp24
g5
I3560
sg6
I54
sg7
I5
sg8
I0
sg9
I3
sg10
I350
sg11
I3560
ssg12
(dp25
g5
I3021
sg6
I55
sg7
I3
sg8
I248
sg9
I4
sg10
I35
sg11
I1380
ssg14
(dp26
g5
I1682
sg6
I52
sg7
I6
sg8
I130
sg9
I4
sg10
I12
sg11
I1260
ssg16
(dp27
g5
I2880
sg6
I53
sg7
I6
sg8
I0
sg9
I3
sg10
I273
sg11
I2880
ssg18
(dp28
g5
I1916
sg6
I56
sg7
I3
sg8
I136
sg9
I3
sg10
I27
sg11
I1350
ssg20
(dp29
g5
I2127
sg6
I59
sg7
I0
sg8
I174
sg9
I3
sg10
I41
sg11
I1460
sssS'Hall.csv'
p30
(dp31
g3
(dp32
g5
I4290
sg6
I92
sg7
I13
sg8
I0
sg9
I1
sg10
I427
sg11
I4290
ssg12
(dp33
g5
I2261
sg6
I99
sg7
I3
sg8
I190
sg9
I4
sg10
I35
sg11
I1030
ssg14
(dp34
g5
I1071
sg6
I93
sg7
I9
sg8
I86
sg9
I4
sg10
I20
sg11
I760
ssg16
(dp35
g5
I2920
sg6
I96
sg7
I10
sg8
I0
sg9
I0
sg10
I278
sg11
I2920
ssg18
(dp36
g5
I825
sg6
I98
sg7
I4
sg8
I44
sg9
I4
sg10
I4
sg11
I540
ssg20
(dp37
g5
I840
sg6
I100
sg7
I2
sg8
I52
sg9
I4
sg10
I18
sg11
I560
sssS'Danijel.csv'
p38
(dp39
g3
(dp40
g5
I2190
sg6
I41
sg7
I6
sg8
I0
sg9
I1
sg10
I204
sg11
I2190
ssg12
(dp41
g5
I2947
sg6
I45
sg7
I1
sg8
I234
sg9
I2
sg10
I44
sg11
I1350
ssg14
(dp42
g5
I1094
sg6
I39
sg7
I6
sg8
I82
sg9
I3
sg10
I7
sg11
I830
ssg16
(dp43
g5
I2520
sg6
I41
sg7
I6
sg8
I0
sg9
I1
sg10
I252
sg11
I2520
ssg18
(dp44
g5
I1086
sg6
I42
sg7
I3
sg8
I70
sg9
I3
sg10
I9
sg11
I780
ssg20
(dp45
g5
I1449
sg6
I43
sg7
I2
sg8
I105
sg9
I3
sg10
I23
sg11
I1010
sss.(dp0
S'K_all3.csv'
p1
(dp2
S'none'
p3
(dp4
S'count'
p5
I490
sS'truepos'
p6
I30
sS'falseneg'
p7
I6
sS'correction'
p8
I0
sS'unknownyes'
p9
I9
sS'falsepos'
p10
I47
sS'unique'
p11
I490
ssS'three'
p12
(dp13
g5
I822
sg6
I31
sg7
I0
sg8
I58
sg9
I14
sg10
I10
sg11
I380
ssS'machine'
p14
(dp15
g5
I530
sg6
I27
sg7
I3
sg8
I50
sg9
I15
sg10
I6
sg11
I410
ssS'machine4'
p16
(dp17
g5
I530
sg6
I36
sg7
I2
sg8
I0
sg9
I7
sg10
I48
sg11
I530
ssS'machine3'
p18
(dp19
g5
I775
sg6
I34
sg7
I5
sg8
I62
sg9
I6
sg10
I4
sg11
I570
ssS'machine2'
p20
(dp21
g5
I741
sg6
I32
sg7
I4
sg8
I61
sg9
I9
sg10
I16
sg11
I510
sssS'Wahono.csv'
p22
(dp23
g3
(dp24
g5
I3190
sg6
I55
sg7
I4
sg8
I0
sg9
I3
sg10
I326
sg11
I3190
ssg12
(dp25
g5
I3651
sg6
I58
sg7
I1
sg8
I292
sg9
I3
sg10
I40
sg11
I1670
ssg14
(dp26
g5
I1075
sg6
I51
sg7
I2
sg8
I79
sg9
I9
sg10
I9
sg11
I810
ssg16
(dp27
g5
I3060
sg6
I50
sg7
I9
sg8
I0
sg9
I3
sg10
I281
sg11
I3060
ssg18
(dp28
g5
I2322
sg6
I56
sg7
I3
sg8
I177
sg9
I3
sg10
I21
sg11
I1630
ssg20
(dp29
g5
I1814
sg6
I56
sg7
I5
sg8
I136
sg9
I1
sg10
I22
sg11
I1260
sssS'Hall.csv'
p30
(dp31
g3
(dp32
g5
I3890
sg6
I97
sg7
I9
sg8
I0
sg9
I0
sg10
I386
sg11
I3890
ssg12
(dp33
g5
I1673
sg6
I97
sg7
I5
sg8
I147
sg9
I4
sg10
I18
sg11
I760
ssg14
(dp34
g5
I771
sg6
I91
sg7
I8
sg8
I45
sg9
I7
sg10
I18
sg11
I560
ssg16
(dp35
g5
I3280
sg6
I93
sg7
I10
sg8
I0
sg9
I3
sg10
I341
sg11
I3280
ssg18
(dp36
g5
I640
sg6
I100
sg7
I2
sg8
I37
sg9
I4
sg10
I4
sg11
I400
ssg20
(dp37
g5
I705
sg6
I100
sg7
I2
sg8
I36
sg9
I4
sg10
I15
sg11
I480
sssS'Danijel.csv'
p38
(dp39
g3
(dp40
g5
I1090
sg6
I45
sg7
I1
sg8
I0
sg9
I2
sg10
I110
sg11
I1090
ssg12
(dp41
g5
I2057
sg6
I44
sg7
I2
sg8
I170
sg9
I2
sg10
I21
sg11
I940
ssg14
(dp42
g5
I1218
sg6
I46
sg7
I0
sg8
I107
sg9
I2
sg10
I13
sg11
I900
ssg16
(dp43
g5
I3220
sg6
I43
sg7
I5
sg8
I0
sg9
I0
sg10
I327
sg11
I3220
ssg18
(dp44
g5
I1063
sg6
I42
sg7
I2
sg8
I81
sg9
I4
sg10
I15
sg11
I740
ssg20
(dp45
g5
I1091
sg6
I44
sg7
I2
sg8
I84
sg9
I2
sg10
I11
sg11
I760
sss.(dp0
S'K_all3.csv'
p1
(dp2
S'none'
p3
(dp4
S'count'
p5
I580
sS'truepos'
p6
I36
sS'falseneg'
p7
I0
sS'correction'
p8
I0
sS'unknownyes'
p9
I9
sS'falsepos'
p10
I51
sS'unique'
p11
I580
ssS'three'
p12
(dp13
g5
I958
sg6
I34
sg7
I2
sg8
I75
sg9
I9
sg10
I6
sg11
I440
ssS'machine'
p14
(dp15
g5
I706
sg6
I34
sg7
I3
sg8
I57
sg9
I8
sg10
I8
sg11
I560
ssS'machine4'
p16
(dp17
g5
I440
sg6
I28
sg7
I4
sg8
I0
sg9
I13
sg10
I50
sg11
I440
ssS'machine3'
p18
(dp19
g5
I615
sg6
I32
sg7
I4
sg8
I45
sg9
I9
sg10
I6
sg11
I460
ssS'machine2'
p20
(dp21
g5
I504
sg6
I31
sg7
I1
sg8
I26
sg9
I13
sg10
I8
sg11
I360
sssS'Wahono.csv'
p22
(dp23
g3
(dp24
g5
I3930
sg6
I55
sg7
I7
sg8
I0
sg9
I0
sg10
I406
sg11
I3930
ssg12
(dp25
g5
I4143
sg6
I58
sg7
I1
sg8
I327
sg9
I3
sg10
I57
sg11
I1900
ssg14
(dp26
g5
I1623
sg6
I50
sg7
I6
sg8
I134
sg9
I6
sg10
I14
sg11
I1210
ssg16
(dp27
g5
I3860
sg6
I55
sg7
I6
sg8
I0
sg9
I1
sg10
I353
sg11
I3860
ssg18
(dp28
g5
I1761
sg6
I55
sg7
I3
sg8
I134
sg9
I4
sg10
I23
sg11
I1230
ssg20
(dp29
g5
I2657
sg6
I58
sg7
I3
sg8
I202
sg9
I1
sg10
I40
sg11
I1860
sssS'Hall.csv'
p30
(dp31
g3
(dp32
g5
I2160
sg6
I94
sg7
I9
sg8
I0
sg9
I3
sg10
I193
sg11
I2160
ssg12
(dp33
g5
I1401
sg6
I98
sg7
I4
sg8
I96
sg9
I4
sg10
I17
sg11
I650
ssg14
(dp34
g5
I702
sg6
I94
sg7
I6
sg8
I49
sg9
I6
sg10
I20
sg11
I510
ssg16
(dp35
g5
I2790
sg6
I95
sg7
I10
sg8
I0
sg9
I1
sg10
I240
sg11
I2790
ssg18
(dp36
g5
I852
sg6
I98
sg7
I4
sg8
I46
sg9
I4
sg10
I8
sg11
I560
ssg20
(dp37
g5
I612
sg6
I90
sg7
I10
sg8
I33
sg9
I6
sg10
I15
sg11
I410
sssS'Danijel.csv'
p38
(dp39
g3
(dp40
g5
I1110
sg6
I43
sg7
I2
sg8
I0
sg9
I3
sg10
I104
sg11
I1110
ssg12
(dp41
g5
I1816
sg6
I43
sg7
I2
sg8
I152
sg9
I3
sg10
I19
sg11
I830
ssg14
(dp42
g5
I1021
sg6
I40
sg7
I4
sg8
I93
sg9
I4
sg10
I13
sg11
I760
ssg16
(dp43
g5
I3160
sg6
I44
sg7
I3
sg8
I0
sg9
I1
sg10
I323
sg11
I3160
ssg18
(dp44
g5
I1220
sg6
I44
sg7
I1
sg8
I87
sg9
I3
sg10
I17
sg11
I860
ssg20
(dp45
g5
I1264
sg6
I44
sg7
I0
sg8
I89
sg9
I4
sg10
I17
sg11
I880
sss.(dp0
S'K_all3.csv'
p1
(dp2
S'none'
p3
(dp4
S'count'
p5
I410
sS'truepos'
p6
I27
sS'falseneg'
p7
I6
sS'correction'
p8
I0
sS'unknownyes'
p9
I12
sS'falsepos'
p10
I32
sS'unique'
p11
I410
ssS'three'
p12
(dp13
g5
I858
sg6
I33
sg7
I2
sg8
I53
sg9
I10
sg10
I12
sg11
I400
ssS'machine'
p14
(dp15
g5
I627
sg6
I28
sg7
I5
sg8
I42
sg9
I12
sg10
I4
sg11
I510
ssS'machine4'
p16
(dp17
g5
I630
sg6
I37
sg7
I3
sg8
I0
sg9
I5
sg10
I65
sg11
I630
ssS'machine3'
p18
(dp19
g5
I592
sg6
I31
sg7
I0
sg8
I45
sg9
I14
sg10
I4
sg11
I430
ssS'machine2'
p20
(dp21
g5
I613
sg6
I29
sg7
I4
sg8
I39
sg9
I12
sg10
I17
sg11
I450
sssS'Wahono.csv'
p22
(dp23
g3
(dp24
g5
I3910
sg6
I57
sg7
I4
sg8
I0
sg9
I1
sg10
I384
sg11
I3910
ssg12
(dp25
g5
I3939
sg6
I58
sg7
I0
sg8
I328
sg9
I4
sg10
I56
sg11
I1800
ssg14
(dp26
g5
I2287
sg6
I59
sg7
I2
sg8
I169
sg9
I1
sg10
I33
sg11
I1710
ssg16
(dp27
g5
I3130
sg6
I53
sg7
I6
sg8
I0
sg9
I3
sg10
I272
sg11
I3130
ssg18
(dp28
g5
I2177
sg6
I60
sg7
I1
sg8
I153
sg9
I1
sg10
I25
sg11
I1530
ssg20
(dp29
g5
I2181
sg6
I59
sg7
I1
sg8
I156
sg9
I2
sg10
I35
sg11
I1530
sssS'Hall.csv'
p30
(dp31
g3
(dp32
g5
I3380
sg6
I92
sg7
I11
sg8
I0
sg9
I3
sg10
I324
sg11
I3380
ssg12
(dp33
g5
I2257
sg6
I97
sg7
I5
sg8
I165
sg9
I4
sg10
I23
sg11
I1040
ssg14
(dp34
g5
I931
sg6
I98
sg7
I4
sg8
I73
sg9
I4
sg10
I9
sg11
I660
ssg16
(dp35
g5
I2270
sg6
I92
sg7
I12
sg8
I0
sg9
I2
sg10
I205
sg11
I2270
ssg18
(dp36
g5
I1888
sg6
I99
sg7
I4
sg8
I136
sg9
I3
sg10
I31
sg11
I1270
ssg20
(dp37
g5
I1463
sg6
I96
sg7
I6
sg8
I96
sg9
I4
sg10
I23
sg11
I990
sssS'Danijel.csv'
p38
(dp39
g3
(dp40
g5
I3070
sg6
I38
sg7
I9
sg8
I0
sg9
I1
sg10
I301
sg11
I3070
ssg12
(dp41
g5
I2449
sg6
I45
sg7
I0
sg8
I199
sg9
I3
sg10
I37
sg11
I1120
ssg14
(dp42
g5
I1300
sg6
I39
sg7
I5
sg8
I83
sg9
I4
sg10
I12
sg11
I990
ssg16
(dp43
g5
I2700
sg6
I40
sg7
I6
sg8
I0
sg9
I2
sg10
I272
sg11
I2700
ssg18
(dp44
g5
I1528
sg6
I46
sg7
I0
sg8
I117
sg9
I2
sg10
I22
sg11
I1070
ssg20
(dp45
g5
I1080
sg6
I39
sg7
I6
sg8
I82
sg9
I3
sg10
I17
sg11
I760
sss.(dp0
S'K_all3.csv'
p1
(dp2
S'none'
p3
(dp4
S'count'
p5
I450
sS'truepos'
p6
I29
sS'falseneg'
p7
I0
sS'correction'
p8
I0
sS'unknownyes'
p9
I16
sS'falsepos'
p10
I35
sS'unique'
p11
I450
ssS'three'
p12
(dp13
g5
I980
sg6
I33
sg7
I2
sg8
I72
sg9
I10
sg10
I18
sg11
I450
ssS'machine'
p14
(dp15
g5
I737
sg6
I26
sg7
I6
sg8
I42
sg9
I13
sg10
I7
sg11
I610
ssS'machine4'
p16
(dp17
g5
I400
sg6
I30
sg7
I2
sg8
I0
sg9
I13
sg10
I40
sg11
I400
ssS'machine3'
p18
(dp19
g5
I632
sg6
I32
sg7
I4
sg8
I42
sg9
I9
sg10
I13
sg11
I460
ssS'machine2'
p20
(dp21
g5
I593
sg6
I30
sg7
I3
sg8
I46
sg9
I12
sg10
I18
sg11
I410
sssS'Wahono.csv'
p22
(dp23
g3
(dp24
g5
I2670
sg6
I56
sg7
I5
sg8
I0
sg9
I1
sg10
I250
sg11
I2670
ssg12
(dp25
g5
I3091
sg6
I57
sg7
I1
sg8
I233
sg9
I4
sg10
I39
sg11
I1420
ssg14
(dp26
g5
I1407
sg6
I52
sg7
I8
sg8
I103
sg9
I2
sg10
I11
sg11
I1060
ssg16
(dp27
g5
I3360
sg6
I58
sg7
I1
sg8
I0
sg9
I3
sg10
I333
sg11
I3360
ssg18
(dp28
g5
I1466
sg6
I56
sg7
I2
sg8
I109
sg9
I4
sg10
I18
sg11
I1040
ssg20
(dp29
g5
I2610
sg6
I57
sg7
I3
sg8
I195
sg9
I2
sg10
I43
sg11
I1830
sssS'Hall.csv'
p30
(dp31
g3
(dp32
g5
I4210
sg6
I93
sg7
I10
sg8
I0
sg9
I3
sg10
I431
sg11
I4210
ssg12
(dp33
g5
I1854
sg6
I96
sg7
I6
sg8
I147
sg9
I4
sg10
I20
sg11
I850
ssg14
(dp34
g5
I701
sg6
I99
sg7
I3
sg8
I46
sg9
I4
sg10
I15
sg11
I510
ssg16
(dp35
g5
I2440
sg6
I95
sg7
I8
sg8
I0
sg9
I3
sg10
I219
sg11
I2440
ssg18
(dp36
g5
I786
sg6
I99
sg7
I3
sg8
I50
sg9
I4
sg10
I9
sg11
I510
ssg20
(dp37
g5
I848
sg6
I99
sg7
I3
sg8
I57
sg9
I4
sg10
I16
sg11
I570
sssS'Danijel.csv'
p38
(dp39
g3
(dp40
g5
I2960
sg6
I46
sg7
I1
sg8
I0
sg9
I1
sg10
I299
sg11
I2960
ssg12
(dp41
g5
I1946
sg6
I42
sg7
I4
sg8
I155
sg9
I2
sg10
I21
sg11
I890
ssg14
(dp42
g5
I744
sg6
I38
sg7
I6
sg8
I56
sg9
I4
sg10
I6
sg11
I560
ssg16
(dp43
g5
I2580
sg6
I43
sg7
I4
sg8
I0
sg9
I1
sg10
I268
sg11
I2580
ssg18
(dp44
g5
I1301
sg6
I41
sg7
I4
sg8
I96
sg9
I3
sg10
I17
sg11
I910
ssg20
(dp45
g5
I1178
sg6
I43
sg7
I2
sg8
I93
sg9
I3
sg10
I26
sg11
I810
sss.(dp0
S'K_all3.csv'
p1
(dp2
S'none'
p3
(dp4
S'count'
p5
I620
sS'truepos'
p6
I33
sS'falseneg'
p7
I5
sS'correction'
p8
I0
sS'unknownyes'
p9
I7
sS'falsepos'
p10
I62
sS'unique'
p11
I620
ssS'three'
p12
(dp13
g5
I1052
sg6
I38
sg7
I1
sg8
I70
sg9
I6
sg10
I10
sg11
I490
ssS'machine'
p14
(dp15
g5
I594
sg6
I31
sg7
I5
sg8
I46
sg9
I9
sg10
I6
sg11
I450
ssS'machine4'
p16
(dp17
g5
I520
sg6
I30
sg7
I6
sg8
I0
sg9
I9
sg10
I51
sg11
I520
ssS'machine3'
p18
(dp19
g5
I659
sg6
I35
sg7
I2
sg8
I53
sg9
I8
sg10
I5
sg11
I480
ssS'machine2'
p20
(dp21
g5
I771
sg6
I35
sg7
I4
sg8
I60
sg9
I6
sg10
I13
sg11
I560
sssS'Wahono.csv'
p22
(dp23
g3
(dp24
g5
I3670
sg6
I54
sg7
I3
sg8
I0
sg9
I5
sg10
I373
sg11
I3670
ssg12
(dp25
g5
I3832
sg6
I57
sg7
I1
sg8
I294
sg9
I4
sg10
I38
sg11
I1760
ssg14
(dp26
g5
I1350
sg6
I56
sg7
I3
sg8
I101
sg9
I3
sg10
I7
sg11
I1010
ssg16
(dp27
g5
I3410
sg6
I56
sg7
I6
sg8
I0
sg9
I0
sg10
I343
sg11
I3410
ssg18
(dp28
g5
I1690
sg6
I57
sg7
I2
sg8
I121
sg9
I3
sg10
I24
sg11
I1180
ssg20
(dp29
g5
I2576
sg6
I58
sg7
I2
sg8
I193
sg9
I2
sg10
I39
sg11
I1810
sssS'Hall.csv'
p30
(dp31
g3
(dp32
g5
I1570
sg6
I97
sg7
I7
sg8
I0
sg9
I2
sg10
I124
sg11
I1570
ssg12
(dp33
g5
I1059
sg6
I98
sg7
I3
sg8
I96
sg9
I5
sg10
I5
sg11
I480
ssg14
(dp34
g5
I533
sg6
I93
sg7
I8
sg8
I31
sg9
I5
sg10
I11
sg11
I380
ssg16
(dp35
g5
I4470
sg6
I95
sg7
I10
sg8
I0
sg9
I1
sg10
I436
sg11
I4470
ssg18
(dp36
g5
I1084
sg6
I96
sg7
I6
sg8
I79
sg9
I4
sg10
I19
sg11
I710
ssg20
(dp37
g5
I736
sg6
I99
sg7
I3
sg8
I42
sg9
I4
sg10
I19
sg11
I510
sssS'Danijel.csv'
p38
(dp39
g3
(dp40
g5
I2640
sg6
I43
sg7
I3
sg8
I0
sg9
I2
sg10
I239
sg11
I2640
ssg12
(dp41
g5
I3029
sg6
I41
sg7
I5
sg8
I235
sg9
I2
sg10
I37
sg11
I1390
ssg14
(dp42
g5
I939
sg6
I40
sg7
I4
sg8
I65
sg9
I4
sg10
I10
sg11
I710
ssg16
(dp43
g5
I2540
sg6
I37
sg7
I7
sg8
I0
sg9
I4
sg10
I234
sg11
I2540
ssg18
(dp44
g5
I1325
sg6
I41
sg7
I4
sg8
I99
sg9
I3
sg10
I17
sg11
I930
ssg20
(dp45
g5
I1053
sg6
I40
sg7
I4
sg8
I67
sg9
I4
sg10
I13
sg11
I760
sss.(dp0
S'K_all3.csv'
p1
(dp2
S'none'
p3
(dp4
S'count'
p5
I460
sS'truepos'
p6
I30
sS'falseneg'
p7
I5
sS'correction'
p8
I0
sS'unknownyes'
p9
I10
sS'falsepos'
p10
I47
sS'unique'
p11
I460
ssS'three'
p12
(dp13
g5
I805
sg6
I35
sg7
I0
sg8
I62
sg9
I10
sg10
I8
sg11
I370
ssS'machine'
p14
(dp15
g5
I680
sg6
I28
sg7
I4
sg8
I40
sg9
I13
sg10
I6
sg11
I560
ssS'machine4'
p16
(dp17
g5
I450
sg6
I36
sg7
I2
sg8
I0
sg9
I7
sg10
I46
sg11
I450
ssS'machine3'
p18
(dp19
g5
I606
sg6
I30
sg7
I3
sg8
I36
sg9
I12
sg10
I8
sg11
I450
ssS'machine2'
p20
(dp21
g5
I681
sg6
I30
sg7
I1
sg8
I52
sg9
I14
sg10
I9
sg11
I480
sssS'Wahono.csv'
p22
(dp23
g3
(dp24
g5
I3560
sg6
I57
sg7
I3
sg8
I0
sg9
I2
sg10
I329
sg11
I3560
ssg12
(dp25
g5
I3504
sg6
I56
sg7
I4
sg8
I269
sg9
I2
sg10
I40
sg11
I1610
ssg14
(dp26
g5
I1355
sg6
I51
sg7
I6
sg8
I106
sg9
I5
sg10
I18
sg11
I1010
ssg16
(dp27
g5
I3280
sg6
I55
sg7
I5
sg8
I0
sg9
I2
sg10
I317
sg11
I3280
ssg18
(dp28
g5
I2483
sg6
I56
sg7
I2
sg8
I198
sg9
I4
sg10
I34
sg11
I1720
ssg20
(dp29
g5
I2185
sg6
I56
sg7
I5
sg8
I169
sg9
I1
sg10
I33
sg11
I1510
sssS'Hall.csv'
p30
(dp31
g3
(dp32
g5
I2680
sg6
I92
sg7
I14
sg8
I0
sg9
I0
sg10
I251
sg11
I2680
ssg12
(dp33
g5
I1275
sg6
I99
sg7
I3
sg8
I92
sg9
I4
sg10
I6
sg11
I590
ssg14
(dp34
g5
I913
sg6
I95
sg7
I7
sg8
I50
sg9
I4
sg10
I10
sg11
I660
ssg16
(dp35
g5
I3530
sg6
I95
sg7
I9
sg8
I0
sg9
I2
sg10
I370
sg11
I3530
ssg18
(dp36
g5
I2188
sg6
I99
sg7
I4
sg8
I156
sg9
I3
sg10
I31
sg11
I1510
ssg20
(dp37
g5
I439
sg6
I88
sg7
I6
sg8
I19
sg9
I12
sg10
I12
sg11
I310
sssS'Danijel.csv'
p38
(dp39
g3
(dp40
g5
I3120
sg6
I45
sg7
I3
sg8
I0
sg9
I0
sg10
I325
sg11
I3120
ssg12
(dp41
g5
I1330
sg6
I45
sg7
I0
sg8
I107
sg9
I3
sg10
I12
sg11
I610
ssg14
(dp42
g5
I1072
sg6
I44
sg7
I2
sg8
I85
sg9
I2
sg10
I8
sg11
I800
ssg16
(dp43
g5
I2450
sg6
I45
sg7
I2
sg8
I0
sg9
I1
sg10
I259
sg11
I2450
ssg18
(dp44
g5
I1186
sg6
I42
sg7
I3
sg8
I85
sg9
I3
sg10
I21
sg11
I830
ssg20
(dp45
g5
I1226
sg6
I41
sg7
I3
sg8
I84
sg9
I4
sg10
I24
sg11
I860
sss.(dp0
S'K_all3.csv'
p1
(dp2
S'none'
p3
(dp4
S'count'
p5
I440
sS'truepos'
p6
I27
sS'falseneg'
p7
I4
sS'correction'
p8
I0
sS'unknownyes'
p9
I14
sS'falsepos'
p10
I49
sS'unique'
p11
I440
ssS'three'
p12
(dp13
g5
I1011
sg6
I35
sg7
I0
sg8
I66
sg9
I10
sg10
I15
sg11
I470
ssS'machine'
p14
(dp15
g5
I564
sg6
I27
sg7
I7
sg8
I41
sg9
I11
sg10
I7
sg11
I460
ssS'machine4'
p16
(dp17
g5
I550
sg6
I30
sg7
I4
sg8
I0
sg9
I11
sg10
I52
sg11
I550
ssS'machine3'
p18
(dp19
g5
I656
sg6
I34
sg7
I2
sg8
I48
sg9
I9
sg10
I12
sg11
I460
ssS'machine2'
p20
(dp21
g5
I713
sg6
I31
sg7
I6
sg8
I43
sg9
I8
sg10
I14
sg11
I510
sssS'Wahono.csv'
p22
(dp23
g3
(dp24
g5
I3910
sg6
I55
sg7
I4
sg8
I0
sg9
I3
sg10
I370
sg11
I3910
ssg12
(dp25
g5
I3424
sg6
I57
sg7
I1
sg8
I249
sg9
I4
sg10
I38
sg11
I1580
ssg14
(dp26
g5
I1153
sg6
I53
sg7
I6
sg8
I83
sg9
I3
sg10
I11
sg11
I860
ssg16
(dp27
g5
I4090
sg6
I55
sg7
I6
sg8
I0
sg9
I1
sg10
I404
sg11
I4090
ssg18
(dp28
g5
I1784
sg6
I55
sg7
I5
sg8
I132
sg9
I2
sg10
I24
sg11
I1240
ssg20
(dp29
g5
I2098
sg6
I57
sg7
I3
sg8
I165
sg9
I2
sg10
I21
sg11
I1460
sssS'Hall.csv'
p30
(dp31
g3
(dp32
g5
I2400
sg6
I93
sg7
I10
sg8
I0
sg9
I3
sg10
I233
sg11
I2400
ssg12
(dp33
g5
I2211
sg6
I102
sg7
I1
sg8
I179
sg9
I3
sg10
I26
sg11
I1010
ssg14
(dp34
g5
I553
sg6
I95
sg7
I6
sg8
I26
sg9
I5
sg10
I11
sg11
I400
ssg16
(dp35
g5
I1230
sg6
I99
sg7
I3
sg8
I0
sg9
I4
sg10
I96
sg11
I1230
ssg18
(dp36
g5
I666
sg6
I98
sg7
I3
sg8
I38
sg9
I5
sg10
I6
sg11
I410
ssg20
(dp37
g5
I1198
sg6
I98
sg7
I4
sg8
I87
sg9
I4
sg10
I17
sg11
I810
sssS'Danijel.csv'
p38
(dp39
g3
(dp40
g5
I3000
sg6
I42
sg7
I6
sg8
I0
sg9
I0
sg10
I322
sg11
I3000
ssg12
(dp41
g5
I2324
sg6
I44
sg7
I0
sg8
I172
sg9
I4
sg10
I31
sg11
I1070
ssg14
(dp42
g5
I1007
sg6
I43
sg7
I1
sg8
I70
sg9
I4
sg10
I13
sg11
I760
ssg16
(dp43
g5
I2950
sg6
I44
sg7
I3
sg8
I0
sg9
I1
sg10
I277
sg11
I2950
ssg18
(dp44
g5
I1181
sg6
I41
sg7
I3
sg8
I84
sg9
I4
sg10
I18
sg11
I840
ssg20
(dp45
g5
I1459
sg6
I45
sg7
I1
sg8
I97
sg9
I2
sg10
I18
sg11
I1040
sss.(dp0
S'K_all3.csv'
p1
(dp2
S'none'
p3
(dp4
S'count'
p5
I450
sS'truepos'
p6
I31
sS'falseneg'
p7
I5
sS'correction'
p8
I0
sS'unknownyes'
p9
I9
sS'falsepos'
p10
I46
sS'unique'
p11
I450
ssS'three'
p12
(dp13
g5
I1038
sg6
I36
sg7
I0
sg8
I89
sg9
I9
sg10
I18
sg11
I470
ssS'machine'
p14
(dp15
g5
I592
sg6
I23
sg7
I11
sg8
I47
sg9
I11
sg10
I10
sg11
I470
ssS'machine4'
p16
(dp17
g5
I510
sg6
I29
sg7
I7
sg8
I0
sg9
I9
sg10
I35
sg11
I510
ssS'machine3'
p18
(dp19
g5
I639
sg6
I32
sg7
I5
sg8
I40
sg9
I8
sg10
I11
sg11
I460
ssS'machine2'
p20
(dp21
g5
I737
sg6
I35
sg7
I2
sg8
I51
sg9
I8
sg10
I16
sg11
I510
sssS'Wahono.csv'
p22
(dp23
g3
(dp24
g5
I2820
sg6
I59
sg7
I3
sg8
I0
sg9
I0
sg10
I273
sg11
I2820
ssg12
(dp25
g5
I3415
sg6
I58
sg7
I1
sg8
I265
sg9
I3
sg10
I44
sg11
I1570
ssg14
(dp26
g5
I1958
sg6
I57
sg7
I3
sg8
I137
sg9
I2
sg10
I20
sg11
I1470
ssg16
(dp27
g5
I3870
sg6
I56
sg7
I5
sg8
I0
sg9
I1
sg10
I378
sg11
I3870
ssg18
(dp28
g5
I1475
sg6
I58
sg7
I2
sg8
I111
sg9
I2
sg10
I19
sg11
I1030
ssg20
(dp29
g5
I1788
sg6
I50
sg7
I5
sg8
I122
sg9
I7
sg10
I26
sg11
I1260
sssS'Hall.csv'
p30
(dp31
g3
(dp32
g5
I3360
sg6
I92
sg7
I10
sg8
I0
sg9
I4
sg10
I321
sg11
I3360
ssg12
(dp33
g5
I1417
sg6
I98
sg7
I4
sg8
I114
sg9
I4
sg10
I13
sg11
I650
ssg14
(dp34
g5
I1072
sg6
I95
sg7
I7
sg8
I82
sg9
I4
sg10
I11
sg11
I760
ssg16
(dp35
g5
I4740
sg6
I89
sg7
I15
sg8
I0
sg9
I2
sg10
I427
sg11
I4740
ssg18
(dp36
g5
I741
sg6
I100
sg7
I2
sg8
I48
sg9
I4
sg10
I8
sg11
I460
ssg20
(dp37
g5
I920
sg6
I102
sg7
I0
sg8
I67
sg9
I4
sg10
I19
sg11
I610
sssS'Danijel.csv'
p38
(dp39
g3
(dp40
g5
I3110
sg6
I43
sg7
I4
sg8
I0
sg9
I1
sg10
I305
sg11
I3110
ssg12
(dp41
g5
I2116
sg6
I44
sg7
I1
sg8
I166
sg9
I3
sg10
I21
sg11
I970
ssg14
(dp42
g5
I1161
sg6
I40
sg7
I5
sg8
I106
sg9
I3
sg10
I11
sg11
I870
ssg16
(dp43
g5
I790
sg6
I40
sg7
I2
sg8
I0
sg9
I6
sg10
I81
sg11
I790
ssg18
(dp44
g5
I1369
sg6
I42
sg7
I2
sg8
I111
sg9
I4
sg10
I27
sg11
I940
ssg20
(dp45
g5
I1117
sg6
I42
sg7
I2
sg8
I71
sg9
I4
sg10
I9
sg11
I810
sss.(dp0
S'K_all3.csv'
p1
(dp2
S'none'
p3
(dp4
S'count'
p5
I590
sS'truepos'
p6
I34
sS'falseneg'
p7
I3
sS'correction'
p8
I0
sS'unknownyes'
p9
I8
sS'falsepos'
p10
I51
sS'unique'
p11
I590
ssS'three'
p12
(dp13
g5
I962
sg6
I37
sg7
I1
sg8
I77
sg9
I7
sg10
I8
sg11
I440
ssS'machine'
p14
(dp15
g5
I620
sg6
I33
sg7
I4
sg8
I53
sg9
I8
sg10
I5
sg11
I460
ssS'machine4'
p16
(dp17
g5
I460
sg6
I32
sg7
I4
sg8
I0
sg9
I9
sg10
I47
sg11
I460
ssS'machine3'
p18
(dp19
g5
I613
sg6
I33
sg7
I0
sg8
I46
sg9
I12
sg10
I6
sg11
I430
ssS'machine2'
p20
(dp21
g5
I515
sg6
I29
sg7
I4
sg8
I37
sg9
I12
sg10
I7
sg11
I360
sssS'Wahono.csv'
p22
(dp23
g3
(dp24
g5
I3350
sg6
I56
sg7
I3
sg8
I0
sg9
I3
sg10
I329
sg11
I3350
ssg12
(dp25
g5
I2817
sg6
I58
sg7
I1
sg8
I220
sg9
I3
sg10
I39
sg11
I1290
ssg14
(dp26
g5
I1272
sg6
I54
sg7
I4
sg8
I81
sg9
I4
sg10
I19
sg11
I960
ssg16
(dp27
g5
I4170
sg6
I54
sg7
I6
sg8
I0
sg9
I2
sg10
I414
sg11
I4170
ssg18
(dp28
g5
I2365
sg6
I58
sg7
I2
sg8
I193
sg9
I2
sg10
I37
sg11
I1630
ssg20
(dp29
g5
I2230
sg6
I56
sg7
I2
sg8
I150
sg9
I4
sg10
I23
sg11
I1610
sssS'Hall.csv'
p30
(dp31
g3
(dp32
g5
I4610
sg6
I93
sg7
I13
sg8
I0
sg9
I0
sg10
I440
sg11
I4610
ssg12
(dp33
g5
I2184
sg6
I99
sg7
I3
sg8
I158
sg9
I4
sg10
I28
sg11
I1010
ssg14
(dp34
g5
I662
sg6
I95
sg7
I6
sg8
I41
sg9
I5
sg10
I13
sg11
I470
ssg16
(dp35
g5
I2740
sg6
I94
sg7
I7
sg8
I0
sg9
I5
sg10
I254
sg11
I2740
ssg18
(dp36
g5
I847
sg6
I100
sg7
I2
sg8
I59
sg9
I4
sg10
I6
sg11
I540
ssg20
(dp37
g5
I747
sg6
I98
sg7
I3
sg8
I44
sg9
I5
sg10
I16
sg11
I510
sssS'Danijel.csv'
p38
(dp39
g3
(dp40
g5
I2940
sg6
I44
sg7
I3
sg8
I0
sg9
I1
sg10
I269
sg11
I2940
ssg12
(dp41
g5
I1465
sg6
I44
sg7
I1
sg8
I117
sg9
I3
sg10
I18
sg11
I670
ssg14
(dp42
g5
I810
sg6
I39
sg7
I4
sg8
I52
sg9
I5
sg10
I10
sg11
I610
ssg16
(dp43
g5
I2420
sg6
I44
sg7
I2
sg8
I0
sg9
I2
sg10
I231
sg11
I2420
ssg18
(dp44
g5
I1373
sg6
I45
sg7
I1
sg8
I96
sg9
I2
sg10
I20
sg11
I970
ssg20
(dp45
g5
I1144
sg6
I42
sg7
I4
sg8
I86
sg9
I2
sg10
I14
sg11
I810
sss.(dp0
S'K_all3.csv'
p1
(dp2
S'none'
p3
(dp4
S'count'
p5
I370
sS'truepos'
p6
I29
sS'falseneg'
p7
I1
sS'correction'
p8
I0
sS'unknownyes'
p9
I15
sS'falsepos'
p10
I41
sS'unique'
p11
I370
ssS'three'
p12
(dp13
g5
I993
sg6
I31
sg7
I4
sg8
I86
sg9
I10
sg10
I8
sg11
I450
ssS'machine'
p14
(dp15
g5
I608
sg6
I34
sg7
I1
sg8
I41
sg9
I10
sg10
I5
sg11
I460
ssS'machine4'
p16
(dp17
g5
I410
sg6
I25
sg7
I5
sg8
I0
sg9
I15
sg10
I46
sg11
I410
ssS'machine3'
p18
(dp19
g5
I547
sg6
I33
sg7
I1
sg8
I37
sg9
I11
sg10
I6
sg11
I390
ssS'machine2'
p20
(dp21
g5
I644
sg6
I33
sg7
I0
sg8
I52
sg9
I12
sg10
I10
sg11
I440
sssS'Wahono.csv'
p22
(dp23
g3
(dp24
g5
I3970
sg6
I56
sg7
I4
sg8
I0
sg9
I2
sg10
I407
sg11
I3970
ssg12
(dp25
g5
I2911
sg6
I59
sg7
I0
sg8
I222
sg9
I3
sg10
I43
sg11
I1340
ssg14
(dp26
g5
I1793
sg6
I56
sg7
I3
sg8
I121
sg9
I3
sg10
I24
sg11
I1360
ssg16
(dp27
g5
I3740
sg6
I53
sg7
I7
sg8
I0
sg9
I2
sg10
I380
sg11
I3740
ssg18
(dp28
g5
I1407
sg6
I54
sg7
I2
sg8
I102
sg9
I6
sg10
I25
sg11
I980
ssg20
(dp29
g5
I3597
sg6
I61
sg7
I0
sg8
I275
sg9
I1
sg10
I66
sg11
I2510
sssS'Hall.csv'
p30
(dp31
g3
(dp32
g5
I3580
sg6
I93
sg7
I10
sg8
I0
sg9
I3
sg10
I365
sg11
I3580
ssg12
(dp33
g5
I1424
sg6
I99
sg7
I3
sg8
I119
sg9
I4
sg10
I15
sg11
I650
ssg14
(dp34
g5
I704
sg6
I96
sg7
I6
sg8
I40
sg9
I4
sg10
I17
sg11
I510
ssg16
(dp35
g5
I3080
sg6
I91
sg7
I14
sg8
I0
sg9
I1
sg10
I272
sg11
I3080
ssg18
(dp36
g5
I779
sg6
I96
sg7
I6
sg8
I45
sg9
I4
sg10
I7
sg11
I510
ssg20
(dp37
g5
I551
sg6
I96
sg7
I1
sg8
I31
sg9
I9
sg10
I23
sg11
I370
sssS'Danijel.csv'
p38
(dp39
g3
(dp40
g5
I2120
sg6
I34
sg7
I11
sg8
I0
sg9
I3
sg10
I213
sg11
I2120
ssg12
(dp41
g5
I2157
sg6
I44
sg7
I1
sg8
I146
sg9
I3
sg10
I29
sg11
I1000
ssg14
(dp42
g5
I932
sg6
I40
sg7
I3
sg8
I75
sg9
I5
sg10
I13
sg11
I690
ssg16
(dp43
g5
I3260
sg6
I46
sg7
I1
sg8
I0
sg9
I1
sg10
I303
sg11
I3260
ssg18
(dp44
g5
I2444
sg6
I41
sg7
I4
sg8
I186
sg9
I3
sg10
I30
sg11
I1720
ssg20
(dp45
g5
I1083
sg6
I41
sg7
I3
sg8
I82
sg9
I4
sg10
I19
sg11
I760
sss.(dp0
S'K_all3.csv'
p1
(dp2
S'none'
p3
(dp4
S'count'
p5
I570
sS'truepos'
p6
I33
sS'falseneg'
p7
I3
sS'correction'
p8
I0
sS'unknownyes'
p9
I9
sS'falsepos'
p10
I51
sS'unique'
p11
I570
ssS'three'
p12
(dp13
g5
I981
sg6
I30
sg7
I1
sg8
I77
sg9
I14
sg10
I11
sg11
I450
ssS'machine'
p14
(dp15
g5
I542
sg6
I27
sg7
I3
sg8
I47
sg9
I15
sg10
I10
sg11
I410
ssS'machine4'
p16
(dp17
g5
I590
sg6
I28
sg7
I6
sg8
I0
sg9
I11
sg10
I60
sg11
I590
ssS'machine3'
p18
(dp19
g5
I679
sg6
I32
sg7
I1
sg8
I43
sg9
I12
sg10
I13
sg11
I500
ssS'machine2'
p20
(dp21
g5
I588
sg6
I32
sg7
I0
sg8
I48
sg9
I13
sg10
I7
sg11
I410
sssS'Wahono.csv'
p22
(dp23
g3
(dp24
g5
I4100
sg6
I57
sg7
I5
sg8
I0
sg9
I0
sg10
I404
sg11
I4100
ssg12
(dp25
g5
I3781
sg6
I57
sg7
I1
sg8
I305
sg9
I4
sg10
I58
sg11
I1730
ssg14
(dp26
g5
I1745
sg6
I53
sg7
I3
sg8
I147
sg9
I6
sg10
I14
sg11
I1310
ssg16
(dp27
g5
I3160
sg6
I58
sg7
I4
sg8
I0
sg9
I0
sg10
I307
sg11
I3160
ssg18
(dp28
g5
I2416
sg6
I58
sg7
I3
sg8
I166
sg9
I1
sg10
I37
sg11
I1700
ssg20
(dp29
g5
I2643
sg6
I58
sg7
I4
sg8
I189
sg9
I0
sg10
I31
sg11
I1860
sssS'Hall.csv'
p30
(dp31
g3
(dp32
g5
I3490
sg6
I94
sg7
I9
sg8
I0
sg9
I3
sg10
I342
sg11
I3490
ssg12
(dp33
g5
I2798
sg6
I102
sg7
I2
sg8
I205
sg9
I2
sg10
I27
sg11
I1290
ssg14
(dp34
g5
I603
sg6
I96
sg7
I5
sg8
I35
sg9
I5
sg10
I8
sg11
I430
ssg16
(dp35
g5
I3830
sg6
I88
sg7
I15
sg8
I0
sg9
I3
sg10
I368
sg11
I3830
ssg18
(dp36
g5
I701
sg6
I97
sg7
I4
sg8
I46
sg9
I5
sg10
I5
sg11
I440
ssg20
(dp37
g5
I1013
sg6
I96
sg7
I7
sg8
I56
sg9
I3
sg10
I9
sg11
I690
sssS'Danijel.csv'
p38
(dp39
g3
(dp40
g5
I3110
sg6
I44
sg7
I2
sg8
I0
sg9
I2
sg10
I283
sg11
I3110
ssg12
(dp41
g5
I4030
sg6
I42
sg7
I3
sg8
I326
sg9
I3
sg10
I58
sg11
I1840
ssg14
(dp42
g5
I916
sg6
I42
sg7
I3
sg8
I74
sg9
I3
sg10
I7
sg11
I710
ssg16
(dp43
g5
I1860
sg6
I43
sg7
I5
sg8
I0
sg9
I0
sg10
I187
sg11
I1860
ssg18
(dp44
g5
I1586
sg6
I44
sg7
I1
sg8
I138
sg9
I3
sg10
I14
sg11
I1090
ssg20
(dp45
g5
I1356
sg6
I43
sg7
I2
sg8
I96
sg9
I3
sg10
I22
sg11
I960
sss.(dp0
S'K_all3.csv'
p1
(dp2
S'none'
p3
(dp4
S'count'
p5
I620
sS'truepos'
p6
I33
sS'falseneg'
p7
I5
sS'correction'
p8
I0
sS'unknownyes'
p9
I7
sS'falsepos'
p10
I63
sS'unique'
p11
I620
ssS'three'
p12
(dp13
g5
I947
sg6
I35
sg7
I0
sg8
I63
sg9
I10
sg10
I11
sg11
I440
ssS'machine'
p14
(dp15
g5
I665
sg6
I32
sg7
I4
sg8
I55
sg9
I9
sg10
I7
sg11
I510
ssS'machine4'
p16
(dp17
g5
I490
sg6
I31
sg7
I3
sg8
I0
sg9
I11
sg10
I43
sg11
I490
ssS'machine3'
p18
(dp19
g5
I614
sg6
I31
sg7
I4
sg8
I42
sg9
I10
sg10
I8
sg11
I470
ssS'machine2'
p20
(dp21
g5
I581
sg6
I27
sg7
I3
sg8
I38
sg9
I15
sg10
I16
sg11
I410
sssS'Wahono.csv'
p22
(dp23
g3
(dp24
g5
I3150
sg6
I56
sg7
I6
sg8
I0
sg9
I0
sg10
I305
sg11
I3150
ssg12
(dp25
g5
I3530
sg6
I59
sg7
I1
sg8
I259
sg9
I2
sg10
I40
sg11
I1630
ssg14
(dp26
g5
I1891
sg6
I54
sg7
I5
sg8
I153
sg9
I3
sg10
I26
sg11
I1410
ssg16
(dp27
g5
I4060
sg6
I54
sg7
I7
sg8
I0
sg9
I1
sg10
I410
sg11
I4060
ssg18
(dp28
g5
I1911
sg6
I57
sg7
I3
sg8
I136
sg9
I2
sg10
I29
sg11
I1340
ssg20
(dp29
g5
I1877
sg6
I56
sg7
I3
sg8
I140
sg9
I3
sg10
I25
sg11
I1310
sssS'Hall.csv'
p30
(dp31
g3
(dp32
g5
I4540
sg6
I89
sg7
I16
sg8
I0
sg9
I1
sg10
I444
sg11
I4540
ssg12
(dp33
g5
I3370
sg6
I101
sg7
I2
sg8
I273
sg9
I3
sg10
I50
sg11
I1540
ssg14
(dp34
g5
I662
sg6
I91
sg7
I10
sg8
I38
sg9
I5
sg10
I11
sg11
I470
ssg16
(dp35
g5
I3030
sg6
I98
sg7
I7
sg8
I0
sg9
I1
sg10
I310
sg11
I3030
ssg18
(dp36
g5
I1124
sg6
I99
sg7
I3
sg8
I67
sg9
I4
sg10
I15
sg11
I770
ssg20
(dp37
g5
I988
sg6
I95
sg7
I7
sg8
I69
sg9
I4
sg10
I8
sg11
I660
sssS'Danijel.csv'
p38
(dp39
g3
(dp40
g5
I2740
sg6
I38
sg7
I7
sg8
I0
sg9
I3
sg10
I259
sg11
I2740
ssg12
(dp41
g5
I1732
sg6
I42
sg7
I3
sg8
I129
sg9
I3
sg10
I20
sg11
I800
ssg14
(dp42
g5
I1457
sg6
I43
sg7
I2
sg8
I109
sg9
I3
sg10
I14
sg11
I1110
ssg16
(dp43
g5
I3250
sg6
I45
sg7
I1
sg8
I0
sg9
I2
sg10
I336
sg11
I3250
ssg18
(dp44
g5
I1318
sg6
I45
sg7
I1
sg8
I91
sg9
I2
sg10
I19
sg11
I930
ssg20
(dp45
g5
I1156
sg6
I43
sg7
I1
sg8
I81
sg9
I4
sg10
I19
sg11
I810
sss.(dp0
S'K_all3.csv'
p1
(dp2
S'none'
p3
(dp4
S'count'
p5
I440
sS'truepos'
p6
I30
sS'falseneg'
p7
I1
sS'correction'
p8
I0
sS'unknownyes'
p9
I14
sS'falsepos'
p10
I45
sS'unique'
p11
I440
ssS'three'
p12
(dp13
g5
I845
sg6
I36
sg7
I0
sg8
I63
sg9
I9
sg10
I10
sg11
I390
ssS'machine'
p14
(dp15
g5
I689
sg6
I31
sg7
I4
sg8
I53
sg9
I10
sg10
I6
sg11
I520
ssS'machine4'
p16
(dp17
g5
I660
sg6
I37
sg7
I4
sg8
I0
sg9
I4
sg10
I62
sg11
I660
ssS'machine3'
p18
(dp19
g5
I585
sg6
I32
sg7
I0
sg8
I41
sg9
I13
sg10
I9
sg11
I430
ssS'machine2'
p20
(dp21
g5
I551
sg6
I30
sg7
I3
sg8
I32
sg9
I12
sg10
I7
sg11
I410
sssS'Wahono.csv'
p22
(dp23
g3
(dp24
g5
I3310
sg6
I48
sg7
I9
sg8
I0
sg9
I5
sg10
I311
sg11
I3310
ssg12
(dp25
g5
I3021
sg6
I56
sg7
I3
sg8
I232
sg9
I3
sg10
I20
sg11
I1390
ssg14
(dp26
g5
I1680
sg6
I54
sg7
I7
sg8
I142
sg9
I1
sg10
I15
sg11
I1260
ssg16
(dp27
g5
I2680
sg6
I55
sg7
I6
sg8
I0
sg9
I1
sg10
I276
sg11
I2680
ssg18
(dp28
g5
I1753
sg6
I56
sg7
I4
sg8
I131
sg9
I2
sg10
I26
sg11
I1230
ssg20
(dp29
g5
I2222
sg6
I59
sg7
I2
sg8
I161
sg9
I1
sg10
I31
sg11
I1570
sssS'Hall.csv'
p30
(dp31
g3
(dp32
g5
I4420
sg6
I94
sg7
I9
sg8
I0
sg9
I3
sg10
I418
sg11
I4420
ssg12
(dp33
g5
I1198
sg6
I99
sg7
I3
sg8
I92
sg9
I4
sg10
I15
sg11
I550
ssg14
(dp34
g5
I1122
sg6
I97
sg7
I6
sg8
I84
sg9
I3
sg10
I9
sg11
I810
ssg16
(dp35
g5
I3590
sg6
I91
sg7
I14
sg8
I0
sg9
I1
sg10
I350
sg11
I3590
ssg18
(dp36
g5
I795
sg6
I97
sg7
I5
sg8
I54
sg9
I4
sg10
I5
sg11
I510
ssg20
(dp37
g5
I992
sg6
I99
sg7
I3
sg8
I77
sg9
I4
sg10
I22
sg11
I660
sssS'Danijel.csv'
p38
(dp39
g3
(dp40
g5
I3070
sg6
I40
sg7
I6
sg8
I0
sg9
I2
sg10
I290
sg11
I3070
ssg12
(dp41
g5
I3811
sg6
I44
sg7
I2
sg8
I301
sg9
I2
sg10
I43
sg11
I1750
ssg14
(dp42
g5
I1384
sg6
I43
sg7
I3
sg8
I119
sg9
I2
sg10
I13
sg11
I1060
ssg16
(dp43
g5
I3520
sg6
I40
sg7
I7
sg8
I0
sg9
I1
sg10
I349
sg11
I3520
ssg18
(dp44
g5
I894
sg6
I41
sg7
I4
sg8
I66
sg9
I3
sg10
I10
sg11
I640
ssg20
(dp45
g5
I1083
sg6
I40
sg7
I3
sg8
I83
sg9
I5
sg10
I19
sg11
I760
sss.(dp0
S'K_all3.csv'
p1
(dp2
S'none'
p3
(dp4
S'count'
p5
I530
sS'truepos'
p6
I33
sS'falseneg'
p7
I4
sS'correction'
p8
I0
sS'unknownyes'
p9
I8
sS'falsepos'
p10
I25
sS'unique'
p11
I530
ssS'three'
p12
(dp13
g5
I1119
sg6
I36
sg7
I1
sg8
I37
sg9
I8
sg10
I2
sg11
I540
ssS'machine'
p14
(dp15
g5
I570
sg6
I36
sg7
I1
sg8
I23
sg9
I8
sg10
I2
sg11
I450
ssS'machine4'
p16
(dp17
g5
I740
sg6
I20
sg7
I3
sg8
I0
sg9
I22
sg10
I40
sg11
I740
ssS'machine3'
p18
(dp19
g5
I562
sg6
I35
sg7
I0
sg8
I20
sg9
I10
sg10
I3
sg11
I440
ssS'machine2'
p20
(dp21
g5
I623
sg6
I34
sg7
I1
sg8
I20
sg9
I10
sg10
I5
sg11
I490
sssS'Wahono.csv'
p22
(dp23
g3
(dp24
g5
I1680
sg6
I57
sg7
I2
sg8
I0
sg9
I3
sg10
I84
sg11
I1680
ssg12
(dp25
g5
I2467
sg6
I59
sg7
I0
sg8
I126
sg9
I3
sg10
I4
sg11
I1170
ssg14
(dp26
g5
I1701
sg6
I58
sg7
I2
sg8
I89
sg9
I2
sg10
I3
sg11
I1310
ssg16
(dp27
g5
I2220
sg6
I57
sg7
I3
sg8
I0
sg9
I2
sg10
I95
sg11
I2220
ssg18
(dp28
g5
I1547
sg6
I58
sg7
I1
sg8
I50
sg9
I3
sg10
I2
sg11
I1180
ssg20
(dp29
g5
I1668
sg6
I58
sg7
I1
sg8
I60
sg9
I3
sg10
I9
sg11
I1260
sssS'Hall.csv'
p30
(dp31
g3
(dp32
g5
I740
sg6
I100
sg7
I2
sg8
I0
sg9
I4
sg10
I36
sg11
I740
ssg12
(dp33
g5
I921
sg6
I99
sg7
I1
sg8
I39
sg9
I6
sg10
I3
sg11
I440
ssg14
(dp34
g5
I673
sg6
I99
sg7
I2
sg8
I29
sg9
I5
sg10
I0
sg11
I480
ssg16
(dp35
g5
I980
sg6
I97
sg7
I6
sg8
I0
sg9
I3
sg10
I39
sg11
I980
ssg18
(dp36
g5
I612
sg6
I99
sg7
I0
sg8
I13
sg9
I7
sg10
I0
sg11
I410
ssg20
(dp37
g5
I819
sg6
I100
sg7
I2
sg8
I30
sg9
I4
sg10
I5
sg11
I560
sssS'Danijel.csv'
p38
(dp39
g3
(dp40
g5
I1450
sg6
I41
sg7
I4
sg8
I0
sg9
I3
sg10
I66
sg11
I1450
ssg12
(dp41
g5
I2141
sg6
I45
sg7
I0
sg8
I98
sg9
I3
sg10
I9
sg11
I1020
ssg14
(dp42
g5
I986
sg6
I45
sg7
I0
sg8
I43
sg9
I3
sg10
I2
sg11
I770
ssg16
(dp43
g5
I720
sg6
I42
sg7
I1
sg8
I0
sg9
I5
sg10
I34
sg11
I720
ssg18
(dp44
g5
I1016
sg6
I45
sg7
I1
sg8
I42
sg9
I2
sg10
I2
sg11
I760
ssg20
(dp45
g5
I1338
sg6
I45
sg7
I1
sg8
I53
sg9
I2
sg10
I4
sg11
I1010
sss.(dp0
S'K_all3.csv'
p1
(dp2
S'none'
p3
(dp4
S'count'
p5
I540
sS'truepos'
p6
I38
sS'falseneg'
p7
I0
sS'correction'
p8
I0
sS'unknownyes'
p9
I7
sS'falsepos'
p10
I21
sS'unique'
p11
I540
ssS'three'
p12
(dp13
g5
I1059
sg6
I37
sg7
I1
sg8
I39
sg9
I7
sg10
I1
sg11
I510
ssS'machine'
p14
(dp15
g5
I605
sg6
I32
sg7
I3
sg8
I23
sg9
I10
sg10
I4
sg11
I480
ssS'machine4'
p16
(dp17
g5
I460
sg6
I32
sg7
I1
sg8
I0
sg9
I12
sg10
I27
sg11
I460
ssS'machine3'
p18
(dp19
g5
I580
sg6
I36
sg7
I0
sg8
I21
sg9
I9
sg10
I2
sg11
I460
ssS'machine2'
p20
(dp21
g5
I593
sg6
I33
sg7
I0
sg8
I24
sg9
I12
sg10
I4
sg11
I460
sssS'Wahono.csv'
p22
(dp23
g3
(dp24
g5
I1430
sg6
I52
sg7
I6
sg8
I0
sg9
I4
sg10
I62
sg11
I1430
ssg12
(dp25
g5
I2567
sg6
I59
sg7
I0
sg8
I124
sg9
I3
sg10
I9
sg11
I1220
ssg14
(dp26
g5
I1552
sg6
I57
sg7
I2
sg8
I68
sg9
I3
sg10
I4
sg11
I1210
ssg16
(dp27
g5
I1460
sg6
I51
sg7
I6
sg8
I0
sg9
I5
sg10
I79
sg11
I1460
ssg18
(dp28
g5
I1745
sg6
I59
sg7
I1
sg8
I76
sg9
I2
sg10
I7
sg11
I1310
ssg20
(dp29
g5
I1103
sg6
I55
sg7
I2
sg8
I51
sg9
I5
sg10
I2
sg11
I810
sssS'Hall.csv'
p30
(dp31
g3
(dp32
g5
I1080
sg6
I99
sg7
I3
sg8
I0
sg9
I4
sg10
I45
sg11
I1080
ssg12
(dp33
g5
I1008
sg6
I102
sg7
I0
sg8
I48
sg9
I4
sg10
I0
sg11
I480
ssg14
(dp34
g5
I691
sg6
I101
sg7
I1
sg8
I28
sg9
I4
sg10
I4
sg11
I500
ssg16
(dp35
g5
I1700
sg6
I99
sg7
I5
sg8
I0
sg9
I2
sg10
I91
sg11
I1700
ssg18
(dp36
g5
I819
sg6
I101
sg7
I1
sg8
I23
sg9
I4
sg10
I3
sg11
I560
ssg20
(dp37
g5
I796
sg6
I101
sg7
I1
sg8
I30
sg9
I4
sg10
I4
sg11
I560
sssS'Danijel.csv'
p38
(dp39
g3
(dp40
g5
I920
sg6
I42
sg7
I3
sg8
I0
sg9
I3
sg10
I34
sg11
I920
ssg12
(dp41
g5
I2517
sg6
I45
sg7
I1
sg8
I112
sg9
I2
sg10
I13
sg11
I1200
ssg14
(dp42
g5
I663
sg6
I43
sg7
I1
sg8
I31
sg9
I4
sg10
I0
sg11
I510
ssg16
(dp43
g5
I700
sg6
I41
sg7
I2
sg8
I0
sg9
I5
sg10
I27
sg11
I700
ssg18
(dp44
g5
I1240
sg6
I43
sg7
I2
sg8
I43
sg9
I3
sg10
I5
sg11
I940
ssg20
(dp45
g5
I988
sg6
I44
sg7
I1
sg8
I28
sg9
I3
sg10
I1
sg11
I760
sss.(dp0
S'K_all3.csv'
p1
(dp2
S'none'
p3
(dp4
S'count'
p5
I420
sS'truepos'
p6
I29
sS'falseneg'
p7
I5
sS'correction'
p8
I0
sS'unknownyes'
p9
I11
sS'falsepos'
p10
I28
sS'unique'
p11
I420
ssS'three'
p12
(dp13
g5
I982
sg6
I36
sg7
I0
sg8
I42
sg9
I9
sg10
I2
sg11
I470
ssS'machine'
p14
(dp15
g5
I560
sg6
I32
sg7
I0
sg8
I23
sg9
I13
sg10
I2
sg11
I450
ssS'machine4'
p16
(dp17
g5
I490
sg6
I33
sg7
I3
sg8
I0
sg9
I9
sg10
I19
sg11
I490
ssS'machine3'
p18
(dp19
g5
I560
sg6
I30
sg7
I5
sg8
I23
sg9
I10
sg10
I3
sg11
I460
ssS'machine2'
p20
(dp21
g5
I688
sg6
I35
sg7
I3
sg8
I24
sg9
I7
sg10
I4
sg11
I550
sssS'Wahono.csv'
p22
(dp23
g3
(dp24
g5
I1640
sg6
I55
sg7
I3
sg8
I0
sg9
I4
sg10
I78
sg11
I1640
ssg12
(dp25
g5
I3097
sg6
I60
sg7
I0
sg8
I130
sg9
I2
sg10
I9
sg11
I1480
ssg14
(dp26
g5
I1693
sg6
I57
sg7
I3
sg8
I75
sg9
I2
sg10
I6
sg11
I1310
ssg16
(dp27
g5
I1650
sg6
I56
sg7
I2
sg8
I0
sg9
I4
sg10
I77
sg11
I1650
ssg18
(dp28
g5
I1745
sg6
I58
sg7
I1
sg8
I72
sg9
I3
sg10
I6
sg11
I1310
ssg20
(dp29
g5
I1481
sg6
I58
sg7
I1
sg8
I62
sg9
I3
sg10
I6
sg11
I1110
sssS'Hall.csv'
p30
(dp31
g3
(dp32
g5
I890
sg6
I99
sg7
I4
sg8
I0
sg9
I3
sg10
I44
sg11
I890
ssg12
(dp33
g5
I1029
sg6
I101
sg7
I1
sg8
I49
sg9
I4
sg10
I1
sg11
I490
ssg14
(dp34
g5
I651
sg6
I101
sg7
I1
sg8
I27
sg9
I4
sg10
I2
sg11
I460
ssg16
(dp35
g5
I580
sg6
I98
sg7
I4
sg8
I0
sg9
I4
sg10
I10
sg11
I580
ssg18
(dp36
g5
I734
sg6
I102
sg7
I0
sg8
I24
sg9
I4
sg10
I1
sg11
I500
ssg20
(dp37
g5
I609
sg6
I101
sg7
I0
sg8
I22
sg9
I5
sg10
I2
sg11
I420
sssS'Danijel.csv'
p38
(dp39
g3
(dp40
g5
I1460
sg6
I43
sg7
I3
sg8
I0
sg9
I2
sg10
I72
sg11
I1460
ssg12
(dp41
g5
I1965
sg6
I45
sg7
I0
sg8
I83
sg9
I3
sg10
I7
sg11
I940
ssg14
(dp42
g5
I1042
sg6
I45
sg7
I0
sg8
I49
sg9
I3
sg10
I1
sg11
I810
ssg16
(dp43
g5
I1700
sg6
I45
sg7
I1
sg8
I0
sg9
I2
sg10
I90
sg11
I1700
ssg18
(dp44
g5
I890
sg6
I45
sg7
I0
sg8
I30
sg9
I3
sg10
I3
sg11
I680
ssg20
(dp45
g5
I1454
sg6
I43
sg7
I2
sg8
I68
sg9
I3
sg10
I6
sg11
I1100
sss.(dp0
S'K_all3.csv'
p1
(dp2
S'none'
p3
(dp4
S'count'
p5
I360
sS'truepos'
p6
I31
sS'falseneg'
p7
I1
sS'correction'
p8
I0
sS'unknownyes'
p9
I13
sS'falsepos'
p10
I20
sS'unique'
p11
I360
ssS'three'
p12
(dp13
g5
I968
sg6
I36
sg7
I0
sg8
I48
sg9
I9
sg10
I2
sg11
I460
ssS'machine'
p14
(dp15
g5
I646
sg6
I34
sg7
I3
sg8
I17
sg9
I8
sg10
I0
sg11
I560
ssS'machine4'
p16
(dp17
g5
I590
sg6
I30
sg7
I2
sg8
I0
sg9
I13
sg10
I30
sg11
I590
ssS'machine3'
p18
(dp19
g5
I587
sg6
I36
sg7
I1
sg8
I22
sg9
I8
sg10
I3
sg11
I460
ssS'machine2'
p20
(dp21
g5
I574
sg6
I33
sg7
I0
sg8
I22
sg9
I12
sg10
I3
sg11
I450
sssS'Wahono.csv'
p22
(dp23
g3
(dp24
g5
I1360
sg6
I57
sg7
I1
sg8
I0
sg9
I4
sg10
I62
sg11
I1360
ssg12
(dp25
g5
I3139
sg6
I60
sg7
I1
sg8
I137
sg9
I1
sg10
I10
sg11
I1500
ssg14
(dp26
g5
I1886
sg6
I60
sg7
I1
sg8
I85
sg9
I1
sg10
I7
sg11
I1460
ssg16
(dp27
g5
I1860
sg6
I57
sg7
I2
sg8
I0
sg9
I3
sg10
I73
sg11
I1860
ssg18
(dp28
g5
I1715
sg6
I59
sg7
I0
sg8
I73
sg9
I3
sg10
I5
sg11
I1280
ssg20
(dp29
g5
I1365
sg6
I57
sg7
I1
sg8
I66
sg9
I4
sg10
I6
sg11
I1010
sssS'Hall.csv'
p30
(dp31
g3
(dp32
g5
I1390
sg6
I95
sg7
I7
sg8
I0
sg9
I4
sg10
I60
sg11
I1390
ssg12
(dp33
g5
I932
sg6
I100
sg7
I0
sg8
I31
sg9
I6
sg10
I2
sg11
I450
ssg14
(dp34
g5
I621
sg6
I98
sg7
I3
sg8
I25
sg9
I5
sg10
I2
sg11
I450
ssg16
(dp35
g5
I2400
sg6
I98
sg7
I6
sg8
I0
sg9
I2
sg10
I116
sg11
I2400
ssg18
(dp36
g5
I846
sg6
I102
sg7
I0
sg8
I31
sg9
I4
sg10
I1
sg11
I580
ssg20
(dp37
g5
I625
sg6
I100
sg7
I2
sg8
I23
sg9
I4
sg10
I6
sg11
I430
sssS'Danijel.csv'
p38
(dp39
g3
(dp40
g5
I820
sg6
I42
sg7
I2
sg8
I0
sg9
I4
sg10
I33
sg11
I820
ssg12
(dp41
g5
I2012
sg6
I44
sg7
I0
sg8
I89
sg9
I4
sg10
I7
sg11
I960
ssg14
(dp42
g5
I1373
sg6
I43
sg7
I3
sg8
I58
sg9
I2
sg10
I7
sg11
I1070
ssg16
(dp43
g5
I1070
sg6
I43
sg7
I2
sg8
I0
sg9
I3
sg10
I45
sg11
I1070
ssg18
(dp44
g5
I1345
sg6
I44
sg7
I1
sg8
I65
sg9
I3
sg10
I7
sg11
I1000
ssg20
(dp45
g5
I1155
sg6
I46
sg7
I0
sg8
I51
sg9
I2
sg10
I5
sg11
I860
sss.(dp0
S'K_all3.csv'
p1
(dp2
S'none'
p3
(dp4
S'count'
p5
I360
sS'truepos'
p6
I29
sS'falseneg'
p7
I2
sS'correction'
p8
I0
sS'unknownyes'
p9
I14
sS'falsepos'
p10
I18
sS'unique'
p11
I360
ssS'three'
p12
(dp13
g5
I932
sg6
I36
sg7
I0
sg8
I29
sg9
I9
sg10
I3
sg11
I450
ssS'machine'
p14
(dp15
g5
I627
sg6
I35
sg7
I3
sg8
I27
sg9
I7
sg10
I1
sg11
I510
ssS'machine4'
p16
(dp17
g5
I410
sg6
I33
sg7
I2
sg8
I0
sg9
I10
sg10
I30
sg11
I410
ssS'machine3'
p18
(dp19
g5
I619
sg6
I33
sg7
I3
sg8
I31
sg9
I9
sg10
I6
sg11
I480
ssS'machine2'
p20
(dp21
g5
I711
sg6
I35
sg7
I2
sg8
I20
sg9
I8
sg10
I2
sg11
I570
sssS'Wahono.csv'
p22
(dp23
g3
(dp24
g5
I2160
sg6
I59
sg7
I2
sg8
I0
sg9
I1
sg10
I102
sg11
I2160
ssg12
(dp25
g5
I2666
sg6
I59
sg7
I0
sg8
I125
sg9
I3
sg10
I6
sg11
I1270
ssg14
(dp26
g5
I1303
sg6
I57
sg7
I2
sg8
I60
sg9
I3
sg10
I4
sg11
I1010
ssg16
(dp27
g5
I2680
sg6
I57
sg7
I3
sg8
I0
sg9
I2
sg10
I122
sg11
I2680
ssg18
(dp28
g5
I1589
sg6
I58
sg7
I1
sg8
I70
sg9
I3
sg10
I1
sg11
I1180
ssg20
(dp29
g5
I2016
sg6
I59
sg7
I1
sg8
I88
sg9
I2
sg10
I6
sg11
I1510
sssS'Hall.csv'
p30
(dp31
g3
(dp32
g5
I1100
sg6
I96
sg7
I6
sg8
I0
sg9
I4
sg10
I58
sg11
I1100
ssg12
(dp33
g5
I1111
sg6
I102
sg7
I0
sg8
I49
sg9
I4
sg10
I4
sg11
I530
ssg14
(dp34
g5
I731
sg6
I100
sg7
I2
sg8
I35
sg9
I4
sg10
I5
sg11
I520
ssg16
(dp35
g5
I550
sg6
I99
sg7
I3
sg8
I0
sg9
I4
sg10
I14
sg11
I550
ssg18
(dp36
g5
I819
sg6
I101
sg7
I1
sg8
I26
sg9
I4
sg10
I3
sg11
I560
ssg20
(dp37
g5
I797
sg6
I102
sg7
I0
sg8
I25
sg9
I4
sg10
I3
sg11
I560
sssS'Danijel.csv'
p38
(dp39
g3
(dp40
g5
I850
sg6
I42
sg7
I1
sg8
I0
sg9
I5
sg10
I45
sg11
I850
ssg12
(dp41
g5
I1891
sg6
I46
sg7
I0
sg8
I87
sg9
I2
sg10
I11
sg11
I900
ssg14
(dp42
g5
I1241
sg6
I44
sg7
I1
sg8
I57
sg9
I3
sg10
I4
sg11
I960
ssg16
(dp43
g5
I1060
sg6
I38
sg7
I6
sg8
I0
sg9
I4
sg10
I57
sg11
I1060
ssg18
(dp44
g5
I1506
sg6
I44
sg7
I2
sg8
I63
sg9
I2
sg10
I7
sg11
I1140
ssg20
(dp45
g5
I1151
sg6
I43
sg7
I2
sg8
I38
sg9
I3
sg10
I4
sg11
I870
sss.(dp0
S'K_all3.csv'
p1
(dp2
S'none'
p3
(dp4
S'count'
p5
I450
sS'truepos'
p6
I38
sS'falseneg'
p7
I0
sS'correction'
p8
I0
sS'unknownyes'
p9
I7
sS'falsepos'
p10
I20
sS'unique'
p11
I450
ssS'three'
p12
(dp13
g5
I1012
sg6
I34
sg7
I0
sg8
I52
sg9
I11
sg10
I4
sg11
I480
ssS'machine'
p14
(dp15
g5
I572
sg6
I32
sg7
I1
sg8
I25
sg9
I12
sg10
I1
sg11
I460
ssS'machine4'
p16
(dp17
g5
I470
sg6
I35
sg7
I0
sg8
I0
sg9
I10
sg10
I23
sg11
I470
ssS'machine3'
p18
(dp19
g5
I611
sg6
I35
sg7
I1
sg8
I21
sg9
I9
sg10
I1
sg11
I490
ssS'machine2'
p20
(dp21
g5
I617
sg6
I35
sg7
I3
sg8
I20
sg9
I7
sg10
I1
sg11
I500
sssS'Wahono.csv'
p22
(dp23
g3
(dp24
g5
I1380
sg6
I56
sg7
I3
sg8
I0
sg9
I3
sg10
I61
sg11
I1380
ssg12
(dp25
g5
I2712
sg6
I60
sg7
I0
sg8
I127
sg9
I2
sg10
I10
sg11
I1290
ssg14
(dp26
g5
I1681
sg6
I59
sg7
I0
sg8
I74
sg9
I3
sg10
I3
sg11
I1310
ssg16
(dp27
g5
I1430
sg6
I53
sg7
I3
sg8
I0
sg9
I6
sg10
I61
sg11
I1430
ssg18
(dp28
g5
I1740
sg6
I60
sg7
I0
sg8
I48
sg9
I2
sg10
I4
sg11
I1340
ssg20
(dp29
g5
I1555
sg6
I58
sg7
I1
sg8
I67
sg9
I3
sg10
I3
sg11
I1160
sssS'Hall.csv'
p30
(dp31
g3
(dp32
g5
I1800
sg6
I98
sg7
I4
sg8
I0
sg9
I4
sg10
I98
sg11
I1800
ssg12
(dp33
g5
I1173
sg6
I101
sg7
I1
sg8
I51
sg9
I4
sg10
I2
sg11
I560
ssg14
(dp34
g5
I692
sg6
I98
sg7
I4
sg8
I20
sg9
I4
sg10
I7
sg11
I500
ssg16
(dp35
g5
I1220
sg6
I96
sg7
I6
sg8
I0
sg9
I4
sg10
I61
sg11
I1220
ssg18
(dp36
g5
I728
sg6
I100
sg7
I2
sg8
I18
sg9
I4
sg10
I1
sg11
I500
ssg20
(dp37
g5
I685
sg6
I100
sg7
I2
sg8
I29
sg9
I4
sg10
I2
sg11
I470
sssS'Danijel.csv'
p38
(dp39
g3
(dp40
g5
I1820
sg6
I42
sg7
I2
sg8
I0
sg9
I4
sg10
I91
sg11
I1820
ssg12
(dp41
g5
I1899
sg6
I46
sg7
I0
sg8
I97
sg9
I2
sg10
I8
sg11
I900
ssg14
(dp42
g5
I658
sg6
I43
sg7
I1
sg8
I28
sg9
I4
sg10
I2
sg11
I510
ssg16
(dp43
g5
I1870
sg6
I42
sg7
I5
sg8
I0
sg9
I1
sg10
I76
sg11
I1870
ssg18
(dp44
g5
I1296
sg6
I45
sg7
I0
sg8
I62
sg9
I3
sg10
I4
sg11
I960
ssg20
(dp45
g5
I967
sg6
I43
sg7
I2
sg8
I34
sg9
I3
sg10
I2
sg11
I730
sss.(dp0
S'K_all3.csv'
p1
(dp2
S'none'
p3
(dp4
S'count'
p5
I440
sS'truepos'
p6
I33
sS'falseneg'
p7
I4
sS'correction'
p8
I0
sS'unknownyes'
p9
I8
sS'falsepos'
p10
I15
sS'unique'
p11
I440
ssS'three'
p12
(dp13
g5
I1113
sg6
I36
sg7
I0
sg8
I52
sg9
I9
sg10
I2
sg11
I530
ssS'machine'
p14
(dp15
g5
I606
sg6
I33
sg7
I6
sg8
I19
sg9
I6
sg10
I3
sg11
I510
ssS'machine4'
p16
(dp17
g5
I410
sg6
I28
sg7
I3
sg8
I0
sg9
I14
sg10
I22
sg11
I410
ssS'machine3'
p18
(dp19
g5
I665
sg6
I34
sg7
I4
sg8
I23
sg9
I7
sg10
I1
sg11
I540
ssS'machine2'
p20
(dp21
g5
I588
sg6
I33
sg7
I2
sg8
I26
sg9
I10
sg10
I3
sg11
I450
sssS'Wahono.csv'
p22
(dp23
g3
(dp24
g5
I2610
sg6
I55
sg7
I5
sg8
I0
sg9
I2
sg10
I135
sg11
I2610
ssg12
(dp25
g5
I3185
sg6
I60
sg7
I0
sg8
I142
sg9
I2
sg10
I10
sg11
I1520
ssg14
(dp26
g5
I1643
sg6
I57
sg7
I2
sg8
I68
sg9
I3
sg10
I5
sg11
I1290
ssg16
(dp27
g5
I1750
sg6
I57
sg7
I3
sg8
I0
sg9
I2
sg10
I68
sg11
I1750
ssg18
(dp28
g5
I1791
sg6
I57
sg7
I4
sg8
I76
sg9
I1
sg10
I6
sg11
I1350
ssg20
(dp29
g5
I1622
sg6
I59
sg7
I1
sg8
I69
sg9
I2
sg10
I4
sg11
I1210
sssS'Hall.csv'
p30
(dp31
g3
(dp32
g5
I860
sg6
I98
sg7
I4
sg8
I0
sg9
I4
sg10
I34
sg11
I860
ssg12
(dp33
g5
I1307
sg6
I101
sg7
I1
sg8
I63
sg9
I4
sg10
I6
sg11
I620
ssg14
(dp34
g5
I601
sg6
I101
sg7
I0
sg8
I27
sg9
I5
sg10
I3
sg11
I430
ssg16
(dp35
g5
I740
sg6
I99
sg7
I4
sg8
I0
sg9
I3
sg10
I22
sg11
I740
ssg18
(dp36
g5
I690
sg6
I99
sg7
I3
sg8
I21
sg9
I4
sg10
I2
sg11
I460
ssg20
(dp37
g5
I597
sg6
I99
sg7
I2
sg8
I21
sg9
I5
sg10
I7
sg11
I410
sssS'Danijel.csv'
p38
(dp39
g3
(dp40
g5
I1450
sg6
I42
sg7
I4
sg8
I0
sg9
I2
sg10
I66
sg11
I1450
ssg12
(dp41
g5
I1978
sg6
I44
sg7
I0
sg8
I95
sg9
I4
sg10
I7
sg11
I940
ssg14
(dp42
g5
I961
sg6
I42
sg7
I3
sg8
I52
sg9
I3
sg10
I3
sg11
I760
ssg16
(dp43
g5
I1170
sg6
I42
sg7
I1
sg8
I0
sg9
I5
sg10
I52
sg11
I1170
ssg18
(dp44
g5
I1096
sg6
I45
sg7
I0
sg8
I49
sg9
I3
sg10
I1
sg11
I820
ssg20
(dp45
g5
I1206
sg6
I45
sg7
I0
sg8
I50
sg9
I3
sg10
I9
sg11
I910
sss.(dp0
S'K_all3.csv'
p1
(dp2
S'none'
p3
(dp4
S'count'
p5
I470
sS'truepos'
p6
I34
sS'falseneg'
p7
I1
sS'correction'
p8
I0
sS'unknownyes'
p9
I10
sS'falsepos'
p10
I23
sS'unique'
p11
I470
ssS'three'
p12
(dp13
g5
I938
sg6
I36
sg7
I1
sg8
I56
sg9
I8
sg10
I5
sg11
I440
ssS'machine'
p14
(dp15
g5
I578
sg6
I33
sg7
I0
sg8
I28
sg9
I12
sg10
I3
sg11
I460
ssS'machine4'
p16
(dp17
g5
I550
sg6
I36
sg7
I2
sg8
I0
sg9
I7
sg10
I32
sg11
I550
ssS'machine3'
p18
(dp19
g5
I563
sg6
I37
sg7
I2
sg8
I25
sg9
I6
sg10
I1
sg11
I440
ssS'machine2'
p20
(dp21
g5
I582
sg6
I32
sg7
I1
sg8
I26
sg9
I12
sg10
I4
sg11
I450
sssS'Wahono.csv'
p22
(dp23
g3
(dp24
g5
I1970
sg6
I57
sg7
I2
sg8
I0
sg9
I3
sg10
I80
sg11
I1970
ssg12
(dp25
g5
I2980
sg6
I57
sg7
I2
sg8
I137
sg9
I3
sg10
I10
sg11
I1420
ssg14
(dp26
g5
I1647
sg6
I58
sg7
I1
sg8
I73
sg9
I3
sg10
I3
sg11
I1300
ssg16
(dp27
g5
I1780
sg6
I56
sg7
I2
sg8
I0
sg9
I4
sg10
I88
sg11
I1780
ssg18
(dp28
g5
I1499
sg6
I56
sg7
I3
sg8
I63
sg9
I3
sg10
I4
sg11
I1140
ssg20
(dp29
g5
I1649
sg6
I58
sg7
I2
sg8
I87
sg9
I2
sg10
I9
sg11
I1210
sssS'Hall.csv'
p30
(dp31
g3
(dp32
g5
I2080
sg6
I95
sg7
I9
sg8
I0
sg9
I2
sg10
I88
sg11
I2080
ssg12
(dp33
g5
I1010
sg6
I101
sg7
I1
sg8
I50
sg9
I4
sg10
I0
sg11
I480
ssg14
(dp34
g5
I723
sg6
I99
sg7
I3
sg8
I25
sg9
I4
sg10
I1
sg11
I510
ssg16
(dp35
g5
I1620
sg6
I96
sg7
I7
sg8
I0
sg9
I3
sg10
I73
sg11
I1620
ssg18
(dp36
g5
I575
sg6
I94
sg7
I5
sg8
I26
sg9
I7
sg10
I1
sg11
I380
ssg20
(dp37
g5
I897
sg6
I102
sg7
I0
sg8
I35
sg9
I4
sg10
I4
sg11
I610
sssS'Danijel.csv'
p38
(dp39
g3
(dp40
g5
I1680
sg6
I45
sg7
I2
sg8
I0
sg9
I1
sg10
I75
sg11
I1680
ssg12
(dp41
g5
I1797
sg6
I46
sg7
I0
sg8
I74
sg9
I2
sg10
I6
sg11
I860
ssg14
(dp42
g5
I1070
sg6
I46
sg7
I0
sg8
I53
sg9
I2
sg10
I2
sg11
I820
ssg16
(dp43
g5
I1510
sg6
I43
sg7
I3
sg8
I0
sg9
I2
sg10
I69
sg11
I1510
ssg18
(dp44
g5
I1039
sg6
I44
sg7
I1
sg8
I45
sg9
I3
sg10
I3
sg11
I780
ssg20
(dp45
g5
I813
sg6
I45
sg7
I0
sg8
I36
sg9
I3
sg10
I2
sg11
I610
sss.(dp0
S'K_all3.csv'
p1
(dp2
S'none'
p3
(dp4
S'count'
p5
I420
sS'truepos'
p6
I29
sS'falseneg'
p7
I3
sS'correction'
p8
I0
sS'unknownyes'
p9
I13
sS'falsepos'
p10
I17
sS'unique'
p11
I420
ssS'three'
p12
(dp13
g5
I959
sg6
I35
sg7
I0
sg8
I37
sg9
I10
sg10
I4
sg11
I460
ssS'machine'
p14
(dp15
g5
I615
sg6
I34
sg7
I0
sg8
I24
sg9
I11
sg10
I3
sg11
I510
ssS'machine4'
p16
(dp17
g5
I550
sg6
I34
sg7
I4
sg8
I0
sg9
I7
sg10
I24
sg11
I550
ssS'machine3'
p18
(dp19
g5
I619
sg6
I35
sg7
I0
sg8
I25
sg9
I10
sg10
I3
sg11
I480
ssS'machine2'
p20
(dp21
g5
I590
sg6
I39
sg7
I0
sg8
I30
sg9
I6
sg10
I4
sg11
I430
sssS'Wahono.csv'
p22
(dp23
g3
(dp24
g5
I2230
sg6
I57
sg7
I1
sg8
I0
sg9
I4
sg10
I105
sg11
I2230
ssg12
(dp25
g5
I3321
sg6
I62
sg7
I0
sg8
I158
sg9
I0
sg10
I11
sg11
I1580
ssg14
(dp26
g5
I1552
sg6
I57
sg7
I2
sg8
I78
sg9
I3
sg10
I5
sg11
I1210
ssg16
(dp27
g5
I1720
sg6
I57
sg7
I3
sg8
I0
sg9
I2
sg10
I79
sg11
I1720
ssg18
(dp28
g5
I1678
sg6
I59
sg7
I1
sg8
I68
sg9
I2
sg10
I7
sg11
I1260
ssg20
(dp29
g5
I1409
sg6
I59
sg7
I0
sg8
I54
sg9
I3
sg10
I3
sg11
I1060
sssS'Hall.csv'
p30
(dp31
g3
(dp32
g5
I1790
sg6
I95
sg7
I10
sg8
I0
sg9
I1
sg10
I76
sg11
I1790
ssg12
(dp33
g5
I1133
sg6
I102
sg7
I0
sg8
I51
sg9
I4
sg10
I2
sg11
I540
ssg14
(dp34
g5
I693
sg6
I102
sg7
I0
sg8
I23
sg9
I4
sg10
I2
sg11
I500
ssg16
(dp35
g5
I1410
sg6
I101
sg7
I4
sg8
I0
sg9
I1
sg10
I51
sg11
I1410
ssg18
(dp36
g5
I730
sg6
I102
sg7
I0
sg8
I18
sg9
I4
sg10
I1
sg11
I500
ssg20
(dp37
g5
I785
sg6
I100
sg7
I2
sg8
I26
sg9
I4
sg10
I3
sg11
I550
sssS'Danijel.csv'
p38
(dp39
g3
(dp40
g5
I1120
sg6
I44
sg7
I0
sg8
I0
sg9
I4
sg10
I52
sg11
I1120
ssg12
(dp41
g5
I1632
sg6
I46
sg7
I0
sg8
I69
sg9
I2
sg10
I8
sg11
I780
ssg14
(dp42
g5
I1111
sg6
I44
sg7
I1
sg8
I48
sg9
I3
sg10
I3
sg11
I870
ssg16
(dp43
g5
I1250
sg6
I41
sg7
I3
sg8
I0
sg9
I4
sg10
I59
sg11
I1250
ssg18
(dp44
g5
I1029
sg6
I46
sg7
I0
sg8
I50
sg9
I2
sg10
I3
sg11
I760
ssg20
(dp45
g5
I1119
sg6
I44
sg7
I1
sg8
I55
sg9
I3
sg10
I5
sg11
I830
sss.(dp0
S'K_all3.csv'
p1
(dp2
S'none'
p3
(dp4
S'count'
p5
I430
sS'truepos'
p6
I33
sS'falseneg'
p7
I0
sS'correction'
p8
I0
sS'unknownyes'
p9
I12
sS'falsepos'
p10
I17
sS'unique'
p11
I430
ssS'three'
p12
(dp13
g5
I1051
sg6
I37
sg7
I0
sg8
I49
sg9
I8
sg10
I2
sg11
I500
ssS'machine'
p14
(dp15
g5
I564
sg6
I31
sg7
I4
sg8
I16
sg9
I10
sg10
I3
sg11
I460
ssS'machine4'
p16
(dp17
g5
I480
sg6
I36
sg7
I1
sg8
I0
sg9
I8
sg10
I21
sg11
I480
ssS'machine3'
p18
(dp19
g5
I575
sg6
I32
sg7
I2
sg8
I19
sg9
I11
sg10
I1
sg11
I470
ssS'machine2'
p20
(dp21
g5
I532
sg6
I31
sg7
I1
sg8
I18
sg9
I13
sg10
I4
sg11
I410
sssS'Wahono.csv'
p22
(dp23
g3
(dp24
g5
I2660
sg6
I55
sg7
I5
sg8
I0
sg9
I2
sg10
I122
sg11
I2660
ssg12
(dp25
g5
I3159
sg6
I59
sg7
I0
sg8
I136
sg9
I3
sg10
I9
sg11
I1510
ssg14
(dp26
g5
I1743
sg6
I57
sg7
I2
sg8
I76
sg9
I3
sg10
I4
sg11
I1360
ssg16
(dp27
g5
I1730
sg6
I58
sg7
I0
sg8
I0
sg9
I4
sg10
I80
sg11
I1730
ssg18
(dp28
g5
I1717
sg6
I59
sg7
I1
sg8
I69
sg9
I2
sg10
I8
sg11
I1290
ssg20
(dp29
g5
I1641
sg6
I59
sg7
I2
sg8
I67
sg9
I1
sg10
I7
sg11
I1220
sssS'Hall.csv'
p30
(dp31
g3
(dp32
g5
I1040
sg6
I98
sg7
I4
sg8
I0
sg9
I4
sg10
I37
sg11
I1040
ssg12
(dp33
g5
I1091
sg6
I100
sg7
I2
sg8
I50
sg9
I4
sg10
I3
sg11
I520
ssg14
(dp34
g5
I763
sg6
I99
sg7
I3
sg8
I16
sg9
I4
sg10
I0
sg11
I550
ssg16
(dp35
g5
I1420
sg6
I96
sg7
I6
sg8
I0
sg9
I4
sg10
I69
sg11
I1420
ssg18
(dp36
g5
I736
sg6
I101
sg7
I1
sg8
I28
sg9
I4
sg10
I2
sg11
I490
ssg20
(dp37
g5
I583
sg6
I97
sg7
I4
sg8
I26
sg9
I5
sg10
I6
sg11
I410
sssS'Danijel.csv'
p38
(dp39
g3
(dp40
g5
I1010
sg6
I42
sg7
I3
sg8
I0
sg9
I3
sg10
I36
sg11
I1010
ssg12
(dp41
g5
I2271
sg6
I45
sg7
I0
sg8
I110
sg9
I3
sg10
I8
sg11
I1080
ssg14
(dp42
g5
I964
sg6
I44
sg7
I2
sg8
I38
sg9
I2
sg10
I2
sg11
I750
ssg16
(dp43
g5
I1230
sg6
I43
sg7
I1
sg8
I0
sg9
I4
sg10
I71
sg11
I1230
ssg18
(dp44
g5
I1361
sg6
I45
sg7
I1
sg8
I60
sg9
I2
sg10
I10
sg11
I1020
ssg20
(dp45
g5
I1037
sg6
I45
sg7
I0
sg8
I53
sg9
I3
sg10
I4
sg11
I760
sss.(dp0
S'K_all3.csv'
p1
(dp2
S'none'
p3
(dp4
S'count'
p5
I500
sS'truepos'
p6
I33
sS'falseneg'
p7
I2
sS'correction'
p8
I0
sS'unknownyes'
p9
I10
sS'falsepos'
p10
I23
sS'unique'
p11
I500
ssS'three'
p12
(dp13
g5
I917
sg6
I36
sg7
I0
sg8
I37
sg9
I9
sg10
I2
sg11
I440
ssS'machine'
p14
(dp15
g5
I565
sg6
I34
sg7
I2
sg8
I25
sg9
I9
sg10
I2
sg11
I450
ssS'machine4'
p16
(dp17
g5
I450
sg6
I35
sg7
I1
sg8
I0
sg9
I9
sg10
I22
sg11
I450
ssS'machine3'
p18
(dp19
g5
I671
sg6
I36
sg7
I0
sg8
I29
sg9
I9
sg10
I1
sg11
I530
ssS'machine2'
p20
(dp21
g5
I582
sg6
I31
sg7
I1
sg8
I24
sg9
I13
sg10
I3
sg11
I460
sssS'Wahono.csv'
p22
(dp23
g3
(dp24
g5
I1850
sg6
I58
sg7
I2
sg8
I0
sg9
I2
sg10
I85
sg11
I1850
ssg12
(dp25
g5
I3017
sg6
I60
sg7
I0
sg8
I133
sg9
I2
sg10
I11
sg11
I1440
ssg14
(dp26
g5
I1630
sg6
I60
sg7
I0
sg8
I90
sg9
I2
sg10
I5
sg11
I1260
ssg16
(dp27
g5
I2300
sg6
I55
sg7
I3
sg8
I0
sg9
I4
sg10
I123
sg11
I2300
ssg18
(dp28
g5
I1686
sg6
I58
sg7
I2
sg8
I59
sg9
I2
sg10
I5
sg11
I1280
ssg20
(dp29
g5
I1754
sg6
I58
sg7
I1
sg8
I69
sg9
I3
sg10
I5
sg11
I1320
sssS'Hall.csv'
p30
(dp31
g3
(dp32
g5
I880
sg6
I100
sg7
I3
sg8
I0
sg9
I3
sg10
I35
sg11
I880
ssg12
(dp33
g5
I1034
sg6
I101
sg7
I1
sg8
I53
sg9
I4
sg10
I0
sg11
I490
ssg14
(dp34
g5
I631
sg6
I102
sg7
I0
sg8
I14
sg9
I4
sg10
I2
sg11
I460
ssg16
(dp35
g5
I1940
sg6
I102
sg7
I3
sg8
I0
sg9
I1
sg10
I122
sg11
I1940
ssg18
(dp36
g5
I781
sg6
I99
sg7
I3
sg8
I27
sg9
I4
sg10
I1
sg11
I530
ssg20
(dp37
g5
I581
sg6
I101
sg7
I0
sg8
I19
sg9
I5
sg10
I5
sg11
I410
sssS'Danijel.csv'
p38
(dp39
g3
(dp40
g5
I1130
sg6
I41
sg7
I4
sg8
I0
sg9
I3
sg10
I59
sg11
I1130
ssg12
(dp41
g5
I2776
sg6
I46
sg7
I0
sg8
I133
sg9
I2
sg10
I9
sg11
I1320
ssg14
(dp42
g5
I1056
sg6
I45
sg7
I0
sg8
I50
sg9
I3
sg10
I0
sg11
I810
ssg16
(dp43
g5
I1110
sg6
I40
sg7
I4
sg8
I0
sg9
I4
sg10
I37
sg11
I1110
ssg18
(dp44
g5
I1075
sg6
I44
sg7
I2
sg8
I37
sg9
I2
sg10
I2
sg11
I820
ssg20
(dp45
g5
I1129
sg6
I46
sg7
I0
sg8
I44
sg9
I2
sg10
I7
sg11
I860
sss.(dp0
S'K_all3.csv'
p1
(dp2
S'none'
p3
(dp4
S'count'
p5
I480
sS'truepos'
p6
I37
sS'falseneg'
p7
I3
sS'correction'
p8
I0
sS'unknownyes'
p9
I5
sS'falsepos'
p10
I23
sS'unique'
p11
I480
ssS'three'
p12
(dp13
g5
I986
sg6
I36
sg7
I0
sg8
I46
sg9
I9
sg10
I2
sg11
I470
ssS'machine'
p14
(dp15
g5
I686
sg6
I33
sg7
I1
sg8
I29
sg9
I11
sg10
I5
sg11
I570
ssS'machine4'
p16
(dp17
g5
I510
sg6
I34
sg7
I2
sg8
I0
sg9
I9
sg10
I26
sg11
I510
ssS'machine3'
p18
(dp19
g5
I595
sg6
I32
sg7
I1
sg8
I25
sg9
I12
sg10
I2
sg11
I480
ssS'machine2'
p20
(dp21
g5
I453
sg6
I31
sg7
I1
sg8
I17
sg9
I13
sg10
I0
sg11
I360
sssS'Wahono.csv'
p22
(dp23
g3
(dp24
g5
I2340
sg6
I57
sg7
I2
sg8
I0
sg9
I3
sg10
I115
sg11
I2340
ssg12
(dp25
g5
I3308
sg6
I60
sg7
I2
sg8
I142
sg9
I0
sg10
I13
sg11
I1580
ssg14
(dp26
g5
I1234
sg6
I56
sg7
I3
sg8
I56
sg9
I3
sg10
I2
sg11
I960
ssg16
(dp27
g5
I1760
sg6
I56
sg7
I2
sg8
I0
sg9
I4
sg10
I96
sg11
I1760
ssg18
(dp28
g5
I1519
sg6
I59
sg7
I0
sg8
I47
sg9
I3
sg10
I2
sg11
I1160
ssg20
(dp29
g5
I1347
sg6
I58
sg7
I1
sg8
I55
sg9
I3
sg10
I5
sg11
I1010
sssS'Hall.csv'
p30
(dp31
g3
(dp32
g5
I860
sg6
I99
sg7
I3
sg8
I0
sg9
I4
sg10
I42
sg11
I860
ssg12
(dp33
g5
I998
sg6
I102
sg7
I0
sg8
I37
sg9
I4
sg10
I5
sg11
I480
ssg14
(dp34
g5
I602
sg6
I98
sg7
I3
sg8
I21
sg9
I5
sg10
I2
sg11
I430
ssg16
(dp35
g5
I1750
sg6
I98
sg7
I5
sg8
I0
sg9
I3
sg10
I80
sg11
I1750
ssg18
(dp36
g5
I720
sg6
I99
sg7
I3
sg8
I28
sg9
I4
sg10
I1
sg11
I480
ssg20
(dp37
g5
I641
sg6
I100
sg7
I1
sg8
I18
sg9
I5
sg10
I4
sg11
I460
sssS'Danijel.csv'
p38
(dp39
g3
(dp40
g5
I1860
sg6
I43
sg7
I4
sg8
I0
sg9
I1
sg10
I96
sg11
I1860
ssg12
(dp41
g5
I1611
sg6
I46
sg7
I0
sg8
I70
sg9
I2
sg10
I3
sg11
I770
ssg14
(dp42
g5
I1022
sg6
I42
sg7
I3
sg8
I40
sg9
I3
sg10
I3
sg11
I810
ssg16
(dp43
g5
I700
sg6
I43
sg7
I1
sg8
I0
sg9
I4
sg10
I33
sg11
I700
ssg18
(dp44
g5
I1689
sg6
I44
sg7
I2
sg8
I63
sg9
I2
sg10
I7
sg11
I1290
ssg20
(dp45
g5
I1042
sg6
I44
sg7
I0
sg8
I35
sg9
I4
sg10
I2
sg11
I790
sss.(dp0
S'K_all3.csv'
p1
(dp2
S'none'
p3
(dp4
S'count'
p5
I450
sS'truepos'
p6
I35
sS'falseneg'
p7
I2
sS'correction'
p8
I0
sS'unknownyes'
p9
I8
sS'falsepos'
p10
I25
sS'unique'
p11
I450
ssS'three'
p12
(dp13
g5
I991
sg6
I36
sg7
I1
sg8
I30
sg9
I8
sg10
I1
sg11
I480
ssS'machine'
p14
(dp15
g5
I567
sg6
I31
sg7
I5
sg8
I31
sg9
I9
sg10
I0
sg11
I460
ssS'machine4'
p16
(dp17
g5
I460
sg6
I30
sg7
I2
sg8
I0
sg9
I13
sg10
I24
sg11
I460
ssS'machine3'
p18
(dp19
g5
I518
sg6
I32
sg7
I1
sg8
I23
sg9
I12
sg10
I6
sg11
I420
ssS'machine2'
p20
(dp21
g5
I677
sg6
I34
sg7
I2
sg8
I18
sg9
I9
sg10
I3
sg11
I540
sssS'Wahono.csv'
p22
(dp23
g3
(dp24
g5
I1420
sg6
I54
sg7
I4
sg8
I0
sg9
I4
sg10
I79
sg11
I1420
ssg12
(dp25
g5
I3092
sg6
I60
sg7
I0
sg8
I129
sg9
I2
sg10
I13
sg11
I1480
ssg14
(dp26
g5
I1715
sg6
I59
sg7
I1
sg8
I70
sg9
I2
sg10
I5
sg11
I1350
ssg16
(dp27
g5
I1620
sg6
I54
sg7
I4
sg8
I0
sg9
I4
sg10
I63
sg11
I1620
ssg18
(dp28
g5
I2057
sg6
I61
sg7
I0
sg8
I99
sg9
I1
sg10
I8
sg11
I1530
ssg20
(dp29
g5
I1907
sg6
I57
sg7
I3
sg8
I69
sg9
I2
sg10
I6
sg11
I1460
sssS'Hall.csv'
p30
(dp31
g3
(dp32
g5
I1450
sg6
I92
sg7
I9
sg8
I0
sg9
I5
sg10
I79
sg11
I1450
ssg12
(dp33
g5
I1042
sg6
I102
sg7
I0
sg8
I41
sg9
I4
sg10
I2
sg11
I500
ssg14
(dp34
g5
I622
sg6
I100
sg7
I2
sg8
I23
sg9
I4
sg10
I4
sg11
I450
ssg16
(dp35
g5
I1790
sg6
I98
sg7
I5
sg8
I0
sg9
I3
sg10
I92
sg11
I1790
ssg18
(dp36
g5
I710
sg6
I102
sg7
I0
sg8
I24
sg9
I4
sg10
I1
sg11
I470
ssg20
(dp37
g5
I755
sg6
I100
sg7
I2
sg8
I24
sg9
I4
sg10
I4
sg11
I520
sssS'Danijel.csv'
p38
(dp39
g3
(dp40
g5
I1730
sg6
I43
sg7
I3
sg8
I0
sg9
I2
sg10
I76
sg11
I1730
ssg12
(dp41
g5
I1520
sg6
I45
sg7
I0
sg8
I78
sg9
I3
sg10
I5
sg11
I720
ssg14
(dp42
g5
I1051
sg6
I44
sg7
I2
sg8
I39
sg9
I2
sg10
I2
sg11
I850
ssg16
(dp43
g5
I1890
sg6
I44
sg7
I3
sg8
I0
sg9
I1
sg10
I96
sg11
I1890
ssg18
(dp44
g5
I1009
sg6
I43
sg7
I1
sg8
I46
sg9
I4
sg10
I7
sg11
I760
ssg20
(dp45
g5
I938
sg6
I45
sg7
I0
sg8
I34
sg9
I3
sg10
I4
sg11
I710
sss.(dp0
S'K_all3.csv'
p1
(dp2
S'none'
p3
(dp4
S'count'
p5
I540
sS'truepos'
p6
I35
sS'falseneg'
p7
I3
sS'correction'
p8
I0
sS'unknownyes'
p9
I7
sS'falsepos'
p10
I34
sS'unique'
p11
I540
ssS'three'
p12
(dp13
g5
I1073
sg6
I34
sg7
I0
sg8
I51
sg9
I11
sg10
I4
sg11
I510
ssS'machine'
p14
(dp15
g5
I628
sg6
I32
sg7
I3
sg8
I38
sg9
I10
sg10
I2
sg11
I500
ssS'machine4'
p16
(dp17
g5
I510
sg6
I32
sg7
I1
sg8
I0
sg9
I12
sg10
I19
sg11
I510
ssS'machine3'
p18
(dp19
g5
I679
sg6
I35
sg7
I2
sg8
I31
sg9
I8
sg10
I3
sg11
I520
ssS'machine2'
p20
(dp21
g5
I531
sg6
I37
sg7
I0
sg8
I19
sg9
I8
sg10
I2
sg11
I400
sssS'Wahono.csv'
p22
(dp23
g3
(dp24
g5
I1170
sg6
I58
sg7
I0
sg8
I0
sg9
I4
sg10
I59
sg11
I1170
ssg12
(dp25
g5
I2926
sg6
I59
sg7
I0
sg8
I125
sg9
I3
sg10
I12
sg11
I1400
ssg14
(dp26
g5
I1561
sg6
I58
sg7
I2
sg8
I72
sg9
I2
sg10
I6
sg11
I1210
ssg16
(dp27
g5
I2770
sg6
I56
sg7
I5
sg8
I0
sg9
I1
sg10
I135
sg11
I2770
ssg18
(dp28
g5
I1413
sg6
I59
sg7
I0
sg8
I41
sg9
I3
sg10
I4
sg11
I1080
ssg20
(dp29
g5
I1285
sg6
I59
sg7
I0
sg8
I54
sg9
I3
sg10
I5
sg11
I960
sssS'Hall.csv'
p30
(dp31
g3
(dp32
g5
I610
sg6
I95
sg7
I6
sg8
I0
sg9
I5
sg10
I19
sg11
I610
ssg12
(dp33
g5
I1098
sg6
I102
sg7
I0
sg8
I57
sg9
I4
sg10
I1
sg11
I520
ssg14
(dp34
g5
I521
sg6
I97
sg7
I2
sg8
I17
sg9
I7
sg10
I3
sg11
I370
ssg16
(dp35
g5
I1900
sg6
I96
sg7
I6
sg8
I0
sg9
I4
sg10
I89
sg11
I1900
ssg18
(dp36
g5
I761
sg6
I102
sg7
I0
sg8
I33
sg9
I4
sg10
I4
sg11
I500
ssg20
(dp37
g5
I665
sg6
I99
sg7
I3
sg8
I16
sg9
I4
sg10
I0
sg11
I460
sssS'Danijel.csv'
p38
(dp39
g3
(dp40
g5
I1190
sg6
I40
sg7
I5
sg8
I0
sg9
I3
sg10
I61
sg11
I1190
ssg12
(dp41
g5
I1869
sg6
I45
sg7
I1
sg8
I85
sg9
I2
sg10
I8
sg11
I890
ssg14
(dp42
g5
I1222
sg6
I44
sg7
I1
sg8
I56
sg9
I3
sg10
I4
sg11
I960
ssg16
(dp43
g5
I2160
sg6
I44
sg7
I2
sg8
I0
sg9
I2
sg10
I106
sg11
I2160
ssg18
(dp44
g5
I1387
sg6
I43
sg7
I2
sg8
I75
sg9
I3
sg10
I8
sg11
I1020
ssg20
(dp45
g5
I998
sg6
I41
sg7
I4
sg8
I34
sg9
I3
sg10
I4
sg11
I760
sss.(dp0
S'K_all3.csv'
p1
(dp2
S'none'
p3
(dp4
S'count'
p5
I610
sS'truepos'
p6
I36
sS'falseneg'
p7
I2
sS'correction'
p8
I0
sS'unknownyes'
p9
I7
sS'falsepos'
p10
I23
sS'unique'
p11
I610
ssS'three'
p12
(dp13
g5
I942
sg6
I36
sg7
I0
sg8
I42
sg9
I9
sg10
I2
sg11
I450
ssS'machine'
p14
(dp15
g5
I520
sg6
I32
sg7
I2
sg8
I31
sg9
I11
sg10
I0
sg11
I410
ssS'machine4'
p16
(dp17
g5
I450
sg6
I38
sg7
I0
sg8
I0
sg9
I7
sg10
I22
sg11
I450
ssS'machine3'
p18
(dp19
g5
I531
sg6
I34
sg7
I0
sg8
I17
sg9
I11
sg10
I3
sg11
I420
ssS'machine2'
p20
(dp21
g5
I581
sg6
I36
sg7
I2
sg8
I23
sg9
I7
sg10
I0
sg11
I450
sssS'Wahono.csv'
p22
(dp23
g3
(dp24
g5
I1930
sg6
I58
sg7
I2
sg8
I0
sg9
I2
sg10
I81
sg11
I1930
ssg12
(dp25
g5
I3217
sg6
I59
sg7
I0
sg8
I134
sg9
I3
sg10
I11
sg11
I1540
ssg14
(dp26
g5
I1519
sg6
I56
sg7
I2
sg8
I80
sg9
I4
sg10
I5
sg11
I1160
ssg16
(dp27
g5
I2850
sg6
I56
sg7
I4
sg8
I0
sg9
I2
sg10
I159
sg11
I2850
ssg18
(dp28
g5
I1721
sg6
I60
sg7
I1
sg8
I74
sg9
I1
sg10
I6
sg11
I1280
ssg20
(dp29
g5
I2098
sg6
I59
sg7
I0
sg8
I86
sg9
I3
sg10
I10
sg11
I1570
sssS'Hall.csv'
p30
(dp31
g3
(dp32
g5
I580
sg6
I91
sg7
I9
sg8
I0
sg9
I6
sg10
I17
sg11
I580
ssg12
(dp33
g5
I1031
sg6
I102
sg7
I0
sg8
I51
sg9
I4
sg10
I2
sg11
I490
ssg14
(dp34
g5
I511
sg6
I95
sg7
I4
sg8
I26
sg9
I7
sg10
I6
sg11
I360
ssg16
(dp35
g5
I1090
sg6
I97
sg7
I6
sg8
I0
sg9
I3
sg10
I48
sg11
I1090
ssg18
(dp36
g5
I724
sg6
I101
sg7
I0
sg8
I18
sg9
I5
sg10
I3
sg11
I490
ssg20
(dp37
g5
I721
sg6
I100
sg7
I2
sg8
I33
sg9
I4
sg10
I4
sg11
I500
sssS'Danijel.csv'
p38
(dp39
g3
(dp40
g5
I990
sg6
I44
sg7
I0
sg8
I0
sg9
I4
sg10
I49
sg11
I990
ssg12
(dp41
g5
I1943
sg6
I46
sg7
I0
sg8
I82
sg9
I2
sg10
I5
sg11
I930
ssg14
(dp42
g5
I829
sg6
I42
sg7
I3
sg8
I36
sg9
I3
sg10
I1
sg11
I650
ssg16
(dp43
g5
I890
sg6
I43
sg7
I1
sg8
I0
sg9
I4
sg10
I56
sg11
I890
ssg18
(dp44
g5
I1262
sg6
I45
sg7
I1
sg8
I47
sg9
I2
sg10
I10
sg11
I950
ssg20
(dp45
g5
I1084
sg6
I44
sg7
I1
sg8
I43
sg9
I3
sg10
I7
sg11
I810
sss.(dp0
S'K_all3.csv'
p1
(dp2
S'none'
p3
(dp4
S'count'
p5
I510
sS'truepos'
p6
I27
sS'falseneg'
p7
I3
sS'correction'
p8
I0
sS'unknownyes'
p9
I15
sS'falsepos'
p10
I30
sS'unique'
p11
I510
ssS'three'
p12
(dp13
g5
I976
sg6
I35
sg7
I0
sg8
I35
sg9
I10
sg10
I3
sg11
I470
ssS'machine'
p14
(dp15
g5
I613
sg6
I32
sg7
I1
sg8
I25
sg9
I12
sg10
I1
sg11
I510
ssS'machine4'
p16
(dp17
g5
I500
sg6
I35
sg7
I2
sg8
I0
sg9
I8
sg10
I22
sg11
I500
ssS'machine3'
p18
(dp19
g5
I583
sg6
I34
sg7
I4
sg8
I17
sg9
I7
sg10
I1
sg11
I480
ssS'machine2'
p20
(dp21
g5
I451
sg6
I30
sg7
I2
sg8
I17
sg9
I13
sg10
I1
sg11
I360
sssS'Wahono.csv'
p22
(dp23
g3
(dp24
g5
I2080
sg6
I53
sg7
I6
sg8
I0
sg9
I3
sg10
I123
sg11
I2080
ssg12
(dp25
g5
I2822
sg6
I59
sg7
I1
sg8
I117
sg9
I2
sg10
I9
sg11
I1350
ssg14
(dp26
g5
I1601
sg6
I59
sg7
I1
sg8
I60
sg9
I2
sg10
I7
sg11
I1260
ssg16
(dp27
g5
I1330
sg6
I52
sg7
I2
sg8
I0
sg9
I8
sg10
I65
sg11
I1330
ssg18
(dp28
g5
I1589
sg6
I59
sg7
I0
sg8
I64
sg9
I3
sg10
I1
sg11
I1190
ssg20
(dp29
g5
I1616
sg6
I55
sg7
I4
sg8
I70
sg9
I3
sg10
I7
sg11
I1210
sssS'Hall.csv'
p30
(dp31
g3
(dp32
g5
I1330
sg6
I100
sg7
I3
sg8
I0
sg9
I3
sg10
I58
sg11
I1330
ssg12
(dp33
g5
I1062
sg6
I99
sg7
I3
sg8
I62
sg9
I4
sg10
I3
sg11
I500
ssg14
(dp34
g5
I652
sg6
I99
sg7
I2
sg8
I23
sg9
I5
sg10
I1
sg11
I460
ssg16
(dp35
g5
I2370
sg6
I101
sg7
I2
sg8
I0
sg9
I3
sg10
I139
sg11
I2370
ssg18
(dp36
g5
I779
sg6
I98
sg7
I4
sg8
I30
sg9
I4
sg10
I1
sg11
I530
ssg20
(dp37
g5
I835
sg6
I99
sg7
I3
sg8
I45
sg9
I4
sg10
I1
sg11
I570
sssS'Danijel.csv'
p38
(dp39
g3
(dp40
g5
I1370
sg6
I45
sg7
I1
sg8
I0
sg9
I2
sg10
I73
sg11
I1370
ssg12
(dp41
g5
I1604
sg6
I45
sg7
I0
sg8
I62
sg9
I3
sg10
I5
sg11
I770
ssg14
(dp42
g5
I901
sg6
I45
sg7
I0
sg8
I39
sg9
I3
sg10
I2
sg11
I710
ssg16
(dp43
g5
I1020
sg6
I42
sg7
I2
sg8
I0
sg9
I4
sg10
I54
sg11
I1020
ssg18
(dp44
g5
I1179
sg6
I45
sg7
I0
sg8
I42
sg9
I3
sg10
I7
sg11
I900
ssg20
(dp45
g5
I946
sg6
I45
sg7
I0
sg8
I39
sg9
I3
sg10
I2
sg11
I710
sss.(dp0
S'K_all3.csv'
p1
(dp2
S'none'
p3
(dp4
S'count'
p5
I390
sS'truepos'
p6
I36
sS'falseneg'
p7
I1
sS'correction'
p8
I0
sS'unknownyes'
p9
I8
sS'falsepos'
p10
I21
sS'unique'
p11
I390
ssS'three'
p12
(dp13
g5
I998
sg6
I34
sg7
I0
sg8
I37
sg9
I11
sg10
I5
sg11
I480
ssS'machine'
p14
(dp15
g5
I546
sg6
I30
sg7
I2
sg8
I17
sg9
I13
sg10
I2
sg11
I460
ssS'machine4'
p16
(dp17
g5
I490
sg6
I34
sg7
I2
sg8
I0
sg9
I9
sg10
I18
sg11
I490
ssS'machine3'
p18
(dp19
g5
I577
sg6
I34
sg7
I0
sg8
I25
sg9
I11
sg10
I4
sg11
I440
ssS'machine2'
p20
(dp21
g5
I678
sg6
I34
sg7
I2
sg8
I17
sg9
I9
sg10
I2
sg11
I550
sssS'Wahono.csv'
p22
(dp23
g3
(dp24
g5
I2420
sg6
I57
sg7
I2
sg8
I0
sg9
I3
sg10
I115
sg11
I2420
ssg12
(dp25
g5
I3600
sg6
I62
sg7
I0
sg8
I158
sg9
I0
sg10
I9
sg11
I1720
ssg14
(dp26
g5
I1299
sg6
I57
sg7
I1
sg8
I58
sg9
I4
sg10
I2
sg11
I1010
ssg16
(dp27
g5
I1630
sg6
I57
sg7
I2
sg8
I0
sg9
I3
sg10
I71
sg11
I1630
ssg18
(dp28
g5
I1848
sg6
I59
sg7
I1
sg8
I82
sg9
I2
sg10
I5
sg11
I1370
ssg20
(dp29
g5
I1577
sg6
I59
sg7
I0
sg8
I81
sg9
I3
sg10
I8
sg11
I1160
sssS'Hall.csv'
p30
(dp31
g3
(dp32
g5
I1500
sg6
I95
sg7
I7
sg8
I0
sg9
I4
sg10
I66
sg11
I1500
ssg12
(dp33
g5
I1082
sg6
I101
sg7
I0
sg8
I42
sg9
I5
sg10
I3
sg11
I520
ssg14
(dp34
g5
I652
sg6
I99
sg7
I3
sg8
I26
sg9
I4
sg10
I3
sg11
I460
ssg16
(dp35
g5
I2050
sg6
I98
sg7
I4
sg8
I0
sg9
I4
sg10
I91
sg11
I2050
ssg18
(dp36
g5
I767
sg6
I101
sg7
I1
sg8
I24
sg9
I4
sg10
I3
sg11
I520
ssg20
(dp37
g5
I630
sg6
I102
sg7
I0
sg8
I10
sg9
I4
sg10
I2
sg11
I450
sssS'Danijel.csv'
p38
(dp39
g3
(dp40
g5
I1680
sg6
I43
sg7
I4
sg8
I0
sg9
I1
sg10
I95
sg11
I1680
ssg12
(dp41
g5
I1695
sg6
I45
sg7
I1
sg8
I73
sg9
I2
sg10
I3
sg11
I810
ssg14
(dp42
g5
I1122
sg6
I44
sg7
I1
sg8
I50
sg9
I3
sg10
I2
sg11
I880
ssg16
(dp43
g5
I800
sg6
I40
sg7
I3
sg8
I0
sg9
I5
sg10
I35
sg11
I800
ssg18
(dp44
g5
I1008
sg6
I45
sg7
I0
sg8
I53
sg9
I3
sg10
I2
sg11
I730
ssg20
(dp45
g5
I1206
sg6
I43
sg7
I2
sg8
I50
sg9
I3
sg10
I5
sg11
I910
sss.(dp0
S'K_all3.csv'
p1
(dp2
S'none'
p3
(dp4
S'count'
p5
I470
sS'truepos'
p6
I34
sS'falseneg'
p7
I1
sS'correction'
p8
I0
sS'unknownyes'
p9
I10
sS'falsepos'
p10
I17
sS'unique'
p11
I470
ssS'three'
p12
(dp13
g5
I905
sg6
I35
sg7
I0
sg8
I42
sg9
I10
sg10
I4
sg11
I430
ssS'machine'
p14
(dp15
g5
I577
sg6
I29
sg7
I4
sg8
I29
sg9
I12
sg10
I3
sg11
I460
ssS'machine4'
p16
(dp17
g5
I450
sg6
I35
sg7
I0
sg8
I0
sg9
I10
sg10
I23
sg11
I450
ssS'machine3'
p18
(dp19
g5
I623
sg6
I34
sg7
I2
sg8
I28
sg9
I9
sg10
I2
sg11
I500
ssS'machine2'
p20
(dp21
g5
I573
sg6
I33
sg7
I3
sg8
I22
sg9
I9
sg10
I4
sg11
I460
sssS'Wahono.csv'
p22
(dp23
g3
(dp24
g5
I2350
sg6
I58
sg7
I3
sg8
I0
sg9
I1
sg10
I119
sg11
I2350
ssg12
(dp25
g5
I3509
sg6
I59
sg7
I0
sg8
I183
sg9
I3
sg10
I17
sg11
I1660
ssg14
(dp26
g5
I1352
sg6
I57
sg7
I2
sg8
I43
sg9
I3
sg10
I7
sg11
I1060
ssg16
(dp27
g5
I2470
sg6
I57
sg7
I3
sg8
I0
sg9
I2
sg10
I112
sg11
I2470
ssg18
(dp28
g5
I1800
sg6
I57
sg7
I2
sg8
I76
sg9
I3
sg10
I8
sg11
I1340
ssg20
(dp29
g5
I1891
sg6
I58
sg7
I1
sg8
I90
sg9
I3
sg10
I10
sg11
I1410
sssS'Hall.csv'
p30
(dp31
g3
(dp32
g5
I1040
sg6
I92
sg7
I10
sg8
I0
sg9
I4
sg10
I60
sg11
I1040
ssg12
(dp33
g5
I1015
sg6
I102
sg7
I0
sg8
I35
sg9
I4
sg10
I4
sg11
I490
ssg14
(dp34
g5
I754
sg6
I98
sg7
I4
sg8
I31
sg9
I4
sg10
I3
sg11
I540
ssg16
(dp35
g5
I1000
sg6
I98
sg7
I5
sg8
I0
sg9
I3
sg10
I35
sg11
I1000
ssg18
(dp36
g5
I763
sg6
I99
sg7
I3
sg8
I28
sg9
I4
sg10
I4
sg11
I510
ssg20
(dp37
g5
I674
sg6
I102
sg7
I0
sg8
I30
sg9
I4
sg10
I4
sg11
I460
sssS'Danijel.csv'
p38
(dp39
g3
(dp40
g5
I1520
sg6
I43
sg7
I3
sg8
I0
sg9
I2
sg10
I71
sg11
I1520
ssg12
(dp41
g5
I1862
sg6
I46
sg7
I0
sg8
I82
sg9
I2
sg10
I7
sg11
I890
ssg14
(dp42
g5
I1075
sg6
I44
sg7
I1
sg8
I57
sg9
I3
sg10
I7
sg11
I820
ssg16
(dp43
g5
I2030
sg6
I46
sg7
I0
sg8
I0
sg9
I2
sg10
I107
sg11
I2030
ssg18
(dp44
g5
I1285
sg6
I44
sg7
I2
sg8
I52
sg9
I2
sg10
I6
sg11
I970
ssg20
(dp45
g5
I1255
sg6
I45
sg7
I1
sg8
I47
sg9
I2
sg10
I4
sg11
I950
sss.(dp0
S'K_all3.csv'
p1
(dp2
S'none'
p3
(dp4
S'count'
p5
I410
sS'truepos'
p6
I32
sS'falseneg'
p7
I2
sS'correction'
p8
I0
sS'unknownyes'
p9
I11
sS'falsepos'
p10
I15
sS'unique'
p11
I410
ssS'three'
p12
(dp13
g5
I886
sg6
I35
sg7
I0
sg8
I44
sg9
I10
sg10
I4
sg11
I420
ssS'machine'
p14
(dp15
g5
I539
sg6
I33
sg7
I2
sg8
I24
sg9
I10
sg10
I1
sg11
I440
ssS'machine4'
p16
(dp17
g5
I460
sg6
I35
sg7
I2
sg8
I0
sg9
I8
sg10
I14
sg11
I460
ssS'machine3'
p18
(dp19
g5
I620
sg6
I33
sg7
I4
sg8
I26
sg9
I8
sg10
I1
sg11
I510
ssS'machine2'
p20
(dp21
g5
I613
sg6
I35
sg7
I0
sg8
I23
sg9
I10
sg10
I1
sg11
I490
sssS'Wahono.csv'
p22
(dp23
g3
(dp24
g5
I1870
sg6
I58
sg7
I1
sg8
I0
sg9
I3
sg10
I81
sg11
I1870
ssg12
(dp25
g5
I3062
sg6
I59
sg7
I0
sg8
I139
sg9
I3
sg10
I9
sg11
I1460
ssg14
(dp26
g5
I1619
sg6
I59
sg7
I1
sg8
I72
sg9
I2
sg10
I5
sg11
I1260
ssg16
(dp27
g5
I1440
sg6
I57
sg7
I2
sg8
I0
sg9
I3
sg10
I63
sg11
I1440
ssg18
(dp28
g5
I1429
sg6
I59
sg7
I0
sg8
I57
sg9
I3
sg10
I4
sg11
I1070
ssg20
(dp29
g5
I1896
sg6
I58
sg7
I1
sg8
I91
sg9
I3
sg10
I10
sg11
I1410
sssS'Hall.csv'
p30
(dp31
g3
(dp32
g5
I1640
sg6
I100
sg7
I3
sg8
I0
sg9
I3
sg10
I77
sg11
I1640
ssg12
(dp33
g5
I1170
sg6
I101
sg7
I1
sg8
I49
sg9
I4
sg10
I3
sg11
I560
ssg14
(dp34
g5
I602
sg6
I98
sg7
I3
sg8
I27
sg9
I5
sg10
I6
sg11
I430
ssg16
(dp35
g5
I2400
sg6
I95
sg7
I8
sg8
I0
sg9
I3
sg10
I114
sg11
I2400
ssg18
(dp36
g5
I705
sg6
I102
sg7
I0
sg8
I20
sg9
I4
sg10
I1
sg11
I470
ssg20
(dp37
g5
I685
sg6
I102
sg7
I0
sg8
I26
sg9
I4
sg10
I1
sg11
I470
sssS'Danijel.csv'
p38
(dp39
g3
(dp40
g5
I950
sg6
I43
sg7
I2
sg8
I0
sg9
I3
sg10
I40
sg11
I950
ssg12
(dp41
g5
I1723
sg6
I45
sg7
I0
sg8
I81
sg9
I3
sg10
I7
sg11
I820
ssg14
(dp42
g5
I1162
sg6
I46
sg7
I0
sg8
I48
sg9
I2
sg10
I3
sg11
I910
ssg16
(dp43
g5
I1200
sg6
I43
sg7
I2
sg8
I0
sg9
I3
sg10
I58
sg11
I1200
ssg18
(dp44
g5
I1067
sg6
I44
sg7
I1
sg8
I49
sg9
I3
sg10
I5
sg11
I790
ssg20
(dp45
g5
I1009
sg6
I45
sg7
I0
sg8
I41
sg9
I3
sg10
I2
sg11
I760
sss.(dp0
S'K_all3.csv'
p1
(dp2
S'none'
p3
(dp4
S'count'
p5
I430
sS'truepos'
p6
I34
sS'falseneg'
p7
I1
sS'correction'
p8
I0
sS'unknownyes'
p9
I10
sS'falsepos'
p10
I19
sS'unique'
p11
I430
ssS'three'
p12
(dp13
g5
I1008
sg6
I36
sg7
I0
sg8
I47
sg9
I9
sg10
I3
sg11
I480
ssS'machine'
p14
(dp15
g5
I536
sg6
I27
sg7
I2
sg8
I22
sg9
I16
sg10
I0
sg11
I460
ssS'machine4'
p16
(dp17
g5
I570
sg6
I34
sg7
I3
sg8
I0
sg9
I8
sg10
I22
sg11
I570
ssS'machine3'
p18
(dp19
g5
I572
sg6
I35
sg7
I1
sg8
I23
sg9
I9
sg10
I5
sg11
I440
ssS'machine2'
p20
(dp21
g5
I608
sg6
I37
sg7
I0
sg8
I20
sg9
I8
sg10
I0
sg11
I500
sssS'Wahono.csv'
p22
(dp23
g3
(dp24
g5
I1950
sg6
I52
sg7
I4
sg8
I0
sg9
I6
sg10
I101
sg11
I1950
ssg12
(dp25
g5
I2832
sg6
I59
sg7
I1
sg8
I110
sg9
I2
sg10
I8
sg11
I1360
ssg14
(dp26
g5
I1479
sg6
I59
sg7
I1
sg8
I58
sg9
I2
sg10
I2
sg11
I1160
ssg16
(dp27
g5
I2300
sg6
I59
sg7
I2
sg8
I0
sg9
I1
sg10
I119
sg11
I2300
ssg18
(dp28
g5
I1544
sg6
I56
sg7
I3
sg8
I69
sg9
I3
sg10
I5
sg11
I1140
ssg20
(dp29
g5
I1740
sg6
I58
sg7
I1
sg8
I69
sg9
I3
sg10
I8
sg11
I1310
sssS'Hall.csv'
p30
(dp31
g3
(dp32
g5
I1370
sg6
I101
sg7
I2
sg8
I0
sg9
I3
sg10
I57
sg11
I1370
ssg12
(dp33
g5
I1172
sg6
I102
sg7
I0
sg8
I52
sg9
I4
sg10
I1
sg11
I560
ssg14
(dp34
g5
I661
sg6
I98
sg7
I3
sg8
I28
sg9
I5
sg10
I3
sg11
I470
ssg16
(dp35
g5
I1330
sg6
I101
sg7
I1
sg8
I0
sg9
I4
sg10
I58
sg11
I1330
ssg18
(dp36
g5
I611
sg6
I100
sg7
I0
sg8
I14
sg9
I6
sg10
I0
sg11
I410
ssg20
(dp37
g5
I680
sg6
I102
sg7
I0
sg8
I20
sg9
I4
sg10
I2
sg11
I470
sssS'Danijel.csv'
p38
(dp39
g3
(dp40
g5
I2390
sg6
I42
sg7
I5
sg8
I0
sg9
I1
sg10
I104
sg11
I2390
ssg12
(dp41
g5
I2107
sg6
I44
sg7
I1
sg8
I85
sg9
I3
sg10
I10
sg11
I1010
ssg14
(dp42
g5
I984
sg6
I41
sg7
I4
sg8
I37
sg9
I3
sg10
I3
sg11
I760
ssg16
(dp43
g5
I1000
sg6
I43
sg7
I2
sg8
I0
sg9
I3
sg10
I51
sg11
I1000
ssg18
(dp44
g5
I1166
sg6
I46
sg7
I0
sg8
I48
sg9
I2
sg10
I5
sg11
I890
ssg20
(dp45
g5
I1158
sg6
I42
sg7
I1
sg8
I51
sg9
I5
sg10
I6
sg11
I860
sss.(dp0
S'K_all3.csv'
p1
(dp2
S'none'
p3
(dp4
S'count'
p5
I500
sS'truepos'
p6
I38
sS'falseneg'
p7
I0
sS'correction'
p8
I0
sS'unknownyes'
p9
I7
sS'falsepos'
p10
I32
sS'unique'
p11
I500
ssS'three'
p12
(dp13
g5
I1022
sg6
I35
sg7
I0
sg8
I41
sg9
I10
sg10
I3
sg11
I490
ssS'machine'
p14
(dp15
g5
I608
sg6
I33
sg7
I4
sg8
I26
sg9
I8
sg10
I2
sg11
I500
ssS'machine4'
p16
(dp17
g5
I480
sg6
I32
sg7
I4
sg8
I0
sg9
I9
sg10
I24
sg11
I480
ssS'machine3'
p18
(dp19
g5
I637
sg6
I35
sg7
I3
sg8
I30
sg9
I7
sg10
I1
sg11
I510
ssS'machine2'
p20
(dp21
g5
I583
sg6
I35
sg7
I0
sg8
I19
sg9
I10
sg10
I5
sg11
I460
sssS'Wahono.csv'
p22
(dp23
g3
(dp24
g5
I1970
sg6
I57
sg7
I1
sg8
I0
sg9
I4
sg10
I102
sg11
I1970
ssg12
(dp25
g5
I3101
sg6
I57
sg7
I2
sg8
I136
sg9
I3
sg10
I13
sg11
I1480
ssg14
(dp26
g5
I1251
sg6
I59
sg7
I0
sg8
I53
sg9
I3
sg10
I5
sg11
I960
ssg16
(dp27
g5
I3390
sg6
I61
sg7
I0
sg8
I0
sg9
I1
sg10
I174
sg11
I3390
ssg18
(dp28
g5
I1513
sg6
I58
sg7
I1
sg8
I73
sg9
I3
sg10
I11
sg11
I1120
ssg20
(dp29
g5
I2134
sg6
I59
sg7
I1
sg8
I94
sg9
I2
sg10
I13
sg11
I1610
sssS'Hall.csv'
p30
(dp31
g3
(dp32
g5
I1130
sg6
I101
sg7
I2
sg8
I0
sg9
I3
sg10
I52
sg11
I1130
ssg12
(dp33
g5
I1321
sg6
I102
sg7
I0
sg8
I59
sg9
I4
sg10
I7
sg11
I630
ssg14
(dp34
g5
I662
sg6
I97
sg7
I3
sg8
I29
sg9
I6
sg10
I2
sg11
I470
ssg16
(dp35
g5
I970
sg6
I97
sg7
I6
sg8
I0
sg9
I3
sg10
I36
sg11
I970
ssg18
(dp36
g5
I756
sg6
I101
sg7
I1
sg8
I24
sg9
I4
sg10
I1
sg11
I510
ssg20
(dp37
g5
I511
sg6
I97
sg7
I2
sg8
I21
sg9
I7
sg10
I6
sg11
I360
sssS'Danijel.csv'
p38
(dp39
g3
(dp40
g5
I1200
sg6
I44
sg7
I2
sg8
I0
sg9
I2
sg10
I63
sg11
I1200
ssg12
(dp41
g5
I1491
sg6
I46
sg7
I0
sg8
I71
sg9
I2
sg10
I2
sg11
I710
ssg14
(dp42
g5
I961
sg6
I41
sg7
I3
sg8
I38
sg9
I4
sg10
I1
sg11
I760
ssg16
(dp43
g5
I1130
sg6
I44
sg7
I2
sg8
I0
sg9
I2
sg10
I41
sg11
I1130
ssg18
(dp44
g5
I848
sg6
I43
sg7
I3
sg8
I38
sg9
I2
sg10
I5
sg11
I630
ssg20
(dp45
g5
I1389
sg6
I45
sg7
I1
sg8
I60
sg9
I2
sg10
I6
sg11
I1040
sss.(dp0
S'K_all3.csv'
p1
(dp2
S'none'
p3
(dp4
S'count'
p5
I500
sS'truepos'
p6
I32
sS'falseneg'
p7
I4
sS'correction'
p8
I0
sS'unknownyes'
p9
I9
sS'falsepos'
p10
I25
sS'unique'
p11
I500
ssS'three'
p12
(dp13
g5
I859
sg6
I35
sg7
I0
sg8
I37
sg9
I10
sg10
I3
sg11
I410
ssS'machine'
p14
(dp15
g5
I556
sg6
I33
sg7
I2
sg8
I20
sg9
I10
sg10
I1
sg11
I460
ssS'machine4'
p16
(dp17
g5
I450
sg6
I36
sg7
I0
sg8
I0
sg9
I9
sg10
I20
sg11
I450
ssS'machine3'
p18
(dp19
g5
I606
sg6
I36
sg7
I1
sg8
I23
sg9
I8
sg10
I3
sg11
I480
ssS'machine2'
p20
(dp21
g5
I683
sg6
I34
sg7
I3
sg8
I28
sg9
I8
sg10
I4
sg11
I550
sssS'Wahono.csv'
p22
(dp23
g3
(dp24
g5
I2160
sg6
I54
sg7
I5
sg8
I0
sg9
I3
sg10
I106
sg11
I2160
ssg12
(dp25
g5
I2776
sg6
I58
sg7
I1
sg8
I131
sg9
I3
sg10
I8
sg11
I1320
ssg14
(dp26
g5
I1306
sg6
I56
sg7
I3
sg8
I59
sg9
I3
sg10
I6
sg11
I1010
ssg16
(dp27
g5
I3130
sg6
I60
sg7
I1
sg8
I0
sg9
I1
sg10
I185
sg11
I3130
ssg18
(dp28
g5
I1595
sg6
I58
sg7
I2
sg8
I69
sg9
I2
sg10
I7
sg11
I1190
ssg20
(dp29
g5
I2072
sg6
I59
sg7
I0
sg8
I85
sg9
I3
sg10
I8
sg11
I1560
sssS'Hall.csv'
p30
(dp31
g3
(dp32
g5
I1300
sg6
I96
sg7
I6
sg8
I0
sg9
I4
sg10
I56
sg11
I1300
ssg12
(dp33
g5
I1039
sg6
I100
sg7
I1
sg8
I38
sg9
I5
sg10
I2
sg11
I500
ssg14
(dp34
g5
I743
sg6
I99
sg7
I3
sg8
I30
sg9
I4
sg10
I2
sg11
I530
ssg16
(dp35
g5
I1360
sg6
I97
sg7
I6
sg8
I0
sg9
I3
sg10
I62
sg11
I1360
ssg18
(dp36
g5
I744
sg6
I99
sg7
I3
sg8
I27
sg9
I4
sg10
I2
sg11
I500
ssg20
(dp37
g5
I848
sg6
I100
sg7
I2
sg8
I35
sg9
I4
sg10
I4
sg11
I590
sssS'Danijel.csv'
p38
(dp39
g3
(dp40
g5
I1200
sg6
I40
sg7
I6
sg8
I0
sg9
I2
sg10
I55
sg11
I1200
ssg12
(dp41
g5
I1913
sg6
I46
sg7
I0
sg8
I93
sg9
I2
sg10
I3
sg11
I910
ssg14
(dp42
g5
I972
sg6
I45
sg7
I0
sg8
I37
sg9
I3
sg10
I3
sg11
I760
ssg16
(dp43
g5
I1410
sg6
I44
sg7
I2
sg8
I0
sg9
I2
sg10
I76
sg11
I1410
ssg18
(dp44
g5
I1406
sg6
I44
sg7
I1
sg8
I44
sg9
I3
sg10
I8
sg11
I1080
ssg20
(dp45
g5
I1154
sg6
I44
sg7
I0
sg8
I56
sg9
I4
sg10
I4
sg11
I860
sss.(dp0
S'K_all3.csv'
p1
(dp2
S'none'
p3
(dp4
S'count'
p5
I420
sS'truepos'
p6
I29
sS'falseneg'
p7
I3
sS'correction'
p8
I0
sS'unknownyes'
p9
I13
sS'falsepos'
p10
I17
sS'unique'
p11
I420
ssS'three'
p12
(dp13
g5
I1069
sg6
I35
sg7
I1
sg8
I47
sg9
I9
sg10
I3
sg11
I510
ssS'machine'
p14
(dp15
g5
I617
sg6
I35
sg7
I2
sg8
I28
sg9
I8
sg10
I1
sg11
I510
ssS'machine4'
p16
(dp17
g5
I370
sg6
I31
sg7
I0
sg8
I0
sg9
I14
sg10
I15
sg11
I370
ssS'machine3'
p18
(dp19
g5
I601
sg6
I33
sg7
I3
sg8
I21
sg9
I9
sg10
I2
sg11
I500
ssS'machine2'
p20
(dp21
g5
I577
sg6
I34
sg7
I1
sg8
I25
sg9
I10
sg10
I4
sg11
I460
sssS'Wahono.csv'
p22
(dp23
g3
(dp24
g5
I2830
sg6
I58
sg7
I3
sg8
I0
sg9
I1
sg10
I145
sg11
I2830
ssg12
(dp25
g5
I2675
sg6
I60
sg7
I0
sg8
I113
sg9
I2
sg10
I8
sg11
I1280
ssg14
(dp26
g5
I1617
sg6
I58
sg7
I1
sg8
I68
sg9
I3
sg10
I6
sg11
I1260
ssg16
(dp27
g5
I1660
sg6
I55
sg7
I3
sg8
I0
sg9
I4
sg10
I87
sg11
I1660
ssg18
(dp28
g5
I1546
sg6
I58
sg7
I1
sg8
I69
sg9
I3
sg10
I3
sg11
I1170
ssg20
(dp29
g5
I1686
sg6
I58
sg7
I1
sg8
I76
sg9
I3
sg10
I12
sg11
I1260
sssS'Hall.csv'
p30
(dp31
g3
(dp32
g5
I1160
sg6
I98
sg7
I4
sg8
I0
sg9
I4
sg10
I58
sg11
I1160
ssg12
(dp33
g5
I1197
sg6
I101
sg7
I1
sg8
I55
sg9
I4
sg10
I3
sg11
I570
ssg14
(dp34
g5
I542
sg6
I98
sg7
I3
sg8
I15
sg9
I5
sg10
I6
sg11
I390
ssg16
(dp35
g5
I1270
sg6
I100
sg7
I4
sg8
I0
sg9
I2
sg10
I54
sg11
I1270
ssg18
(dp36
g5
I778
sg6
I102
sg7
I0
sg8
I25
sg9
I4
sg10
I3
sg11
I530
ssg20
(dp37
g5
I835
sg6
I100
sg7
I2
sg8
I35
sg9
I4
sg10
I5
sg11
I580
sssS'Danijel.csv'
p38
(dp39
g3
(dp40
g5
I2080
sg6
I45
sg7
I2
sg8
I0
sg9
I1
sg10
I91
sg11
I2080
ssg12
(dp41
g5
I1933
sg6
I46
sg7
I0
sg8
I91
sg9
I2
sg10
I9
sg11
I920
ssg14
(dp42
g5
I934
sg6
I42
sg7
I3
sg8
I43
sg9
I3
sg10
I1
sg11
I720
ssg16
(dp43
g5
I2030
sg6
I40
sg7
I5
sg8
I0
sg9
I3
sg10
I99
sg11
I2030
ssg18
(dp44
g5
I1100
sg6
I44
sg7
I0
sg8
I45
sg9
I4
sg10
I7
sg11
I840
ssg20
(dp45
g5
I1178
sg6
I45
sg7
I0
sg8
I35
sg9
I3
sg10
I11
sg11
I900
sss.(dp0
S'K_all3.csv'
p1
(dp2
S'none'
p3
(dp4
S'count'
p5
I440
sS'truepos'
p6
I33
sS'falseneg'
p7
I3
sS'correction'
p8
I0
sS'unknownyes'
p9
I9
sS'falsepos'
p10
I21
sS'unique'
p11
I440
ssS'three'
p12
(dp13
g5
I1033
sg6
I33
sg7
I1
sg8
I50
sg9
I11
sg10
I5
sg11
I490
ssS'machine'
p14
(dp15
g5
I734
sg6
I32
sg7
I3
sg8
I33
sg9
I10
sg10
I3
sg11
I610
ssS'machine4'
p16
(dp17
g5
I460
sg6
I36
sg7
I0
sg8
I0
sg9
I9
sg10
I22
sg11
I460
ssS'machine3'
p18
(dp19
g5
I576
sg6
I33
sg7
I2
sg8
I29
sg9
I10
sg10
I1
sg11
I460
ssS'machine2'
p20
(dp21
g5
I578
sg6
I31
sg7
I1
sg8
I20
sg9
I13
sg10
I1
sg11
I460
sssS'Wahono.csv'
p22
(dp23
g3
(dp24
g5
I1970
sg6
I53
sg7
I3
sg8
I0
sg9
I6
sg10
I102
sg11
I1970
ssg12
(dp25
g5
I2601
sg6
I59
sg7
I0
sg8
I119
sg9
I3
sg10
I5
sg11
I1240
ssg14
(dp26
g5
I1412
sg6
I56
sg7
I3
sg8
I62
sg9
I3
sg10
I1
sg11
I1100
ssg16
(dp27
g5
I2560
sg6
I54
sg7
I6
sg8
I0
sg9
I2
sg10
I118
sg11
I2560
ssg18
(dp28
g5
I1726
sg6
I59
sg7
I0
sg8
I65
sg9
I3
sg10
I6
sg11
I1310
ssg20
(dp29
g5
I1889
sg6
I60
sg7
I0
sg8
I85
sg9
I2
sg10
I6
sg11
I1410
sssS'Hall.csv'
p30
(dp31
g3
(dp32
g5
I1470
sg6
I98
sg7
I5
sg8
I0
sg9
I3
sg10
I63
sg11
I1470
ssg12
(dp33
g5
I994
sg6
I100
sg7
I2
sg8
I53
sg9
I4
sg10
I3
sg11
I470
ssg14
(dp34
g5
I652
sg6
I98
sg7
I3
sg8
I31
sg9
I5
sg10
I5
sg11
I460
ssg16
(dp35
g5
I2400
sg6
I101
sg7
I2
sg8
I0
sg9
I3
sg10
I155
sg11
I2400
ssg18
(dp36
g5
I689
sg6
I100
sg7
I1
sg8
I23
sg9
I5
sg10
I1
sg11
I460
ssg20
(dp37
g5
I724
sg6
I98
sg7
I2
sg8
I27
sg9
I6
sg10
I5
sg11
I510
sssS'Danijel.csv'
p38
(dp39
g3
(dp40
g5
I1710
sg6
I41
sg7
I4
sg8
I0
sg9
I3
sg10
I89
sg11
I1710
ssg12
(dp41
g5
I2028
sg6
I46
sg7
I0
sg8
I86
sg9
I2
sg10
I7
sg11
I970
ssg14
(dp42
g5
I973
sg6
I42
sg7
I3
sg8
I40
sg9
I3
sg10
I2
sg11
I760
ssg16
(dp43
g5
I1170
sg6
I45
sg7
I1
sg8
I0
sg9
I2
sg10
I54
sg11
I1170
ssg18
(dp44
g5
I1000
sg6
I45
sg7
I1
sg8
I46
sg9
I2
sg10
I4
sg11
I740
ssg20
(dp45
g5
I1055
sg6
I44
sg7
I1
sg8
I51
sg9
I3
sg10
I3
sg11
I770
sss.(dp0
S'K_all3.csv'
p1
(dp2
S'none'
p3
(dp4
S'count'
p5
I410
sS'truepos'
p6
I34
sS'falseneg'
p7
I0
sS'correction'
p8
I0
sS'unknownyes'
p9
I11
sS'falsepos'
p10
I21
sS'unique'
p11
I410
ssS'three'
p12
(dp13
g5
I917
sg6
I37
sg7
I0
sg8
I36
sg9
I8
sg10
I4
sg11
I440
ssS'machine'
p14
(dp15
g5
I553
sg6
I35
sg7
I1
sg8
I24
sg9
I9
sg10
I2
sg11
I450
ssS'machine4'
p16
(dp17
g5
I570
sg6
I34
sg7
I2
sg8
I0
sg9
I9
sg10
I27
sg11
I570
ssS'machine3'
p18
(dp19
g5
I610
sg6
I35
sg7
I2
sg8
I24
sg9
I8
sg10
I2
sg11
I480
ssS'machine2'
p20
(dp21
g5
I619
sg6
I33
sg7
I2
sg8
I15
sg9
I10
sg10
I1
sg11
I510
sssS'Wahono.csv'
p22
(dp23
g3
(dp24
g5
I3350
sg6
I55
sg7
I4
sg8
I0
sg9
I3
sg10
I164
sg11
I3350
ssg12
(dp25
g5
I3152
sg6
I60
sg7
I1
sg8
I124
sg9
I1
sg10
I17
sg11
I1510
ssg14
(dp26
g5
I1791
sg6
I59
sg7
I1
sg8
I79
sg9
I2
sg10
I8
sg11
I1390
ssg16
(dp27
g5
I2280
sg6
I56
sg7
I4
sg8
I0
sg9
I2
sg10
I121
sg11
I2280
ssg18
(dp28
g5
I1746
sg6
I56
sg7
I2
sg8
I78
sg9
I4
sg10
I6
sg11
I1300
ssg20
(dp29
g5
I1666
sg6
I59
sg7
I0
sg8
I72
sg9
I3
sg10
I5
sg11
I1260
sssS'Hall.csv'
p30
(dp31
g3
(dp32
g5
I2050
sg6
I97
sg7
I6
sg8
I0
sg9
I3
sg10
I93
sg11
I2050
ssg12
(dp33
g5
I1032
sg6
I101
sg7
I1
sg8
I49
sg9
I4
sg10
I3
sg11
I490
ssg14
(dp34
g5
I812
sg6
I101
sg7
I1
sg8
I31
sg9
I4
sg10
I2
sg11
I580
ssg16
(dp35
g5
I1810
sg6
I95
sg7
I8
sg8
I0
sg9
I3
sg10
I76
sg11
I1810
ssg18
(dp36
g5
I714
sg6
I98
sg7
I4
sg8
I22
sg9
I4
sg10
I3
sg11
I480
ssg20
(dp37
g5
I631
sg6
I99
sg7
I2
sg8
I13
sg9
I5
sg10
I2
sg11
I440
sssS'Danijel.csv'
p38
(dp39
g3
(dp40
g5
I1330
sg6
I45
sg7
I1
sg8
I0
sg9
I2
sg10
I70
sg11
I1330
ssg12
(dp41
g5
I1847
sg6
I45
sg7
I0
sg8
I84
sg9
I3
sg10
I7
sg11
I880
ssg14
(dp42
g5
I918
sg6
I44
sg7
I1
sg8
I54
sg9
I3
sg10
I2
sg11
I700
ssg16
(dp43
g5
I1090
sg6
I43
sg7
I1
sg8
I0
sg9
I4
sg10
I45
sg11
I1090
ssg18
(dp44
g5
I1571
sg6
I45
sg7
I0
sg8
I76
sg9
I3
sg10
I9
sg11
I1170
ssg20
(dp45
g5
I985
sg6
I42
sg7
I2
sg8
I35
sg9
I4
sg10
I3
sg11
I760
sss.(dp0
S'K_all3.csv'
p1
(dp2
S'none'
p3
(dp4
S'count'
p5
I430
sS'truepos'
p6
I32
sS'falseneg'
p7
I1
sS'correction'
p8
I0
sS'unknownyes'
p9
I12
sS'falsepos'
p10
I15
sS'unique'
p11
I430
ssS'three'
p12
(dp13
g5
I990
sg6
I32
sg7
I0
sg8
I50
sg9
I13
sg10
I3
sg11
I470
ssS'machine'
p14
(dp15
g5
I602
sg6
I32
sg7
I4
sg8
I25
sg9
I9
sg10
I0
sg11
I510
ssS'machine4'
p16
(dp17
g5
I440
sg6
I32
sg7
I0
sg8
I0
sg9
I13
sg10
I21
sg11
I440
ssS'machine3'
p18
(dp19
g5
I679
sg6
I38
sg7
I1
sg8
I32
sg9
I6
sg10
I0
sg11
I520
ssS'machine2'
p20
(dp21
g5
I648
sg6
I36
sg7
I2
sg8
I30
sg9
I7
sg10
I1
sg11
I480
sssS'Wahono.csv'
p22
(dp23
g3
(dp24
g5
I2920
sg6
I58
sg7
I1
sg8
I0
sg9
I3
sg10
I141
sg11
I2920
ssg12
(dp25
g5
I2903
sg6
I60
sg7
I0
sg8
I118
sg9
I2
sg10
I12
sg11
I1390
ssg14
(dp26
g5
I1286
sg6
I52
sg7
I7
sg8
I55
sg9
I3
sg10
I3
sg11
I1010
ssg16
(dp27
g5
I2890
sg6
I58
sg7
I3
sg8
I0
sg9
I1
sg10
I144
sg11
I2890
ssg18
(dp28
g5
I1536
sg6
I59
sg7
I0
sg8
I64
sg9
I3
sg10
I3
sg11
I1150
ssg20
(dp29
g5
I1605
sg6
I58
sg7
I1
sg8
I65
sg9
I3
sg10
I9
sg11
I1210
sssS'Hall.csv'
p30
(dp31
g3
(dp32
g5
I1000
sg6
I97
sg7
I5
sg8
I0
sg9
I4
sg10
I45
sg11
I1000
ssg12
(dp33
g5
I1127
sg6
I101
sg7
I1
sg8
I46
sg9
I4
sg10
I3
sg11
I540
ssg14
(dp34
g5
I693
sg6
I100
sg7
I2
sg8
I28
sg9
I4
sg10
I2
sg11
I510
ssg16
(dp35
g5
I1280
sg6
I100
sg7
I4
sg8
I0
sg9
I2
sg10
I58
sg11
I1280
ssg18
(dp36
g5
I657
sg6
I100
sg7
I2
sg8
I19
sg9
I4
sg10
I0
sg11
I430
ssg20
(dp37
g5
I691
sg6
I100
sg7
I1
sg8
I20
sg9
I5
sg10
I5
sg11
I480
sssS'Danijel.csv'
p38
(dp39
g3
(dp40
g5
I2240
sg6
I44
sg7
I2
sg8
I0
sg9
I2
sg10
I108
sg11
I2240
ssg12
(dp41
g5
I1907
sg6
I45
sg7
I0
sg8
I86
sg9
I3
sg10
I7
sg11
I910
ssg14
(dp42
g5
I1170
sg6
I45
sg7
I0
sg8
I48
sg9
I3
sg10
I3
sg11
I920
ssg16
(dp43
g5
I1040
sg6
I44
sg7
I1
sg8
I0
sg9
I3
sg10
I59
sg11
I1040
ssg18
(dp44
g5
I962
sg6
I43
sg7
I3
sg8
I42
sg9
I2
sg10
I4
sg11
I730
ssg20
(dp45
g5
I1213
sg6
I44
sg7
I1
sg8
I51
sg9
I3
sg10
I7
sg11
I910
sss.(dp0
S'K_all3.csv'
p1
(dp2
S'none'
p3
(dp4
S'count'
p5
I580
sS'truepos'
p6
I36
sS'falseneg'
p7
I4
sS'correction'
p8
I0
sS'unknownyes'
p9
I5
sS'falsepos'
p10
I21
sS'unique'
p11
I580
ssS'three'
p12
(dp13
g5
I1070
sg6
I35
sg7
I0
sg8
I50
sg9
I10
sg10
I2
sg11
I510
ssS'machine'
p14
(dp15
g5
I512
sg6
I33
sg7
I3
sg8
I25
sg9
I9
sg10
I1
sg11
I410
ssS'machine4'
p16
(dp17
g5
I410
sg6
I29
sg7
I2
sg8
I0
sg9
I14
sg10
I22
sg11
I410
ssS'machine3'
p18
(dp19
g5
I657
sg6
I33
sg7
I3
sg8
I23
sg9
I9
sg10
I3
sg11
I550
ssS'machine2'
p20
(dp21
g5
I590
sg6
I32
sg7
I5
sg8
I25
sg9
I8
sg10
I5
sg11
I460
sssS'Wahono.csv'
p22
(dp23
g3
(dp24
g5
I2130
sg6
I58
sg7
I2
sg8
I0
sg9
I2
sg10
I94
sg11
I2130
ssg12
(dp25
g5
I3187
sg6
I60
sg7
I0
sg8
I143
sg9
I2
sg10
I14
sg11
I1520
ssg14
(dp26
g5
I1746
sg6
I58
sg7
I3
sg8
I68
sg9
I1
sg10
I3
sg11
I1370
ssg16
(dp27
g5
I3580
sg6
I58
sg7
I2
sg8
I0
sg9
I2
sg10
I172
sg11
I3580
ssg18
(dp28
g5
I1715
sg6
I59
sg7
I1
sg8
I67
sg9
I2
sg10
I5
sg11
I1290
ssg20
(dp29
g5
I1822
sg6
I59
sg7
I0
sg8
I81
sg9
I3
sg10
I7
sg11
I1360
sssS'Hall.csv'
p30
(dp31
g3
(dp32
g5
I1900
sg6
I100
sg7
I3
sg8
I0
sg9
I3
sg10
I101
sg11
I1900
ssg12
(dp33
g5
I1087
sg6
I101
sg7
I1
sg8
I45
sg9
I4
sg10
I6
sg11
I520
ssg14
(dp34
g5
I871
sg6
I100
sg7
I2
sg8
I51
sg9
I4
sg10
I2
sg11
I620
ssg16
(dp35
g5
I600
sg6
I98
sg7
I4
sg8
I0
sg9
I4
sg10
I19
sg11
I600
ssg18
(dp36
g5
I853
sg6
I99
sg7
I3
sg8
I38
sg9
I4
sg10
I5
sg11
I570
ssg20
(dp37
g5
I818
sg6
I100
sg7
I2
sg8
I29
sg9
I4
sg10
I7
sg11
I560
sssS'Danijel.csv'
p38
(dp39
g3
(dp40
g5
I990
sg6
I43
sg7
I2
sg8
I0
sg9
I3
sg10
I55
sg11
I990
ssg12
(dp41
g5
I1918
sg6
I44
sg7
I1
sg8
I77
sg9
I3
sg10
I4
sg11
I920
ssg14
(dp42
g5
I1046
sg6
I44
sg7
I1
sg8
I54
sg9
I3
sg10
I1
sg11
I810
ssg16
(dp43
g5
I1050
sg6
I43
sg7
I2
sg8
I0
sg9
I3
sg10
I51
sg11
I1050
ssg18
(dp44
g5
I943
sg6
I45
sg7
I0
sg8
I49
sg9
I3
sg10
I2
sg11
I690
ssg20
(dp45
g5
I1277
sg6
I43
sg7
I3
sg8
I49
sg9
I2
sg10
I6
sg11
I960
sss.(dp0
S'K_all3.csv'
p1
(dp2
S'none'
p3
(dp4
S'count'
p5
I430
sS'truepos'
p6
I32
sS'falseneg'
p7
I1
sS'correction'
p8
I0
sS'unknownyes'
p9
I12
sS'falsepos'
p10
I20
sS'unique'
p11
I430
ssS'three'
p12
(dp13
g5
I888
sg6
I33
sg7
I0
sg8
I47
sg9
I12
sg10
I5
sg11
I420
ssS'machine'
p14
(dp15
g5
I565
sg6
I34
sg7
I2
sg8
I25
sg9
I9
sg10
I0
sg11
I460
ssS'machine4'
p16
(dp17
g5
I410
sg6
I33
sg7
I3
sg8
I0
sg9
I9
sg10
I12
sg11
I410
ssS'machine3'
p18
(dp19
g5
I597
sg6
I32
sg7
I2
sg8
I17
sg9
I11
sg10
I1
sg11
I500
ssS'machine2'
p20
(dp21
g5
I530
sg6
I32
sg7
I0
sg8
I24
sg9
I13
sg10
I5
sg11
I410
sssS'Wahono.csv'
p22
(dp23
g3
(dp24
g5
I1480
sg6
I54
sg7
I2
sg8
I0
sg9
I6
sg10
I74
sg11
I1480
ssg12
(dp25
g5
I2806
sg6
I59
sg7
I0
sg8
I125
sg9
I3
sg10
I5
sg11
I1340
ssg14
(dp26
g5
I1807
sg6
I56
sg7
I4
sg8
I84
sg9
I2
sg10
I9
sg11
I1410
ssg16
(dp27
g5
I1650
sg6
I53
sg7
I4
sg8
I0
sg9
I5
sg10
I81
sg11
I1650
ssg18
(dp28
g5
I1939
sg6
I60
sg7
I0
sg8
I90
sg9
I2
sg10
I11
sg11
I1440
ssg20
(dp29
g5
I1905
sg6
I58
sg7
I1
sg8
I91
sg9
I3
sg10
I8
sg11
I1410
sssS'Hall.csv'
p30
(dp31
g3
(dp32
g5
I720
sg6
I98
sg7
I4
sg8
I0
sg9
I4
sg10
I30
sg11
I720
ssg12
(dp33
g5
I1076
sg6
I101
sg7
I1
sg8
I55
sg9
I4
sg10
I0
sg11
I510
ssg14
(dp34
g5
I613
sg6
I99
sg7
I2
sg8
I13
sg9
I5
sg10
I4
sg11
I440
ssg16
(dp35
g5
I1150
sg6
I98
sg7
I3
sg8
I0
sg9
I5
sg10
I57
sg11
I1150
ssg18
(dp36
g5
I774
sg6
I102
sg7
I0
sg8
I23
sg9
I4
sg10
I4
sg11
I530
ssg20
(dp37
g5
I627
sg6
I101
sg7
I1
sg8
I18
sg9
I4
sg10
I3
sg11
I440
sssS'Danijel.csv'
p38
(dp39
g3
(dp40
g5
I1160
sg6
I41
sg7
I5
sg8
I0
sg9
I2
sg10
I41
sg11
I1160
ssg12
(dp41
g5
I1791
sg6
I45
sg7
I0
sg8
I70
sg9
I3
sg10
I3
sg11
I860
ssg14
(dp42
g5
I754
sg6
I43
sg7
I2
sg8
I35
sg9
I3
sg10
I1
sg11
I610
ssg16
(dp43
g5
I920
sg6
I44
sg7
I1
sg8
I0
sg9
I3
sg10
I39
sg11
I920
ssg18
(dp44
g5
I987
sg6
I42
sg7
I2
sg8
I34
sg9
I4
sg10
I5
sg11
I750
ssg20
(dp45
g5
I873
sg6
I44
sg7
I1
sg8
I33
sg9
I3
sg10
I5
sg11
I660
sss.(dp0
S'K_all3.csv'
p1
(dp2
S'none'
p3
(dp4
S'count'
p5
I490
sS'truepos'
p6
I30
sS'falseneg'
p7
I4
sS'correction'
p8
I0
sS'unknownyes'
p9
I11
sS'falsepos'
p10
I28
sS'unique'
p11
I490
ssS'three'
p12
(dp13
g5
I1011
sg6
I33
sg7
I0
sg8
I50
sg9
I12
sg10
I3
sg11
I480
ssS'machine'
p14
(dp15
g5
I586
sg6
I29
sg7
I6
sg8
I21
sg9
I10
sg10
I3
sg11
I510
ssS'machine4'
p16
(dp17
g5
I500
sg6
I37
sg7
I2
sg8
I0
sg9
I6
sg10
I20
sg11
I500
ssS'machine3'
p18
(dp19
g5
I615
sg6
I37
sg7
I1
sg8
I27
sg9
I7
sg10
I2
sg11
I470
ssS'machine2'
p20
(dp21
g5
I579
sg6
I33
sg7
I1
sg8
I19
sg9
I11
sg10
I2
sg11
I460
sssS'Wahono.csv'
p22
(dp23
g3
(dp24
g5
I1490
sg6
I58
sg7
I3
sg8
I0
sg9
I1
sg10
I70
sg11
I1490
ssg12
(dp25
g5
I2685
sg6
I56
sg7
I3
sg8
I121
sg9
I3
sg10
I6
sg11
I1280
ssg14
(dp26
g5
I1491
sg6
I59
sg7
I1
sg8
I67
sg9
I2
sg10
I3
sg11
I1160
ssg16
(dp27
g5
I2110
sg6
I57
sg7
I2
sg8
I0
sg9
I3
sg10
I99
sg11
I2110
ssg18
(dp28
g5
I1485
sg6
I57
sg7
I2
sg8
I54
sg9
I3
sg10
I2
sg11
I1120
ssg20
(dp29
g5
I1650
sg6
I60
sg7
I0
sg8
I62
sg9
I2
sg10
I6
sg11
I1260
sssS'Hall.csv'
p30
(dp31
g3
(dp32
g5
I1550
sg6
I99
sg7
I5
sg8
I0
sg9
I2
sg10
I62
sg11
I1550
ssg12
(dp33
g5
I1000
sg6
I101
sg7
I1
sg8
I39
sg9
I4
sg10
I1
sg11
I480
ssg14
(dp34
g5
I532
sg6
I97
sg7
I2
sg8
I23
sg9
I7
sg10
I2
sg11
I380
ssg16
(dp35
g5
I730
sg6
I95
sg7
I7
sg8
I0
sg9
I4
sg10
I27
sg11
I730
ssg18
(dp36
g5
I635
sg6
I100
sg7
I1
sg8
I17
sg9
I5
sg10
I2
sg11
I430
ssg20
(dp37
g5
I697
sg6
I102
sg7
I0
sg8
I25
sg9
I4
sg10
I0
sg11
I480
sssS'Danijel.csv'
p38
(dp39
g3
(dp40
g5
I1410
sg6
I41
sg7
I4
sg8
I0
sg9
I3
sg10
I80
sg11
I1410
ssg12
(dp41
g5
I1867
sg6
I46
sg7
I0
sg8
I86
sg9
I2
sg10
I5
sg11
I890
ssg14
(dp42
g5
I772
sg6
I40
sg7
I4
sg8
I33
sg9
I4
sg10
I2
sg11
I610
ssg16
(dp43
g5
I1140
sg6
I42
sg7
I4
sg8
I0
sg9
I2
sg10
I51
sg11
I1140
ssg18
(dp44
g5
I998
sg6
I45
sg7
I0
sg8
I40
sg9
I3
sg10
I1
sg11
I750
ssg20
(dp45
g5
I1102
sg6
I45
sg7
I0
sg8
I38
sg9
I3
sg10
I5
sg11
I830
sss.(dp0
S'K_all3.csv'
p1
(dp2
S'none'
p3
(dp4
S'count'
p5
I450
sS'truepos'
p6
I34
sS'falseneg'
p7
I1
sS'correction'
p8
I0
sS'unknownyes'
p9
I10
sS'falsepos'
p10
I19
sS'unique'
p11
I450
ssS'three'
p12
(dp13
g5
I1024
sg6
I35
sg7
I0
sg8
I43
sg9
I10
sg10
I3
sg11
I490
ssS'machine'
p14
(dp15
g5
I628
sg6
I33
sg7
I2
sg8
I21
sg9
I10
sg10
I7
sg11
I510
ssS'machine4'
p16
(dp17
g5
I520
sg6
I35
sg7
I4
sg8
I0
sg9
I6
sg10
I16
sg11
I520
ssS'machine3'
p18
(dp19
g5
I601
sg6
I32
sg7
I4
sg8
I25
sg9
I9
sg10
I5
sg11
I470
ssS'machine2'
p20
(dp21
g5
I537
sg6
I32
sg7
I2
sg8
I26
sg9
I11
sg10
I4
sg11
I410
sssS'Wahono.csv'
p22
(dp23
g3
(dp24
g5
I2130
sg6
I58
sg7
I2
sg8
I0
sg9
I2
sg10
I100
sg11
I2130
ssg12
(dp25
g5
I2486
sg6
I58
sg7
I0
sg8
I103
sg9
I4
sg10
I5
sg11
I1190
ssg14
(dp26
g5
I1441
sg6
I59
sg7
I0
sg8
I72
sg9
I3
sg10
I3
sg11
I1110
ssg16
(dp27
g5
I1890
sg6
I53
sg7
I5
sg8
I0
sg9
I4
sg10
I111
sg11
I1890
ssg18
(dp28
g5
I1823
sg6
I58
sg7
I1
sg8
I80
sg9
I3
sg10
I5
sg11
I1370
ssg20
(dp29
g5
I1843
sg6
I58
sg7
I2
sg8
I85
sg9
I2
sg10
I2
sg11
I1370
sssS'Hall.csv'
p30
(dp31
g3
(dp32
g5
I1220
sg6
I95
sg7
I7
sg8
I0
sg9
I4
sg10
I57
sg11
I1220
ssg12
(dp33
g5
I1216
sg6
I102
sg7
I0
sg8
I53
sg9
I4
sg10
I5
sg11
I580
ssg14
(dp34
g5
I801
sg6
I96
sg7
I6
sg8
I40
sg9
I4
sg10
I3
sg11
I570
ssg16
(dp35
g5
I780
sg6
I96
sg7
I6
sg8
I0
sg9
I4
sg10
I31
sg11
I780
ssg18
(dp36
g5
I771
sg6
I99
sg7
I3
sg8
I19
sg9
I4
sg10
I1
sg11
I530
ssg20
(dp37
g5
I889
sg6
I102
sg7
I1
sg8
I30
sg9
I3
sg10
I5
sg11
I610
sssS'Danijel.csv'
p38
(dp39
g3
(dp40
g5
I1210
sg6
I39
sg7
I4
sg8
I0
sg9
I5
sg10
I60
sg11
I1210
ssg12
(dp41
g5
I1812
sg6
I44
sg7
I2
sg8
I71
sg9
I2
sg10
I6
sg11
I870
ssg14
(dp42
g5
I1150
sg6
I43
sg7
I3
sg8
I56
sg9
I2
sg10
I2
sg11
I910
ssg16
(dp43
g5
I760
sg6
I43
sg7
I2
sg8
I0
sg9
I3
sg10
I33
sg11
I760
ssg18
(dp44
g5
I1216
sg6
I44
sg7
I2
sg8
I53
sg9
I2
sg10
I7
sg11
I910
ssg20
(dp45
g5
I1125
sg6
I45
sg7
I1
sg8
I36
sg9
I2
sg10
I6
sg11
I860
sss.(dp0
S'K_all3.csv'
p1
(dp2
S'none'
p3
(dp4
S'count'
p5
I430
sS'truepos'
p6
I29
sS'falseneg'
p7
I3
sS'correction'
p8
I0
sS'unknownyes'
p9
I13
sS'falsepos'
p10
I15
sS'unique'
p11
I430
ssS'three'
p12
(dp13
g5
I1112
sg6
I37
sg7
I0
sg8
I51
sg9
I8
sg10
I1
sg11
I530
ssS'machine'
p14
(dp15
g5
I562
sg6
I31
sg7
I0
sg8
I26
sg9
I14
sg10
I2
sg11
I450
ssS'machine4'
p16
(dp17
g5
I460
sg6
I31
sg7
I2
sg8
I0
sg9
I12
sg10
I17
sg11
I460
ssS'machine3'
p18
(dp19
g5
I669
sg6
I37
sg7
I1
sg8
I32
sg9
I7
sg10
I1
sg11
I530
ssS'machine2'
p20
(dp21
g5
I606
sg6
I38
sg7
I0
sg8
I25
sg9
I7
sg10
I1
sg11
I460
sssS'Wahono.csv'
p22
(dp23
g3
(dp24
g5
I2130
sg6
I54
sg7
I5
sg8
I0
sg9
I3
sg10
I109
sg11
I2130
ssg12
(dp25
g5
I2743
sg6
I59
sg7
I0
sg8
I120
sg9
I3
sg10
I8
sg11
I1310
ssg14
(dp26
g5
I1746
sg6
I57
sg7
I4
sg8
I80
sg9
I1
sg10
I8
sg11
I1360
ssg16
(dp27
g5
I3060
sg6
I59
sg7
I3
sg8
I0
sg9
I0
sg10
I160
sg11
I3060
ssg18
(dp28
g5
I1360
sg6
I59
sg7
I0
sg8
I37
sg9
I3
sg10
I1
sg11
I1040
ssg20
(dp29
g5
I1749
sg6
I59
sg7
I0
sg8
I63
sg9
I3
sg10
I7
sg11
I1350
sssS'Hall.csv'
p30
(dp31
g3
(dp32
g5
I1380
sg6
I100
sg7
I3
sg8
I0
sg9
I3
sg10
I63
sg11
I1380
ssg12
(dp33
g5
I1214
sg6
I100
sg7
I2
sg8
I51
sg9
I4
sg10
I4
sg11
I580
ssg14
(dp34
g5
I652
sg6
I96
sg7
I3
sg8
I25
sg9
I7
sg10
I3
sg11
I460
ssg16
(dp35
g5
I850
sg6
I95
sg7
I8
sg8
I0
sg9
I3
sg10
I32
sg11
I850
ssg18
(dp36
g5
I633
sg6
I98
sg7
I3
sg8
I25
sg9
I5
sg10
I0
sg11
I410
ssg20
(dp37
g5
I653
sg6
I100
sg7
I1
sg8
I20
sg9
I5
sg10
I2
sg11
I460
sssS'Danijel.csv'
p38
(dp39
g3
(dp40
g5
I990
sg6
I40
sg7
I2
sg8
I0
sg9
I6
sg10
I37
sg11
I990
ssg12
(dp41
g5
I1903
sg6
I45
sg7
I1
sg8
I82
sg9
I2
sg10
I7
sg11
I910
ssg14
(dp42
g5
I1029
sg6
I43
sg7
I2
sg8
I46
sg9
I3
sg10
I2
sg11
I810
ssg16
(dp43
g5
I2160
sg6
I44
sg7
I1
sg8
I0
sg9
I3
sg10
I101
sg11
I2160
ssg18
(dp44
g5
I1180
sg6
I44
sg7
I1
sg8
I67
sg9
I3
sg10
I4
sg11
I860
ssg20
(dp45
g5
I1010
sg6
I44
sg7
I1
sg8
I41
sg9
I3
sg10
I5
sg11
I760
sss.(dp0
S'K_all3.csv'
p1
(dp2
S'none'
p3
(dp4
S'count'
p5
I440
sS'truepos'
p6
I34
sS'falseneg'
p7
I0
sS'correction'
p8
I0
sS'unknownyes'
p9
I11
sS'falsepos'
p10
I8
sS'unique'
p11
I440
ssS'three'
p12
(dp13
g5
I984
sg6
I38
sg7
I0
sg8
I24
sg9
I7
sg10
I0
sg11
I480
ssS'machine'
p14
(dp15
g5
I489
sg6
I34
sg7
I0
sg8
I10
sg9
I11
sg10
I2
sg11
I410
ssS'machine4'
p16
(dp17
g5
I510
sg6
I37
sg7
I2
sg8
I0
sg9
I6
sg10
I8
sg11
I510
ssS'machine3'
p18
(dp19
g5
I607
sg6
I37
sg7
I0
sg8
I12
sg9
I8
sg10
I1
sg11
I500
ssS'machine2'
p20
(dp21
g5
I535
sg6
I31
sg7
I0
sg8
I10
sg9
I14
sg10
I1
sg11
I440
sssS'Wahono.csv'
p22
(dp23
g3
(dp24
g5
I1360
sg6
I59
sg7
I0
sg8
I0
sg9
I3
sg10
I17
sg11
I1360
ssg12
(dp25
g5
I2370
sg6
I59
sg7
I0
sg8
I49
sg9
I3
sg10
I2
sg11
I1160
ssg14
(dp26
g5
I898
sg6
I54
sg7
I1
sg8
I22
sg9
I7
sg10
I1
sg11
I710
ssg16
(dp27
g5
I1240
sg6
I58
sg7
I0
sg8
I0
sg9
I4
sg10
I31
sg11
I1240
ssg18
(dp28
g5
I1476
sg6
I59
sg7
I0
sg8
I26
sg9
I3
sg10
I0
sg11
I1160
ssg20
(dp29
g5
I1429
sg6
I58
sg7
I1
sg8
I23
sg9
I3
sg10
I1
sg11
I1120
sssS'Hall.csv'
p30
(dp31
g3
(dp32
g5
I430
sg6
I99
sg7
I1
sg8
I0
sg9
I6
sg10
I5
sg11
I430
ssg12
(dp33
g5
I920
sg6
I102
sg7
I0
sg8
I20
sg9
I4
sg10
I0
sg11
I450
ssg14
(dp34
g5
I701
sg6
I102
sg7
I0
sg8
I19
sg9
I4
sg10
I2
sg11
I510
ssg16
(dp35
g5
I650
sg6
I101
sg7
I1
sg8
I0
sg9
I4
sg10
I16
sg11
I650
ssg18
(dp36
g5
I645
sg6
I101
sg7
I1
sg8
I10
sg9
I4
sg10
I0
sg11
I440
ssg20
(dp37
g5
I744
sg6
I102
sg7
I0
sg8
I5
sg9
I4
sg10
I0
sg11
I530
sssS'Danijel.csv'
p38
(dp39
g3
(dp40
g5
I800
sg6
I45
sg7
I0
sg8
I0
sg9
I3
sg10
I9
sg11
I800
ssg12
(dp41
g5
I1580
sg6
I45
sg7
I1
sg8
I40
sg9
I2
sg10
I1
sg11
I770
ssg14
(dp42
g5
I831
sg6
I42
sg7
I2
sg8
I20
sg9
I4
sg10
I1
sg11
I660
ssg16
(dp43
g5
I1060
sg6
I46
sg7
I0
sg8
I0
sg9
I2
sg10
I22
sg11
I1060
ssg18
(dp44
g5
I1068
sg6
I43
sg7
I2
sg8
I23
sg9
I3
sg10
I2
sg11
I830
ssg20
(dp45
g5
I1106
sg6
I45
sg7
I0
sg8
I12
sg9
I3
sg10
I1
sg11
I880
sss.(dp0
S'K_all3.csv'
p1
(dp2
S'none'
p3
(dp4
S'count'
p5
I420
sS'truepos'
p6
I33
sS'falseneg'
p7
I0
sS'correction'
p8
I0
sS'unknownyes'
p9
I12
sS'falsepos'
p10
I11
sS'unique'
p11
I420
ssS'three'
p12
(dp13
g5
I934
sg6
I35
sg7
I0
sg8
I14
sg9
I10
sg10
I0
sg11
I460
ssS'machine'
p14
(dp15
g5
I548
sg6
I33
sg7
I0
sg8
I11
sg9
I12
sg10
I0
sg11
I470
ssS'machine4'
p16
(dp17
g5
I490
sg6
I34
sg7
I1
sg8
I0
sg9
I10
sg10
I4
sg11
I490
ssS'machine3'
p18
(dp19
g5
I530
sg6
I34
sg7
I1
sg8
I10
sg9
I10
sg10
I0
sg11
I450
ssS'machine2'
p20
(dp21
g5
I558
sg6
I34
sg7
I0
sg8
I11
sg9
I11
sg10
I0
sg11
I460
sssS'Wahono.csv'
p22
(dp23
g3
(dp24
g5
I1380
sg6
I56
sg7
I1
sg8
I0
sg9
I5
sg10
I30
sg11
I1380
ssg12
(dp25
g5
I2461
sg6
I59
sg7
I0
sg8
I41
sg9
I3
sg10
I0
sg11
I1210
ssg14
(dp26
g5
I1466
sg6
I58
sg7
I1
sg8
I19
sg9
I3
sg10
I0
sg11
I1180
ssg16
(dp27
g5
I1420
sg6
I60
sg7
I1
sg8
I0
sg9
I1
sg10
I17
sg11
I1420
ssg18
(dp28
g5
I1364
sg6
I60
sg7
I0
sg8
I25
sg9
I2
sg10
I1
sg11
I1070
ssg20
(dp29
g5
I1494
sg6
I58
sg7
I1
sg8
I26
sg9
I3
sg10
I1
sg11
I1180
sssS'Hall.csv'
p30
(dp31
g3
(dp32
g5
I690
sg6
I102
sg7
I1
sg8
I0
sg9
I3
sg10
I12
sg11
I690
ssg12
(dp33
g5
I958
sg6
I102
sg7
I0
sg8
I18
sg9
I4
sg10
I0
sg11
I470
ssg14
(dp34
g5
I671
sg6
I101
sg7
I1
sg8
I5
sg9
I4
sg10
I0
sg11
I480
ssg16
(dp35
g5
I740
sg6
I100
sg7
I2
sg8
I0
sg9
I4
sg10
I11
sg11
I740
ssg18
(dp36
g5
I696
sg6
I102
sg7
I0
sg8
I16
sg9
I4
sg10
I2
sg11
I470
ssg20
(dp37
g5
I756
sg6
I102
sg7
I0
sg8
I7
sg9
I4
sg10
I0
sg11
I540
sssS'Danijel.csv'
p38
(dp39
g3
(dp40
g5
I810
sg6
I46
sg7
I0
sg8
I0
sg9
I2
sg10
I18
sg11
I810
ssg12
(dp41
g5
I1536
sg6
I45
sg7
I0
sg8
I36
sg9
I3
sg10
I0
sg11
I750
ssg14
(dp42
g5
I892
sg6
I44
sg7
I1
sg8
I8
sg9
I3
sg10
I0
sg11
I710
ssg16
(dp43
g5
I800
sg6
I45
sg7
I1
sg8
I0
sg9
I2
sg10
I13
sg11
I800
ssg18
(dp44
g5
I1018
sg6
I43
sg7
I2
sg8
I14
sg9
I3
sg10
I0
sg11
I810
ssg20
(dp45
g5
I1032
sg6
I45
sg7
I0
sg8
I15
sg9
I3
sg10
I2
sg11
I810
sss.(dp0
S'K_all3.csv'
p1
(dp2
S'none'
p3
(dp4
S'count'
p5
I400
sS'truepos'
p6
I31
sS'falseneg'
p7
I2
sS'correction'
p8
I0
sS'unknownyes'
p9
I12
sS'falsepos'
p10
I11
sS'unique'
p11
I400
ssS'three'
p12
(dp13
g5
I1039
sg6
I36
sg7
I0
sg8
I19
sg9
I9
sg10
I0
sg11
I510
ssS'machine'
p14
(dp15
g5
I549
sg6
I34
sg7
I0
sg8
I10
sg9
I11
sg10
I0
sg11
I460
ssS'machine4'
p16
(dp17
g5
I450
sg6
I30
sg7
I1
sg8
I0
sg9
I14
sg10
I8
sg11
I450
ssS'machine3'
p18
(dp19
g5
I575
sg6
I38
sg7
I1
sg8
I12
sg9
I6
sg10
I1
sg11
I470
ssS'machine2'
p20
(dp21
g5
I571
sg6
I33
sg7
I2
sg8
I13
sg9
I10
sg10
I1
sg11
I460
sssS'Wahono.csv'
p22
(dp23
g3
(dp24
g5
I1240
sg6
I60
sg7
I1
sg8
I0
sg9
I1
sg10
I22
sg11
I1240
ssg12
(dp25
g5
I2308
sg6
I59
sg7
I0
sg8
I47
sg9
I3
sg10
I2
sg11
I1130
ssg14
(dp26
g5
I1501
sg6
I59
sg7
I0
sg8
I20
sg9
I3
sg10
I2
sg11
I1200
ssg16
(dp27
g5
I1770
sg6
I59
sg7
I0
sg8
I0
sg9
I3
sg10
I27
sg11
I1770
ssg18
(dp28
g5
I1444
sg6
I59
sg7
I0
sg8
I24
sg9
I3
sg10
I1
sg11
I1130
ssg20
(dp29
g5
I1502
sg6
I60
sg7
I0
sg8
I27
sg9
I2
sg10
I0
sg11
I1170
sssS'Hall.csv'
p30
(dp31
g3
(dp32
g5
I560
sg6
I101
sg7
I0
sg8
I0
sg9
I5
sg10
I10
sg11
I560
ssg12
(dp33
g5
I1018
sg6
I102
sg7
I0
sg8
I18
sg9
I4
sg10
I0
sg11
I500
ssg14
(dp34
g5
I611
sg6
I100
sg7
I1
sg8
I14
sg9
I5
sg10
I0
sg11
I440
ssg16
(dp35
g5
I460
sg6
I101
sg7
I0
sg8
I0
sg9
I5
sg10
I6
sg11
I460
ssg18
(dp36
g5
I608
sg6
I100
sg7
I2
sg8
I14
sg9
I4
sg10
I1
sg11
I410
ssg20
(dp37
g5
I681
sg6
I101
sg7
I1
sg8
I10
sg9
I4
sg10
I2
sg11
I480
sssS'Danijel.csv'
p38
(dp39
g3
(dp40
g5
I880
sg6
I43
sg7
I2
sg8
I0
sg9
I3
sg10
I15
sg11
I880
ssg12
(dp41
g5
I1519
sg6
I45
sg7
I1
sg8
I19
sg9
I2
sg10
I1
sg11
I750
ssg14
(dp42
g5
I919
sg6
I45
sg7
I0
sg8
I15
sg9
I3
sg10
I0
sg11
I730
ssg16
(dp43
g5
I910
sg6
I44
sg7
I1
sg8
I0
sg9
I3
sg10
I13
sg11
I910
ssg18
(dp44
g5
I924
sg6
I43
sg7
I1
sg8
I12
sg9
I4
sg10
I0
sg11
I730
ssg20
(dp45
g5
I984
sg6
I45
sg7
I0
sg8
I8
sg9
I3
sg10
I0
sg11
I790
sss.(dp0
S'K_all3.csv'
p1
(dp2
S'none'
p3
(dp4
S'count'
p5
I410
sS'truepos'
p6
I35
sS'falseneg'
p7
I0
sS'correction'
p8
I0
sS'unknownyes'
p9
I10
sS'falsepos'
p10
I5
sS'unique'
p11
I410
ssS'three'
p12
(dp13
g5
I987
sg6
I37
sg7
I0
sg8
I7
sg9
I8
sg10
I0
sg11
I490
ssS'machine'
p14
(dp15
g5
I601
sg6
I37
sg7
I0
sg8
I10
sg9
I8
sg10
I0
sg11
I500
ssS'machine4'
p16
(dp17
g5
I460
sg6
I32
sg7
I0
sg8
I0
sg9
I13
sg10
I6
sg11
I460
ssS'machine3'
p18
(dp19
g5
I582
sg6
I38
sg7
I0
sg8
I14
sg9
I7
sg10
I0
sg11
I480
ssS'machine2'
p20
(dp21
g5
I563
sg6
I36
sg7
I0
sg8
I15
sg9
I9
sg10
I1
sg11
I460
sssS'Wahono.csv'
p22
(dp23
g3
(dp24
g5
I1410
sg6
I60
sg7
I0
sg8
I0
sg9
I2
sg10
I28
sg11
I1410
ssg12
(dp25
g5
I2530
sg6
I58
sg7
I1
sg8
I48
sg9
I3
sg10
I4
sg11
I1240
ssg14
(dp26
g5
I1544
sg6
I59
sg7
I0
sg8
I28
sg9
I3
sg10
I2
sg11
I1240
ssg16
(dp27
g5
I1220
sg6
I56
sg7
I2
sg8
I0
sg9
I4
sg10
I20
sg11
I1220
ssg18
(dp28
g5
I1410
sg6
I58
sg7
I1
sg8
I24
sg9
I3
sg10
I0
sg11
I1110
ssg20
(dp29
g5
I1571
sg6
I59
sg7
I0
sg8
I33
sg9
I3
sg10
I1
sg11
I1220
sssS'Hall.csv'
p30
(dp31
g3
(dp32
g5
I910
sg6
I101
sg7
I1
sg8
I0
sg9
I4
sg10
I15
sg11
I910
ssg12
(dp33
g5
I955
sg6
I102
sg7
I0
sg8
I15
sg9
I4
sg10
I1
sg11
I470
ssg14
(dp34
g5
I555
sg6
I100
sg7
I1
sg8
I9
sg9
I5
sg10
I1
sg11
I400
ssg16
(dp35
g5
I650
sg6
I99
sg7
I3
sg8
I0
sg9
I4
sg10
I9
sg11
I650
ssg18
(dp36
g5
I773
sg6
I102
sg7
I0
sg8
I13
sg9
I4
sg10
I2
sg11
I550
ssg20
(dp37
g5
I605
sg6
I100
sg7
I1
sg8
I2
sg9
I5
sg10
I0
sg11
I430
sssS'Danijel.csv'
p38
(dp39
g3
(dp40
g5
I890
sg6
I44
sg7
I2
sg8
I0
sg9
I2
sg10
I27
sg11
I890
ssg12
(dp41
g5
I1395
sg6
I45
sg7
I0
sg8
I34
sg9
I3
sg10
I1
sg11
I680
ssg14
(dp42
g5
I1012
sg6
I45
sg7
I0
sg8
I15
sg9
I3
sg10
I2
sg11
I810
ssg16
(dp43
g5
I790
sg6
I46
sg7
I0
sg8
I0
sg9
I2
sg10
I12
sg11
I790
ssg18
(dp44
g5
I953
sg6
I46
sg7
I0
sg8
I14
sg9
I2
sg10
I1
sg11
I750
ssg20
(dp45
g5
I963
sg6
I45
sg7
I0
sg8
I9
sg9
I3
sg10
I1
sg11
I760
sss.(dp0
S'K_all3.csv'
p1
(dp2
S'none'
p3
(dp4
S'count'
p5
I420
sS'truepos'
p6
I32
sS'falseneg'
p7
I1
sS'correction'
p8
I0
sS'unknownyes'
p9
I12
sS'falsepos'
p10
I9
sS'unique'
p11
I420
ssS'three'
p12
(dp13
g5
I1020
sg6
I38
sg7
I0
sg8
I20
sg9
I7
sg10
I0
sg11
I500
ssS'machine'
p14
(dp15
g5
I571
sg6
I38
sg7
I0
sg8
I17
sg9
I7
sg10
I1
sg11
I460
ssS'machine4'
p16
(dp17
g5
I450
sg6
I34
sg7
I3
sg8
I0
sg9
I8
sg10
I12
sg11
I450
ssS'machine3'
p18
(dp19
g5
I581
sg6
I32
sg7
I1
sg8
I9
sg9
I12
sg10
I0
sg11
I510
ssS'machine2'
p20
(dp21
g5
I561
sg6
I30
sg7
I0
sg8
I9
sg9
I15
sg10
I1
sg11
I460
sssS'Wahono.csv'
p22
(dp23
g3
(dp24
g5
I1190
sg6
I56
sg7
I3
sg8
I0
sg9
I3
sg10
I23
sg11
I1190
ssg12
(dp25
g5
I2697
sg6
I60
sg7
I0
sg8
I55
sg9
I2
sg10
I3
sg11
I1320
ssg14
(dp26
g5
I1492
sg6
I59
sg7
I0
sg8
I33
sg9
I3
sg10
I0
sg11
I1190
ssg16
(dp27
g5
I1270
sg6
I60
sg7
I0
sg8
I0
sg9
I2
sg10
I30
sg11
I1270
ssg18
(dp28
g5
I1491
sg6
I59
sg7
I0
sg8
I28
sg9
I3
sg10
I0
sg11
I1170
ssg20
(dp29
g5
I1467
sg6
I59
sg7
I0
sg8
I24
sg9
I3
sg10
I0
sg11
I1150
sssS'Hall.csv'
p30
(dp31
g3
(dp32
g5
I1210
sg6
I98
sg7
I5
sg8
I0
sg9
I3
sg10
I23
sg11
I1210
ssg12
(dp33
g5
I978
sg6
I102
sg7
I0
sg8
I18
sg9
I4
sg10
I0
sg11
I480
ssg14
(dp34
g5
I494
sg6
I98
sg7
I2
sg8
I10
sg9
I6
sg10
I1
sg11
I360
ssg16
(dp35
g5
I630
sg6
I99
sg7
I3
sg8
I0
sg9
I4
sg10
I6
sg11
I630
ssg18
(dp36
g5
I714
sg6
I102
sg7
I0
sg8
I12
sg9
I4
sg10
I0
sg11
I500
ssg20
(dp37
g5
I597
sg6
I101
sg7
I0
sg8
I9
sg9
I5
sg10
I1
sg11
I420
sssS'Danijel.csv'
p38
(dp39
g3
(dp40
g5
I780
sg6
I43
sg7
I2
sg8
I0
sg9
I3
sg10
I14
sg11
I780
ssg12
(dp41
g5
I1653
sg6
I45
sg7
I0
sg8
I33
sg9
I3
sg10
I0
sg11
I810
ssg14
(dp42
g5
I1076
sg6
I44
sg7
I2
sg8
I21
sg9
I2
sg10
I2
sg11
I860
ssg16
(dp43
g5
I900
sg6
I44
sg7
I0
sg8
I0
sg9
I4
sg10
I15
sg11
I900
ssg18
(dp44
g5
I906
sg6
I45
sg7
I0
sg8
I11
sg9
I3
sg10
I0
sg11
I720
ssg20
(dp45
g5
I961
sg6
I45
sg7
I0
sg8
I13
sg9
I3
sg10
I2
sg11
I760
sss.(dp0
S'K_all3.csv'
p1
(dp2
S'none'
p3
(dp4
S'count'
p5
I450
sS'truepos'
p6
I32
sS'falseneg'
p7
I0
sS'correction'
p8
I0
sS'unknownyes'
p9
I13
sS'falsepos'
p10
I7
sS'unique'
p11
I450
ssS'three'
p12
(dp13
g5
I1087
sg6
I38
sg7
I0
sg8
I27
sg9
I7
sg10
I0
sg11
I530
ssS'machine'
p14
(dp15
g5
I539
sg6
I34
sg7
I0
sg8
I9
sg9
I11
sg10
I1
sg11
I460
ssS'machine4'
p16
(dp17
g5
I420
sg6
I31
sg7
I1
sg8
I0
sg9
I13
sg10
I12
sg11
I420
ssS'machine3'
p18
(dp19
g5
I578
sg6
I36
sg7
I0
sg8
I15
sg9
I9
sg10
I0
sg11
I480
ssS'machine2'
p20
(dp21
g5
I483
sg6
I31
sg7
I0
sg8
I14
sg9
I14
sg10
I1
sg11
I410
sssS'Wahono.csv'
p22
(dp23
g3
(dp24
g5
I1570
sg6
I57
sg7
I3
sg8
I0
sg9
I2
sg10
I34
sg11
I1570
ssg12
(dp25
g5
I2464
sg6
I59
sg7
I0
sg8
I43
sg9
I3
sg10
I2
sg11
I1210
ssg14
(dp26
g5
I883
sg6
I58
sg7
I0
sg8
I18
sg9
I4
sg10
I0
sg11
I710
ssg16
(dp27
g5
I1130
sg6
I57
sg7
I1
sg8
I0
sg9
I4
sg10
I25
sg11
I1130
ssg18
(dp28
g5
I1404
sg6
I59
sg7
I0
sg8
I16
sg9
I3
sg10
I2
sg11
I1110
ssg20
(dp29
g5
I1607
sg6
I60
sg7
I0
sg8
I29
sg9
I2
sg10
I2
sg11
I1260
sssS'Hall.csv'
p30
(dp31
g3
(dp32
g5
I780
sg6
I100
sg7
I2
sg8
I0
sg9
I4
sg10
I8
sg11
I780
ssg12
(dp33
g5
I958
sg6
I101
sg7
I0
sg8
I18
sg9
I5
sg10
I1
sg11
I470
ssg14
(dp34
g5
I681
sg6
I101
sg7
I1
sg8
I18
sg9
I4
sg10
I1
sg11
I490
ssg16
(dp35
g5
I650
sg6
I101
sg7
I1
sg8
I0
sg9
I4
sg10
I13
sg11
I650
ssg18
(dp36
g5
I648
sg6
I102
sg7
I0
sg8
I10
sg9
I4
sg10
I0
sg11
I450
ssg20
(dp37
g5
I663
sg6
I100
sg7
I2
sg8
I14
sg9
I4
sg10
I0
sg11
I460
sssS'Danijel.csv'
p38
(dp39
g3
(dp40
g5
I810
sg6
I43
sg7
I2
sg8
I0
sg9
I3
sg10
I18
sg11
I810
ssg12
(dp41
g5
I1515
sg6
I45
sg7
I0
sg8
I34
sg9
I3
sg10
I1
sg11
I740
ssg14
(dp42
g5
I906
sg6
I44
sg7
I1
sg8
I22
sg9
I3
sg10
I0
sg11
I720
ssg16
(dp43
g5
I1450
sg6
I46
sg7
I0
sg8
I0
sg9
I2
sg10
I23
sg11
I1450
ssg18
(dp44
g5
I968
sg6
I45
sg7
I0
sg8
I18
sg9
I3
sg10
I0
sg11
I760
ssg20
(dp45
g5
I978
sg6
I45
sg7
I0
sg8
I12
sg9
I3
sg10
I0
sg11
I770
sss.(dp0
S'K_all3.csv'
p1
(dp2
S'none'
p3
(dp4
S'count'
p5
I460
sS'truepos'
p6
I36
sS'falseneg'
p7
I1
sS'correction'
p8
I0
sS'unknownyes'
p9
I8
sS'falsepos'
p10
I10
sS'unique'
p11
I460
ssS'three'
p12
(dp13
g5
I930
sg6
I38
sg7
I0
sg8
I10
sg9
I7
sg10
I0
sg11
I460
ssS'machine'
p14
(dp15
g5
I590
sg6
I34
sg7
I1
sg8
I11
sg9
I10
sg10
I0
sg11
I510
ssS'machine4'
p16
(dp17
g5
I450
sg6
I36
sg7
I0
sg8
I0
sg9
I9
sg10
I2
sg11
I450
ssS'machine3'
p18
(dp19
g5
I651
sg6
I37
sg7
I1
sg8
I16
sg9
I7
sg10
I0
sg11
I550
ssS'machine2'
p20
(dp21
g5
I484
sg6
I30
sg7
I1
sg8
I9
sg9
I14
sg10
I2
sg11
I410
sssS'Wahono.csv'
p22
(dp23
g3
(dp24
g5
I1330
sg6
I59
sg7
I1
sg8
I0
sg9
I2
sg10
I25
sg11
I1330
ssg12
(dp25
g5
I2333
sg6
I59
sg7
I0
sg8
I33
sg9
I3
sg10
I1
sg11
I1150
ssg14
(dp26
g5
I1541
sg6
I59
sg7
I0
sg8
I33
sg9
I3
sg10
I0
sg11
I1220
ssg16
(dp27
g5
I1580
sg6
I59
sg7
I1
sg8
I0
sg9
I2
sg10
I25
sg11
I1580
ssg18
(dp28
g5
I1512
sg6
I59
sg7
I0
sg8
I30
sg9
I3
sg10
I0
sg11
I1180
ssg20
(dp29
g5
I1532
sg6
I60
sg7
I0
sg8
I35
sg9
I2
sg10
I2
sg11
I1190
sssS'Hall.csv'
p30
(dp31
g3
(dp32
g5
I670
sg6
I99
sg7
I3
sg8
I0
sg9
I4
sg10
I11
sg11
I670
ssg12
(dp33
g5
I958
sg6
I102
sg7
I0
sg8
I18
sg9
I4
sg10
I0
sg11
I470
ssg14
(dp34
g5
I623
sg6
I101
sg7
I0
sg8
I12
sg9
I5
sg10
I1
sg11
I450
ssg16
(dp35
g5
I630
sg6
I101
sg7
I1
sg8
I0
sg9
I4
sg10
I14
sg11
I630
ssg18
(dp36
g5
I661
sg6
I101
sg7
I0
sg8
I7
sg9
I5
sg10
I0
sg11
I460
ssg20
(dp37
g5
I634
sg6
I102
sg7
I0
sg8
I4
sg9
I4
sg10
I0
sg11
I460
sssS'Danijel.csv'
p38
(dp39
g3
(dp40
g5
I810
sg6
I43
sg7
I2
sg8
I0
sg9
I3
sg10
I11
sg11
I810
ssg12
(dp41
g5
I1466
sg6
I45
sg7
I0
sg8
I26
sg9
I3
sg10
I0
sg11
I720
ssg14
(dp42
g5
I882
sg6
I45
sg7
I0
sg8
I18
sg9
I3
sg10
I0
sg11
I710
ssg16
(dp43
g5
I1170
sg6
I45
sg7
I0
sg8
I0
sg9
I3
sg10
I26
sg11
I1170
ssg18
(dp44
g5
I993
sg6
I45
sg7
I0
sg8
I15
sg9
I3
sg10
I1
sg11
I780
ssg20
(dp45
g5
I979
sg6
I44
sg7
I1
sg8
I7
sg9
I3
sg10
I0
sg11
I790
sss.(dp0
S'K_all3.csv'
p1
(dp2
S'none'
p3
(dp4
S'count'
p5
I450
sS'truepos'
p6
I31
sS'falseneg'
p7
I2
sS'correction'
p8
I0
sS'unknownyes'
p9
I12
sS'falsepos'
p10
I8
sS'unique'
p11
I450
ssS'three'
p12
(dp13
g5
I997
sg6
I33
sg7
I0
sg8
I17
sg9
I12
sg10
I1
sg11
I490
ssS'machine'
p14
(dp15
g5
I544
sg6
I34
sg7
I0
sg8
I13
sg9
I11
sg10
I0
sg11
I460
ssS'machine4'
p16
(dp17
g5
I460
sg6
I31
sg7
I2
sg8
I0
sg9
I12
sg10
I9
sg11
I460
ssS'machine3'
p18
(dp19
g5
I596
sg6
I33
sg7
I1
sg8
I10
sg9
I11
sg10
I1
sg11
I500
ssS'machine2'
p20
(dp21
g5
I545
sg6
I38
sg7
I0
sg8
I6
sg9
I7
sg10
I0
sg11
I450
sssS'Wahono.csv'
p22
(dp23
g3
(dp24
g5
I1370
sg6
I60
sg7
I0
sg8
I0
sg9
I2
sg10
I20
sg11
I1370
ssg12
(dp25
g5
I2385
sg6
I59
sg7
I0
sg8
I44
sg9
I3
sg10
I2
sg11
I1170
ssg14
(dp26
g5
I1590
sg6
I60
sg7
I0
sg8
I29
sg9
I2
sg10
I2
sg11
I1260
ssg16
(dp27
g5
I1410
sg6
I57
sg7
I3
sg8
I0
sg9
I2
sg10
I24
sg11
I1410
ssg18
(dp28
g5
I1316
sg6
I58
sg7
I1
sg8
I24
sg9
I3
sg10
I1
sg11
I1030
ssg20
(dp29
g5
I1649
sg6
I59
sg7
I0
sg8
I27
sg9
I3
sg10
I1
sg11
I1300
sssS'Hall.csv'
p30
(dp31
g3
(dp32
g5
I840
sg6
I100
sg7
I2
sg8
I0
sg9
I4
sg10
I11
sg11
I840
ssg12
(dp33
g5
I1042
sg6
I102
sg7
I0
sg8
I22
sg9
I4
sg10
I0
sg11
I510
ssg14
(dp34
g5
I592
sg6
I98
sg7
I2
sg8
I10
sg9
I6
sg10
I1
sg11
I420
ssg16
(dp35
g5
I600
sg6
I100
sg7
I2
sg8
I0
sg9
I4
sg10
I12
sg11
I600
ssg18
(dp36
g5
I668
sg6
I102
sg7
I0
sg8
I11
sg9
I4
sg10
I0
sg11
I460
ssg20
(dp37
g5
I799
sg6
I102
sg7
I0
sg8
I14
sg9
I4
sg10
I1
sg11
I560
sssS'Danijel.csv'
p38
(dp39
g3
(dp40
g5
I1050
sg6
I43
sg7
I3
sg8
I0
sg9
I2
sg10
I23
sg11
I1050
ssg12
(dp41
g5
I1498
sg6
I45
sg7
I0
sg8
I38
sg9
I3
sg10
I1
sg11
I730
ssg14
(dp42
g5
I905
sg6
I46
sg7
I0
sg8
I9
sg9
I2
sg10
I1
sg11
I720
ssg16
(dp43
g5
I800
sg6
I44
sg7
I0
sg8
I0
sg9
I4
sg10
I17
sg11
I800
ssg18
(dp44
g5
I933
sg6
I45
sg7
I0
sg8
I15
sg9
I3
sg10
I1
sg11
I730
ssg20
(dp45
g5
I1011
sg6
I45
sg7
I0
sg8
I13
sg9
I3
sg10
I1
sg11
I800
sss.(dp0
S'K_all3.csv'
p1
(dp2
S'none'
p3
(dp4
S'count'
p5
I400
sS'truepos'
p6
I32
sS'falseneg'
p7
I0
sS'correction'
p8
I0
sS'unknownyes'
p9
I13
sS'falsepos'
p10
I9
sS'unique'
p11
I400
ssS'three'
p12
(dp13
g5
I1006
sg6
I37
sg7
I0
sg8
I25
sg9
I8
sg10
I1
sg11
I490
ssS'machine'
p14
(dp15
g5
I582
sg6
I37
sg7
I0
sg8
I12
sg9
I8
sg10
I0
sg11
I470
ssS'machine4'
p16
(dp17
g5
I460
sg6
I32
sg7
I0
sg8
I0
sg9
I13
sg10
I7
sg11
I460
ssS'machine3'
p18
(dp19
g5
I595
sg6
I36
sg7
I0
sg8
I12
sg9
I9
sg10
I1
sg11
I500
ssS'machine2'
p20
(dp21
g5
I571
sg6
I33
sg7
I1
sg8
I12
sg9
I11
sg10
I1
sg11
I460
sssS'Wahono.csv'
p22
(dp23
g3
(dp24
g5
I1320
sg6
I56
sg7
I2
sg8
I0
sg9
I4
sg10
I22
sg11
I1320
ssg12
(dp25
g5
I2522
sg6
I59
sg7
I0
sg8
I42
sg9
I3
sg10
I1
sg11
I1240
ssg14
(dp26
g5
I1322
sg6
I59
sg7
I0
sg8
I23
sg9
I3
sg10
I0
sg11
I1060
ssg16
(dp27
g5
I1370
sg6
I54
sg7
I2
sg8
I0
sg9
I6
sg10
I28
sg11
I1370
ssg18
(dp28
g5
I1481
sg6
I59
sg7
I0
sg8
I28
sg9
I3
sg10
I1
sg11
I1160
ssg20
(dp29
g5
I1456
sg6
I58
sg7
I1
sg8
I25
sg9
I3
sg10
I0
sg11
I1150
sssS'Hall.csv'
p30
(dp31
g3
(dp32
g5
I460
sg6
I101
sg7
I1
sg8
I0
sg9
I4
sg10
I5
sg11
I460
ssg12
(dp33
g5
I919
sg6
I101
sg7
I0
sg8
I19
sg9
I5
sg10
I0
sg11
I450
ssg14
(dp34
g5
I632
sg6
I101
sg7
I1
sg8
I13
sg9
I4
sg10
I0
sg11
I460
ssg16
(dp35
g5
I1040
sg6
I100
sg7
I2
sg8
I0
sg9
I4
sg10
I24
sg11
I1040
ssg18
(dp36
g5
I701
sg6
I102
sg7
I0
sg8
I9
sg9
I4
sg10
I0
sg11
I490
ssg20
(dp37
g5
I618
sg6
I101
sg7
I1
sg8
I6
sg9
I4
sg10
I1
sg11
I440
sssS'Danijel.csv'
p38
(dp39
g3
(dp40
g5
I1310
sg6
I45
sg7
I1
sg8
I0
sg9
I2
sg10
I25
sg11
I1310
ssg12
(dp41
g5
I1495
sg6
I45
sg7
I0
sg8
I35
sg9
I3
sg10
I2
sg11
I730
ssg14
(dp42
g5
I825
sg6
I45
sg7
I0
sg8
I10
sg9
I3
sg10
I0
sg11
I660
ssg16
(dp43
g5
I1080
sg6
I45
sg7
I0
sg8
I0
sg9
I3
sg10
I31
sg11
I1080
ssg18
(dp44
g5
I949
sg6
I45
sg7
I0
sg8
I14
sg9
I3
sg10
I0
sg11
I750
ssg20
(dp45
g5
I944
sg6
I44
sg7
I1
sg8
I17
sg9
I3
sg10
I0
sg11
I740
sss.(dp0
S'K_all3.csv'
p1
(dp2
S'none'
p3
(dp4
S'count'
p5
I490
sS'truepos'
p6
I34
sS'falseneg'
p7
I1
sS'correction'
p8
I0
sS'unknownyes'
p9
I10
sS'falsepos'
p10
I9
sS'unique'
p11
I490
ssS'three'
p12
(dp13
g5
I996
sg6
I37
sg7
I0
sg8
I16
sg9
I8
sg10
I1
sg11
I490
ssS'machine'
p14
(dp15
g5
I576
sg6
I35
sg7
I0
sg8
I6
sg9
I10
sg10
I0
sg11
I490
ssS'machine4'
p16
(dp17
g5
I450
sg6
I35
sg7
I1
sg8
I0
sg9
I9
sg10
I9
sg11
I450
ssS'machine3'
p18
(dp19
g5
I559
sg6
I37
sg7
I0
sg8
I9
sg9
I8
sg10
I1
sg11
I460
ssS'machine2'
p20
(dp21
g5
I574
sg6
I34
sg7
I0
sg8
I11
sg9
I11
sg10
I0
sg11
I460
sssS'Wahono.csv'
p22
(dp23
g3
(dp24
g5
I1720
sg6
I57
sg7
I2
sg8
I0
sg9
I3
sg10
I33
sg11
I1720
ssg12
(dp25
g5
I2435
sg6
I58
sg7
I1
sg8
I55
sg9
I3
sg10
I0
sg11
I1190
ssg14
(dp26
g5
I1486
sg6
I59
sg7
I0
sg8
I29
sg9
I3
sg10
I0
sg11
I1190
ssg16
(dp27
g5
I1440
sg6
I60
sg7
I0
sg8
I0
sg9
I2
sg10
I22
sg11
I1440
ssg18
(dp28
g5
I1475
sg6
I60
sg7
I1
sg8
I24
sg9
I1
sg10
I2
sg11
I1160
ssg20
(dp29
g5
I1408
sg6
I59
sg7
I0
sg8
I26
sg9
I3
sg10
I1
sg11
I1110
sssS'Hall.csv'
p30
(dp31
g3
(dp32
g5
I640
sg6
I98
sg7
I4
sg8
I0
sg9
I4
sg10
I12
sg11
I640
ssg12
(dp33
g5
I1057
sg6
I102
sg7
I0
sg8
I17
sg9
I4
sg10
I0
sg11
I520
ssg14
(dp34
g5
I681
sg6
I100
sg7
I2
sg8
I11
sg9
I4
sg10
I1
sg11
I490
ssg16
(dp35
g5
I450
sg6
I99
sg7
I2
sg8
I0
sg9
I5
sg10
I7
sg11
I450
ssg18
(dp36
g5
I635
sg6
I101
sg7
I0
sg8
I5
sg9
I5
sg10
I0
sg11
I440
ssg20
(dp37
g5
I646
sg6
I102
sg7
I0
sg8
I15
sg9
I4
sg10
I1
sg11
I460
sssS'Danijel.csv'
p38
(dp39
g3
(dp40
g5
I920
sg6
I44
sg7
I1
sg8
I0
sg9
I3
sg10
I20
sg11
I920
ssg12
(dp41
g5
I1665
sg6
I45
sg7
I0
sg8
I25
sg9
I3
sg10
I1
sg11
I820
ssg14
(dp42
g5
I918
sg6
I44
sg7
I1
sg8
I15
sg9
I3
sg10
I0
sg11
I730
ssg16
(dp43
g5
I750
sg6
I46
sg7
I0
sg8
I0
sg9
I2
sg10
I13
sg11
I750
ssg18
(dp44
g5
I902
sg6
I46
sg7
I0
sg8
I14
sg9
I2
sg10
I1
sg11
I710
ssg20
(dp45
g5
I951
sg6
I45
sg7
I0
sg8
I14
sg9
I3
sg10
I1
sg11
I750
sss.(dp0
S'K_all3.csv'
p1
(dp2
S'none'
p3
(dp4
S'count'
p5
I430
sS'truepos'
p6
I35
sS'falseneg'
p7
I0
sS'correction'
p8
I0
sS'unknownyes'
p9
I10
sS'falsepos'
p10
I11
sS'unique'
p11
I430
ssS'three'
p12
(dp13
g5
I1034
sg6
I37
sg7
I0
sg8
I14
sg9
I8
sg10
I0
sg11
I510
ssS'machine'
p14
(dp15
g5
I561
sg6
I33
sg7
I3
sg8
I4
sg9
I9
sg10
I0
sg11
I480
ssS'machine4'
p16
(dp17
g5
I410
sg6
I30
sg7
I1
sg8
I0
sg9
I14
sg10
I12
sg11
I410
ssS'machine3'
p18
(dp19
g5
I622
sg6
I37
sg7
I0
sg8
I10
sg9
I8
sg10
I0
sg11
I520
ssS'machine2'
p20
(dp21
g5
I487
sg6
I34
sg7
I0
sg8
I5
sg9
I11
sg10
I0
sg11
I420
sssS'Wahono.csv'
p22
(dp23
g3
(dp24
g5
I1280
sg6
I59
sg7
I1
sg8
I0
sg9
I2
sg10
I26
sg11
I1280
ssg12
(dp25
g5
I2342
sg6
I59
sg7
I0
sg8
I42
sg9
I3
sg10
I2
sg11
I1150
ssg14
(dp26
g5
I1391
sg6
I56
sg7
I3
sg8
I15
sg9
I3
sg10
I1
sg11
I1110
ssg16
(dp27
g5
I1620
sg6
I58
sg7
I2
sg8
I0
sg9
I2
sg10
I29
sg11
I1620
ssg18
(dp28
g5
I1512
sg6
I58
sg7
I1
sg8
I25
sg9
I3
sg10
I1
sg11
I1190
ssg20
(dp29
g5
I1601
sg6
I61
sg7
I0
sg8
I27
sg9
I1
sg10
I3
sg11
I1260
sssS'Hall.csv'
p30
(dp31
g3
(dp32
g5
I790
sg6
I102
sg7
I0
sg8
I0
sg9
I4
sg10
I12
sg11
I790
ssg12
(dp33
g5
I1020
sg6
I101
sg7
I1
sg8
I19
sg9
I4
sg10
I1
sg11
I500
ssg14
(dp34
g5
I722
sg6
I102
sg7
I0
sg8
I18
sg9
I4
sg10
I1
sg11
I510
ssg16
(dp35
g5
I740
sg6
I100
sg7
I3
sg8
I0
sg9
I3
sg10
I12
sg11
I740
ssg18
(dp36
g5
I694
sg6
I101
sg7
I1
sg8
I5
sg9
I4
sg10
I0
sg11
I490
ssg20
(dp37
g5
I692
sg6
I100
sg7
I1
sg8
I13
sg9
I5
sg10
I0
sg11
I490
sssS'Danijel.csv'
p38
(dp39
g3
(dp40
g5
I900
sg6
I45
sg7
I0
sg8
I0
sg9
I3
sg10
I17
sg11
I900
ssg12
(dp41
g5
I1473
sg6
I44
sg7
I0
sg8
I33
sg9
I4
sg10
I1
sg11
I720
ssg14
(dp42
g5
I953
sg6
I44
sg7
I1
sg8
I19
sg9
I3
sg10
I0
sg11
I760
ssg16
(dp43
g5
I1000
sg6
I45
sg7
I0
sg8
I0
sg9
I3
sg10
I18
sg11
I1000
ssg18
(dp44
g5
I984
sg6
I45
sg7
I0
sg8
I19
sg9
I3
sg10
I1
sg11
I770
ssg20
(dp45
g5
I1055
sg6
I44
sg7
I1
sg8
I21
sg9
I3
sg10
I1
sg11
I820
sss.(dp0
S'K_all3.csv'
p1
(dp2
S'none'
p3
(dp4
S'count'
p5
I400
sS'truepos'
p6
I33
sS'falseneg'
p7
I1
sS'correction'
p8
I0
sS'unknownyes'
p9
I11
sS'falsepos'
p10
I6
sS'unique'
p11
I400
ssS'three'
p12
(dp13
g5
I1092
sg6
I38
sg7
I0
sg8
I12
sg9
I7
sg10
I1
sg11
I540
ssS'machine'
p14
(dp15
g5
I551
sg6
I35
sg7
I3
sg8
I8
sg9
I7
sg10
I1
sg11
I460
ssS'machine4'
p16
(dp17
g5
I450
sg6
I32
sg7
I1
sg8
I0
sg9
I12
sg10
I7
sg11
I450
ssS'machine3'
p18
(dp19
g5
I563
sg6
I36
sg7
I0
sg8
I6
sg9
I9
sg10
I0
sg11
I480
ssS'machine2'
p20
(dp21
g5
I611
sg6
I35
sg7
I2
sg8
I9
sg9
I8
sg10
I0
sg11
I510
sssS'Wahono.csv'
p22
(dp23
g3
(dp24
g5
I1430
sg6
I62
sg7
I0
sg8
I0
sg9
I0
sg10
I22
sg11
I1430
ssg12
(dp25
g5
I2430
sg6
I59
sg7
I0
sg8
I50
sg9
I3
sg10
I1
sg11
I1190
ssg14
(dp26
g5
I1377
sg6
I56
sg7
I3
sg8
I24
sg9
I3
sg10
I0
sg11
I1110
ssg16
(dp27
g5
I1490
sg6
I57
sg7
I2
sg8
I0
sg9
I3
sg10
I19
sg11
I1490
ssg18
(dp28
g5
I1449
sg6
I59
sg7
I0
sg8
I31
sg9
I3
sg10
I2
sg11
I1120
ssg20
(dp29
g5
I1546
sg6
I59
sg7
I0
sg8
I23
sg9
I3
sg10
I3
sg11
I1210
sssS'Hall.csv'
p30
(dp31
g3
(dp32
g5
I1320
sg6
I101
sg7
I2
sg8
I0
sg9
I3
sg10
I32
sg11
I1320
ssg12
(dp33
g5
I956
sg6
I102
sg7
I0
sg8
I16
sg9
I4
sg10
I1
sg11
I470
ssg14
(dp34
g5
I581
sg6
I100
sg7
I1
sg8
I5
sg9
I5
sg10
I1
sg11
I410
ssg16
(dp35
g5
I530
sg6
I99
sg7
I3
sg8
I0
sg9
I4
sg10
I11
sg11
I530
ssg18
(dp36
g5
I686
sg6
I101
sg7
I1
sg8
I8
sg9
I4
sg10
I0
sg11
I480
ssg20
(dp37
g5
I535
sg6
I99
sg7
I0
sg8
I4
sg9
I7
sg10
I2
sg11
I380
sssS'Danijel.csv'
p38
(dp39
g3
(dp40
g5
I930
sg6
I45
sg7
I1
sg8
I0
sg9
I2
sg10
I17
sg11
I930
ssg12
(dp41
g5
I1552
sg6
I45
sg7
I0
sg8
I32
sg9
I3
sg10
I0
sg11
I760
ssg14
(dp42
g5
I966
sg6
I46
sg7
I0
sg8
I10
sg9
I2
sg10
I0
sg11
I770
ssg16
(dp43
g5
I990
sg6
I44
sg7
I1
sg8
I0
sg9
I3
sg10
I22
sg11
I990
ssg18
(dp44
g5
I963
sg6
I45
sg7
I0
sg8
I19
sg9
I3
sg10
I1
sg11
I750
ssg20
(dp45
g5
I851
sg6
I45
sg7
I0
sg8
I18
sg9
I3
sg10
I2
sg11
I660
sss.(dp0
S'K_all3.csv'
p1
(dp2
S'none'
p3
(dp4
S'count'
p5
I470
sS'truepos'
p6
I33
sS'falseneg'
p7
I0
sS'correction'
p8
I0
sS'unknownyes'
p9
I12
sS'falsepos'
p10
I11
sS'unique'
p11
I470
ssS'three'
p12
(dp13
g5
I986
sg6
I38
sg7
I0
sg8
I26
sg9
I7
sg10
I0
sg11
I480
ssS'machine'
p14
(dp15
g5
I531
sg6
I34
sg7
I0
sg8
I12
sg9
I11
sg10
I0
sg11
I460
ssS'machine4'
p16
(dp17
g5
I440
sg6
I33
sg7
I0
sg8
I0
sg9
I12
sg10
I5
sg11
I440
ssS'machine3'
p18
(dp19
g5
I581
sg6
I37
sg7
I0
sg8
I10
sg9
I8
sg10
I0
sg11
I490
ssS'machine2'
p20
(dp21
g5
I612
sg6
I34
sg7
I0
sg8
I12
sg9
I11
sg10
I1
sg11
I510
sssS'Wahono.csv'
p22
(dp23
g3
(dp24
g5
I1750
sg6
I58
sg7
I1
sg8
I0
sg9
I3
sg10
I41
sg11
I1750
ssg12
(dp25
g5
I2355
sg6
I60
sg7
I0
sg8
I55
sg9
I2
sg10
I0
sg11
I1150
ssg14
(dp26
g5
I1407
sg6
I59
sg7
I0
sg8
I28
sg9
I3
sg10
I0
sg11
I1110
ssg16
(dp27
g5
I1380
sg6
I59
sg7
I2
sg8
I0
sg9
I1
sg10
I22
sg11
I1380
ssg18
(dp28
g5
I1429
sg6
I58
sg7
I1
sg8
I18
sg9
I3
sg10
I0
sg11
I1130
ssg20
(dp29
g5
I1422
sg6
I57
sg7
I2
sg8
I28
sg9
I3
sg10
I1
sg11
I1110
sssS'Hall.csv'
p30
(dp31
g3
(dp32
g5
I850
sg6
I102
sg7
I1
sg8
I0
sg9
I3
sg10
I12
sg11
I850
ssg12
(dp33
g5
I1025
sg6
I102
sg7
I0
sg8
I25
sg9
I4
sg10
I1
sg11
I500
ssg14
(dp34
g5
I693
sg6
I102
sg7
I0
sg8
I12
sg9
I4
sg10
I1
sg11
I500
ssg16
(dp35
g5
I590
sg6
I101
sg7
I1
sg8
I0
sg9
I4
sg10
I9
sg11
I590
ssg18
(dp36
g5
I615
sg6
I101
sg7
I0
sg8
I10
sg9
I5
sg10
I2
sg11
I410
ssg20
(dp37
g5
I610
sg6
I102
sg7
I0
sg8
I11
sg9
I4
sg10
I1
sg11
I430
sssS'Danijel.csv'
p38
(dp39
g3
(dp40
g5
I820
sg6
I43
sg7
I0
sg8
I0
sg9
I5
sg10
I27
sg11
I820
ssg12
(dp41
g5
I1490
sg6
I45
sg7
I0
sg8
I30
sg9
I3
sg10
I0
sg11
I730
ssg14
(dp42
g5
I930
sg6
I45
sg7
I0
sg8
I16
sg9
I3
sg10
I0
sg11
I740
ssg16
(dp43
g5
I1250
sg6
I43
sg7
I1
sg8
I0
sg9
I4
sg10
I31
sg11
I1250
ssg18
(dp44
g5
I977
sg6
I45
sg7
I0
sg8
I18
sg9
I3
sg10
I0
sg11
I770
ssg20
(dp45
g5
I1026
sg6
I45
sg7
I0
sg8
I18
sg9
I3
sg10
I2
sg11
I810
sss.(dp0
S'K_all3.csv'
p1
(dp2
S'none'
p3
(dp4
S'count'
p5
I420
sS'truepos'
p6
I37
sS'falseneg'
p7
I0
sS'correction'
p8
I0
sS'unknownyes'
p9
I8
sS'falsepos'
p10
I6
sS'unique'
p11
I420
ssS'three'
p12
(dp13
g5
I839
sg6
I36
sg7
I0
sg8
I19
sg9
I9
sg10
I2
sg11
I410
ssS'machine'
p14
(dp15
g5
I570
sg6
I34
sg7
I2
sg8
I14
sg9
I9
sg10
I0
sg11
I460
ssS'machine4'
p16
(dp17
g5
I360
sg6
I31
sg7
I0
sg8
I0
sg9
I14
sg10
I8
sg11
I360
ssS'machine3'
p18
(dp19
g5
I468
sg6
I32
sg7
I1
sg8
I10
sg9
I12
sg10
I3
sg11
I390
ssS'machine2'
p20
(dp21
g5
I592
sg6
I36
sg7
I1
sg8
I5
sg9
I8
sg10
I0
sg11
I500
sssS'Wahono.csv'
p22
(dp23
g3
(dp24
g5
I1310
sg6
I58
sg7
I0
sg8
I0
sg9
I4
sg10
I29
sg11
I1310
ssg12
(dp25
g5
I2613
sg6
I59
sg7
I0
sg8
I53
sg9
I3
sg10
I2
sg11
I1280
ssg14
(dp26
g5
I1483
sg6
I58
sg7
I1
sg8
I25
sg9
I3
sg10
I1
sg11
I1190
ssg16
(dp27
g5
I1800
sg6
I58
sg7
I2
sg8
I0
sg9
I2
sg10
I37
sg11
I1800
ssg18
(dp28
g5
I1388
sg6
I59
sg7
I0
sg8
I20
sg9
I3
sg10
I0
sg11
I1090
ssg20
(dp29
g5
I1413
sg6
I58
sg7
I1
sg8
I25
sg9
I3
sg10
I1
sg11
I1110
sssS'Hall.csv'
p30
(dp31
g3
(dp32
g5
I850
sg6
I101
sg7
I1
sg8
I0
sg9
I4
sg10
I18
sg11
I850
ssg12
(dp33
g5
I1037
sg6
I102
sg7
I0
sg8
I17
sg9
I4
sg10
I0
sg11
I510
ssg14
(dp34
g5
I732
sg6
I102
sg7
I0
sg8
I12
sg9
I4
sg10
I1
sg11
I520
ssg16
(dp35
g5
I780
sg6
I98
sg7
I4
sg8
I0
sg9
I4
sg10
I11
sg11
I780
ssg18
(dp36
g5
I700
sg6
I101
sg7
I1
sg8
I5
sg9
I4
sg10
I0
sg11
I500
ssg20
(dp37
g5
I626
sg6
I100
sg7
I1
sg8
I5
sg9
I5
sg10
I0
sg11
I450
sssS'Danijel.csv'
p38
(dp39
g3
(dp40
g5
I980
sg6
I44
sg7
I0
sg8
I0
sg9
I4
sg10
I14
sg11
I980
ssg12
(dp41
g5
I1558
sg6
I45
sg7
I0
sg8
I38
sg9
I3
sg10
I0
sg11
I760
ssg14
(dp42
g5
I991
sg6
I44
sg7
I1
sg8
I27
sg9
I3
sg10
I0
sg11
I790
ssg16
(dp43
g5
I960
sg6
I43
sg7
I2
sg8
I0
sg9
I3
sg10
I18
sg11
I960
ssg18
(dp44
g5
I1010
sg6
I45
sg7
I0
sg8
I20
sg9
I3
sg10
I0
sg11
I790
ssg20
(dp45
g5
I917
sg6
I45
sg7
I0
sg8
I13
sg9
I3
sg10
I0
sg11
I730
sss.(dp0
S'K_all3.csv'
p1
(dp2
S'none'
p3
(dp4
S'count'
p5
I480
sS'truepos'
p6
I29
sS'falseneg'
p7
I1
sS'correction'
p8
I0
sS'unknownyes'
p9
I15
sS'falsepos'
p10
I10
sS'unique'
p11
I480
ssS'three'
p12
(dp13
g5
I1053
sg6
I36
sg7
I1
sg8
I13
sg9
I8
sg10
I1
sg11
I520
ssS'machine'
p14
(dp15
g5
I546
sg6
I33
sg7
I3
sg8
I7
sg9
I9
sg10
I0
sg11
I460
ssS'machine4'
p16
(dp17
g5
I480
sg6
I35
sg7
I2
sg8
I0
sg9
I8
sg10
I8
sg11
I480
ssS'machine3'
p18
(dp19
g5
I599
sg6
I37
sg7
I0
sg8
I10
sg9
I8
sg10
I0
sg11
I490
ssS'machine2'
p20
(dp21
g5
I565
sg6
I35
sg7
I0
sg8
I7
sg9
I10
sg10
I1
sg11
I460
sssS'Wahono.csv'
p22
(dp23
g3
(dp24
g5
I1780
sg6
I58
sg7
I2
sg8
I0
sg9
I2
sg10
I37
sg11
I1780
ssg12
(dp25
g5
I2306
sg6
I59
sg7
I0
sg8
I46
sg9
I3
sg10
I0
sg11
I1130
ssg14
(dp26
g5
I1530
sg6
I59
sg7
I0
sg8
I22
sg9
I3
sg10
I2
sg11
I1220
ssg16
(dp27
g5
I1570
sg6
I59
sg7
I1
sg8
I0
sg9
I2
sg10
I29
sg11
I1570
ssg18
(dp28
g5
I1480
sg6
I58
sg7
I1
sg8
I29
sg9
I3
sg10
I1
sg11
I1160
ssg20
(dp29
g5
I1557
sg6
I59
sg7
I0
sg8
I34
sg9
I3
sg10
I2
sg11
I1210
sssS'Hall.csv'
p30
(dp31
g3
(dp32
g5
I770
sg6
I102
sg7
I1
sg8
I0
sg9
I3
sg10
I15
sg11
I770
ssg12
(dp33
g5
I952
sg6
I102
sg7
I0
sg8
I12
sg9
I4
sg10
I0
sg11
I470
ssg14
(dp34
g5
I602
sg6
I101
sg7
I1
sg8
I9
sg9
I4
sg10
I0
sg11
I430
ssg16
(dp35
g5
I630
sg6
I98
sg7
I4
sg8
I0
sg9
I4
sg10
I12
sg11
I630
ssg18
(dp36
g5
I657
sg6
I101
sg7
I0
sg8
I12
sg9
I5
sg10
I2
sg11
I460
ssg20
(dp37
g5
I633
sg6
I100
sg7
I1
sg8
I11
sg9
I5
sg10
I1
sg11
I450
sssS'Danijel.csv'
p38
(dp39
g3
(dp40
g5
I920
sg6
I44
sg7
I1
sg8
I0
sg9
I3
sg10
I18
sg11
I920
ssg12
(dp41
g5
I1700
sg6
I46
sg7
I0
sg8
I38
sg9
I2
sg10
I2
sg11
I830
ssg14
(dp42
g5
I895
sg6
I45
sg7
I0
sg8
I21
sg9
I3
sg10
I0
sg11
I710
ssg16
(dp43
g5
I1150
sg6
I44
sg7
I1
sg8
I0
sg9
I3
sg10
I26
sg11
I1150
ssg18
(dp44
g5
I948
sg6
I44
sg7
I1
sg8
I16
sg9
I3
sg10
I1
sg11
I740
ssg20
(dp45
g5
I774
sg6
I44
sg7
I1
sg8
I11
sg9
I3
sg10
I0
sg11
I610
sss.(dp0
S'K_all3.csv'
p1
(dp2
S'none'
p3
(dp4
S'count'
p5
I410
sS'truepos'
p6
I30
sS'falseneg'
p7
I0
sS'correction'
p8
I0
sS'unknownyes'
p9
I15
sS'falsepos'
p10
I9
sS'unique'
p11
I410
ssS'three'
p12
(dp13
g5
I1044
sg6
I35
sg7
I0
sg8
I23
sg9
I10
sg10
I2
sg11
I510
ssS'machine'
p14
(dp15
g5
I578
sg6
I35
sg7
I0
sg8
I8
sg9
I10
sg10
I1
sg11
I490
ssS'machine4'
p16
(dp17
g5
I450
sg6
I31
sg7
I0
sg8
I0
sg9
I14
sg10
I11
sg11
I450
ssS'machine3'
p18
(dp19
g5
I596
sg6
I39
sg7
I0
sg8
I16
sg9
I6
sg10
I0
sg11
I490
ssS'machine2'
p20
(dp21
g5
I622
sg6
I32
sg7
I1
sg8
I14
sg9
I12
sg10
I0
sg11
I510
sssS'Wahono.csv'
p22
(dp23
g3
(dp24
g5
I1260
sg6
I59
sg7
I1
sg8
I0
sg9
I2
sg10
I35
sg11
I1260
ssg12
(dp25
g5
I2271
sg6
I59
sg7
I0
sg8
I51
sg9
I3
sg10
I0
sg11
I1110
ssg14
(dp26
g5
I1460
sg6
I57
sg7
I1
sg8
I33
sg9
I4
sg10
I1
sg11
I1160
ssg16
(dp27
g5
I1830
sg6
I56
sg7
I4
sg8
I0
sg9
I2
sg10
I36
sg11
I1830
ssg18
(dp28
g5
I1328
sg6
I59
sg7
I0
sg8
I16
sg9
I3
sg10
I0
sg11
I1050
ssg20
(dp29
g5
I1358
sg6
I59
sg7
I0
sg8
I23
sg9
I3
sg10
I1
sg11
I1060
sssS'Hall.csv'
p30
(dp31
g3
(dp32
g5
I710
sg6
I102
sg7
I0
sg8
I0
sg9
I4
sg10
I17
sg11
I710
ssg12
(dp33
g5
I1040
sg6
I102
sg7
I0
sg8
I20
sg9
I4
sg10
I0
sg11
I510
ssg14
(dp34
g5
I702
sg6
I102
sg7
I0
sg8
I15
sg9
I4
sg10
I0
sg11
I510
ssg16
(dp35
g5
I1120
sg6
I101
sg7
I1
sg8
I0
sg9
I4
sg10
I22
sg11
I1120
ssg18
(dp36
g5
I737
sg6
I102
sg7
I0
sg8
I15
sg9
I4
sg10
I0
sg11
I510
ssg20
(dp37
g5
I672
sg6
I102
sg7
I0
sg8
I11
sg9
I4
sg10
I1
sg11
I470
sssS'Danijel.csv'
p38
(dp39
g3
(dp40
g5
I890
sg6
I44
sg7
I1
sg8
I0
sg9
I3
sg10
I21
sg11
I890
ssg12
(dp41
g5
I1492
sg6
I45
sg7
I0
sg8
I32
sg9
I3
sg10
I0
sg11
I730
ssg14
(dp42
g5
I1136
sg6
I46
sg7
I0
sg8
I21
sg9
I2
sg10
I0
sg11
I910
ssg16
(dp43
g5
I900
sg6
I45
sg7
I1
sg8
I0
sg9
I2
sg10
I18
sg11
I900
ssg18
(dp44
g5
I966
sg6
I43
sg7
I1
sg8
I19
sg9
I4
sg10
I1
sg11
I760
ssg20
(dp45
g5
I964
sg6
I46
sg7
I0
sg8
I14
sg9
I2
sg10
I1
sg11
I760
sss.(dp0
S'K_all3.csv'
p1
(dp2
S'none'
p3
(dp4
S'count'
p5
I400
sS'truepos'
p6
I33
sS'falseneg'
p7
I0
sS'correction'
p8
I0
sS'unknownyes'
p9
I12
sS'falsepos'
p10
I6
sS'unique'
p11
I400
ssS'three'
p12
(dp13
g5
I979
sg6
I38
sg7
I0
sg8
I19
sg9
I7
sg10
I0
sg11
I480
ssS'machine'
p14
(dp15
g5
I607
sg6
I35
sg7
I0
sg8
I7
sg9
I10
sg10
I0
sg11
I510
ssS'machine4'
p16
(dp17
g5
I430
sg6
I36
sg7
I0
sg8
I0
sg9
I9
sg10
I11
sg11
I430
ssS'machine3'
p18
(dp19
g5
I520
sg6
I35
sg7
I0
sg8
I9
sg9
I10
sg10
I0
sg11
I440
ssS'machine2'
p20
(dp21
g5
I548
sg6
I34
sg7
I0
sg8
I9
sg9
I11
sg10
I1
sg11
I460
sssS'Wahono.csv'
p22
(dp23
g3
(dp24
g5
I1520
sg6
I59
sg7
I0
sg8
I0
sg9
I3
sg10
I41
sg11
I1520
ssg12
(dp25
g5
I2257
sg6
I59
sg7
I0
sg8
I37
sg9
I3
sg10
I0
sg11
I1110
ssg14
(dp26
g5
I1483
sg6
I59
sg7
I0
sg8
I23
sg9
I3
sg10
I0
sg11
I1190
ssg16
(dp27
g5
I1970
sg6
I60
sg7
I0
sg8
I0
sg9
I2
sg10
I38
sg11
I1970
ssg18
(dp28
g5
I1644
sg6
I58
sg7
I1
sg8
I29
sg9
I3
sg10
I2
sg11
I1290
ssg20
(dp29
g5
I1451
sg6
I59
sg7
I0
sg8
I18
sg9
I3
sg10
I1
sg11
I1150
sssS'Hall.csv'
p30
(dp31
g3
(dp32
g5
I600
sg6
I100
sg7
I2
sg8
I0
sg9
I4
sg10
I10
sg11
I600
ssg12
(dp33
g5
I922
sg6
I101
sg7
I0
sg8
I21
sg9
I5
sg10
I1
sg11
I450
ssg14
(dp34
g5
I693
sg6
I100
sg7
I2
sg8
I17
sg9
I4
sg10
I1
sg11
I500
ssg16
(dp35
g5
I570
sg6
I100
sg7
I2
sg8
I0
sg9
I4
sg10
I14
sg11
I570
ssg18
(dp36
g5
I610
sg6
I101
sg7
I1
sg8
I11
sg9
I4
sg10
I1
sg11
I410
ssg20
(dp37
g5
I664
sg6
I100
sg7
I1
sg8
I9
sg9
I5
sg10
I0
sg11
I460
sssS'Danijel.csv'
p38
(dp39
g3
(dp40
g5
I780
sg6
I43
sg7
I1
sg8
I0
sg9
I4
sg10
I14
sg11
I780
ssg12
(dp41
g5
I1524
sg6
I45
sg7
I0
sg8
I24
sg9
I3
sg10
I1
sg11
I750
ssg14
(dp42
g5
I961
sg6
I45
sg7
I0
sg8
I17
sg9
I3
sg10
I1
sg11
I760
ssg16
(dp43
g5
I1110
sg6
I45
sg7
I1
sg8
I0
sg9
I2
sg10
I30
sg11
I1110
ssg18
(dp44
g5
I969
sg6
I45
sg7
I0
sg8
I18
sg9
I3
sg10
I0
sg11
I760
ssg20
(dp45
g5
I973
sg6
I45
sg7
I0
sg8
I20
sg9
I3
sg10
I1
sg11
I760
sss.(dp0
S'K_all3.csv'
p1
(dp2
S'none'
p3
(dp4
S'count'
p5
I450
sS'truepos'
p6
I37
sS'falseneg'
p7
I1
sS'correction'
p8
I0
sS'unknownyes'
p9
I7
sS'falsepos'
p10
I9
sS'unique'
p11
I450
ssS'three'
p12
(dp13
g5
I1061
sg6
I36
sg7
I0
sg8
I21
sg9
I9
sg10
I0
sg11
I520
ssS'machine'
p14
(dp15
g5
I541
sg6
I34
sg7
I0
sg8
I13
sg9
I11
sg10
I0
sg11
I460
ssS'machine4'
p16
(dp17
g5
I400
sg6
I30
sg7
I0
sg8
I0
sg9
I15
sg10
I8
sg11
I400
ssS'machine3'
p18
(dp19
g5
I630
sg6
I36
sg7
I0
sg8
I14
sg9
I9
sg10
I2
sg11
I520
ssS'machine2'
p20
(dp21
g5
I551
sg6
I37
sg7
I1
sg8
I10
sg9
I7
sg10
I1
sg11
I450
sssS'Wahono.csv'
p22
(dp23
g3
(dp24
g5
I1540
sg6
I58
sg7
I1
sg8
I0
sg9
I3
sg10
I41
sg11
I1540
ssg12
(dp25
g5
I2565
sg6
I59
sg7
I0
sg8
I64
sg9
I3
sg10
I4
sg11
I1250
ssg14
(dp26
g5
I1541
sg6
I58
sg7
I1
sg8
I21
sg9
I3
sg10
I1
sg11
I1230
ssg16
(dp27
g5
I1480
sg6
I58
sg7
I2
sg8
I0
sg9
I2
sg10
I37
sg11
I1480
ssg18
(dp28
g5
I1673
sg6
I60
sg7
I0
sg8
I35
sg9
I2
sg10
I3
sg11
I1310
ssg20
(dp29
g5
I1310
sg6
I56
sg7
I2
sg8
I32
sg9
I4
sg10
I1
sg11
I1010
sssS'Hall.csv'
p30
(dp31
g3
(dp32
g5
I430
sg6
I100
sg7
I1
sg8
I0
sg9
I5
sg10
I5
sg11
I430
ssg12
(dp33
g5
I998
sg6
I102
sg7
I0
sg8
I18
sg9
I4
sg10
I0
sg11
I490
ssg14
(dp34
g5
I613
sg6
I101
sg7
I0
sg8
I9
sg9
I5
sg10
I1
sg11
I440
ssg16
(dp35
g5
I540
sg6
I101
sg7
I1
sg8
I0
sg9
I4
sg10
I3
sg11
I540
ssg18
(dp36
g5
I759
sg6
I101
sg7
I1
sg8
I23
sg9
I4
sg10
I1
sg11
I520
ssg20
(dp37
g5
I569
sg6
I102
sg7
I0
sg8
I10
sg9
I4
sg10
I1
sg11
I410
sssS'Danijel.csv'
p38
(dp39
g3
(dp40
g5
I860
sg6
I44
sg7
I1
sg8
I0
sg9
I3
sg10
I22
sg11
I860
ssg12
(dp41
g5
I1651
sg6
I45
sg7
I0
sg8
I30
sg9
I3
sg10
I1
sg11
I810
ssg14
(dp42
g5
I965
sg6
I45
sg7
I0
sg8
I21
sg9
I3
sg10
I0
sg11
I760
ssg16
(dp43
g5
I750
sg6
I46
sg7
I0
sg8
I0
sg9
I2
sg10
I11
sg11
I750
ssg18
(dp44
g5
I958
sg6
I45
sg7
I0
sg8
I18
sg9
I3
sg10
I0
sg11
I750
ssg20
(dp45
g5
I937
sg6
I45
sg7
I0
sg8
I12
sg9
I3
sg10
I1
sg11
I740
sss.(dp0
S'K_all3.csv'
p1
(dp2
S'none'
p3
(dp4
S'count'
p5
I470
sS'truepos'
p6
I33
sS'falseneg'
p7
I0
sS'correction'
p8
I0
sS'unknownyes'
p9
I12
sS'falsepos'
p10
I5
sS'unique'
p11
I470
ssS'three'
p12
(dp13
g5
I1103
sg6
I38
sg7
I1
sg8
I22
sg9
I6
sg10
I0
sg11
I540
ssS'machine'
p14
(dp15
g5
I578
sg6
I33
sg7
I2
sg8
I9
sg9
I10
sg10
I0
sg11
I490
ssS'machine4'
p16
(dp17
g5
I440
sg6
I31
sg7
I2
sg8
I0
sg9
I12
sg10
I13
sg11
I440
ssS'machine3'
p18
(dp19
g5
I525
sg6
I34
sg7
I0
sg8
I7
sg9
I11
sg10
I1
sg11
I440
ssS'machine2'
p20
(dp21
g5
I652
sg6
I38
sg7
I0
sg8
I9
sg9
I7
sg10
I0
sg11
I550
sssS'Wahono.csv'
p22
(dp23
g3
(dp24
g5
I1510
sg6
I60
sg7
I0
sg8
I0
sg9
I2
sg10
I25
sg11
I1510
ssg12
(dp25
g5
I2364
sg6
I59
sg7
I0
sg8
I44
sg9
I3
sg10
I0
sg11
I1160
ssg14
(dp26
g5
I1438
sg6
I58
sg7
I1
sg8
I32
sg9
I3
sg10
I0
sg11
I1160
ssg16
(dp27
g5
I2070
sg6
I61
sg7
I0
sg8
I0
sg9
I1
sg10
I43
sg11
I2070
ssg18
(dp28
g5
I1607
sg6
I59
sg7
I0
sg8
I28
sg9
I3
sg10
I5
sg11
I1260
ssg20
(dp29
g5
I1571
sg6
I60
sg7
I0
sg8
I31
sg9
I2
sg10
I0
sg11
I1230
sssS'Hall.csv'
p30
(dp31
g3
(dp32
g5
I590
sg6
I101
sg7
I1
sg8
I0
sg9
I4
sg10
I10
sg11
I590
ssg12
(dp33
g5
I1033
sg6
I102
sg7
I0
sg8
I13
sg9
I4
sg10
I1
sg11
I510
ssg14
(dp34
g5
I662
sg6
I101
sg7
I1
sg8
I12
sg9
I4
sg10
I1
sg11
I470
ssg16
(dp35
g5
I400
sg6
I96
sg7
I3
sg8
I0
sg9
I7
sg10
I7
sg11
I400
ssg18
(dp36
g5
I647
sg6
I100
sg7
I1
sg8
I8
sg9
I5
sg10
I0
sg11
I450
ssg20
(dp37
g5
I732
sg6
I102
sg7
I0
sg8
I14
sg9
I4
sg10
I0
sg11
I510
sssS'Danijel.csv'
p38
(dp39
g3
(dp40
g5
I780
sg6
I45
sg7
I0
sg8
I0
sg9
I3
sg10
I12
sg11
I780
ssg12
(dp41
g5
I1551
sg6
I45
sg7
I0
sg8
I31
sg9
I3
sg10
I0
sg11
I760
ssg14
(dp42
g5
I864
sg6
I45
sg7
I0
sg8
I10
sg9
I3
sg10
I0
sg11
I710
ssg16
(dp43
g5
I890
sg6
I42
sg7
I1
sg8
I0
sg9
I5
sg10
I15
sg11
I890
ssg18
(dp44
g5
I1033
sg6
I45
sg7
I0
sg8
I27
sg9
I3
sg10
I0
sg11
I800
ssg20
(dp45
g5
I966
sg6
I45
sg7
I0
sg8
I16
sg9
I3
sg10
I1
sg11
I760
sss.(dp0
S'K_all3.csv'
p1
(dp2
S'none'
p3
(dp4
S'count'
p5
I440
sS'truepos'
p6
I37
sS'falseneg'
p7
I0
sS'correction'
p8
I0
sS'unknownyes'
p9
I8
sS'falsepos'
p10
I6
sS'unique'
p11
I440
ssS'three'
p12
(dp13
g5
I943
sg6
I35
sg7
I0
sg8
I23
sg9
I10
sg10
I1
sg11
I460
ssS'machine'
p14
(dp15
g5
I607
sg6
I37
sg7
I1
sg8
I5
sg9
I7
sg10
I0
sg11
I510
ssS'machine4'
p16
(dp17
g5
I420
sg6
I36
sg7
I1
sg8
I0
sg9
I8
sg10
I11
sg11
I420
ssS'machine3'
p18
(dp19
g5
I582
sg6
I33
sg7
I1
sg8
I7
sg9
I11
sg10
I0
sg11
I490
ssS'machine2'
p20
(dp21
g5
I558
sg6
I36
sg7
I1
sg8
I4
sg9
I8
sg10
I0
sg11
I460
sssS'Wahono.csv'
p22
(dp23
g3
(dp24
g5
I2040
sg6
I60
sg7
I1
sg8
I0
sg9
I1
sg10
I35
sg11
I2040
ssg12
(dp25
g5
I2591
sg6
I59
sg7
I0
sg8
I50
sg9
I3
sg10
I1
sg11
I1270
ssg14
(dp26
g5
I1452
sg6
I59
sg7
I0
sg8
I36
sg9
I3
sg10
I0
sg11
I1160
ssg16
(dp27
g5
I1210
sg6
I58
sg7
I1
sg8
I0
sg9
I3
sg10
I21
sg11
I1210
ssg18
(dp28
g5
I1497
sg6
I59
sg7
I0
sg8
I32
sg9
I3
sg10
I0
sg11
I1170
ssg20
(dp29
g5
I1351
sg6
I58
sg7
I1
sg8
I25
sg9
I3
sg10
I2
sg11
I1060
sssS'Hall.csv'
p30
(dp31
g3
(dp32
g5
I540
sg6
I100
sg7
I2
sg8
I0
sg9
I4
sg10
I8
sg11
I540
ssg12
(dp33
g5
I918
sg6
I102
sg7
I0
sg8
I18
sg9
I4
sg10
I0
sg11
I450
ssg14
(dp34
g5
I622
sg6
I101
sg7
I1
sg8
I7
sg9
I4
sg10
I0
sg11
I450
ssg16
(dp35
g5
I1020
sg6
I101
sg7
I2
sg8
I0
sg9
I3
sg10
I19
sg11
I1020
ssg18
(dp36
g5
I702
sg6
I102
sg7
I0
sg8
I12
sg9
I4
sg10
I0
sg11
I490
ssg20
(dp37
g5
I693
sg6
I99
sg7
I3
sg8
I10
sg9
I4
sg10
I1
sg11
I490
sssS'Danijel.csv'
p38
(dp39
g3
(dp40
g5
I680
sg6
I45
sg7
I0
sg8
I0
sg9
I3
sg10
I13
sg11
I680
ssg12
(dp41
g5
I1654
sg6
I46
sg7
I0
sg8
I34
sg9
I2
sg10
I1
sg11
I810
ssg14
(dp42
g5
I1004
sg6
I44
sg7
I2
sg8
I10
sg9
I2
sg10
I1
sg11
I810
ssg16
(dp43
g5
I990
sg6
I45
sg7
I0
sg8
I0
sg9
I3
sg10
I18
sg11
I990
ssg18
(dp44
g5
I1111
sg6
I45
sg7
I0
sg8
I24
sg9
I3
sg10
I2
sg11
I870
ssg20
(dp45
g5
I846
sg6
I44
sg7
I1
sg8
I17
sg9
I3
sg10
I0
sg11
I660
sss.(dp0
S'K_all3.csv'
p1
(dp2
S'none'
p3
(dp4
S'count'
p5
I520
sS'truepos'
p6
I38
sS'falseneg'
p7
I1
sS'correction'
p8
I0
sS'unknownyes'
p9
I6
sS'falsepos'
p10
I6
sS'unique'
p11
I520
ssS'three'
p12
(dp13
g5
I898
sg6
I32
sg7
I1
sg8
I17
sg9
I12
sg10
I1
sg11
I440
ssS'machine'
p14
(dp15
g5
I592
sg6
I37
sg7
I1
sg8
I9
sg9
I7
sg10
I2
sg11
I490
ssS'machine4'
p16
(dp17
g5
I400
sg6
I33
sg7
I0
sg8
I0
sg9
I12
sg10
I8
sg11
I400
ssS'machine3'
p18
(dp19
g5
I571
sg6
I36
sg7
I0
sg8
I10
sg9
I9
sg10
I0
sg11
I480
ssS'machine2'
p20
(dp21
g5
I539
sg6
I35
sg7
I0
sg8
I9
sg9
I10
sg10
I1
sg11
I460
sssS'Wahono.csv'
p22
(dp23
g3
(dp24
g5
I1720
sg6
I55
sg7
I3
sg8
I0
sg9
I4
sg10
I34
sg11
I1720
ssg12
(dp25
g5
I2421
sg6
I59
sg7
I0
sg8
I41
sg9
I3
sg10
I0
sg11
I1190
ssg14
(dp26
g5
I1463
sg6
I56
sg7
I3
sg8
I22
sg9
I3
sg10
I2
sg11
I1160
ssg16
(dp27
g5
I1820
sg6
I62
sg7
I0
sg8
I0
sg9
I0
sg10
I36
sg11
I1820
ssg18
(dp28
g5
I1585
sg6
I59
sg7
I0
sg8
I29
sg9
I3
sg10
I1
sg11
I1240
ssg20
(dp29
g5
I1673
sg6
I60
sg7
I0
sg8
I30
sg9
I2
sg10
I1
sg11
I1310
sssS'Hall.csv'
p30
(dp31
g3
(dp32
g5
I540
sg6
I99
sg7
I3
sg8
I0
sg9
I4
sg10
I9
sg11
I540
ssg12
(dp33
g5
I976
sg6
I102
sg7
I0
sg8
I16
sg9
I4
sg10
I0
sg11
I480
ssg14
(dp34
g5
I691
sg6
I102
sg7
I0
sg8
I10
sg9
I4
sg10
I0
sg11
I500
ssg16
(dp35
g5
I680
sg6
I97
sg7
I5
sg8
I0
sg9
I4
sg10
I12
sg11
I680
ssg18
(dp36
g5
I712
sg6
I102
sg7
I0
sg8
I11
sg9
I4
sg10
I0
sg11
I500
ssg20
(dp37
g5
I765
sg6
I102
sg7
I0
sg8
I15
sg9
I4
sg10
I1
sg11
I540
sssS'Danijel.csv'
p38
(dp39
g3
(dp40
g5
I840
sg6
I45
sg7
I0
sg8
I0
sg9
I3
sg10
I20
sg11
I840
ssg12
(dp41
g5
I1772
sg6
I46
sg7
I0
sg8
I32
sg9
I2
sg10
I1
sg11
I870
ssg14
(dp42
g5
I963
sg6
I46
sg7
I0
sg8
I18
sg9
I2
sg10
I0
sg11
I770
ssg16
(dp43
g5
I990
sg6
I45
sg7
I0
sg8
I0
sg9
I3
sg10
I12
sg11
I990
ssg18
(dp44
g5
I729
sg6
I45
sg7
I0
sg8
I8
sg9
I3
sg10
I0
sg11
I580
ssg20
(dp45
g5
I721
sg6
I44
sg7
I1
sg8
I13
sg9
I3
sg10
I1
sg11
I560
sss.(dp0
S'K_all3.csv'
p1
(dp2
S'none'
p3
(dp4
S'count'
p5
I500
sS'truepos'
p6
I37
sS'falseneg'
p7
I0
sS'correction'
p8
I0
sS'unknownyes'
p9
I8
sS'falsepos'
p10
I5
sS'unique'
p11
I500
ssS'three'
p12
(dp13
g5
I977
sg6
I35
sg7
I0
sg8
I16
sg9
I10
sg10
I1
sg11
I480
ssS'machine'
p14
(dp15
g5
I588
sg6
I36
sg7
I0
sg8
I17
sg9
I9
sg10
I0
sg11
I490
ssS'machine4'
p16
(dp17
g5
I420
sg6
I35
sg7
I0
sg8
I0
sg9
I10
sg10
I7
sg11
I420
ssS'machine3'
p18
(dp19
g5
I601
sg6
I38
sg7
I0
sg8
I9
sg9
I7
sg10
I0
sg11
I500
ssS'machine2'
p20
(dp21
g5
I582
sg6
I37
sg7
I1
sg8
I5
sg9
I7
sg10
I0
sg11
I490
sssS'Wahono.csv'
p22
(dp23
g3
(dp24
g5
I1570
sg6
I58
sg7
I1
sg8
I0
sg9
I3
sg10
I26
sg11
I1570
ssg12
(dp25
g5
I2308
sg6
I59
sg7
I0
sg8
I47
sg9
I3
sg10
I1
sg11
I1130
ssg14
(dp26
g5
I1440
sg6
I58
sg7
I1
sg8
I33
sg9
I3
sg10
I2
sg11
I1140
ssg16
(dp27
g5
I1440
sg6
I59
sg7
I0
sg8
I0
sg9
I3
sg10
I26
sg11
I1440
ssg18
(dp28
g5
I1518
sg6
I58
sg7
I1
sg8
I31
sg9
I3
sg10
I2
sg11
I1180
ssg20
(dp29
g5
I1511
sg6
I60
sg7
I0
sg8
I27
sg9
I2
sg10
I0
sg11
I1180
sssS'Hall.csv'
p30
(dp31
g3
(dp32
g5
I930
sg6
I100
sg7
I2
sg8
I0
sg9
I4
sg10
I21
sg11
I930
ssg12
(dp33
g5
I1084
sg6
I102
sg7
I0
sg8
I23
sg9
I4
sg10
I2
sg11
I530
ssg14
(dp34
g5
I612
sg6
I101
sg7
I0
sg8
I12
sg9
I5
sg10
I0
sg11
I440
ssg16
(dp35
g5
I610
sg6
I102
sg7
I0
sg8
I0
sg9
I4
sg10
I11
sg11
I610
ssg18
(dp36
g5
I750
sg6
I102
sg7
I0
sg8
I8
sg9
I4
sg10
I0
sg11
I530
ssg20
(dp37
g5
I617
sg6
I101
sg7
I1
sg8
I7
sg9
I4
sg10
I5
sg11
I440
sssS'Danijel.csv'
p38
(dp39
g3
(dp40
g5
I1040
sg6
I45
sg7
I0
sg8
I0
sg9
I3
sg10
I19
sg11
I1040
ssg12
(dp41
g5
I1715
sg6
I45
sg7
I0
sg8
I35
sg9
I3
sg10
I1
sg11
I840
ssg14
(dp42
g5
I945
sg6
I45
sg7
I0
sg8
I21
sg9
I3
sg10
I0
sg11
I750
ssg16
(dp43
g5
I1580
sg6
I44
sg7
I2
sg8
I0
sg9
I2
sg10
I27
sg11
I1580
ssg18
(dp44
g5
I1057
sg6
I44
sg7
I1
sg8
I16
sg9
I3
sg10
I1
sg11
I830
ssg20
(dp45
g5
I990
sg6
I44
sg7
I1
sg8
I25
sg9
I3
sg10
I0
sg11
I760
sss.(dp0
S'K_all3.csv'
p1
(dp2
S'none'
p3
(dp4
S'count'
p5
I450
sS'truepos'
p6
I34
sS'falseneg'
p7
I1
sS'correction'
p8
I0
sS'unknownyes'
p9
I10
sS'falsepos'
p10
I9
sS'unique'
p11
I450
ssS'three'
p12
(dp13
g5
I977
sg6
I39
sg7
I0
sg8
I17
sg9
I6
sg10
I0
sg11
I480
ssS'machine'
p14
(dp15
g5
I584
sg6
I36
sg7
I0
sg8
I13
sg9
I9
sg10
I0
sg11
I490
ssS'machine4'
p16
(dp17
g5
I440
sg6
I31
sg7
I0
sg8
I0
sg9
I14
sg10
I7
sg11
I440
ssS'machine3'
p18
(dp19
g5
I529
sg6
I36
sg7
I0
sg8
I9
sg9
I9
sg10
I0
sg11
I450
ssS'machine2'
p20
(dp21
g5
I573
sg6
I37
sg7
I0
sg8
I12
sg9
I8
sg10
I0
sg11
I460
sssS'Wahono.csv'
p22
(dp23
g3
(dp24
g5
I1500
sg6
I58
sg7
I1
sg8
I0
sg9
I3
sg10
I25
sg11
I1500
ssg12
(dp25
g5
I2309
sg6
I59
sg7
I0
sg8
I49
sg9
I3
sg10
I0
sg11
I1130
ssg14
(dp26
g5
I1536
sg6
I59
sg7
I0
sg8
I29
sg9
I3
sg10
I0
sg11
I1220
ssg16
(dp27
g5
I1640
sg6
I58
sg7
I1
sg8
I0
sg9
I3
sg10
I33
sg11
I1640
ssg18
(dp28
g5
I1432
sg6
I59
sg7
I0
sg8
I18
sg9
I3
sg10
I1
sg11
I1130
ssg20
(dp29
g5
I1621
sg6
I59
sg7
I0
sg8
I37
sg9
I3
sg10
I0
sg11
I1260
sssS'Hall.csv'
p30
(dp31
g3
(dp32
g5
I500
sg6
I100
sg7
I1
sg8
I0
sg9
I5
sg10
I7
sg11
I500
ssg12
(dp33
g5
I996
sg6
I102
sg7
I0
sg8
I16
sg9
I4
sg10
I0
sg11
I490
ssg14
(dp34
g5
I674
sg6
I100
sg7
I1
sg8
I13
sg9
I5
sg10
I0
sg11
I480
ssg16
(dp35
g5
I550
sg6
I101
sg7
I1
sg8
I0
sg9
I4
sg10
I14
sg11
I550
ssg18
(dp36
g5
I683
sg6
I101
sg7
I0
sg8
I8
sg9
I5
sg10
I0
sg11
I480
ssg20
(dp37
g5
I642
sg6
I102
sg7
I0
sg8
I8
sg9
I4
sg10
I1
sg11
I460
sssS'Danijel.csv'
p38
(dp39
g3
(dp40
g5
I1080
sg6
I45
sg7
I0
sg8
I0
sg9
I3
sg10
I26
sg11
I1080
ssg12
(dp41
g5
I1656
sg6
I46
sg7
I0
sg8
I35
sg9
I2
sg10
I1
sg11
I810
ssg14
(dp42
g5
I823
sg6
I42
sg7
I2
sg8
I11
sg9
I4
sg10
I0
sg11
I660
ssg16
(dp43
g5
I1030
sg6
I43
sg7
I2
sg8
I0
sg9
I3
sg10
I10
sg11
I1030
ssg18
(dp44
g5
I893
sg6
I44
sg7
I1
sg8
I15
sg9
I3
sg10
I1
sg11
I700
ssg20
(dp45
g5
I838
sg6
I45
sg7
I0
sg8
I13
sg9
I3
sg10
I1
sg11
I660
sss.(dp0
S'K_all3.csv'
p1
(dp2
S'none'
p3
(dp4
S'count'
p5
I470
sS'truepos'
p6
I33
sS'falseneg'
p7
I0
sS'correction'
p8
I0
sS'unknownyes'
p9
I12
sS'falsepos'
p10
I7
sS'unique'
p11
I470
ssS'three'
p12
(dp13
g5
I1000
sg6
I38
sg7
I0
sg8
I20
sg9
I7
sg10
I0
sg11
I490
ssS'machine'
p14
(dp15
g5
I601
sg6
I36
sg7
I1
sg8
I9
sg9
I8
sg10
I0
sg11
I520
ssS'machine4'
p16
(dp17
g5
I430
sg6
I30
sg7
I1
sg8
I0
sg9
I14
sg10
I11
sg11
I430
ssS'machine3'
p18
(dp19
g5
I598
sg6
I37
sg7
I2
sg8
I14
sg9
I6
sg10
I1
sg11
I490
ssS'machine2'
p20
(dp21
g5
I598
sg6
I35
sg7
I2
sg8
I9
sg9
I8
sg10
I0
sg11
I500
sssS'Wahono.csv'
p22
(dp23
g3
(dp24
g5
I1920
sg6
I61
sg7
I1
sg8
I0
sg9
I0
sg10
I28
sg11
I1920
ssg12
(dp25
g5
I2278
sg6
I59
sg7
I0
sg8
I38
sg9
I3
sg10
I1
sg11
I1120
ssg14
(dp26
g5
I1400
sg6
I59
sg7
I0
sg8
I31
sg9
I3
sg10
I0
sg11
I1110
ssg16
(dp27
g5
I1150
sg6
I59
sg7
I1
sg8
I0
sg9
I2
sg10
I19
sg11
I1150
ssg18
(dp28
g5
I1510
sg6
I59
sg7
I0
sg8
I27
sg9
I3
sg10
I0
sg11
I1180
ssg20
(dp29
g5
I1405
sg6
I59
sg7
I0
sg8
I24
sg9
I3
sg10
I2
sg11
I1110
sssS'Hall.csv'
p30
(dp31
g3
(dp32
g5
I600
sg6
I101
sg7
I1
sg8
I0
sg9
I4
sg10
I9
sg11
I600
ssg12
(dp33
g5
I1044
sg6
I102
sg7
I0
sg8
I24
sg9
I4
sg10
I1
sg11
I510
ssg14
(dp34
g5
I652
sg6
I99
sg7
I2
sg8
I7
sg9
I5
sg10
I0
sg11
I460
ssg16
(dp35
g5
I750
sg6
I101
sg7
I1
sg8
I0
sg9
I4
sg10
I14
sg11
I750
ssg18
(dp36
g5
I669
sg6
I100
sg7
I1
sg8
I11
sg9
I5
sg10
I0
sg11
I460
ssg20
(dp37
g5
I794
sg6
I102
sg7
I0
sg8
I12
sg9
I4
sg10
I0
sg11
I560
sssS'Danijel.csv'
p38
(dp39
g3
(dp40
g5
I1090
sg6
I44
sg7
I2
sg8
I0
sg9
I2
sg10
I15
sg11
I1090
ssg12
(dp41
g5
I1667
sg6
I45
sg7
I0
sg8
I27
sg9
I3
sg10
I1
sg11
I820
ssg14
(dp42
g5
I830
sg6
I43
sg7
I2
sg8
I16
sg9
I3
sg10
I1
sg11
I660
ssg16
(dp43
g5
I760
sg6
I45
sg7
I1
sg8
I0
sg9
I2
sg10
I12
sg11
I760
ssg18
(dp44
g5
I1010
sg6
I45
sg7
I0
sg8
I17
sg9
I3
sg10
I2
sg11
I790
ssg20
(dp45
g5
I979
sg6
I45
sg7
I0
sg8
I14
sg9
I3
sg10
I1
sg11
I770
sss.(dp0
S'K_all3.csv'
p1
(dp2
S'none'
p3
(dp4
S'count'
p5
I460
sS'truepos'
p6
I33
sS'falseneg'
p7
I1
sS'correction'
p8
I0
sS'unknownyes'
p9
I11
sS'falsepos'
p10
I8
sS'unique'
p11
I460
ssS'three'
p12
(dp13
g5
I1052
sg6
I37
sg7
I0
sg8
I12
sg9
I8
sg10
I0
sg11
I520
ssS'machine'
p14
(dp15
g5
I538
sg6
I37
sg7
I2
sg8
I10
sg9
I6
sg10
I1
sg11
I460
ssS'machine4'
p16
(dp17
g5
I390
sg6
I33
sg7
I0
sg8
I0
sg9
I12
sg10
I7
sg11
I390
ssS'machine3'
p18
(dp19
g5
I576
sg6
I34
sg7
I0
sg8
I9
sg9
I11
sg10
I1
sg11
I490
ssS'machine2'
p20
(dp21
g5
I492
sg6
I31
sg7
I1
sg8
I7
sg9
I13
sg10
I0
sg11
I410
sssS'Wahono.csv'
p22
(dp23
g3
(dp24
g5
I2150
sg6
I60
sg7
I1
sg8
I0
sg9
I1
sg10
I55
sg11
I2150
ssg12
(dp25
g5
I2590
sg6
I59
sg7
I0
sg8
I50
sg9
I3
sg10
I2
sg11
I1270
ssg14
(dp26
g5
I1685
sg6
I61
sg7
I0
sg8
I24
sg9
I1
sg10
I1
sg11
I1350
ssg16
(dp27
g5
I1160
sg6
I58
sg7
I1
sg8
I0
sg9
I3
sg10
I22
sg11
I1160
ssg18
(dp28
g5
I1469
sg6
I59
sg7
I0
sg8
I23
sg9
I3
sg10
I0
sg11
I1160
ssg20
(dp29
g5
I1512
sg6
I59
sg7
I0
sg8
I22
sg9
I3
sg10
I0
sg11
I1190
sssS'Hall.csv'
p30
(dp31
g3
(dp32
g5
I620
sg6
I101
sg7
I1
sg8
I0
sg9
I4
sg10
I8
sg11
I620
ssg12
(dp33
g5
I978
sg6
I101
sg7
I0
sg8
I18
sg9
I5
sg10
I0
sg11
I480
ssg14
(dp34
g5
I682
sg6
I101
sg7
I1
sg8
I16
sg9
I4
sg10
I0
sg11
I490
ssg16
(dp35
g5
I540
sg6
I100
sg7
I2
sg8
I0
sg9
I4
sg10
I11
sg11
I540
ssg18
(dp36
g5
I767
sg6
I101
sg7
I1
sg8
I13
sg9
I4
sg10
I3
sg11
I540
ssg20
(dp37
g5
I571
sg6
I101
sg7
I0
sg8
I9
sg9
I5
sg10
I0
sg11
I410
sssS'Danijel.csv'
p38
(dp39
g3
(dp40
g5
I910
sg6
I45
sg7
I0
sg8
I0
sg9
I3
sg10
I9
sg11
I910
ssg12
(dp41
g5
I1501
sg6
I45
sg7
I0
sg8
I20
sg9
I3
sg10
I1
sg11
I740
ssg14
(dp42
g5
I887
sg6
I45
sg7
I0
sg8
I10
sg9
I3
sg10
I2
sg11
I710
ssg16
(dp43
g5
I1010
sg6
I43
sg7
I2
sg8
I0
sg9
I3
sg10
I16
sg11
I1010
ssg18
(dp44
g5
I904
sg6
I45
sg7
I0
sg8
I20
sg9
I3
sg10
I1
sg11
I700
ssg20
(dp45
g5
I969
sg6
I44
sg7
I0
sg8
I18
sg9
I4
sg10
I1
sg11
I760
sss.(dp0
S'K_all3.csv'
p1
(dp2
S'none'
p3
(dp4
S'count'
p5
I470
sS'truepos'
p6
I32
sS'falseneg'
p7
I0
sS'correction'
p8
I0
sS'unknownyes'
p9
I13
sS'falsepos'
p10
I7
sS'unique'
p11
I470
ssS'three'
p12
(dp13
g5
I1002
sg6
I37
sg7
I0
sg8
I22
sg9
I8
sg10
I0
sg11
I490
ssS'machine'
p14
(dp15
g5
I608
sg6
I34
sg7
I2
sg8
I7
sg9
I9
sg10
I0
sg11
I510
ssS'machine4'
p16
(dp17
g5
I490
sg6
I35
sg7
I2
sg8
I0
sg9
I8
sg10
I12
sg11
I490
ssS'machine3'
p18
(dp19
g5
I552
sg6
I37
sg7
I0
sg8
I9
sg9
I8
sg10
I1
sg11
I460
ssS'machine2'
p20
(dp21
g5
I553
sg6
I34
sg7
I0
sg8
I7
sg9
I11
sg10
I1
sg11
I460
sssS'Wahono.csv'
p22
(dp23
g3
(dp24
g5
I1380
sg6
I58
sg7
I1
sg8
I0
sg9
I3
sg10
I20
sg11
I1380
ssg12
(dp25
g5
I2430
sg6
I59
sg7
I0
sg8
I49
sg9
I3
sg10
I2
sg11
I1190
ssg14
(dp26
g5
I1532
sg6
I59
sg7
I0
sg8
I22
sg9
I3
sg10
I2
sg11
I1220
ssg16
(dp27
g5
I2370
sg6
I59
sg7
I1
sg8
I0
sg9
I2
sg10
I52
sg11
I2370
ssg18
(dp28
g5
I1433
sg6
I59
sg7
I0
sg8
I22
sg9
I3
sg10
I0
sg11
I1120
ssg20
(dp29
g5
I1598
sg6
I59
sg7
I0
sg8
I32
sg9
I3
sg10
I1
sg11
I1250
sssS'Hall.csv'
p30
(dp31
g3
(dp32
g5
I510
sg6
I101
sg7
I1
sg8
I0
sg9
I4
sg10
I6
sg11
I510
ssg12
(dp33
g5
I1036
sg6
I102
sg7
I0
sg8
I16
sg9
I4
sg10
I0
sg11
I510
ssg14
(dp34
g5
I633
sg6
I101
sg7
I1
sg8
I9
sg9
I4
sg10
I1
sg11
I460
ssg16
(dp35
g5
I610
sg6
I101
sg7
I1
sg8
I0
sg9
I4
sg10
I11
sg11
I610
ssg18
(dp36
g5
I634
sg6
I101
sg7
I1
sg8
I12
sg9
I4
sg10
I0
sg11
I430
ssg20
(dp37
g5
I780
sg6
I102
sg7
I0
sg8
I15
sg9
I4
sg10
I1
sg11
I550
sssS'Danijel.csv'
p38
(dp39
g3
(dp40
g5
I800
sg6
I46
sg7
I0
sg8
I0
sg9
I2
sg10
I11
sg11
I800
ssg12
(dp41
g5
I1534
sg6
I45
sg7
I0
sg8
I34
sg9
I3
sg10
I0
sg11
I750
ssg14
(dp42
g5
I948
sg6
I44
sg7
I1
sg8
I15
sg9
I3
sg10
I0
sg11
I760
ssg16
(dp43
g5
I960
sg6
I44
sg7
I2
sg8
I0
sg9
I2
sg10
I16
sg11
I960
ssg18
(dp44
g5
I979
sg6
I46
sg7
I0
sg8
I17
sg9
I2
sg10
I0
sg11
I770
ssg20
(dp45
g5
I870
sg6
I44
sg7
I1
sg8
I20
sg9
I3
sg10
I0
sg11
I670
sss.(dp0
S'K_all3.csv'
p1
(dp2
S'none'
p3
(dp4
S'count'
p5
I420
sS'truepos'
p6
I31
sS'falseneg'
p7
I0
sS'correction'
p8
I0
sS'unknownyes'
p9
I14
sS'falsepos'
p10
I8
sS'unique'
p11
I420
ssS'three'
p12
(dp13
g5
I914
sg6
I35
sg7
I0
sg8
I13
sg9
I10
sg10
I4
sg11
I450
ssS'machine'
p14
(dp15
g5
I590
sg6
I38
sg7
I1
sg8
I9
sg9
I6
sg10
I0
sg11
I510
ssS'machine4'
p16
(dp17
g5
I450
sg6
I35
sg7
I1
sg8
I0
sg9
I9
sg10
I10
sg11
I450
ssS'machine3'
p18
(dp19
g5
I578
sg6
I35
sg7
I0
sg8
I10
sg9
I10
sg10
I0
sg11
I480
ssS'machine2'
p20
(dp21
g5
I594
sg6
I35
sg7
I0
sg8
I7
sg9
I10
sg10
I0
sg11
I500
sssS'Wahono.csv'
p22
(dp23
g3
(dp24
g5
I1770
sg6
I60
sg7
I1
sg8
I0
sg9
I1
sg10
I27
sg11
I1770
ssg12
(dp25
g5
I2298
sg6
I59
sg7
I0
sg8
I38
sg9
I3
sg10
I1
sg11
I1130
ssg14
(dp26
g5
I1454
sg6
I59
sg7
I0
sg8
I25
sg9
I3
sg10
I1
sg11
I1160
ssg16
(dp27
g5
I1360
sg6
I57
sg7
I3
sg8
I0
sg9
I2
sg10
I26
sg11
I1360
ssg18
(dp28
g5
I1447
sg6
I59
sg7
I0
sg8
I26
sg9
I3
sg10
I0
sg11
I1130
ssg20
(dp29
g5
I1649
sg6
I58
sg7
I1
sg8
I32
sg9
I3
sg10
I2
sg11
I1290
sssS'Hall.csv'
p30
(dp31
g3
(dp32
g5
I840
sg6
I101
sg7
I2
sg8
I0
sg9
I3
sg10
I14
sg11
I840
ssg12
(dp33
g5
I1090
sg6
I102
sg7
I0
sg8
I30
sg9
I4
sg10
I0
sg11
I530
ssg14
(dp34
g5
I522
sg6
I97
sg7
I1
sg8
I11
sg9
I8
sg10
I1
sg11
I370
ssg16
(dp35
g5
I610
sg6
I102
sg7
I0
sg8
I0
sg9
I4
sg10
I9
sg11
I610
ssg18
(dp36
g5
I672
sg6
I101
sg7
I1
sg8
I10
sg9
I4
sg10
I0
sg11
I460
ssg20
(dp37
g5
I639
sg6
I101
sg7
I0
sg8
I6
sg9
I5
sg10
I0
sg11
I460
sssS'Danijel.csv'
p38
(dp39
g3
(dp40
g5
I1350
sg6
I45
sg7
I0
sg8
I0
sg9
I3
sg10
I28
sg11
I1350
ssg12
(dp41
g5
I1586
sg6
I45
sg7
I0
sg8
I26
sg9
I3
sg10
I1
sg11
I780
ssg14
(dp42
g5
I818
sg6
I44
sg7
I0
sg8
I15
sg9
I4
sg10
I1
sg11
I660
ssg16
(dp43
g5
I1270
sg6
I43
sg7
I2
sg8
I0
sg9
I3
sg10
I27
sg11
I1270
ssg18
(dp44
g5
I1024
sg6
I45
sg7
I0
sg8
I23
sg9
I3
sg10
I0
sg11
I800
ssg20
(dp45
g5
I907
sg6
I45
sg7
I0
sg8
I18
sg9
I3
sg10
I1
sg11
I710
sss.(dp0
S'K_all3.csv'
p1
(dp2
S'none'
p3
(dp4
S'count'
p5
I510
sS'truepos'
p6
I38
sS'falseneg'
p7
I0
sS'correction'
p8
I0
sS'unknownyes'
p9
I7
sS'falsepos'
p10
I7
sS'unique'
p11
I510
ssS'three'
p12
(dp13
g5
I1082
sg6
I38
sg7
I0
sg8
I22
sg9
I7
sg10
I0
sg11
I530
ssS'machine'
p14
(dp15
g5
I595
sg6
I36
sg7
I0
sg8
I7
sg9
I9
sg10
I0
sg11
I510
ssS'machine4'
p16
(dp17
g5
I400
sg6
I34
sg7
I0
sg8
I0
sg9
I11
sg10
I12
sg11
I400
ssS'machine3'
p18
(dp19
g5
I585
sg6
I37
sg7
I1
sg8
I14
sg9
I7
sg10
I1
sg11
I480
ssS'machine2'
p20
(dp21
g5
I594
sg6
I36
sg7
I0
sg8
I11
sg9
I9
sg10
I0
sg11
I490
sssS'Wahono.csv'
p22
(dp23
g3
(dp24
g5
I1780
sg6
I57
sg7
I3
sg8
I0
sg9
I2
sg10
I32
sg11
I1780
ssg12
(dp25
g5
I2277
sg6
I59
sg7
I0
sg8
I37
sg9
I3
sg10
I0
sg11
I1120
ssg14
(dp26
g5
I1274
sg6
I57
sg7
I2
sg8
I16
sg9
I3
sg10
I0
sg11
I1020
ssg16
(dp27
g5
I1370
sg6
I59
sg7
I0
sg8
I0
sg9
I3
sg10
I29
sg11
I1370
ssg18
(dp28
g5
I1581
sg6
I59
sg7
I0
sg8
I17
sg9
I3
sg10
I2
sg11
I1260
ssg20
(dp29
g5
I1547
sg6
I58
sg7
I1
sg8
I32
sg9
I3
sg10
I1
sg11
I1210
sssS'Hall.csv'
p30
(dp31
g3
(dp32
g5
I560
sg6
I101
sg7
I1
sg8
I0
sg9
I4
sg10
I6
sg11
I560
ssg12
(dp33
g5
I959
sg6
I102
sg7
I0
sg8
I19
sg9
I4
sg10
I0
sg11
I470
ssg14
(dp34
g5
I672
sg6
I100
sg7
I2
sg8
I12
sg9
I4
sg10
I2
sg11
I480
ssg16
(dp35
g5
I950
sg6
I99
sg7
I4
sg8
I0
sg9
I3
sg10
I21
sg11
I950
ssg18
(dp36
g5
I644
sg6
I100
sg7
I1
sg8
I13
sg9
I5
sg10
I0
sg11
I440
ssg20
(dp37
g5
I682
sg6
I102
sg7
I0
sg8
I10
sg9
I4
sg10
I1
sg11
I480
sssS'Danijel.csv'
p38
(dp39
g3
(dp40
g5
I930
sg6
I44
sg7
I1
sg8
I0
sg9
I3
sg10
I12
sg11
I930
ssg12
(dp41
g5
I1584
sg6
I45
sg7
I0
sg8
I24
sg9
I3
sg10
I0
sg11
I780
ssg14
(dp42
g5
I1011
sg6
I45
sg7
I0
sg8
I18
sg9
I3
sg10
I0
sg11
I810
ssg16
(dp43
g5
I890
sg6
I44
sg7
I1
sg8
I0
sg9
I3
sg10
I12
sg11
I890
ssg18
(dp44
g5
I1019
sg6
I45
sg7
I0
sg8
I25
sg9
I3
sg10
I1
sg11
I790
ssg20
(dp45
g5
I1005
sg6
I45
sg7
I0
sg8
I23
sg9
I3
sg10
I1
sg11
I780
sss.(dp0
S'K_all3.csv'
p1
(dp2
S'none'
p3
(dp4
S'count'
p5
I460
sS'truepos'
p6
I32
sS'falseneg'
p7
I3
sS'correction'
p8
I0
sS'unknownyes'
p9
I10
sS'falsepos'
p10
I10
sS'unique'
p11
I460
ssS'three'
p12
(dp13
g5
I992
sg6
I38
sg7
I0
sg8
I12
sg9
I7
sg10
I0
sg11
I490
ssS'machine'
p14
(dp15
g5
I615
sg6
I35
sg7
I0
sg8
I15
sg9
I10
sg10
I1
sg11
I510
ssS'machine4'
p16
(dp17
g5
I430
sg6
I31
sg7
I1
sg8
I0
sg9
I13
sg10
I7
sg11
I430
ssS'machine3'
p18
(dp19
g5
I581
sg6
I36
sg7
I0
sg8
I11
sg9
I9
sg10
I0
sg11
I490
ssS'machine2'
p20
(dp21
g5
I539
sg6
I37
sg7
I0
sg8
I4
sg9
I8
sg10
I0
sg11
I460
sssS'Wahono.csv'
p22
(dp23
g3
(dp24
g5
I1550
sg6
I59
sg7
I1
sg8
I0
sg9
I2
sg10
I28
sg11
I1550
ssg12
(dp25
g5
I2441
sg6
I59
sg7
I0
sg8
I41
sg9
I3
sg10
I2
sg11
I1200
ssg14
(dp26
g5
I1476
sg6
I59
sg7
I0
sg8
I25
sg9
I3
sg10
I0
sg11
I1170
ssg16
(dp27
g5
I1710
sg6
I58
sg7
I0
sg8
I0
sg9
I4
sg10
I35
sg11
I1710
ssg18
(dp28
g5
I1649
sg6
I59
sg7
I0
sg8
I36
sg9
I3
sg10
I1
sg11
I1280
ssg20
(dp29
g5
I1658
sg6
I59
sg7
I1
sg8
I32
sg9
I2
sg10
I4
sg11
I1310
sssS'Hall.csv'
p30
(dp31
g3
(dp32
g5
I960
sg6
I100
sg7
I2
sg8
I0
sg9
I4
sg10
I23
sg11
I960
ssg12
(dp33
g5
I983
sg6
I102
sg7
I0
sg8
I23
sg9
I4
sg10
I1
sg11
I480
ssg14
(dp34
g5
I593
sg6
I98
sg7
I3
sg8
I7
sg9
I5
sg10
I1
sg11
I420
ssg16
(dp35
g5
I550
sg6
I101
sg7
I1
sg8
I0
sg9
I4
sg10
I5
sg11
I550
ssg18
(dp36
g5
I771
sg6
I102
sg7
I0
sg8
I14
sg9
I4
sg10
I1
sg11
I540
ssg20
(dp37
g5
I611
sg6
I101
sg7
I1
sg8
I14
sg9
I4
sg10
I1
sg11
I430
sssS'Danijel.csv'
p38
(dp39
g3
(dp40
g5
I840
sg6
I44
sg7
I1
sg8
I0
sg9
I3
sg10
I25
sg11
I840
ssg12
(dp41
g5
I1552
sg6
I45
sg7
I0
sg8
I32
sg9
I3
sg10
I0
sg11
I760
ssg14
(dp42
g5
I1001
sg6
I45
sg7
I1
sg8
I16
sg9
I2
sg10
I1
sg11
I800
ssg16
(dp43
g5
I1550
sg6
I45
sg7
I1
sg8
I0
sg9
I2
sg10
I32
sg11
I1550
ssg18
(dp44
g5
I917
sg6
I45
sg7
I0
sg8
I18
sg9
I3
sg10
I0
sg11
I730
ssg20
(dp45
g5
I980
sg6
I44
sg7
I1
sg8
I16
sg9
I3
sg10
I1
sg11
I780
sss.(dp0
S'K_all3.csv'
p1
(dp2
S'none'
p3
(dp4
S'count'
p5
I450
sS'truepos'
p6
I32
sS'falseneg'
p7
I0
sS'correction'
p8
I0
sS'unknownyes'
p9
I13
sS'falsepos'
p10
I7
sS'unique'
p11
I450
ssS'three'
p12
(dp13
g5
I980
sg6
I35
sg7
I0
sg8
I20
sg9
I10
sg10
I1
sg11
I480
ssS'machine'
p14
(dp15
g5
I421
sg6
I32
sg7
I2
sg8
I5
sg9
I11
sg10
I0
sg11
I370
ssS'machine4'
p16
(dp17
g5
I510
sg6
I38
sg7
I0
sg8
I0
sg9
I7
sg10
I12
sg11
I510
ssS'machine3'
p18
(dp19
g5
I507
sg6
I32
sg7
I0
sg8
I11
sg9
I13
sg10
I1
sg11
I420
ssS'machine2'
p20
(dp21
g5
I563
sg6
I36
sg7
I1
sg8
I11
sg9
I8
sg10
I2
sg11
I460
sssS'Wahono.csv'
p22
(dp23
g3
(dp24
g5
I2110
sg6
I60
sg7
I2
sg8
I0
sg9
I0
sg10
I34
sg11
I2110
ssg12
(dp25
g5
I2474
sg6
I59
sg7
I0
sg8
I54
sg9
I3
sg10
I0
sg11
I1210
ssg14
(dp26
g5
I1337
sg6
I59
sg7
I0
sg8
I29
sg9
I3
sg10
I1
sg11
I1060
ssg16
(dp27
g5
I1690
sg6
I60
sg7
I0
sg8
I0
sg9
I2
sg10
I27
sg11
I1690
ssg18
(dp28
g5
I1770
sg6
I60
sg7
I0
sg8
I26
sg9
I2
sg10
I2
sg11
I1400
ssg20
(dp29
g5
I1625
sg6
I59
sg7
I0
sg8
I30
sg9
I3
sg10
I1
sg11
I1270
sssS'Hall.csv'
p30
(dp31
g3
(dp32
g5
I420
sg6
I97
sg7
I4
sg8
I0
sg9
I5
sg10
I6
sg11
I420
ssg12
(dp33
g5
I1038
sg6
I102
sg7
I0
sg8
I18
sg9
I4
sg10
I1
sg11
I510
ssg14
(dp34
g5
I671
sg6
I101
sg7
I1
sg8
I15
sg9
I4
sg10
I0
sg11
I480
ssg16
(dp35
g5
I750
sg6
I101
sg7
I1
sg8
I0
sg9
I4
sg10
I13
sg11
I750
ssg18
(dp36
g5
I615
sg6
I99
sg7
I2
sg8
I11
sg9
I5
sg10
I0
sg11
I410
ssg20
(dp37
g5
I733
sg6
I102
sg7
I0
sg8
I13
sg9
I4
sg10
I3
sg11
I510
sssS'Danijel.csv'
p38
(dp39
g3
(dp40
g5
I1370
sg6
I45
sg7
I0
sg8
I0
sg9
I3
sg10
I31
sg11
I1370
ssg12
(dp41
g5
I1758
sg6
I46
sg7
I0
sg8
I38
sg9
I2
sg10
I2
sg11
I860
ssg14
(dp42
g5
I917
sg6
I45
sg7
I0
sg8
I13
sg9
I3
sg10
I0
sg11
I730
ssg16
(dp43
g5
I940
sg6
I43
sg7
I1
sg8
I0
sg9
I4
sg10
I13
sg11
I940
ssg18
(dp44
g5
I1061
sg6
I45
sg7
I0
sg8
I19
sg9
I3
sg10
I1
sg11
I830
ssg20
(dp45
g5
I1079
sg6
I44
sg7
I1
sg8
I22
sg9
I3
sg10
I1
sg11
I850
sss.(dp0
S'K_all3.csv'
p1
(dp2
S'none'
p3
(dp4
S'count'
p5
I440
sS'truepos'
p6
I39
sS'falseneg'
p7
I0
sS'correction'
p8
I0
sS'unknownyes'
p9
I6
sS'falsepos'
p10
I13
sS'unique'
p11
I440
ssS'three'
p12
(dp13
g5
I995
sg6
I37
sg7
I0
sg8
I15
sg9
I8
sg10
I1
sg11
I490
ssS'machine'
p14
(dp15
g5
I576
sg6
I38
sg7
I1
sg8
I14
sg9
I6
sg10
I0
sg11
I460
ssS'machine4'
p16
(dp17
g5
I500
sg6
I36
sg7
I0
sg8
I0
sg9
I9
sg10
I8
sg11
I500
ssS'machine3'
p18
(dp19
g5
I577
sg6
I37
sg7
I0
sg8
I8
sg9
I8
sg10
I0
sg11
I490
ssS'machine2'
p20
(dp21
g5
I674
sg6
I37
sg7
I1
sg8
I11
sg9
I7
sg10
I0
sg11
I560
sssS'Wahono.csv'
p22
(dp23
g3
(dp24
g5
I2170
sg6
I59
sg7
I1
sg8
I0
sg9
I2
sg10
I44
sg11
I2170
ssg12
(dp25
g5
I2459
sg6
I59
sg7
I0
sg8
I59
sg9
I3
sg10
I0
sg11
I1200
ssg14
(dp26
g5
I1365
sg6
I57
sg7
I1
sg8
I19
sg9
I4
sg10
I1
sg11
I1100
ssg16
(dp27
g5
I1200
sg6
I58
sg7
I1
sg8
I0
sg9
I3
sg10
I19
sg11
I1200
ssg18
(dp28
g5
I1440
sg6
I59
sg7
I0
sg8
I22
sg9
I3
sg10
I1
sg11
I1130
ssg20
(dp29
g5
I1116
sg6
I59
sg7
I0
sg8
I25
sg9
I3
sg10
I0
sg11
I860
sssS'Hall.csv'
p30
(dp31
g3
(dp32
g5
I770
sg6
I99
sg7
I3
sg8
I0
sg9
I4
sg10
I15
sg11
I770
ssg12
(dp33
g5
I985
sg6
I102
sg7
I0
sg8
I25
sg9
I4
sg10
I0
sg11
I480
ssg14
(dp34
g5
I651
sg6
I98
sg7
I4
sg8
I16
sg9
I4
sg10
I1
sg11
I460
ssg16
(dp35
g5
I600
sg6
I103
sg7
I0
sg8
I0
sg9
I3
sg10
I8
sg11
I600
ssg18
(dp36
g5
I681
sg6
I101
sg7
I1
sg8
I20
sg9
I4
sg10
I0
sg11
I460
ssg20
(dp37
g5
I747
sg6
I101
sg7
I1
sg8
I8
sg9
I4
sg10
I2
sg11
I530
sssS'Danijel.csv'
p38
(dp39
g3
(dp40
g5
I1460
sg6
I47
sg7
I1
sg8
I0
sg9
I0
sg10
I29
sg11
I1460
ssg12
(dp41
g5
I1499
sg6
I45
sg7
I0
sg8
I38
sg9
I3
sg10
I2
sg11
I730
ssg14
(dp42
g5
I935
sg6
I45
sg7
I0
sg8
I20
sg9
I3
sg10
I1
sg11
I740
ssg16
(dp43
g5
I1650
sg6
I44
sg7
I1
sg8
I0
sg9
I3
sg10
I31
sg11
I1650
ssg18
(dp44
g5
I1047
sg6
I45
sg7
I0
sg8
I11
sg9
I3
sg10
I1
sg11
I830
ssg20
(dp45
g5
I919
sg6
I45
sg7
I0
sg8
I18
sg9
I3
sg10
I1
sg11
I710
sss.