(dp0
S'K_all3.csv'
p1
(dp2
S'machine'
p3
(dp4
S'count'
p5
I756
sS'truepos'
p6
I34
sS'falseneg'
p7
I6
sS'correction'
p8
I8
sS'unknownyes'
p9
I5
sS'falsepos'
p10
I3
sS'unique'
p11
I520
ssS'knee'
p12
(dp13
g5
I262
sg6
I22
sg7
I4
sg8
I5
sg9
I19
sg10
I3
sg11
I160
ssS'none'
p14
(dp15
g5
I540
sg6
I29
sg7
I12
sg8
I0
sg9
I4
sg10
I4
sg11
I540
ssS'three'
p16
(dp17
g5
I997
sg6
I38
sg7
I3
sg8
I16
sg9
I4
sg10
I0
sg11
I490
sssS'Wahono.csv'
p18
(dp19
g3
(dp20
g5
I1887
sg6
I55
sg7
I5
sg8
I14
sg9
I2
sg10
I6
sg11
I1240
ssg12
(dp21
g5
I24
sg6
I6
sg7
I0
sg8
I0
sg9
I56
sg10
I0
sg11
I20
ssg14
(dp22
g5
I1320
sg6
I40
sg7
I18
sg8
I0
sg9
I4
sg10
I5
sg11
I1320
ssg16
(dp23
g5
I2871
sg6
I44
sg7
I15
sg8
I28
sg9
I3
sg10
I0
sg11
I1420
sssS'Hall.csv'
p24
(dp25
g3
(dp26
g5
I949
sg6
I89
sg7
I13
sg8
I22
sg9
I2
sg10
I2
sg11
I700
ssg12
(dp27
g5
I738
sg6
I88
sg7
I14
sg8
I22
sg9
I2
sg10
I1
sg11
I540
ssg14
(dp28
g5
I1090
sg6
I73
sg7
I30
sg8
I0
sg9
I1
sg10
I3
sg11
I1090
ssg16
(dp29
g5
I1464
sg6
I81
sg7
I21
sg8
I39
sg9
I2
sg10
I0
sg11
I710
sssS'Danijel.csv'
p30
(dp31
g3
(dp32
g5
I1233
sg6
I43
sg7
I2
sg8
I10
sg9
I3
sg10
I0
sg11
I740
ssg12
(dp33
g5
I578
sg6
I30
sg7
I9
sg8
I3
sg9
I9
sg10
I1
sg11
I410
ssg14
(dp34
g5
I1080
sg6
I35
sg7
I11
sg8
I0
sg9
I2
sg10
I3
sg11
I1080
ssg16
(dp35
g5
I2428
sg6
I36
sg7
I10
sg8
I27
sg9
I2
sg10
I0
sg11
I1200
sss.(dp0
S'K_all3.csv'
p1
(dp2
S'machine'
p3
(dp4
S'count'
p5
I563
sS'truepos'
p6
I36
sS'falseneg'
p7
I3
sS'correction'
p8
I5
sS'unknownyes'
p9
I6
sS'falsepos'
p10
I3
sS'unique'
p11
I370
ssS'knee'
p12
(dp13
g5
I1216
sg6
I37
sg7
I8
sg8
I8
sg9
I0
sg10
I3
sg11
I990
ssS'none'
p14
(dp15
g5
I580
sg6
I29
sg7
I11
sg8
I0
sg9
I5
sg10
I5
sg11
I580
ssS'three'
p16
(dp17
g5
I925
sg6
I32
sg7
I6
sg8
I22
sg9
I7
sg10
I1
sg11
I450
sssS'Wahono.csv'
p18
(dp19
g3
(dp20
g5
I2112
sg6
I53
sg7
I6
sg8
I10
sg9
I3
sg10
I1
sg11
I1450
ssg12
(dp21
g5
I951
sg6
I42
sg7
I11
sg8
I11
sg9
I9
sg10
I0
sg11
I720
ssg14
(dp22
g5
I1290
sg6
I47
sg7
I12
sg8
I0
sg9
I3
sg10
I2
sg11
I1290
ssg16
(dp23
g5
I2424
sg6
I44
sg7
I16
sg8
I21
sg9
I2
sg10
I0
sg11
I1200
sssS'Hall.csv'
p24
(dp25
g3
(dp26
g5
I905
sg6
I95
sg7
I7
sg8
I22
sg9
I2
sg10
I4
sg11
I660
ssg12
(dp27
g5
I585
sg6
I82
sg7
I19
sg8
I17
sg9
I3
sg10
I2
sg11
I420
ssg14
(dp28
g5
I680
sg6
I74
sg7
I28
sg8
I0
sg9
I2
sg10
I2
sg11
I680
ssg16
(dp29
g5
I1431
sg6
I83
sg7
I19
sg8
I44
sg9
I2
sg10
I0
sg11
I690
sssS'Danijel.csv'
p30
(dp31
g3
(dp32
g5
I1494
sg6
I39
sg7
I6
sg8
I7
sg9
I3
sg10
I4
sg11
I910
ssg12
(dp33
g5
I659
sg6
I38
sg7
I3
sg8
I8
sg9
I7
sg10
I3
sg11
I390
ssg14
(dp34
g5
I1720
sg6
I35
sg7
I13
sg8
I0
sg9
I0
sg10
I2
sg11
I1720
ssg16
(dp35
g5
I2303
sg6
I32
sg7
I14
sg8
I18
sg9
I2
sg10
I0
sg11
I1140
sss.(dp0
S'K_all3.csv'
p1
(dp2
S'machine'
p3
(dp4
S'count'
p5
I615
sS'truepos'
p6
I35
sS'falseneg'
p7
I2
sS'correction'
p8
I7
sS'unknownyes'
p9
I8
sS'falsepos'
p10
I5
sS'unique'
p11
I420
ssS'knee'
p12
(dp13
g5
I284
sg6
I21
sg7
I4
sg8
I2
sg9
I20
sg10
I0
sg11
I200
ssS'none'
p14
(dp15
g5
I510
sg6
I31
sg7
I9
sg8
I0
sg9
I5
sg10
I3
sg11
I510
ssS'three'
p16
(dp17
g5
I971
sg6
I34
sg7
I8
sg8
I29
sg9
I3
sg10
I0
sg11
I470
sssS'Wahono.csv'
p18
(dp19
g3
(dp20
g5
I1890
sg6
I56
sg7
I3
sg8
I15
sg9
I3
sg10
I4
sg11
I1260
ssg12
(dp21
g5
I454
sg6
I36
sg7
I7
sg8
I8
sg9
I19
sg10
I2
sg11
I300
ssg14
(dp22
g5
I1710
sg6
I41
sg7
I18
sg8
I0
sg9
I3
sg10
I1
sg11
I1710
ssg16
(dp23
g5
I3289
sg6
I52
sg7
I8
sg8
I26
sg9
I2
sg10
I0
sg11
I1630
sssS'Hall.csv'
p24
(dp25
g3
(dp26
g5
I741
sg6
I92
sg7
I10
sg8
I19
sg9
I2
sg10
I1
sg11
I520
ssg12
(dp27
g5
I24
sg6
I8
sg7
I2
sg8
I2
sg9
I94
sg10
I0
sg11
I20
ssg14
(dp28
g5
I1260
sg6
I64
sg7
I39
sg8
I0
sg9
I1
sg10
I4
sg11
I1260
ssg16
(dp29
g5
I1063
sg6
I78
sg7
I23
sg8
I35
sg9
I3
sg10
I0
sg11
I510
sssS'Danijel.csv'
p30
(dp31
g3
(dp32
g5
I1301
sg6
I39
sg7
I6
sg8
I9
sg9
I3
sg10
I3
sg11
I820
ssg12
(dp33
g5
I546
sg6
I30
sg7
I12
sg8
I4
sg9
I6
sg10
I0
sg11
I440
ssg14
(dp34
g5
I1170
sg6
I34
sg7
I12
sg8
I0
sg9
I2
sg10
I0
sg11
I1170
ssg16
(dp35
g5
I1566
sg6
I40
sg7
I5
sg8
I24
sg9
I3
sg10
I0
sg11
I770
sss.(dp0
S'K_all3.csv'
p1
(dp2
S'machine'
p3
(dp4
S'count'
p5
I720
sS'truepos'
p6
I32
sS'falseneg'
p7
I5
sS'correction'
p8
I7
sS'unknownyes'
p9
I8
sS'falsepos'
p10
I7
sS'unique'
p11
I470
ssS'knee'
p12
(dp13
g5
I1628
sg6
I37
sg7
I8
sg8
I15
sg9
I0
sg10
I7
sg11
I1180
ssS'none'
p14
(dp15
g5
I450
sg6
I29
sg7
I9
sg8
I0
sg9
I7
sg10
I3
sg11
I450
ssS'three'
p16
(dp17
g5
I883
sg6
I31
sg7
I7
sg8
I20
sg9
I7
sg10
I0
sg11
I430
sssS'Wahono.csv'
p18
(dp19
g3
(dp20
g5
I1584
sg6
I53
sg7
I5
sg8
I15
sg9
I4
sg10
I7
sg11
I1030
ssg12
(dp21
g5
I119
sg6
I13
sg7
I3
sg8
I3
sg9
I46
sg10
I1
sg11
I80
ssg14
(dp22
g5
I1630
sg6
I37
sg7
I22
sg8
I0
sg9
I3
sg10
I7
sg11
I1630
ssg16
(dp23
g5
I3357
sg6
I46
sg7
I13
sg8
I33
sg9
I3
sg10
I0
sg11
I1660
sssS'Hall.csv'
p24
(dp25
g3
(dp26
g5
I779
sg6
I86
sg7
I16
sg8
I18
sg9
I2
sg10
I2
sg11
I540
ssg12
(dp27
g5
I798
sg6
I91
sg7
I11
sg8
I18
sg9
I2
sg10
I1
sg11
I550
ssg14
(dp28
g5
I1220
sg6
I71
sg7
I32
sg8
I0
sg9
I1
sg10
I5
sg11
I1220
ssg16
(dp29
g5
I1554
sg6
I82
sg7
I20
sg8
I47
sg9
I2
sg10
I0
sg11
I750
sssS'Danijel.csv'
p30
(dp31
g3
(dp32
g5
I1446
sg6
I38
sg7
I7
sg8
I8
sg9
I3
sg10
I4
sg11
I880
ssg12
(dp33
g5
I606
sg6
I36
sg7
I7
sg8
I6
sg9
I5
sg10
I1
sg11
I490
ssg14
(dp34
g5
I1060
sg6
I28
sg7
I18
sg8
I0
sg9
I2
sg10
I2
sg11
I1060
ssg16
(dp35
g5
I2426
sg6
I30
sg7
I16
sg8
I22
sg9
I2
sg10
I0
sg11
I1200
sss.(dp0
S'K_all3.csv'
p1
(dp2
S'machine'
p3
(dp4
S'count'
p5
I629
sS'truepos'
p6
I36
sS'falseneg'
p7
I3
sS'correction'
p8
I3
sS'unknownyes'
p9
I6
sS'falsepos'
p10
I5
sS'unique'
p11
I420
ssS'knee'
p12
(dp13
g5
I1731
sg6
I43
sg7
I1
sg8
I12
sg9
I1
sg10
I7
sg11
I1170
ssS'none'
p14
(dp15
g5
I510
sg6
I28
sg7
I12
sg8
I0
sg9
I5
sg10
I2
sg11
I510
ssS'three'
p16
(dp17
g5
I1003
sg6
I31
sg7
I10
sg8
I18
sg9
I4
sg10
I0
sg11
I490
sssS'Wahono.csv'
p18
(dp19
g3
(dp20
g5
I1776
sg6
I53
sg7
I6
sg8
I13
sg9
I3
sg10
I4
sg11
I1220
ssg12
(dp21
g5
I832
sg6
I46
sg7
I6
sg8
I12
sg9
I10
sg10
I0
sg11
I570
ssg14
(dp22
g5
I1550
sg6
I34
sg7
I23
sg8
I0
sg9
I5
sg10
I8
sg11
I1550
ssg16
(dp23
g5
I3363
sg6
I51
sg7
I11
sg8
I19
sg9
I0
sg10
I0
sg11
I1670
sssS'Hall.csv'
p24
(dp25
g3
(dp26
g5
I612
sg6
I90
sg7
I9
sg8
I15
sg9
I5
sg10
I1
sg11
I430
ssg12
(dp27
g5
I609
sg6
I84
sg7
I17
sg8
I22
sg9
I3
sg10
I1
sg11
I430
ssg14
(dp28
g5
I800
sg6
I78
sg7
I25
sg8
I0
sg9
I1
sg10
I1
sg11
I800
ssg16
(dp29
g5
I1569
sg6
I82
sg7
I20
sg8
I45
sg9
I2
sg10
I0
sg11
I760
sssS'Danijel.csv'
p30
(dp31
g3
(dp32
g5
I1218
sg6
I43
sg7
I3
sg8
I10
sg9
I2
sg10
I3
sg11
I730
ssg12
(dp33
g5
I1038
sg6
I35
sg7
I9
sg8
I9
sg9
I4
sg10
I2
sg11
I770
ssg14
(dp34
g5
I1580
sg6
I29
sg7
I17
sg8
I0
sg9
I2
sg10
I5
sg11
I1580
ssg16
(dp35
g5
I2243
sg6
I33
sg7
I13
sg8
I19
sg9
I2
sg10
I0
sg11
I1110
sss.(dp0
S'K_all3.csv'
p1
(dp2
S'machine'
p3
(dp4
S'count'
p5
I782
sS'truepos'
p6
I38
sS'falseneg'
p7
I4
sS'correction'
p8
I10
sS'unknownyes'
p9
I3
sS'falsepos'
p10
I5
sS'unique'
p11
I550
ssS'knee'
p12
(dp13
g5
I1134
sg6
I33
sg7
I10
sg8
I5
sg9
I2
sg10
I7
sg11
I920
ssS'none'
p14
(dp15
g5
I610
sg6
I28
sg7
I14
sg8
I0
sg9
I3
sg10
I5
sg11
I610
ssS'three'
p16
(dp17
g5
I961
sg6
I36
sg7
I5
sg8
I20
sg9
I4
sg10
I0
sg11
I470
sssS'Wahono.csv'
p18
(dp19
g3
(dp20
g5
I1361
sg6
I48
sg7
I6
sg8
I10
sg9
I8
sg10
I5
sg11
I830
ssg12
(dp21
g5
I634
sg6
I42
sg7
I8
sg8
I3
sg9
I12
sg10
I0
sg11
I470
ssg14
(dp22
g5
I1450
sg6
I43
sg7
I17
sg8
I0
sg9
I2
sg10
I2
sg11
I1450
ssg16
(dp23
g5
I2574
sg6
I53
sg7
I6
sg8
I33
sg9
I3
sg10
I0
sg11
I1270
sssS'Hall.csv'
p24
(dp25
g3
(dp26
g5
I868
sg6
I89
sg7
I13
sg8
I22
sg9
I2
sg10
I2
sg11
I640
ssg12
(dp27
g5
I755
sg6
I92
sg7
I10
sg8
I27
sg9
I2
sg10
I0
sg11
I520
ssg14
(dp28
g5
I950
sg6
I71
sg7
I32
sg8
I0
sg9
I1
sg10
I1
sg11
I950
ssg16
(dp29
g5
I1612
sg6
I82
sg7
I20
sg8
I47
sg9
I2
sg10
I0
sg11
I780
sssS'Danijel.csv'
p30
(dp31
g3
(dp32
g5
I1470
sg6
I43
sg7
I2
sg8
I8
sg9
I3
sg10
I3
sg11
I910
ssg12
(dp33
g5
I319
sg6
I25
sg7
I6
sg8
I1
sg9
I17
sg10
I0
sg11
I220
ssg14
(dp34
g5
I1220
sg6
I30
sg7
I15
sg8
I0
sg9
I3
sg10
I1
sg11
I1220
ssg16
(dp35
g5
I2344
sg6
I33
sg7
I13
sg8
I20
sg9
I2
sg10
I0
sg11
I1160
sss.(dp0
S'K_all3.csv'
p1
(dp2
S'machine'
p3
(dp4
S'count'
p5
I720
sS'truepos'
p6
I31
sS'falseneg'
p7
I7
sS'correction'
p8
I5
sS'unknownyes'
p9
I7
sS'falsepos'
p10
I7
sS'unique'
p11
I520
ssS'knee'
p12
(dp13
g5
I869
sg6
I32
sg7
I9
sg8
I12
sg9
I4
sg10
I0
sg11
I720
ssS'none'
p14
(dp15
g5
I450
sg6
I26
sg7
I10
sg8
I0
sg9
I9
sg10
I4
sg11
I450
ssS'three'
p16
(dp17
g5
I1025
sg6
I35
sg7
I6
sg8
I23
sg9
I4
sg10
I0
sg11
I500
sssS'Wahono.csv'
p18
(dp19
g3
(dp20
g5
I1846
sg6
I60
sg7
I1
sg8
I16
sg9
I1
sg10
I1
sg11
I1250
ssg12
(dp21
g5
I501
sg6
I39
sg7
I5
sg8
I8
sg9
I18
sg10
I0
sg11
I310
ssg14
(dp22
g5
I1730
sg6
I45
sg7
I15
sg8
I0
sg9
I2
sg10
I4
sg11
I1730
ssg16
(dp23
g5
I2985
sg6
I47
sg7
I12
sg8
I24
sg9
I3
sg10
I0
sg11
I1480
sssS'Hall.csv'
p24
(dp25
g3
(dp26
g5
I659
sg6
I93
sg7
I8
sg8
I18
sg9
I3
sg10
I3
sg11
I470
ssg12
(dp27
g5
I223
sg6
I40
sg7
I13
sg8
I3
sg9
I51
sg10
I0
sg11
I140
ssg14
(dp28
g5
I990
sg6
I66
sg7
I37
sg8
I0
sg9
I1
sg10
I6
sg11
I990
ssg16
(dp29
g5
I1187
sg6
I79
sg7
I23
sg8
I43
sg9
I2
sg10
I0
sg11
I570
sssS'Danijel.csv'
p30
(dp31
g3
(dp32
g5
I1428
sg6
I42
sg7
I4
sg8
I12
sg9
I2
sg10
I5
sg11
I810
ssg12
(dp33
g5
I1408
sg6
I42
sg7
I3
sg8
I15
sg9
I3
sg10
I0
sg11
I1040
ssg14
(dp34
g5
I1020
sg6
I33
sg7
I13
sg8
I0
sg9
I2
sg10
I0
sg11
I1020
ssg16
(dp35
g5
I1989
sg6
I37
sg7
I9
sg8
I26
sg9
I2
sg10
I0
sg11
I980
sss.(dp0
S'K_all3.csv'
p1
(dp2
S'machine'
p3
(dp4
S'count'
p5
I702
sS'truepos'
p6
I34
sS'falseneg'
p7
I5
sS'correction'
p8
I8
sS'unknownyes'
p9
I6
sS'falsepos'
p10
I4
sS'unique'
p11
I470
ssS'knee'
p12
(dp13
g5
I566
sg6
I28
sg7
I11
sg8
I3
sg9
I6
sg10
I1
sg11
I490
ssS'none'
p14
(dp15
g5
I550
sg6
I32
sg7
I9
sg8
I0
sg9
I4
sg10
I4
sg11
I550
ssS'three'
p16
(dp17
g5
I1043
sg6
I31
sg7
I10
sg8
I21
sg9
I4
sg10
I0
sg11
I510
sssS'Wahono.csv'
p18
(dp19
g3
(dp20
g5
I1999
sg6
I54
sg7
I5
sg8
I13
sg9
I3
sg10
I3
sg11
I1390
ssg12
(dp21
g5
I1134
sg6
I44
sg7
I5
sg8
I17
sg9
I13
sg10
I5
sg11
I750
ssg14
(dp22
g5
I1390
sg6
I42
sg7
I18
sg8
I0
sg9
I2
sg10
I4
sg11
I1390
ssg16
(dp23
g5
I3430
sg6
I52
sg7
I10
sg8
I28
sg9
I0
sg10
I0
sg11
I1700
sssS'Hall.csv'
p24
(dp25
g3
(dp26
g5
I704
sg6
I92
sg7
I10
sg8
I18
sg9
I2
sg10
I3
sg11
I480
ssg12
(dp27
g5
I702
sg6
I80
sg7
I20
sg8
I24
sg9
I4
sg10
I0
sg11
I480
ssg14
(dp28
g5
I690
sg6
I79
sg7
I23
sg8
I0
sg9
I2
sg10
I2
sg11
I690
ssg16
(dp29
g5
I1275
sg6
I79
sg7
I23
sg8
I29
sg9
I2
sg10
I0
sg11
I620
sssS'Danijel.csv'
p30
(dp31
g3
(dp32
g5
I1362
sg6
I39
sg7
I6
sg8
I11
sg9
I3
sg10
I5
sg11
I890
ssg12
(dp33
g5
I816
sg6
I40
sg7
I3
sg8
I12
sg9
I5
sg10
I1
sg11
I570
ssg14
(dp34
g5
I1140
sg6
I32
sg7
I14
sg8
I0
sg9
I2
sg10
I6
sg11
I1140
ssg16
(dp35
g5
I2151
sg6
I35
sg7
I11
sg8
I26
sg9
I2
sg10
I0
sg11
I1060
sss.(dp0
S'K_all3.csv'
p1
(dp2
S'machine'
p3
(dp4
S'count'
p5
I819
sS'truepos'
p6
I32
sS'falseneg'
p7
I8
sS'correction'
p8
I7
sS'unknownyes'
p9
I5
sS'falsepos'
p10
I6
sS'unique'
p11
I530
ssS'knee'
p12
(dp13
g5
I999
sg6
I34
sg7
I8
sg8
I8
sg9
I3
sg10
I11
sg11
I600
ssS'none'
p14
(dp15
g5
I550
sg6
I25
sg7
I15
sg8
I0
sg9
I5
sg10
I1
sg11
I550
ssS'three'
p16
(dp17
g5
I1108
sg6
I36
sg7
I6
sg8
I26
sg9
I3
sg10
I0
sg11
I540
sssS'Wahono.csv'
p18
(dp19
g3
(dp20
g5
I1860
sg6
I57
sg7
I3
sg8
I8
sg9
I2
sg10
I4
sg11
I1200
ssg12
(dp21
g5
I24
sg6
I6
sg7
I0
sg8
I0
sg9
I56
sg10
I0
sg11
I20
ssg14
(dp22
g5
I1710
sg6
I36
sg7
I24
sg8
I0
sg9
I2
sg10
I7
sg11
I1710
ssg16
(dp23
g5
I2836
sg6
I49
sg7
I10
sg8
I34
sg9
I3
sg10
I0
sg11
I1400
sssS'Hall.csv'
p24
(dp25
g3
(dp26
g5
I775
sg6
I92
sg7
I10
sg8
I22
sg9
I2
sg10
I2
sg11
I550
ssg12
(dp27
g5
I53
sg6
I10
sg7
I4
sg8
I3
sg9
I90
sg10
I0
sg11
I40
ssg14
(dp28
g5
I1130
sg6
I67
sg7
I36
sg8
I0
sg9
I1
sg10
I3
sg11
I1130
ssg16
(dp29
g5
I1230
sg6
I77
sg7
I25
sg8
I43
sg9
I2
sg10
I0
sg11
I590
sssS'Danijel.csv'
p30
(dp31
g3
(dp32
g5
I1480
sg6
I41
sg7
I5
sg8
I14
sg9
I2
sg10
I6
sg11
I920
ssg12
(dp33
g5
I983
sg6
I38
sg7
I7
sg8
I10
sg9
I3
sg10
I0
sg11
I760
ssg14
(dp34
g5
I940
sg6
I34
sg7
I11
sg8
I0
sg9
I3
sg10
I5
sg11
I940
ssg16
(dp35
g5
I1724
sg6
I38
sg7
I8
sg8
I22
sg9
I2
sg10
I0
sg11
I850
sss.(dp0
S'K_all3.csv'
p1
(dp2
S'machine'
p3
(dp4
S'count'
p5
I671
sS'truepos'
p6
I34
sS'falseneg'
p7
I7
sS'correction'
p8
I7
sS'unknownyes'
p9
I4
sS'falsepos'
p10
I4
sS'unique'
p11
I460
ssS'knee'
p12
(dp13
g5
I1619
sg6
I38
sg7
I7
sg8
I10
sg9
I0
sg10
I15
sg11
I1100
ssS'none'
p14
(dp15
g5
I470
sg6
I26
sg7
I10
sg8
I0
sg9
I9
sg10
I1
sg11
I470
ssS'three'
p16
(dp17
g5
I1149
sg6
I26
sg7
I15
sg8
I24
sg9
I4
sg10
I0
sg11
I560
sssS'Wahono.csv'
p18
(dp19
g3
(dp20
g5
I1854
sg6
I55
sg7
I4
sg8
I12
sg9
I3
sg10
I3
sg11
I1210
ssg12
(dp21
g5
I1587
sg6
I50
sg7
I9
sg8
I13
sg9
I3
sg10
I4
sg11
I1230
ssg14
(dp22
g5
I1580
sg6
I40
sg7
I19
sg8
I0
sg9
I3
sg10
I5
sg11
I1580
ssg16
(dp23
g5
I2762
sg6
I51
sg7
I8
sg8
I17
sg9
I3
sg10
I0
sg11
I1370
sssS'Hall.csv'
p24
(dp25
g3
(dp26
g5
I702
sg6
I92
sg7
I10
sg8
I17
sg9
I2
sg10
I3
sg11
I500
ssg12
(dp27
g5
I755
sg6
I91
sg7
I11
sg8
I21
sg9
I2
sg10
I2
sg11
I550
ssg14
(dp28
g5
I700
sg6
I82
sg7
I20
sg8
I0
sg9
I2
sg10
I2
sg11
I700
ssg16
(dp29
g5
I1122
sg6
I80
sg7
I21
sg8
I39
sg9
I3
sg10
I0
sg11
I540
sssS'Danijel.csv'
p30
(dp31
g3
(dp32
g5
I1683
sg6
I38
sg7
I7
sg8
I10
sg9
I3
sg10
I6
sg11
I990
ssg12
(dp33
g5
I889
sg6
I40
sg7
I4
sg8
I6
sg9
I4
sg10
I3
sg11
I560
ssg14
(dp34
g5
I1450
sg6
I34
sg7
I14
sg8
I0
sg9
I0
sg10
I2
sg11
I1450
ssg16
(dp35
g5
I2282
sg6
I34
sg7
I12
sg8
I20
sg9
I2
sg10
I0
sg11
I1130
sss.(dp0
S'K_all3.csv'
p1
(dp2
S'machine'
p3
(dp4
S'count'
p5
I600
sS'truepos'
p6
I35
sS'falseneg'
p7
I3
sS'correction'
p8
I8
sS'unknownyes'
p9
I7
sS'falsepos'
p10
I3
sS'unique'
p11
I400
ssS'knee'
p12
(dp13
g5
I1641
sg6
I35
sg7
I9
sg8
I14
sg9
I1
sg10
I4
sg11
I1310
ssS'none'
p14
(dp15
g5
I530
sg6
I28
sg7
I11
sg8
I0
sg9
I6
sg10
I2
sg11
I530
ssS'three'
p16
(dp17
g5
I1043
sg6
I28
sg7
I11
sg8
I18
sg9
I6
sg10
I0
sg11
I510
sssS'Wahono.csv'
p18
(dp19
g3
(dp20
g5
I1995
sg6
I47
sg7
I12
sg8
I10
sg9
I3
sg10
I5
sg11
I1340
ssg12
(dp21
g5
I589
sg6
I39
sg7
I6
sg8
I12
sg9
I17
sg10
I0
sg11
I430
ssg14
(dp22
g5
I1800
sg6
I41
sg7
I19
sg8
I0
sg9
I2
sg10
I7
sg11
I1800
ssg16
(dp23
g5
I3051
sg6
I51
sg7
I8
sg8
I29
sg9
I3
sg10
I0
sg11
I1510
sssS'Hall.csv'
p24
(dp25
g3
(dp26
g5
I643
sg6
I96
sg7
I6
sg8
I25
sg9
I2
sg10
I1
sg11
I450
ssg12
(dp27
g5
I648
sg6
I85
sg7
I16
sg8
I14
sg9
I3
sg10
I4
sg11
I470
ssg14
(dp28
g5
I1300
sg6
I67
sg7
I36
sg8
I0
sg9
I1
sg10
I1
sg11
I1300
ssg16
(dp29
g5
I1625
sg6
I82
sg7
I20
sg8
I42
sg9
I2
sg10
I0
sg11
I790
sssS'Danijel.csv'
p30
(dp31
g3
(dp32
g5
I1397
sg6
I42
sg7
I3
sg8
I9
sg9
I3
sg10
I4
sg11
I830
ssg12
(dp33
g5
I235
sg6
I21
sg7
I4
sg8
I4
sg9
I23
sg10
I0
sg11
I160
ssg14
(dp34
g5
I1350
sg6
I32
sg7
I14
sg8
I0
sg9
I2
sg10
I5
sg11
I1350
ssg16
(dp35
g5
I2506
sg6
I35
sg7
I11
sg8
I24
sg9
I2
sg10
I0
sg11
I1240
sss.(dp0
S'K_all3.csv'
p1
(dp2
S'machine'
p3
(dp4
S'count'
p5
I540
sS'truepos'
p6
I31
sS'falseneg'
p7
I4
sS'correction'
p8
I5
sS'unknownyes'
p9
I10
sS'falsepos'
p10
I2
sS'unique'
p11
I390
ssS'knee'
p12
(dp13
g5
I1573
sg6
I40
sg7
I5
sg8
I8
sg9
I0
sg10
I9
sg11
I1150
ssS'none'
p14
(dp15
g5
I540
sg6
I25
sg7
I15
sg8
I0
sg9
I5
sg10
I3
sg11
I540
ssS'three'
p16
(dp17
g5
I959
sg6
I31
sg7
I10
sg8
I18
sg9
I4
sg10
I0
sg11
I470
sssS'Wahono.csv'
p18
(dp19
g3
(dp20
g5
I1815
sg6
I56
sg7
I3
sg8
I12
sg9
I3
sg10
I3
sg11
I1210
ssg12
(dp21
g5
I663
sg6
I45
sg7
I2
sg8
I9
sg9
I15
sg10
I2
sg11
I380
ssg14
(dp22
g5
I1630
sg6
I45
sg7
I17
sg8
I0
sg9
I0
sg10
I0
sg11
I1630
ssg16
(dp23
g5
I2996
sg6
I47
sg7
I12
sg8
I32
sg9
I3
sg10
I0
sg11
I1480
sssS'Hall.csv'
p24
(dp25
g3
(dp26
g5
I898
sg6
I89
sg7
I13
sg8
I19
sg9
I2
sg10
I1
sg11
I630
ssg12
(dp27
g5
I24
sg6
I7
sg7
I2
sg8
I1
sg9
I95
sg10
I0
sg11
I20
ssg14
(dp28
g5
I1330
sg6
I71
sg7
I32
sg8
I0
sg9
I1
sg10
I2
sg11
I1330
ssg16
(dp29
g5
I1268
sg6
I81
sg7
I21
sg8
I40
sg9
I2
sg10
I0
sg11
I610
sssS'Danijel.csv'
p30
(dp31
g3
(dp32
g5
I1514
sg6
I44
sg7
I1
sg8
I9
sg9
I3
sg10
I5
sg11
I920
ssg12
(dp33
g5
I930
sg6
I37
sg7
I8
sg8
I8
sg9
I3
sg10
I1
sg11
I700
ssg14
(dp34
g5
I1760
sg6
I33
sg7
I13
sg8
I0
sg9
I2
sg10
I5
sg11
I1760
ssg16
(dp35
g5
I2387
sg6
I37
sg7
I9
sg8
I23
sg9
I2
sg10
I0
sg11
I1180
sss.(dp0
S'K_all3.csv'
p1
(dp2
S'machine'
p3
(dp4
S'count'
p5
I732
sS'truepos'
p6
I33
sS'falseneg'
p7
I6
sS'correction'
p8
I5
sS'unknownyes'
p9
I6
sS'falsepos'
p10
I3
sS'unique'
p11
I490
ssS'knee'
p12
(dp13
g5
I1283
sg6
I39
sg7
I5
sg8
I10
sg9
I1
sg10
I5
sg11
I910
ssS'none'
p14
(dp15
g5
I520
sg6
I25
sg7
I12
sg8
I0
sg9
I8
sg10
I1
sg11
I520
ssS'three'
p16
(dp17
g5
I1006
sg6
I30
sg7
I10
sg8
I21
sg9
I5
sg10
I0
sg11
I490
sssS'Wahono.csv'
p18
(dp19
g3
(dp20
g5
I2027
sg6
I53
sg7
I6
sg8
I11
sg9
I3
sg10
I6
sg11
I1270
ssg12
(dp21
g5
I680
sg6
I37
sg7
I10
sg8
I10
sg9
I15
sg10
I3
sg11
I530
ssg14
(dp22
g5
I1460
sg6
I48
sg7
I12
sg8
I0
sg9
I2
sg10
I2
sg11
I1460
ssg16
(dp23
g5
I2474
sg6
I47
sg7
I12
sg8
I31
sg9
I3
sg10
I0
sg11
I1220
sssS'Hall.csv'
p24
(dp25
g3
(dp26
g5
I754
sg6
I91
sg7
I10
sg8
I28
sg9
I3
sg10
I1
sg11
I530
ssg12
(dp27
g5
I752
sg6
I85
sg7
I17
sg8
I20
sg9
I2
sg10
I0
sg11
I560
ssg14
(dp28
g5
I1330
sg6
I72
sg7
I31
sg8
I0
sg9
I1
sg10
I3
sg11
I1330
ssg16
(dp29
g5
I1603
sg6
I74
sg7
I28
sg8
I35
sg9
I2
sg10
I0
sg11
I780
sssS'Danijel.csv'
p30
(dp31
g3
(dp32
g5
I1171
sg6
I34
sg7
I10
sg8
I10
sg9
I4
sg10
I5
sg11
I820
ssg12
(dp33
g5
I760
sg6
I39
sg7
I6
sg8
I8
sg9
I3
sg10
I5
sg11
I530
ssg14
(dp34
g5
I1170
sg6
I31
sg7
I15
sg8
I0
sg9
I2
sg10
I2
sg11
I1170
ssg16
(dp35
g5
I2967
sg6
I36
sg7
I10
sg8
I21
sg9
I2
sg10
I0
sg11
I1470
sss.(dp0
S'K_all3.csv'
p1
(dp2
S'machine'
p3
(dp4
S'count'
p5
I540
sS'truepos'
p6
I39
sS'falseneg'
p7
I2
sS'correction'
p8
I8
sS'unknownyes'
p9
I4
sS'falsepos'
p10
I3
sS'unique'
p11
I390
ssS'knee'
p12
(dp13
g5
I2544
sg6
I42
sg7
I3
sg8
I17
sg9
I0
sg10
I17
sg11
I1680
ssS'none'
p14
(dp15
g5
I490
sg6
I25
sg7
I16
sg8
I0
sg9
I4
sg10
I4
sg11
I490
ssS'three'
p16
(dp17
g5
I969
sg6
I31
sg7
I10
sg8
I25
sg9
I4
sg10
I0
sg11
I470
sssS'Wahono.csv'
p18
(dp19
g3
(dp20
g5
I2015
sg6
I53
sg7
I6
sg8
I13
sg9
I3
sg10
I6
sg11
I1290
ssg12
(dp21
g5
I831
sg6
I49
sg7
I3
sg8
I10
sg9
I10
sg10
I0
sg11
I580
ssg14
(dp22
g5
I1230
sg6
I41
sg7
I20
sg8
I0
sg9
I1
sg10
I0
sg11
I1230
ssg16
(dp23
g5
I2786
sg6
I48
sg7
I11
sg8
I23
sg9
I3
sg10
I0
sg11
I1380
sssS'Hall.csv'
p24
(dp25
g3
(dp26
g5
I829
sg6
I95
sg7
I7
sg8
I19
sg9
I2
sg10
I2
sg11
I600
ssg12
(dp27
g5
I724
sg6
I88
sg7
I14
sg8
I21
sg9
I2
sg10
I0
sg11
I540
ssg14
(dp28
g5
I1000
sg6
I68
sg7
I34
sg8
I0
sg9
I2
sg10
I3
sg11
I1000
ssg16
(dp29
g5
I1307
sg6
I84
sg7
I18
sg8
I42
sg9
I2
sg10
I0
sg11
I630
sssS'Danijel.csv'
p30
(dp31
g3
(dp32
g5
I1359
sg6
I43
sg7
I2
sg8
I11
sg9
I3
sg10
I1
sg11
I920
ssg12
(dp33
g5
I583
sg6
I31
sg7
I10
sg8
I4
sg9
I7
sg10
I1
sg11
I450
ssg14
(dp34
g5
I1090
sg6
I33
sg7
I14
sg8
I0
sg9
I1
sg10
I4
sg11
I1090
ssg16
(dp35
g5
I2191
sg6
I35
sg7
I11
sg8
I28
sg9
I2
sg10
I1
sg11
I1080
sss.(dp0
S'K_all3.csv'
p1
(dp2
S'machine'
p3
(dp4
S'count'
p5
I700
sS'truepos'
p6
I27
sS'falseneg'
p7
I11
sS'correction'
p8
I8
sS'unknownyes'
p9
I7
sS'falsepos'
p10
I7
sS'unique'
p11
I550
ssS'knee'
p12
(dp13
g5
I1065
sg6
I34
sg7
I10
sg8
I12
sg9
I1
sg10
I2
sg11
I840
ssS'none'
p14
(dp15
g5
I520
sg6
I30
sg7
I9
sg8
I0
sg9
I6
sg10
I4
sg11
I520
ssS'three'
p16
(dp17
g5
I1026
sg6
I32
sg7
I9
sg8
I24
sg9
I4
sg10
I0
sg11
I500
sssS'Wahono.csv'
p18
(dp19
g3
(dp20
g5
I1682
sg6
I54
sg7
I6
sg8
I7
sg9
I2
sg10
I3
sg11
I1150
ssg12
(dp21
g5
I1000
sg6
I49
sg7
I7
sg8
I12
sg9
I6
sg10
I2
sg11
I690
ssg14
(dp22
g5
I1880
sg6
I43
sg7
I16
sg8
I0
sg9
I3
sg10
I9
sg11
I1880
ssg16
(dp23
g5
I3670
sg6
I45
sg7
I14
sg8
I23
sg9
I3
sg10
I1
sg11
I1820
sssS'Hall.csv'
p24
(dp25
g3
(dp26
g5
I657
sg6
I90
sg7
I12
sg8
I21
sg9
I2
sg10
I0
sg11
I460
ssg12
(dp27
g5
I24
sg6
I8
sg7
I1
sg8
I2
sg9
I95
sg10
I0
sg11
I20
ssg14
(dp28
g5
I660
sg6
I76
sg7
I26
sg8
I0
sg9
I2
sg10
I3
sg11
I660
ssg16
(dp29
g5
I1393
sg6
I87
sg7
I15
sg8
I47
sg9
I2
sg10
I0
sg11
I670
sssS'Danijel.csv'
p30
(dp31
g3
(dp32
g5
I1199
sg6
I43
sg7
I2
sg8
I13
sg9
I3
sg10
I3
sg11
I730
ssg12
(dp33
g5
I651
sg6
I33
sg7
I9
sg8
I7
sg9
I6
sg10
I0
sg11
I490
ssg14
(dp34
g5
I1270
sg6
I31
sg7
I15
sg8
I0
sg9
I2
sg10
I3
sg11
I1270
ssg16
(dp35
g5
I2164
sg6
I37
sg7
I9
sg8
I21
sg9
I2
sg10
I0
sg11
I1070
sss.(dp0
S'K_all3.csv'
p1
(dp2
S'machine'
p3
(dp4
S'count'
p5
I635
sS'truepos'
p6
I29
sS'falseneg'
p7
I7
sS'correction'
p8
I3
sS'unknownyes'
p9
I9
sS'falsepos'
p10
I5
sS'unique'
p11
I420
ssS'knee'
p12
(dp13
g5
I1328
sg6
I35
sg7
I10
sg8
I11
sg9
I0
sg10
I8
sg11
I1100
ssS'none'
p14
(dp15
g5
I560
sg6
I23
sg7
I14
sg8
I0
sg9
I8
sg10
I3
sg11
I560
ssS'three'
p16
(dp17
g5
I1105
sg6
I35
sg7
I7
sg8
I24
sg9
I3
sg10
I0
sg11
I540
sssS'Wahono.csv'
p18
(dp19
g3
(dp20
g5
I2043
sg6
I53
sg7
I7
sg8
I12
sg9
I2
sg10
I3
sg11
I1340
ssg12
(dp21
g5
I2095
sg6
I51
sg7
I10
sg8
I16
sg9
I1
sg10
I2
sg11
I1590
ssg14
(dp22
g5
I1790
sg6
I41
sg7
I20
sg8
I0
sg9
I1
sg10
I4
sg11
I1790
ssg16
(dp23
g5
I2670
sg6
I49
sg7
I11
sg8
I27
sg9
I2
sg10
I0
sg11
I1320
sssS'Hall.csv'
p24
(dp25
g3
(dp26
g5
I784
sg6
I92
sg7
I10
sg8
I15
sg9
I2
sg10
I2
sg11
I570
ssg12
(dp27
g5
I257
sg6
I55
sg7
I7
sg8
I13
sg9
I42
sg10
I1
sg11
I160
ssg14
(dp28
g5
I1160
sg6
I75
sg7
I28
sg8
I0
sg9
I1
sg10
I4
sg11
I1160
ssg16
(dp29
g5
I1423
sg6
I81
sg7
I21
sg8
I40
sg9
I2
sg10
I0
sg11
I690
sssS'Danijel.csv'
p30
(dp31
g3
(dp32
g5
I1448
sg6
I42
sg7
I4
sg8
I9
sg9
I2
sg10
I2
sg11
I890
ssg12
(dp33
g5
I799
sg6
I37
sg7
I7
sg8
I10
sg9
I4
sg10
I1
sg11
I580
ssg14
(dp34
g5
I1190
sg6
I30
sg7
I17
sg8
I0
sg9
I1
sg10
I2
sg11
I1190
ssg16
(dp35
g5
I2083
sg6
I36
sg7
I10
sg8
I22
sg9
I2
sg10
I0
sg11
I1030
sss.(dp0
S'K_all3.csv'
p1
(dp2
S'machine'
p3
(dp4
S'count'
p5
I540
sS'truepos'
p6
I30
sS'falseneg'
p7
I8
sS'correction'
p8
I3
sS'unknownyes'
p9
I7
sS'falsepos'
p10
I4
sS'unique'
p11
I390
ssS'knee'
p12
(dp13
g5
I1088
sg6
I34
sg7
I9
sg8
I9
sg9
I2
sg10
I6
sg11
I880
ssS'none'
p14
(dp15
g5
I550
sg6
I26
sg7
I15
sg8
I0
sg9
I4
sg10
I4
sg11
I550
ssS'three'
p16
(dp17
g5
I1022
sg6
I30
sg7
I10
sg8
I18
sg9
I5
sg10
I1
sg11
I500
sssS'Wahono.csv'
p18
(dp19
g3
(dp20
g5
I1909
sg6
I52
sg7
I6
sg8
I17
sg9
I4
sg10
I7
sg11
I1290
ssg12
(dp21
g5
I71
sg6
I13
sg7
I2
sg8
I4
sg9
I47
sg10
I0
sg11
I50
ssg14
(dp22
g5
I1420
sg6
I45
sg7
I14
sg8
I0
sg9
I3
sg10
I0
sg11
I1420
ssg16
(dp23
g5
I3637
sg6
I44
sg7
I18
sg8
I32
sg9
I0
sg10
I0
sg11
I1800
sssS'Hall.csv'
p24
(dp25
g3
(dp26
g5
I883
sg6
I86
sg7
I16
sg8
I18
sg9
I2
sg10
I3
sg11
I620
ssg12
(dp27
g5
I625
sg6
I89
sg7
I11
sg8
I20
sg9
I4
sg10
I2
sg11
I420
ssg14
(dp28
g5
I1280
sg6
I64
sg7
I39
sg8
I0
sg9
I1
sg10
I3
sg11
I1280
ssg16
(dp29
g5
I1446
sg6
I80
sg7
I22
sg8
I40
sg9
I2
sg10
I0
sg11
I700
sssS'Danijel.csv'
p30
(dp31
g3
(dp32
g5
I1126
sg6
I39
sg7
I7
sg8
I10
sg9
I2
sg10
I2
sg11
I730
ssg12
(dp33
g5
I36
sg6
I4
sg7
I1
sg8
I0
sg9
I43
sg10
I0
sg11
I30
ssg14
(dp34
g5
I1410
sg6
I31
sg7
I15
sg8
I0
sg9
I2
sg10
I6
sg11
I1410
ssg16
(dp35
g5
I2045
sg6
I36
sg7
I10
sg8
I24
sg9
I2
sg10
I0
sg11
I1010
sss.(dp0
S'K_all3.csv'
p1
(dp2
S'machine'
p3
(dp4
S'count'
p5
I620
sS'truepos'
p6
I35
sS'falseneg'
p7
I3
sS'correction'
p8
I6
sS'unknownyes'
p9
I7
sS'falsepos'
p10
I7
sS'unique'
p11
I420
ssS'knee'
p12
(dp13
g5
I226
sg6
I18
sg7
I6
sg8
I2
sg9
I21
sg10
I3
sg11
I170
ssS'none'
p14
(dp15
g5
I490
sg6
I30
sg7
I10
sg8
I0
sg9
I5
sg10
I2
sg11
I490
ssS'three'
p16
(dp17
g5
I960
sg6
I30
sg7
I10
sg8
I15
sg9
I5
sg10
I0
sg11
I470
sssS'Wahono.csv'
p18
(dp19
g3
(dp20
g5
I2165
sg6
I58
sg7
I1
sg8
I11
sg9
I3
sg10
I9
sg11
I1400
ssg12
(dp21
g5
I24
sg6
I6
sg7
I0
sg8
I0
sg9
I56
sg10
I0
sg11
I20
ssg14
(dp22
g5
I1690
sg6
I41
sg7
I20
sg8
I0
sg9
I1
sg10
I3
sg11
I1690
ssg16
(dp23
g5
I2993
sg6
I50
sg7
I11
sg8
I28
sg9
I1
sg10
I1
sg11
I1480
sssS'Hall.csv'
p24
(dp25
g3
(dp26
g5
I1021
sg6
I89
sg7
I13
sg8
I24
sg9
I2
sg10
I4
sg11
I760
ssg12
(dp27
g5
I576
sg6
I92
sg7
I7
sg8
I21
sg9
I5
sg10
I2
sg11
I400
ssg14
(dp28
g5
I1130
sg6
I70
sg7
I33
sg8
I0
sg9
I1
sg10
I3
sg11
I1130
ssg16
(dp29
g5
I1403
sg6
I82
sg7
I20
sg8
I37
sg9
I2
sg10
I0
sg11
I680
sssS'Danijel.csv'
p30
(dp31
g3
(dp32
g5
I1299
sg6
I40
sg7
I5
sg8
I8
sg9
I3
sg10
I3
sg11
I800
ssg12
(dp33
g5
I466
sg6
I32
sg7
I6
sg8
I8
sg9
I10
sg10
I0
sg11
I280
ssg14
(dp34
g5
I1820
sg6
I34
sg7
I13
sg8
I0
sg9
I1
sg10
I4
sg11
I1820
ssg16
(dp35
g5
I2293
sg6
I34
sg7
I12
sg8
I29
sg9
I2
sg10
I0
sg11
I1130
sss.(dp0
S'K_all3.csv'
p1
(dp2
S'machine'
p3
(dp4
S'count'
p5
I635
sS'truepos'
p6
I31
sS'falseneg'
p7
I8
sS'correction'
p8
I6
sS'unknownyes'
p9
I6
sS'falsepos'
p10
I6
sS'unique'
p11
I440
ssS'knee'
p12
(dp13
g5
I1231
sg6
I38
sg7
I5
sg8
I8
sg9
I2
sg10
I8
sg11
I850
ssS'none'
p14
(dp15
g5
I590
sg6
I27
sg7
I15
sg8
I0
sg9
I3
sg10
I1
sg11
I590
ssS'three'
p16
(dp17
g5
I1042
sg6
I34
sg7
I7
sg8
I20
sg9
I4
sg10
I0
sg11
I510
sssS'Wahono.csv'
p18
(dp19
g3
(dp20
g5
I2057
sg6
I55
sg7
I4
sg8
I19
sg9
I3
sg10
I8
sg11
I1380
ssg12
(dp21
g5
I634
sg6
I40
sg7
I11
sg8
I10
sg9
I11
sg10
I2
sg11
I430
ssg14
(dp22
g5
I1520
sg6
I45
sg7
I16
sg8
I0
sg9
I1
sg10
I5
sg11
I1520
ssg16
(dp23
g5
I2932
sg6
I44
sg7
I17
sg8
I27
sg9
I1
sg10
I0
sg11
I1450
sssS'Hall.csv'
p24
(dp25
g3
(dp26
g5
I692
sg6
I93
sg7
I9
sg8
I21
sg9
I2
sg10
I3
sg11
I470
ssg12
(dp27
g5
I764
sg6
I88
sg7
I14
sg8
I26
sg9
I2
sg10
I0
sg11
I570
ssg14
(dp28
g5
I1390
sg6
I72
sg7
I31
sg8
I0
sg9
I1
sg10
I5
sg11
I1390
ssg16
(dp29
g5
I1306
sg6
I78
sg7
I24
sg8
I38
sg9
I2
sg10
I0
sg11
I630
sssS'Danijel.csv'
p30
(dp31
g3
(dp32
g5
I1449
sg6
I41
sg7
I4
sg8
I8
sg9
I3
sg10
I5
sg11
I880
ssg12
(dp33
g5
I877
sg6
I40
sg7
I6
sg8
I4
sg9
I2
sg10
I0
sg11
I720
ssg14
(dp34
g5
I1140
sg6
I32
sg7
I14
sg8
I0
sg9
I2
sg10
I2
sg11
I1140
ssg16
(dp35
g5
I2523
sg6
I34
sg7
I12
sg8
I19
sg9
I2
sg10
I0
sg11
I1250
sss.(dp0
S'K_all3.csv'
p1
(dp2
S'machine'
p3
(dp4
S'count'
p5
I680
sS'truepos'
p6
I35
sS'falseneg'
p7
I6
sS'correction'
p8
I6
sS'unknownyes'
p9
I4
sS'falsepos'
p10
I2
sS'unique'
p11
I430
ssS'knee'
p12
(dp13
g5
I476
sg6
I29
sg7
I2
sg8
I4
sg9
I14
sg10
I0
sg11
I300
ssS'none'
p14
(dp15
g5
I540
sg6
I28
sg7
I12
sg8
I0
sg9
I5
sg10
I5
sg11
I540
ssS'three'
p16
(dp17
g5
I1109
sg6
I37
sg7
I5
sg8
I28
sg9
I3
sg10
I0
sg11
I540
sssS'Wahono.csv'
p18
(dp19
g3
(dp20
g5
I2501
sg6
I57
sg7
I4
sg8
I13
sg9
I1
sg10
I10
sg11
I1610
ssg12
(dp21
g5
I903
sg6
I41
sg7
I10
sg8
I8
sg9
I11
sg10
I1
sg11
I720
ssg14
(dp22
g5
I1790
sg6
I41
sg7
I18
sg8
I0
sg9
I3
sg10
I6
sg11
I1790
ssg16
(dp23
g5
I3582
sg6
I40
sg7
I21
sg8
I35
sg9
I1
sg10
I0
sg11
I1770
sssS'Hall.csv'
p24
(dp25
g3
(dp26
g5
I699
sg6
I94
sg7
I8
sg8
I18
sg9
I2
sg10
I1
sg11
I480
ssg12
(dp27
g5
I760
sg6
I83
sg7
I19
sg8
I19
sg9
I2
sg10
I1
sg11
I500
ssg14
(dp28
g5
I850
sg6
I66
sg7
I37
sg8
I0
sg9
I1
sg10
I1
sg11
I850
ssg16
(dp29
g5
I1056
sg6
I78
sg7
I24
sg8
I44
sg9
I2
sg10
I0
sg11
I500
sssS'Danijel.csv'
p30
(dp31
g3
(dp32
g5
I1316
sg6
I43
sg7
I2
sg8
I8
sg9
I3
sg10
I1
sg11
I810
ssg12
(dp33
g5
I1202
sg6
I42
sg7
I4
sg8
I12
sg9
I2
sg10
I1
sg11
I800
ssg14
(dp34
g5
I1180
sg6
I29
sg7
I16
sg8
I0
sg9
I3
sg10
I3
sg11
I1180
ssg16
(dp35
g5
I1802
sg6
I38
sg7
I7
sg8
I21
sg9
I3
sg10
I0
sg11
I890
sss.(dp0
S'K_all3.csv'
p1
(dp2
S'machine'
p3
(dp4
S'count'
p5
I700
sS'truepos'
p6
I30
sS'falseneg'
p7
I6
sS'correction'
p8
I6
sS'unknownyes'
p9
I9
sS'falsepos'
p10
I3
sS'unique'
p11
I500
ssS'knee'
p12
(dp13
g5
I1792
sg6
I39
sg7
I6
sg8
I13
sg9
I0
sg10
I12
sg11
I1240
ssS'none'
p14
(dp15
g5
I630
sg6
I20
sg7
I21
sg8
I0
sg9
I4
sg10
I3
sg11
I630
ssS'three'
p16
(dp17
g5
I1007
sg6
I37
sg7
I4
sg8
I25
sg9
I4
sg10
I0
sg11
I490
sssS'Wahono.csv'
p18
(dp19
g3
(dp20
g5
I2155
sg6
I50
sg7
I10
sg8
I5
sg9
I2
sg10
I7
sg11
I1480
ssg12
(dp21
g5
I1958
sg6
I51
sg7
I9
sg8
I15
sg9
I2
sg10
I1
sg11
I1550
ssg14
(dp22
g5
I1140
sg6
I44
sg7
I15
sg8
I0
sg9
I3
sg10
I3
sg11
I1140
ssg16
(dp23
g5
I2611
sg6
I46
sg7
I14
sg8
I27
sg9
I2
sg10
I0
sg11
I1290
sssS'Hall.csv'
p24
(dp25
g3
(dp26
g5
I990
sg6
I88
sg7
I14
sg8
I22
sg9
I2
sg10
I4
sg11
I750
ssg12
(dp27
g5
I485
sg6
I81
sg7
I14
sg8
I13
sg9
I9
sg10
I1
sg11
I320
ssg14
(dp28
g5
I1200
sg6
I70
sg7
I33
sg8
I0
sg9
I1
sg10
I3
sg11
I1200
ssg16
(dp29
g5
I1128
sg6
I85
sg7
I17
sg8
I41
sg9
I2
sg10
I0
sg11
I540
sssS'Danijel.csv'
p30
(dp31
g3
(dp32
g5
I1249
sg6
I40
sg7
I5
sg8
I9
sg9
I3
sg10
I4
sg11
I770
ssg12
(dp33
g5
I368
sg6
I28
sg7
I2
sg8
I4
sg9
I18
sg10
I0
sg11
I240
ssg14
(dp34
g5
I1480
sg6
I34
sg7
I13
sg8
I0
sg9
I1
sg10
I2
sg11
I1480
ssg16
(dp35
g5
I2485
sg6
I30
sg7
I16
sg8
I22
sg9
I2
sg10
I0
sg11
I1230
sss.(dp0
S'K_all3.csv'
p1
(dp2
S'machine'
p3
(dp4
S'count'
p5
I610
sS'truepos'
p6
I33
sS'falseneg'
p7
I5
sS'correction'
p8
I5
sS'unknownyes'
p9
I7
sS'falsepos'
p10
I5
sS'unique'
p11
I410
ssS'knee'
p12
(dp13
g5
I820
sg6
I35
sg7
I6
sg8
I11
sg9
I4
sg10
I3
sg11
I600
ssS'none'
p14
(dp15
g5
I700
sg6
I30
sg7
I13
sg8
I0
sg9
I2
sg10
I5
sg11
I700
ssS'three'
p16
(dp17
g5
I1166
sg6
I30
sg7
I12
sg8
I23
sg9
I3
sg10
I0
sg11
I570
sssS'Wahono.csv'
p18
(dp19
g3
(dp20
g5
I1864
sg6
I56
sg7
I3
sg8
I12
sg9
I3
sg10
I4
sg11
I1260
ssg12
(dp21
g5
I119
sg6
I17
sg7
I3
sg8
I6
sg9
I42
sg10
I0
sg11
I80
ssg14
(dp22
g5
I1880
sg6
I39
sg7
I21
sg8
I0
sg9
I2
sg10
I6
sg11
I1880
ssg16
(dp23
g5
I2655
sg6
I49
sg7
I11
sg8
I32
sg9
I2
sg10
I1
sg11
I1310
sssS'Hall.csv'
p24
(dp25
g3
(dp26
g5
I883
sg6
I87
sg7
I15
sg8
I15
sg9
I2
sg10
I3
sg11
I620
ssg12
(dp27
g5
I637
sg6
I89
sg7
I12
sg8
I16
sg9
I3
sg10
I1
sg11
I450
ssg14
(dp28
g5
I1760
sg6
I67
sg7
I36
sg8
I0
sg9
I1
sg10
I6
sg11
I1760
ssg16
(dp29
g5
I1393
sg6
I78
sg7
I24
sg8
I41
sg9
I2
sg10
I0
sg11
I670
sssS'Danijel.csv'
p30
(dp31
g3
(dp32
g5
I1447
sg6
I37
sg7
I10
sg8
I8
sg9
I1
sg10
I7
sg11
I910
ssg12
(dp33
g5
I880
sg6
I35
sg7
I9
sg8
I8
sg9
I4
sg10
I0
sg11
I640
ssg14
(dp34
g5
I1350
sg6
I29
sg7
I17
sg8
I0
sg9
I2
sg10
I6
sg11
I1350
ssg16
(dp35
g5
I2519
sg6
I37
sg7
I9
sg8
I17
sg9
I2
sg10
I0
sg11
I1250
sss.(dp0
S'K_all3.csv'
p1
(dp2
S'machine'
p3
(dp4
S'count'
p5
I660
sS'truepos'
p6
I36
sS'falseneg'
p7
I2
sS'correction'
p8
I6
sS'unknownyes'
p9
I7
sS'falsepos'
p10
I1
sS'unique'
p11
I430
ssS'knee'
p12
(dp13
g5
I1128
sg6
I38
sg7
I4
sg8
I10
sg9
I3
sg10
I5
sg11
I760
ssS'none'
p14
(dp15
g5
I530
sg6
I31
sg7
I7
sg8
I0
sg9
I7
sg10
I2
sg11
I530
ssS'three'
p16
(dp17
g5
I899
sg6
I33
sg7
I4
sg8
I19
sg9
I8
sg10
I0
sg11
I440
sssS'Wahono.csv'
p18
(dp19
g3
(dp20
g5
I1865
sg6
I54
sg7
I7
sg8
I12
sg9
I1
sg10
I3
sg11
I1320
ssg12
(dp21
g5
I2098
sg6
I49
sg7
I11
sg8
I15
sg9
I2
sg10
I4
sg11
I1650
ssg14
(dp22
g5
I1520
sg6
I42
sg7
I18
sg8
I0
sg9
I2
sg10
I1
sg11
I1520
ssg16
(dp23
g5
I3134
sg6
I50
sg7
I10
sg8
I32
sg9
I2
sg10
I0
sg11
I1550
sssS'Hall.csv'
p24
(dp25
g3
(dp26
g5
I846
sg6
I93
sg7
I9
sg8
I17
sg9
I2
sg10
I1
sg11
I570
ssg12
(dp27
g5
I664
sg6
I82
sg7
I19
sg8
I16
sg9
I3
sg10
I1
sg11
I460
ssg14
(dp28
g5
I1180
sg6
I75
sg7
I27
sg8
I0
sg9
I2
sg10
I4
sg11
I1180
ssg16
(dp29
g5
I1466
sg6
I78
sg7
I24
sg8
I39
sg9
I2
sg10
I0
sg11
I710
sssS'Danijel.csv'
p30
(dp31
g3
(dp32
g5
I1550
sg6
I42
sg7
I4
sg8
I9
sg9
I2
sg10
I4
sg11
I950
ssg12
(dp33
g5
I36
sg6
I4
sg7
I1
sg8
I0
sg9
I43
sg10
I0
sg11
I30
ssg14
(dp34
g5
I1520
sg6
I33
sg7
I13
sg8
I0
sg9
I2
sg10
I3
sg11
I1520
ssg16
(dp35
g5
I2245
sg6
I35
sg7
I11
sg8
I21
sg9
I2
sg10
I0
sg11
I1110
sss.(dp0
S'K_all3.csv'
p1
(dp2
S'machine'
p3
(dp4
S'count'
p5
I680
sS'truepos'
p6
I33
sS'falseneg'
p7
I6
sS'correction'
p8
I5
sS'unknownyes'
p9
I6
sS'falsepos'
p10
I4
sS'unique'
p11
I430
ssS'knee'
p12
(dp13
g5
I1457
sg6
I34
sg7
I11
sg8
I11
sg9
I0
sg10
I6
sg11
I1190
ssS'none'
p14
(dp15
g5
I460
sg6
I26
sg7
I9
sg8
I0
sg9
I10
sg10
I2
sg11
I460
ssS'three'
p16
(dp17
g5
I1202
sg6
I30
sg7
I11
sg8
I17
sg9
I4
sg10
I0
sg11
I590
sssS'Wahono.csv'
p18
(dp19
g3
(dp20
g5
I2510
sg6
I54
sg7
I7
sg8
I11
sg9
I1
sg10
I10
sg11
I1650
ssg12
(dp21
g5
I260
sg6
I18
sg7
I6
sg8
I4
sg9
I38
sg10
I0
sg11
I200
ssg14
(dp22
g5
I1470
sg6
I43
sg7
I18
sg8
I0
sg9
I1
sg10
I3
sg11
I1470
ssg16
(dp23
g5
I2349
sg6
I47
sg7
I12
sg8
I28
sg9
I3
sg10
I0
sg11
I1160
sssS'Hall.csv'
p24
(dp25
g3
(dp26
g5
I621
sg6
I94
sg7
I6
sg8
I25
sg9
I4
sg10
I3
sg11
I430
ssg12
(dp27
g5
I819
sg6
I82
sg7
I20
sg8
I18
sg9
I2
sg10
I2
sg11
I620
ssg14
(dp28
g5
I1520
sg6
I68
sg7
I35
sg8
I0
sg9
I1
sg10
I3
sg11
I1520
ssg16
(dp29
g5
I942
sg6
I82
sg7
I19
sg8
I36
sg9
I3
sg10
I0
sg11
I450
sssS'Danijel.csv'
p30
(dp31
g3
(dp32
g5
I1593
sg6
I42
sg7
I4
sg8
I9
sg9
I2
sg10
I2
sg11
I1050
ssg12
(dp33
g5
I1180
sg6
I38
sg7
I7
sg8
I11
sg9
I3
sg10
I5
sg11
I870
ssg14
(dp34
g5
I1410
sg6
I29
sg7
I17
sg8
I0
sg9
I2
sg10
I5
sg11
I1410
ssg16
(dp35
g5
I2239
sg6
I34
sg7
I12
sg8
I15
sg9
I2
sg10
I0
sg11
I1110
sss.(dp0
S'K_all3.csv'
p1
(dp2
S'machine'
p3
(dp4
S'count'
p5
I704
sS'truepos'
p6
I33
sS'falseneg'
p7
I4
sS'correction'
p8
I3
sS'unknownyes'
p9
I8
sS'falsepos'
p10
I6
sS'unique'
p11
I430
ssS'knee'
p12
(dp13
g5
I914
sg6
I28
sg7
I14
sg8
I5
sg9
I3
sg10
I4
sg11
I780
ssS'none'
p14
(dp15
g5
I440
sg6
I33
sg7
I7
sg8
I0
sg9
I5
sg10
I6
sg11
I440
ssS'three'
p16
(dp17
g5
I969
sg6
I34
sg7
I7
sg8
I28
sg9
I4
sg10
I0
sg11
I470
sssS'Wahono.csv'
p18
(dp19
g3
(dp20
g5
I2262
sg6
I51
sg7
I9
sg8
I12
sg9
I2
sg10
I5
sg11
I1520
ssg12
(dp21
g5
I1190
sg6
I50
sg7
I10
sg8
I6
sg9
I2
sg10
I0
sg11
I1010
ssg14
(dp22
g5
I1850
sg6
I35
sg7
I25
sg8
I0
sg9
I2
sg10
I5
sg11
I1850
ssg16
(dp23
g5
I3074
sg6
I48
sg7
I13
sg8
I31
sg9
I1
sg10
I0
sg11
I1520
sssS'Hall.csv'
p24
(dp25
g3
(dp26
g5
I689
sg6
I95
sg7
I7
sg8
I21
sg9
I2
sg10
I0
sg11
I480
ssg12
(dp27
g5
I716
sg6
I92
sg7
I10
sg8
I22
sg9
I2
sg10
I3
sg11
I560
ssg14
(dp28
g5
I1260
sg6
I71
sg7
I32
sg8
I0
sg9
I1
sg10
I6
sg11
I1260
ssg16
(dp29
g5
I1411
sg6
I80
sg7
I22
sg8
I48
sg9
I2
sg10
I0
sg11
I680
sssS'Danijel.csv'
p30
(dp31
g3
(dp32
g5
I2221
sg6
I43
sg7
I3
sg8
I8
sg9
I2
sg10
I7
sg11
I1400
ssg12
(dp33
g5
I37
sg6
I4
sg7
I1
sg8
I1
sg9
I43
sg10
I0
sg11
I30
ssg14
(dp34
g5
I1010
sg6
I33
sg7
I12
sg8
I0
sg9
I3
sg10
I5
sg11
I1010
ssg16
(dp35
g5
I2767
sg6
I33
sg7
I13
sg8
I21
sg9
I2
sg10
I0
sg11
I1370
sss.(dp0
S'K_all3.csv'
p1
(dp2
S'machine'
p3
(dp4
S'count'
p5
I748
sS'truepos'
p6
I35
sS'falseneg'
p7
I6
sS'correction'
p8
I5
sS'unknownyes'
p9
I4
sS'falsepos'
p10
I3
sS'unique'
p11
I470
ssS'knee'
p12
(dp13
g5
I1862
sg6
I37
sg7
I8
sg8
I17
sg9
I0
sg10
I9
sg11
I1490
ssS'none'
p14
(dp15
g5
I510
sg6
I30
sg7
I10
sg8
I0
sg9
I5
sg10
I2
sg11
I510
ssS'three'
p16
(dp17
g5
I1127
sg6
I30
sg7
I11
sg8
I26
sg9
I4
sg10
I0
sg11
I550
sssS'Wahono.csv'
p18
(dp19
g3
(dp20
g5
I1902
sg6
I54
sg7
I6
sg8
I11
sg9
I2
sg10
I3
sg11
I1250
ssg12
(dp21
g5
I718
sg6
I45
sg7
I7
sg8
I5
sg9
I10
sg10
I3
sg11
I510
ssg14
(dp22
g5
I1750
sg6
I39
sg7
I21
sg8
I0
sg9
I2
sg10
I4
sg11
I1750
ssg16
(dp23
g5
I3129
sg6
I49
sg7
I12
sg8
I27
sg9
I1
sg10
I0
sg11
I1550
sssS'Hall.csv'
p24
(dp25
g3
(dp26
g5
I704
sg6
I94
sg7
I8
sg8
I17
sg9
I2
sg10
I2
sg11
I490
ssg12
(dp27
g5
I646
sg6
I85
sg7
I15
sg8
I18
sg9
I4
sg10
I1
sg11
I470
ssg14
(dp28
g5
I750
sg6
I75
sg7
I28
sg8
I0
sg9
I1
sg10
I3
sg11
I750
ssg16
(dp29
g5
I1467
sg6
I78
sg7
I24
sg8
I42
sg9
I2
sg10
I1
sg11
I710
sssS'Danijel.csv'
p30
(dp31
g3
(dp32
g5
I1259
sg6
I44
sg7
I1
sg8
I13
sg9
I3
sg10
I0
sg11
I820
ssg12
(dp33
g5
I789
sg6
I36
sg7
I8
sg8
I8
sg9
I4
sg10
I0
sg11
I650
ssg14
(dp34
g5
I1210
sg6
I32
sg7
I14
sg8
I0
sg9
I2
sg10
I3
sg11
I1210
ssg16
(dp35
g5
I2566
sg6
I38
sg7
I9
sg8
I22
sg9
I1
sg10
I0
sg11
I1270
sss.