(dp0
S'K_all3.csv'
p1
(dp2
S'machine'
p3
(dp4
S'count'
p5
I681
sS'truepos'
p6
I27
sS'falseneg'
p7
I13
sS'correction'
p8
I3
sS'unknownyes'
p9
I5
sS'falsepos'
p10
I7
sS'unique'
p11
I630
ssS'knee'
p12
(dp13
g5
I79
sg6
I1
sg7
I0
sg8
I0
sg9
I44
sg10
I0
sg11
I70
ssS'none'
p14
(dp15
g5
I710
sg6
I30
sg7
I14
sg8
I0
sg9
I1
sg10
I4
sg11
I710
ssS'three'
p16
(dp17
g5
I1507
sg6
I31
sg7
I9
sg8
I25
sg9
I5
sg10
I0
sg11
I740
sssS'Wahono.csv'
p18
(dp19
g3
(dp20
g5
I1825
sg6
I56
sg7
I4
sg8
I12
sg9
I2
sg10
I6
sg11
I1210
ssg12
(dp21
g5
I24
sg6
I6
sg7
I1
sg8
I0
sg9
I55
sg10
I0
sg11
I20
ssg14
(dp22
g5
I1580
sg6
I49
sg7
I11
sg8
I0
sg9
I2
sg10
I7
sg11
I1580
ssg16
(dp23
g5
I2487
sg6
I42
sg7
I17
sg8
I20
sg9
I3
sg10
I0
sg11
I1230
sssS'Hall.csv'
p24
(dp25
g3
(dp26
g5
I789
sg6
I94
sg7
I8
sg8
I21
sg9
I2
sg10
I0
sg11
I590
ssg12
(dp27
g5
I634
sg6
I96
sg7
I5
sg8
I16
sg9
I3
sg10
I0
sg11
I460
ssg14
(dp28
g5
I650
sg6
I74
sg7
I28
sg8
I0
sg9
I2
sg10
I3
sg11
I650
ssg16
(dp29
g5
I1492
sg6
I74
sg7
I28
sg8
I41
sg9
I2
sg10
I0
sg11
I720
sssS'Danijel.csv'
p30
(dp31
g3
(dp32
g5
I1371
sg6
I40
sg7
I6
sg8
I9
sg9
I2
sg10
I4
sg11
I880
ssg12
(dp33
g5
I79
sg6
I3
sg7
I2
sg8
I2
sg9
I43
sg10
I0
sg11
I70
ssg14
(dp34
g5
I1260
sg6
I33
sg7
I13
sg8
I0
sg9
I2
sg10
I3
sg11
I1260
ssg16
(dp35
g5
I1703
sg6
I38
sg7
I8
sg8
I21
sg9
I2
sg10
I0
sg11
I840
sss.(dp0
S'K_all3.csv'
p1
(dp2
S'machine'
p3
(dp4
S'count'
p5
I1106
sS'truepos'
p6
I22
sS'falseneg'
p7
I23
sS'correction'
p8
I6
sS'unknownyes'
p9
I0
sS'falsepos'
p10
I8
sS'unique'
p11
I1090
ssS'knee'
p12
(dp13
g5
I79
sg6
I1
sg7
I0
sg8
I0
sg9
I44
sg10
I0
sg11
I70
ssS'none'
p14
(dp15
g5
I870
sg6
I26
sg7
I18
sg8
I0
sg9
I1
sg10
I7
sg11
I870
ssS'three'
p16
(dp17
g5
I1473
sg6
I34
sg7
I9
sg8
I30
sg9
I2
sg10
I0
sg11
I720
sssS'Wahono.csv'
p18
(dp19
g3
(dp20
g5
I1609
sg6
I54
sg7
I5
sg8
I16
sg9
I3
sg10
I4
sg11
I1090
ssg12
(dp21
g5
I1133
sg6
I45
sg7
I6
sg8
I13
sg9
I11
sg10
I1
sg11
I760
ssg14
(dp22
g5
I1530
sg6
I39
sg7
I20
sg8
I0
sg9
I3
sg10
I0
sg11
I1530
ssg16
(dp23
g5
I2730
sg6
I49
sg7
I10
sg8
I27
sg9
I3
sg10
I0
sg11
I1350
sssS'Hall.csv'
p24
(dp25
g3
(dp26
g5
I940
sg6
I86
sg7
I16
sg8
I20
sg9
I2
sg10
I2
sg11
I700
ssg12
(dp27
g5
I765
sg6
I96
sg7
I5
sg8
I30
sg9
I3
sg10
I3
sg11
I530
ssg14
(dp28
g5
I920
sg6
I65
sg7
I38
sg8
I0
sg9
I1
sg10
I1
sg11
I920
ssg16
(dp29
g5
I1825
sg6
I85
sg7
I18
sg8
I41
sg9
I1
sg10
I0
sg11
I890
sssS'Danijel.csv'
p30
(dp31
g3
(dp32
g5
I1363
sg6
I41
sg7
I5
sg8
I5
sg9
I2
sg10
I3
sg11
I870
ssg12
(dp33
g5
I505
sg6
I38
sg7
I2
sg8
I10
sg9
I8
sg10
I0
sg11
I330
ssg14
(dp34
g5
I910
sg6
I36
sg7
I10
sg8
I0
sg9
I2
sg10
I3
sg11
I910
ssg16
(dp35
g5
I1629
sg6
I38
sg7
I7
sg8
I29
sg9
I3
sg10
I0
sg11
I800
sss.(dp0
S'K_all3.csv'
p1
(dp2
S'machine'
p3
(dp4
S'count'
p5
I802
sS'truepos'
p6
I36
sS'falseneg'
p7
I7
sS'correction'
p8
I3
sS'unknownyes'
p9
I2
sS'falsepos'
p10
I5
sS'unique'
p11
I600
ssS'knee'
p12
(dp13
g5
I79
sg6
I1
sg7
I0
sg8
I0
sg9
I44
sg10
I0
sg11
I70
ssS'none'
p14
(dp15
g5
I660
sg6
I29
sg7
I14
sg8
I0
sg9
I2
sg10
I5
sg11
I660
ssS'three'
p16
(dp17
g5
I1085
sg6
I38
sg7
I6
sg8
I24
sg9
I1
sg10
I0
sg11
I530
sssS'Wahono.csv'
p18
(dp19
g3
(dp20
g5
I1823
sg6
I51
sg7
I8
sg8
I6
sg9
I3
sg10
I6
sg11
I1140
ssg12
(dp21
g5
I158
sg6
I19
sg7
I5
sg8
I3
sg9
I38
sg10
I1
sg11
I120
ssg14
(dp22
g5
I1310
sg6
I48
sg7
I12
sg8
I0
sg9
I2
sg10
I5
sg11
I1310
ssg16
(dp23
g5
I2593
sg6
I50
sg7
I11
sg8
I30
sg9
I1
sg10
I0
sg11
I1280
sssS'Hall.csv'
p24
(dp25
g3
(dp26
g5
I773
sg6
I93
sg7
I9
sg8
I21
sg9
I2
sg10
I2
sg11
I560
ssg12
(dp27
g5
I600
sg6
I86
sg7
I15
sg8
I19
sg9
I3
sg10
I0
sg11
I430
ssg14
(dp28
g5
I760
sg6
I73
sg7
I29
sg8
I0
sg9
I2
sg10
I3
sg11
I760
ssg16
(dp29
g5
I2003
sg6
I74
sg7
I28
sg8
I39
sg9
I2
sg10
I0
sg11
I980
sssS'Danijel.csv'
p30
(dp31
g3
(dp32
g5
I1253
sg6
I40
sg7
I5
sg8
I9
sg9
I3
sg10
I0
sg11
I1100
ssg12
(dp33
g5
I37
sg6
I4
sg7
I2
sg8
I1
sg9
I42
sg10
I0
sg11
I30
ssg14
(dp34
g5
I1370
sg6
I33
sg7
I12
sg8
I0
sg9
I3
sg10
I3
sg11
I1370
ssg16
(dp35
g5
I2341
sg6
I35
sg7
I11
sg8
I19
sg9
I2
sg10
I0
sg11
I1160
sss.(dp0
S'K_all3.csv'
p1
(dp2
S'machine'
p3
(dp4
S'count'
p5
I662
sS'truepos'
p6
I32
sS'falseneg'
p7
I11
sS'correction'
p8
I2
sS'unknownyes'
p9
I2
sS'falsepos'
p10
I6
sS'unique'
p11
I510
ssS'knee'
p12
(dp13
g5
I79
sg6
I1
sg7
I0
sg8
I0
sg9
I44
sg10
I0
sg11
I70
ssS'none'
p14
(dp15
g5
I690
sg6
I29
sg7
I12
sg8
I0
sg9
I4
sg10
I11
sg11
I690
ssS'three'
p16
(dp17
g5
I1199
sg6
I34
sg7
I9
sg8
I19
sg9
I2
sg10
I0
sg11
I590
sssS'Wahono.csv'
p18
(dp19
g3
(dp20
g5
I1987
sg6
I57
sg7
I2
sg8
I17
sg9
I3
sg10
I6
sg11
I1280
ssg12
(dp21
g5
I1016
sg6
I46
sg7
I5
sg8
I13
sg9
I11
sg10
I0
sg11
I720
ssg14
(dp22
g5
I1460
sg6
I45
sg7
I14
sg8
I0
sg9
I3
sg10
I2
sg11
I1460
ssg16
(dp23
g5
I2631
sg6
I47
sg7
I12
sg8
I28
sg9
I3
sg10
I0
sg11
I1300
sssS'Hall.csv'
p24
(dp25
g3
(dp26
g5
I829
sg6
I90
sg7
I12
sg8
I23
sg9
I2
sg10
I4
sg11
I620
ssg12
(dp27
g5
I35
sg6
I7
sg7
I4
sg8
I0
sg9
I93
sg10
I0
sg11
I30
ssg14
(dp28
g5
I1190
sg6
I67
sg7
I35
sg8
I0
sg9
I2
sg10
I1
sg11
I1190
ssg16
(dp29
g5
I1248
sg6
I81
sg7
I21
sg8
I41
sg9
I2
sg10
I0
sg11
I600
sssS'Danijel.csv'
p30
(dp31
g3
(dp32
g5
I1190
sg6
I39
sg7
I8
sg8
I11
sg9
I1
sg10
I4
sg11
I840
ssg12
(dp33
g5
I914
sg6
I39
sg7
I6
sg8
I9
sg9
I3
sg10
I1
sg11
I750
ssg14
(dp34
g5
I1350
sg6
I30
sg7
I16
sg8
I0
sg9
I2
sg10
I2
sg11
I1350
ssg16
(dp35
g5
I2170
sg6
I35
sg7
I11
sg8
I25
sg9
I2
sg10
I0
sg11
I1070
sss.(dp0
S'K_all3.csv'
p1
(dp2
S'machine'
p3
(dp4
S'count'
p5
I692
sS'truepos'
p6
I32
sS'falseneg'
p7
I6
sS'correction'
p8
I4
sS'unknownyes'
p9
I7
sS'falsepos'
p10
I6
sS'unique'
p11
I590
ssS'knee'
p12
(dp13
g5
I79
sg6
I1
sg7
I0
sg8
I0
sg9
I44
sg10
I0
sg11
I70
ssS'none'
p14
(dp15
g5
I580
sg6
I31
sg7
I9
sg8
I0
sg9
I5
sg10
I8
sg11
I580
ssS'three'
p16
(dp17
g5
I1028
sg6
I33
sg7
I8
sg8
I26
sg9
I4
sg10
I0
sg11
I500
sssS'Wahono.csv'
p18
(dp19
g3
(dp20
g5
I1864
sg6
I53
sg7
I6
sg8
I8
sg9
I3
sg10
I4
sg11
I1210
ssg12
(dp21
g5
I938
sg6
I44
sg7
I6
sg8
I11
sg9
I12
sg10
I1
sg11
I680
ssg14
(dp22
g5
I1690
sg6
I41
sg7
I19
sg8
I0
sg9
I2
sg10
I3
sg11
I1690
ssg16
(dp23
g5
I2634
sg6
I45
sg7
I14
sg8
I30
sg9
I3
sg10
I0
sg11
I1300
sssS'Hall.csv'
p24
(dp25
g3
(dp26
g5
I665
sg6
I93
sg7
I8
sg8
I20
sg9
I3
sg10
I3
sg11
I460
ssg12
(dp27
g5
I646
sg6
I84
sg7
I17
sg8
I21
sg9
I3
sg10
I1
sg11
I470
ssg14
(dp28
g5
I1130
sg6
I68
sg7
I35
sg8
I0
sg9
I1
sg10
I4
sg11
I1130
ssg16
(dp29
g5
I1145
sg6
I78
sg7
I24
sg8
I39
sg9
I2
sg10
I0
sg11
I550
sssS'Danijel.csv'
p30
(dp31
g3
(dp32
g5
I1220
sg6
I41
sg7
I5
sg8
I12
sg9
I2
sg10
I3
sg11
I910
ssg12
(dp33
g5
I367
sg6
I32
sg7
I4
sg8
I9
sg9
I12
sg10
I0
sg11
I230
ssg14
(dp34
g5
I1680
sg6
I31
sg7
I16
sg8
I0
sg9
I1
sg10
I5
sg11
I1680
ssg16
(dp35
g5
I1621
sg6
I41
sg7
I5
sg8
I20
sg9
I2
sg10
I0
sg11
I800
sss.(dp0
S'K_all3.csv'
p1
(dp2
S'machine'
p3
(dp4
S'count'
p5
I643
sS'truepos'
p6
I36
sS'falseneg'
p7
I6
sS'correction'
p8
I5
sS'unknownyes'
p9
I3
sS'falsepos'
p10
I4
sS'unique'
p11
I540
ssS'knee'
p12
(dp13
g5
I2434
sg6
I40
sg7
I5
sg8
I9
sg9
I0
sg10
I17
sg11
I1580
ssS'none'
p14
(dp15
g5
I1160
sg6
I24
sg7
I17
sg8
I0
sg9
I4
sg10
I6
sg11
I1160
ssS'three'
p16
(dp17
g5
I1265
sg6
I36
sg7
I6
sg8
I23
sg9
I3
sg10
I0
sg11
I620
sssS'Wahono.csv'
p18
(dp19
g3
(dp20
g5
I1727
sg6
I50
sg7
I10
sg8
I14
sg9
I2
sg10
I4
sg11
I1150
ssg12
(dp21
g5
I63
sg6
I9
sg7
I2
sg8
I0
sg9
I51
sg10
I0
sg11
I50
ssg14
(dp22
g5
I1670
sg6
I47
sg7
I12
sg8
I0
sg9
I3
sg10
I5
sg11
I1670
ssg16
(dp23
g5
I2913
sg6
I49
sg7
I10
sg8
I31
sg9
I3
sg10
I0
sg11
I1440
sssS'Hall.csv'
p24
(dp25
g3
(dp26
g5
I807
sg6
I93
sg7
I9
sg8
I16
sg9
I2
sg10
I1
sg11
I610
ssg12
(dp27
g5
I575
sg6
I91
sg7
I10
sg8
I19
sg9
I3
sg10
I0
sg11
I380
ssg14
(dp28
g5
I860
sg6
I71
sg7
I31
sg8
I0
sg9
I2
sg10
I5
sg11
I860
ssg16
(dp29
g5
I1371
sg6
I83
sg7
I19
sg8
I45
sg9
I2
sg10
I0
sg11
I660
sssS'Danijel.csv'
p30
(dp31
g3
(dp32
g5
I1063
sg6
I40
sg7
I6
sg8
I7
sg9
I2
sg10
I2
sg11
I680
ssg12
(dp33
g5
I847
sg6
I36
sg7
I6
sg8
I11
sg9
I6
sg10
I1
sg11
I520
ssg14
(dp34
g5
I1190
sg6
I31
sg7
I15
sg8
I0
sg9
I2
sg10
I0
sg11
I1190
ssg16
(dp35
g5
I2405
sg6
I35
sg7
I11
sg8
I22
sg9
I2
sg10
I0
sg11
I1190
sss.(dp0
S'K_all3.csv'
p1
(dp2
S'machine'
p3
(dp4
S'count'
p5
I700
sS'truepos'
p6
I29
sS'falseneg'
p7
I11
sS'correction'
p8
I4
sS'unknownyes'
p9
I5
sS'falsepos'
p10
I8
sS'unique'
p11
I550
ssS'knee'
p12
(dp13
g5
I79
sg6
I1
sg7
I0
sg8
I0
sg9
I44
sg10
I0
sg11
I70
ssS'none'
p14
(dp15
g5
I700
sg6
I27
sg7
I11
sg8
I0
sg9
I7
sg10
I10
sg11
I700
ssS'three'
p16
(dp17
g5
I1669
sg6
I34
sg7
I11
sg8
I28
sg9
I0
sg10
I0
sg11
I820
sssS'Wahono.csv'
p18
(dp19
g3
(dp20
g5
I2135
sg6
I52
sg7
I7
sg8
I13
sg9
I3
sg10
I5
sg11
I1410
ssg12
(dp21
g5
I383
sg6
I29
sg7
I3
sg8
I6
sg9
I30
sg10
I1
sg11
I270
ssg14
(dp22
g5
I1820
sg6
I37
sg7
I22
sg8
I0
sg9
I3
sg10
I13
sg11
I1820
ssg16
(dp23
g5
I2952
sg6
I44
sg7
I16
sg8
I28
sg9
I2
sg10
I0
sg11
I1460
sssS'Hall.csv'
p24
(dp25
g3
(dp26
g5
I1009
sg6
I89
sg7
I13
sg8
I24
sg9
I2
sg10
I3
sg11
I750
ssg12
(dp27
g5
I585
sg6
I84
sg7
I16
sg8
I19
sg9
I4
sg10
I2
sg11
I400
ssg14
(dp28
g5
I1310
sg6
I66
sg7
I37
sg8
I0
sg9
I1
sg10
I6
sg11
I1310
ssg16
(dp29
g5
I1329
sg6
I84
sg7
I18
sg8
I45
sg9
I2
sg10
I0
sg11
I640
sssS'Danijel.csv'
p30
(dp31
g3
(dp32
g5
I1531
sg6
I42
sg7
I3
sg8
I6
sg9
I3
sg10
I5
sg11
I950
ssg12
(dp33
g5
I543
sg6
I34
sg7
I5
sg8
I11
sg9
I9
sg10
I0
sg11
I380
ssg14
(dp34
g5
I1150
sg6
I33
sg7
I13
sg8
I0
sg9
I2
sg10
I3
sg11
I1150
ssg16
(dp35
g5
I1806
sg6
I40
sg7
I6
sg8
I23
sg9
I2
sg10
I0
sg11
I890
sss.(dp0
S'K_all3.csv'
p1
(dp2
S'machine'
p3
(dp4
S'count'
p5
I720
sS'truepos'
p6
I36
sS'falseneg'
p7
I6
sS'correction'
p8
I5
sS'unknownyes'
p9
I3
sS'falsepos'
p10
I3
sS'unique'
p11
I520
ssS'knee'
p12
(dp13
g5
I79
sg6
I1
sg7
I0
sg8
I0
sg9
I44
sg10
I0
sg11
I70
ssS'none'
p14
(dp15
g5
I550
sg6
I32
sg7
I11
sg8
I0
sg9
I2
sg10
I6
sg11
I550
ssS'three'
p16
(dp17
g5
I1286
sg6
I34
sg7
I7
sg8
I26
sg9
I4
sg10
I1
sg11
I630
sssS'Wahono.csv'
p18
(dp19
g3
(dp20
g5
I2095
sg6
I51
sg7
I8
sg8
I11
sg9
I3
sg10
I4
sg11
I1390
ssg12
(dp21
g5
I188
sg6
I21
sg7
I3
sg8
I9
sg9
I38
sg10
I0
sg11
I120
ssg14
(dp22
g5
I1570
sg6
I44
sg7
I16
sg8
I0
sg9
I2
sg10
I2
sg11
I1570
ssg16
(dp23
g5
I2870
sg6
I51
sg7
I8
sg8
I27
sg9
I3
sg10
I0
sg11
I1420
sssS'Hall.csv'
p24
(dp25
g3
(dp26
g5
I920
sg6
I87
sg7
I15
sg8
I19
sg9
I2
sg10
I2
sg11
I660
ssg12
(dp27
g5
I640
sg6
I86
sg7
I15
sg8
I19
sg9
I3
sg10
I1
sg11
I420
ssg14
(dp28
g5
I1070
sg6
I71
sg7
I31
sg8
I0
sg9
I2
sg10
I1
sg11
I1070
ssg16
(dp29
g5
I1397
sg6
I78
sg7
I24
sg8
I49
sg9
I2
sg10
I0
sg11
I670
sssS'Danijel.csv'
p30
(dp31
g3
(dp32
g5
I1327
sg6
I41
sg7
I5
sg8
I11
sg9
I2
sg10
I4
sg11
I890
ssg12
(dp33
g5
I891
sg6
I38
sg7
I6
sg8
I8
sg9
I4
sg10
I0
sg11
I650
ssg14
(dp34
g5
I1380
sg6
I29
sg7
I17
sg8
I0
sg9
I2
sg10
I3
sg11
I1380
ssg16
(dp35
g5
I2203
sg6
I37
sg7
I10
sg8
I21
sg9
I1
sg10
I0
sg11
I1090
sss.(dp0
S'K_all3.csv'
p1
(dp2
S'machine'
p3
(dp4
S'count'
p5
I801
sS'truepos'
p6
I32
sS'falseneg'
p7
I11
sS'correction'
p8
I6
sS'unknownyes'
p9
I2
sS'falsepos'
p10
I4
sS'unique'
p11
I750
ssS'knee'
p12
(dp13
g5
I1597
sg6
I39
sg7
I6
sg8
I6
sg9
I0
sg10
I13
sg11
I1070
ssS'none'
p14
(dp15
g5
I710
sg6
I28
sg7
I14
sg8
I0
sg9
I3
sg10
I4
sg11
I710
ssS'three'
p16
(dp17
g5
I1268
sg6
I34
sg7
I9
sg8
I28
sg9
I2
sg10
I0
sg11
I620
sssS'Wahono.csv'
p18
(dp19
g3
(dp20
g5
I1964
sg6
I53
sg7
I6
sg8
I13
sg9
I3
sg10
I6
sg11
I1300
ssg12
(dp21
g5
I1652
sg6
I55
sg7
I6
sg8
I15
sg9
I1
sg10
I2
sg11
I1280
ssg14
(dp22
g5
I1250
sg6
I42
sg7
I17
sg8
I0
sg9
I3
sg10
I1
sg11
I1250
ssg16
(dp23
g5
I2999
sg6
I53
sg7
I8
sg8
I38
sg9
I1
sg10
I0
sg11
I1480
sssS'Hall.csv'
p24
(dp25
g3
(dp26
g5
I705
sg6
I91
sg7
I11
sg8
I20
sg9
I2
sg10
I5
sg11
I490
ssg12
(dp27
g5
I639
sg6
I95
sg7
I6
sg8
I15
sg9
I3
sg10
I1
sg11
I460
ssg14
(dp28
g5
I840
sg6
I74
sg7
I28
sg8
I0
sg9
I2
sg10
I5
sg11
I840
ssg16
(dp29
g5
I1065
sg6
I78
sg7
I24
sg8
I36
sg9
I2
sg10
I0
sg11
I510
sssS'Danijel.csv'
p30
(dp31
g3
(dp32
g5
I1518
sg6
I41
sg7
I4
sg8
I9
sg9
I3
sg10
I4
sg11
I1010
ssg12
(dp33
g5
I36
sg6
I4
sg7
I1
sg8
I0
sg9
I43
sg10
I0
sg11
I30
ssg14
(dp34
g5
I1010
sg6
I36
sg7
I9
sg8
I0
sg9
I3
sg10
I1
sg11
I1010
ssg16
(dp35
g5
I2944
sg6
I36
sg7
I10
sg8
I20
sg9
I2
sg10
I0
sg11
I1460
sss.(dp0
S'K_all3.csv'
p1
(dp2
S'machine'
p3
(dp4
S'count'
p5
I745
sS'truepos'
p6
I38
sS'falseneg'
p7
I3
sS'correction'
p8
I5
sS'unknownyes'
p9
I4
sS'falsepos'
p10
I4
sS'unique'
p11
I490
ssS'knee'
p12
(dp13
g5
I79
sg6
I1
sg7
I0
sg8
I0
sg9
I44
sg10
I0
sg11
I70
ssS'none'
p14
(dp15
g5
I680
sg6
I24
sg7
I16
sg8
I0
sg9
I5
sg10
I7
sg11
I680
ssS'three'
p16
(dp17
g5
I1392
sg6
I36
sg7
I9
sg8
I30
sg9
I0
sg10
I0
sg11
I680
sssS'Wahono.csv'
p18
(dp19
g3
(dp20
g5
I2234
sg6
I57
sg7
I4
sg8
I15
sg9
I1
sg10
I6
sg11
I1440
ssg12
(dp21
g5
I944
sg6
I45
sg7
I6
sg8
I10
sg9
I11
sg10
I1
sg11
I660
ssg14
(dp22
g5
I1510
sg6
I41
sg7
I19
sg8
I0
sg9
I2
sg10
I4
sg11
I1510
ssg16
(dp23
g5
I2692
sg6
I41
sg7
I19
sg8
I24
sg9
I2
sg10
I0
sg11
I1330
sssS'Hall.csv'
p24
(dp25
g3
(dp26
g5
I790
sg6
I93
sg7
I9
sg8
I22
sg9
I2
sg10
I3
sg11
I550
ssg12
(dp27
g5
I616
sg6
I89
sg7
I11
sg8
I23
sg9
I4
sg10
I0
sg11
I420
ssg14
(dp28
g5
I1000
sg6
I70
sg7
I33
sg8
I0
sg9
I1
sg10
I1
sg11
I1000
ssg16
(dp29
g5
I1676
sg6
I75
sg7
I27
sg8
I51
sg9
I2
sg10
I0
sg11
I810
sssS'Danijel.csv'
p30
(dp31
g3
(dp32
g5
I1323
sg6
I42
sg7
I4
sg8
I13
sg9
I2
sg10
I5
sg11
I1120
ssg12
(dp33
g5
I366
sg6
I29
sg7
I8
sg8
I5
sg9
I11
sg10
I0
sg11
I280
ssg14
(dp34
g5
I1050
sg6
I35
sg7
I11
sg8
I0
sg9
I2
sg10
I2
sg11
I1050
ssg16
(dp35
g5
I2288
sg6
I36
sg7
I10
sg8
I26
sg9
I2
sg10
I0
sg11
I1130
sss.(dp0
S'K_all3.csv'
p1
(dp2
S'machine'
p3
(dp4
S'count'
p5
I785
sS'truepos'
p6
I32
sS'falseneg'
p7
I11
sS'correction'
p8
I4
sS'unknownyes'
p9
I2
sS'falsepos'
p10
I2
sS'unique'
p11
I680
ssS'knee'
p12
(dp13
g5
I79
sg6
I1
sg7
I0
sg8
I0
sg9
I44
sg10
I0
sg11
I70
ssS'none'
p14
(dp15
g5
I690
sg6
I29
sg7
I11
sg8
I0
sg9
I5
sg10
I7
sg11
I690
ssS'three'
p16
(dp17
g5
I1978
sg6
I30
sg7
I13
sg8
I36
sg9
I2
sg10
I0
sg11
I970
sssS'Wahono.csv'
p18
(dp19
g3
(dp20
g5
I1973
sg6
I52
sg7
I8
sg8
I9
sg9
I2
sg10
I3
sg11
I1370
ssg12
(dp21
g5
I1306
sg6
I48
sg7
I10
sg8
I11
sg9
I4
sg10
I2
sg11
I950
ssg14
(dp22
g5
I1730
sg6
I42
sg7
I18
sg8
I0
sg9
I2
sg10
I4
sg11
I1730
ssg16
(dp23
g5
I2741
sg6
I51
sg7
I8
sg8
I40
sg9
I3
sg10
I0
sg11
I1350
sssS'Hall.csv'
p24
(dp25
g3
(dp26
g5
I932
sg6
I90
sg7
I12
sg8
I21
sg9
I2
sg10
I5
sg11
I650
ssg12
(dp27
g5
I24
sg6
I8
sg7
I0
sg8
I2
sg9
I96
sg10
I0
sg11
I20
ssg14
(dp28
g5
I1360
sg6
I65
sg7
I37
sg8
I0
sg9
I2
sg10
I5
sg11
I1360
ssg16
(dp29
g5
I1529
sg6
I84
sg7
I18
sg8
I43
sg9
I2
sg10
I0
sg11
I740
sssS'Danijel.csv'
p30
(dp31
g3
(dp32
g5
I1203
sg6
I44
sg7
I0
sg8
I6
sg9
I4
sg10
I1
sg11
I770
ssg12
(dp33
g5
I37
sg6
I4
sg7
I2
sg8
I1
sg9
I42
sg10
I0
sg11
I30
ssg14
(dp34
g5
I1070
sg6
I34
sg7
I12
sg8
I0
sg9
I2
sg10
I2
sg11
I1070
ssg16
(dp35
g5
I1561
sg6
I41
sg7
I5
sg8
I17
sg9
I2
sg10
I0
sg11
I770
sss.(dp0
S'K_all3.csv'
p1
(dp2
S'machine'
p3
(dp4
S'count'
p5
I676
sS'truepos'
p6
I34
sS'falseneg'
p7
I7
sS'correction'
p8
I6
sS'unknownyes'
p9
I4
sS'falsepos'
p10
I4
sS'unique'
p11
I570
ssS'knee'
p12
(dp13
g5
I2018
sg6
I40
sg7
I5
sg8
I17
sg9
I0
sg10
I10
sg11
I1570
ssS'none'
p14
(dp15
g5
I950
sg6
I28
sg7
I15
sg8
I0
sg9
I2
sg10
I5
sg11
I950
ssS'three'
p16
(dp17
g5
I1310
sg6
I36
sg7
I6
sg8
I29
sg9
I3
sg10
I0
sg11
I640
sssS'Wahono.csv'
p18
(dp19
g3
(dp20
g5
I2088
sg6
I53
sg7
I7
sg8
I9
sg9
I2
sg10
I5
sg11
I1420
ssg12
(dp21
g5
I53
sg6
I9
sg7
I0
sg8
I3
sg9
I53
sg10
I1
sg11
I40
ssg14
(dp22
g5
I1530
sg6
I41
sg7
I18
sg8
I0
sg9
I3
sg10
I1
sg11
I1530
ssg16
(dp23
g5
I2576
sg6
I49
sg7
I11
sg8
I33
sg9
I2
sg10
I0
sg11
I1270
sssS'Hall.csv'
p24
(dp25
g3
(dp26
g5
I957
sg6
I91
sg7
I11
sg8
I25
sg9
I2
sg10
I4
sg11
I690
ssg12
(dp27
g5
I757
sg6
I89
sg7
I13
sg8
I20
sg9
I2
sg10
I2
sg11
I570
ssg14
(dp28
g5
I710
sg6
I75
sg7
I27
sg8
I0
sg9
I2
sg10
I0
sg11
I710
ssg16
(dp29
g5
I1513
sg6
I81
sg7
I21
sg8
I42
sg9
I2
sg10
I0
sg11
I730
sssS'Danijel.csv'
p30
(dp31
g3
(dp32
g5
I1443
sg6
I39
sg7
I7
sg8
I11
sg9
I2
sg10
I4
sg11
I1030
ssg12
(dp33
g5
I333
sg6
I26
sg7
I2
sg8
I9
sg9
I20
sg10
I2
sg11
I220
ssg14
(dp34
g5
I1170
sg6
I31
sg7
I15
sg8
I0
sg9
I2
sg10
I1
sg11
I1170
ssg16
(dp35
g5
I2306
sg6
I36
sg7
I10
sg8
I24
sg9
I2
sg10
I0
sg11
I1140
sss.(dp0
S'K_all3.csv'
p1
(dp2
S'machine'
p3
(dp4
S'count'
p5
I665
sS'truepos'
p6
I35
sS'falseneg'
p7
I5
sS'correction'
p8
I5
sS'unknownyes'
p9
I5
sS'falsepos'
p10
I3
sS'unique'
p11
I510
ssS'knee'
p12
(dp13
g5
I98
sg6
I1
sg7
I1
sg8
I0
sg9
I43
sg10
I2
sg11
I80
ssS'none'
p14
(dp15
g5
I970
sg6
I24
sg7
I17
sg8
I0
sg9
I4
sg10
I6
sg11
I970
ssS'three'
p16
(dp17
g5
I1675
sg6
I30
sg7
I12
sg8
I30
sg9
I3
sg10
I0
sg11
I820
sssS'Wahono.csv'
p18
(dp19
g3
(dp20
g5
I1650
sg6
I52
sg7
I7
sg8
I12
sg9
I3
sg10
I6
sg11
I1130
ssg12
(dp21
g5
I846
sg6
I41
sg7
I10
sg8
I12
sg9
I11
sg10
I3
sg11
I580
ssg14
(dp22
g5
I1630
sg6
I49
sg7
I11
sg8
I0
sg9
I2
sg10
I5
sg11
I1630
ssg16
(dp23
g5
I3226
sg6
I48
sg7
I12
sg8
I24
sg9
I2
sg10
I0
sg11
I1600
sssS'Hall.csv'
p24
(dp25
g3
(dp26
g5
I833
sg6
I92
sg7
I10
sg8
I20
sg9
I2
sg10
I3
sg11
I620
ssg12
(dp27
g5
I630
sg6
I88
sg7
I14
sg8
I14
sg9
I2
sg10
I2
sg11
I440
ssg14
(dp28
g5
I1170
sg6
I65
sg7
I38
sg8
I0
sg9
I1
sg10
I2
sg11
I1170
ssg16
(dp29
g5
I1212
sg6
I83
sg7
I19
sg8
I41
sg9
I2
sg10
I0
sg11
I580
sssS'Danijel.csv'
p30
(dp31
g3
(dp32
g5
I1675
sg6
I37
sg7
I9
sg8
I9
sg9
I2
sg10
I5
sg11
I1370
ssg12
(dp33
g5
I453
sg6
I36
sg7
I3
sg8
I7
sg9
I9
sg10
I1
sg11
I290
ssg14
(dp34
g5
I1240
sg6
I31
sg7
I15
sg8
I0
sg9
I2
sg10
I1
sg11
I1240
ssg16
(dp35
g5
I2007
sg6
I37
sg7
I9
sg8
I23
sg9
I2
sg10
I0
sg11
I990
sss.(dp0
S'K_all3.csv'
p1
(dp2
S'machine'
p3
(dp4
S'count'
p5
I693
sS'truepos'
p6
I34
sS'falseneg'
p7
I8
sS'correction'
p8
I7
sS'unknownyes'
p9
I3
sS'falsepos'
p10
I8
sS'unique'
p11
I590
ssS'knee'
p12
(dp13
g5
I79
sg6
I1
sg7
I0
sg8
I0
sg9
I44
sg10
I0
sg11
I70
ssS'none'
p14
(dp15
g5
I600
sg6
I30
sg7
I10
sg8
I0
sg9
I5
sg10
I9
sg11
I600
ssS'three'
p16
(dp17
g5
I1996
sg6
I30
sg7
I12
sg8
I35
sg9
I3
sg10
I0
sg11
I980
sssS'Wahono.csv'
p18
(dp19
g3
(dp20
g5
I2167
sg6
I53
sg7
I8
sg8
I12
sg9
I1
sg10
I5
sg11
I1390
ssg12
(dp21
g5
I36
sg6
I5
sg7
I5
sg8
I1
sg9
I52
sg10
I0
sg11
I30
ssg14
(dp22
g5
I1900
sg6
I37
sg7
I23
sg8
I0
sg9
I2
sg10
I8
sg11
I1900
ssg16
(dp23
g5
I3199
sg6
I48
sg7
I14
sg8
I34
sg9
I0
sg10
I0
sg11
I1580
sssS'Hall.csv'
p24
(dp25
g3
(dp26
g5
I947
sg6
I92
sg7
I10
sg8
I21
sg9
I2
sg10
I4
sg11
I680
ssg12
(dp27
g5
I544
sg6
I84
sg7
I16
sg8
I12
sg9
I4
sg10
I1
sg11
I390
ssg14
(dp28
g5
I1380
sg6
I73
sg7
I30
sg8
I0
sg9
I1
sg10
I10
sg11
I1380
ssg16
(dp29
g5
I1190
sg6
I88
sg7
I14
sg8
I47
sg9
I2
sg10
I0
sg11
I570
sssS'Danijel.csv'
p30
(dp31
g3
(dp32
g5
I1412
sg6
I34
sg7
I14
sg8
I5
sg9
I0
sg10
I3
sg11
I1310
ssg12
(dp33
g5
I464
sg6
I20
sg7
I7
sg8
I6
sg9
I21
sg10
I3
sg11
I290
ssg14
(dp34
g5
I940
sg6
I36
sg7
I9
sg8
I0
sg9
I3
sg10
I3
sg11
I940
ssg16
(dp35
g5
I2604
sg6
I35
sg7
I11
sg8
I20
sg9
I2
sg10
I0
sg11
I1290
sss.(dp0
S'K_all3.csv'
p1
(dp2
S'machine'
p3
(dp4
S'count'
p5
I863
sS'truepos'
p6
I34
sS'falseneg'
p7
I8
sS'correction'
p8
I4
sS'unknownyes'
p9
I3
sS'falsepos'
p10
I3
sS'unique'
p11
I660
ssS'knee'
p12
(dp13
g5
I816
sg6
I36
sg7
I8
sg8
I5
sg9
I1
sg10
I0
sg11
I630
ssS'none'
p14
(dp15
g5
I680
sg6
I27
sg7
I16
sg8
I0
sg9
I2
sg10
I4
sg11
I680
ssS'three'
p16
(dp17
g5
I1324
sg6
I31
sg7
I10
sg8
I20
sg9
I4
sg10
I0
sg11
I650
sssS'Wahono.csv'
p18
(dp19
g3
(dp20
g5
I1989
sg6
I53
sg7
I6
sg8
I14
sg9
I3
sg10
I5
sg11
I1310
ssg12
(dp21
g5
I1134
sg6
I47
sg7
I10
sg8
I12
sg9
I5
sg10
I1
sg11
I790
ssg14
(dp22
g5
I1560
sg6
I41
sg7
I19
sg8
I0
sg9
I2
sg10
I3
sg11
I1560
ssg16
(dp23
g5
I3076
sg6
I50
sg7
I10
sg8
I35
sg9
I2
sg10
I0
sg11
I1520
sssS'Hall.csv'
p24
(dp25
g3
(dp26
g5
I798
sg6
I93
sg7
I9
sg8
I17
sg9
I2
sg10
I0
sg11
I550
ssg12
(dp27
g5
I697
sg6
I87
sg7
I14
sg8
I15
sg9
I3
sg10
I2
sg11
I500
ssg14
(dp28
g5
I1120
sg6
I68
sg7
I35
sg8
I0
sg9
I1
sg10
I4
sg11
I1120
ssg16
(dp29
g5
I1773
sg6
I72
sg7
I30
sg8
I44
sg9
I2
sg10
I0
sg11
I860
sssS'Danijel.csv'
p30
(dp31
g3
(dp32
g5
I1448
sg6
I39
sg7
I6
sg8
I9
sg9
I3
sg10
I6
sg11
I950
ssg12
(dp33
g5
I932
sg6
I42
sg7
I3
sg8
I10
sg9
I3
sg10
I0
sg11
I700
ssg14
(dp34
g5
I1460
sg6
I30
sg7
I16
sg8
I0
sg9
I2
sg10
I4
sg11
I1460
ssg16
(dp35
g5
I2146
sg6
I36
sg7
I10
sg8
I22
sg9
I2
sg10
I0
sg11
I1060
sss.(dp0
S'K_all3.csv'
p1
(dp2
S'machine'
p3
(dp4
S'count'
p5
I892
sS'truepos'
p6
I37
sS'falseneg'
p7
I5
sS'correction'
p8
I8
sS'unknownyes'
p9
I3
sS'falsepos'
p10
I6
sS'unique'
p11
I640
ssS'knee'
p12
(dp13
g5
I472
sg6
I21
sg7
I6
sg8
I3
sg9
I18
sg10
I2
sg11
I280
ssS'none'
p14
(dp15
g5
I580
sg6
I28
sg7
I13
sg8
I0
sg9
I4
sg10
I4
sg11
I580
ssS'three'
p16
(dp17
g5
I1125
sg6
I37
sg7
I5
sg8
I20
sg9
I3
sg10
I0
sg11
I550
sssS'Wahono.csv'
p18
(dp19
g3
(dp20
g5
I1889
sg6
I56
sg7
I3
sg8
I11
sg9
I3
sg10
I1
sg11
I1260
ssg12
(dp21
g5
I1012
sg6
I45
sg7
I9
sg8
I12
sg9
I8
sg10
I3
sg11
I680
ssg14
(dp22
g5
I1480
sg6
I42
sg7
I19
sg8
I0
sg9
I1
sg10
I5
sg11
I1480
ssg16
(dp23
g5
I3222
sg6
I54
sg7
I7
sg8
I21
sg9
I1
sg10
I0
sg11
I1600
sssS'Hall.csv'
p24
(dp25
g3
(dp26
g5
I754
sg6
I92
sg7
I10
sg8
I20
sg9
I2
sg10
I3
sg11
I510
ssg12
(dp27
g5
I533
sg6
I84
sg7
I15
sg8
I16
sg9
I5
sg10
I1
sg11
I400
ssg14
(dp28
g5
I990
sg6
I68
sg7
I34
sg8
I0
sg9
I2
sg10
I4
sg11
I990
ssg16
(dp29
g5
I2187
sg6
I79
sg7
I24
sg8
I42
sg9
I1
sg10
I0
sg11
I1070
sssS'Danijel.csv'
p30
(dp31
g3
(dp32
g5
I1391
sg6
I39
sg7
I6
sg8
I8
sg9
I3
sg10
I5
sg11
I910
ssg12
(dp33
g5
I698
sg6
I33
sg7
I7
sg8
I7
sg9
I8
sg10
I0
sg11
I550
ssg14
(dp34
g5
I1280
sg6
I36
sg7
I9
sg8
I0
sg9
I3
sg10
I2
sg11
I1280
ssg16
(dp35
g5
I2000
sg6
I37
sg7
I9
sg8
I18
sg9
I2
sg10
I0
sg11
I990
sss.(dp0
S'K_all3.csv'
p1
(dp2
S'machine'
p3
(dp4
S'count'
p5
I609
sS'truepos'
p6
I37
sS'falseneg'
p7
I4
sS'correction'
p8
I2
sS'unknownyes'
p9
I4
sS'falsepos'
p10
I5
sS'unique'
p11
I390
ssS'knee'
p12
(dp13
g5
I79
sg6
I1
sg7
I0
sg8
I0
sg9
I44
sg10
I0
sg11
I70
ssS'none'
p14
(dp15
g5
I930
sg6
I26
sg7
I14
sg8
I0
sg9
I5
sg10
I5
sg11
I930
ssS'three'
p16
(dp17
g5
I1706
sg6
I30
sg7
I13
sg8
I23
sg9
I2
sg10
I0
sg11
I840
sssS'Wahono.csv'
p18
(dp19
g3
(dp20
g5
I2452
sg6
I50
sg7
I10
sg8
I9
sg9
I2
sg10
I6
sg11
I1630
ssg12
(dp21
g5
I710
sg6
I44
sg7
I7
sg8
I13
sg9
I11
sg10
I2
sg11
I430
ssg14
(dp22
g5
I1440
sg6
I47
sg7
I13
sg8
I0
sg9
I2
sg10
I6
sg11
I1440
ssg16
(dp23
g5
I2935
sg6
I49
sg7
I11
sg8
I32
sg9
I2
sg10
I0
sg11
I1450
sssS'Hall.csv'
p24
(dp25
g3
(dp26
g5
I995
sg6
I97
sg7
I5
sg8
I17
sg9
I2
sg10
I4
sg11
I760
ssg12
(dp27
g5
I865
sg6
I87
sg7
I15
sg8
I27
sg9
I2
sg10
I1
sg11
I660
ssg14
(dp28
g5
I720
sg6
I72
sg7
I30
sg8
I0
sg9
I2
sg10
I3
sg11
I720
ssg16
(dp29
g5
I1141
sg6
I80
sg7
I21
sg8
I55
sg9
I3
sg10
I0
sg11
I540
sssS'Danijel.csv'
p30
(dp31
g3
(dp32
g5
I1094
sg6
I38
sg7
I7
sg8
I7
sg9
I3
sg10
I3
sg11
I690
ssg12
(dp33
g5
I1623
sg6
I44
sg7
I2
sg8
I16
sg9
I2
sg10
I1
sg11
I1200
ssg14
(dp34
g5
I840
sg6
I38
sg7
I8
sg8
I0
sg9
I2
sg10
I2
sg11
I840
ssg16
(dp35
g5
I3169
sg6
I33
sg7
I14
sg8
I28
sg9
I1
sg10
I0
sg11
I1570
sss.(dp0
S'K_all3.csv'
p1
(dp2
S'machine'
p3
(dp4
S'count'
p5
I754
sS'truepos'
p6
I38
sS'falseneg'
p7
I5
sS'correction'
p8
I6
sS'unknownyes'
p9
I2
sS'falsepos'
p10
I5
sS'unique'
p11
I650
ssS'knee'
p12
(dp13
g5
I823
sg6
I29
sg7
I5
sg8
I5
sg9
I11
sg10
I11
sg11
I500
ssS'none'
p14
(dp15
g5
I650
sg6
I33
sg7
I10
sg8
I0
sg9
I2
sg10
I2
sg11
I650
ssS'three'
p16
(dp17
g5
I1738
sg6
I31
sg7
I13
sg8
I30
sg9
I1
sg10
I0
sg11
I850
sssS'Wahono.csv'
p18
(dp19
g3
(dp20
g5
I2356
sg6
I52
sg7
I9
sg8
I20
sg9
I1
sg10
I5
sg11
I1590
ssg12
(dp21
g5
I24
sg6
I6
sg7
I0
sg8
I0
sg9
I56
sg10
I0
sg11
I20
ssg14
(dp22
g5
I1490
sg6
I47
sg7
I12
sg8
I0
sg9
I3
sg10
I1
sg11
I1490
ssg16
(dp23
g5
I2575
sg6
I39
sg7
I20
sg8
I26
sg9
I3
sg10
I0
sg11
I1270
sssS'Hall.csv'
p24
(dp25
g3
(dp26
g5
I1165
sg6
I87
sg7
I15
sg8
I18
sg9
I2
sg10
I7
sg11
I880
ssg12
(dp27
g5
I573
sg6
I91
sg7
I9
sg8
I15
sg9
I4
sg10
I1
sg11
I400
ssg14
(dp28
g5
I1640
sg6
I73
sg7
I30
sg8
I0
sg9
I1
sg10
I6
sg11
I1640
ssg16
(dp29
g5
I1533
sg6
I82
sg7
I20
sg8
I48
sg9
I2
sg10
I0
sg11
I740
sssS'Danijel.csv'
p30
(dp31
g3
(dp32
g5
I1066
sg6
I43
sg7
I2
sg8
I8
sg9
I3
sg10
I6
sg11
I700
ssg12
(dp33
g5
I84
sg6
I7
sg7
I3
sg8
I1
sg9
I38
sg10
I0
sg11
I60
ssg14
(dp34
g5
I1030
sg6
I34
sg7
I11
sg8
I0
sg9
I3
sg10
I4
sg11
I1030
ssg16
(dp35
g5
I3183
sg6
I32
sg7
I16
sg8
I20
sg9
I0
sg10
I0
sg11
I1580
sss.(dp0
S'K_all3.csv'
p1
(dp2
S'machine'
p3
(dp4
S'count'
p5
I938
sS'truepos'
p6
I33
sS'falseneg'
p7
I9
sS'correction'
p8
I5
sS'unknownyes'
p9
I3
sS'falsepos'
p10
I4
sS'unique'
p11
I680
ssS'knee'
p12
(dp13
g5
I79
sg6
I1
sg7
I0
sg8
I0
sg9
I44
sg10
I0
sg11
I70
ssS'none'
p14
(dp15
g5
I520
sg6
I33
sg7
I10
sg8
I0
sg9
I2
sg10
I3
sg11
I520
ssS'three'
p16
(dp17
g5
I1605
sg6
I34
sg7
I9
sg8
I23
sg9
I2
sg10
I0
sg11
I790
sssS'Wahono.csv'
p18
(dp19
g3
(dp20
g5
I2155
sg6
I54
sg7
I6
sg8
I16
sg9
I2
sg10
I2
sg11
I1490
ssg12
(dp21
g5
I1222
sg6
I51
sg7
I7
sg8
I12
sg9
I4
sg10
I0
sg11
I940
ssg14
(dp22
g5
I1820
sg6
I40
sg7
I20
sg8
I0
sg9
I2
sg10
I8
sg11
I1820
ssg16
(dp23
g5
I3189
sg6
I48
sg7
I12
sg8
I27
sg9
I2
sg10
I0
sg11
I1580
sssS'Hall.csv'
p24
(dp25
g3
(dp26
g5
I773
sg6
I92
sg7
I10
sg8
I13
sg9
I2
sg10
I4
sg11
I520
ssg12
(dp27
g5
I35
sg6
I6
sg7
I8
sg8
I1
sg9
I90
sg10
I0
sg11
I30
ssg14
(dp28
g5
I1480
sg6
I68
sg7
I35
sg8
I0
sg9
I1
sg10
I5
sg11
I1480
ssg16
(dp29
g5
I1747
sg6
I83
sg7
I20
sg8
I45
sg9
I1
sg10
I0
sg11
I850
sssS'Danijel.csv'
p30
(dp31
g3
(dp32
g5
I1288
sg6
I43
sg7
I3
sg8
I7
sg9
I2
sg10
I4
sg11
I780
ssg12
(dp33
g5
I48
sg6
I4
sg7
I3
sg8
I2
sg9
I41
sg10
I0
sg11
I40
ssg14
(dp34
g5
I1190
sg6
I33
sg7
I13
sg8
I0
sg9
I2
sg10
I1
sg11
I1190
ssg16
(dp35
g5
I2565
sg6
I37
sg7
I9
sg8
I24
sg9
I2
sg10
I0
sg11
I1270
sss.(dp0
S'K_all3.csv'
p1
(dp2
S'machine'
p3
(dp4
S'count'
p5
I712
sS'truepos'
p6
I29
sS'falseneg'
p7
I13
sS'correction'
p8
I0
sS'unknownyes'
p9
I3
sS'falsepos'
p10
I3
sS'unique'
p11
I710
ssS'knee'
p12
(dp13
g5
I1525
sg6
I41
sg7
I4
sg8
I13
sg9
I0
sg10
I12
sg11
I1180
ssS'none'
p14
(dp15
g5
I850
sg6
I26
sg7
I13
sg8
I0
sg9
I6
sg10
I7
sg11
I850
ssS'three'
p16
(dp17
g5
I1345
sg6
I32
sg7
I12
sg8
I24
sg9
I1
sg10
I1
sg11
I660
sssS'Wahono.csv'
p18
(dp19
g3
(dp20
g5
I2070
sg6
I55
sg7
I4
sg8
I10
sg9
I3
sg10
I4
sg11
I1300
ssg12
(dp21
g5
I479
sg6
I37
sg7
I5
sg8
I8
sg9
I20
sg10
I1
sg11
I340
ssg14
(dp22
g5
I1800
sg6
I39
sg7
I21
sg8
I0
sg9
I2
sg10
I10
sg11
I1800
ssg16
(dp23
g5
I2707
sg6
I43
sg7
I16
sg8
I23
sg9
I3
sg10
I0
sg11
I1340
sssS'Hall.csv'
p24
(dp25
g3
(dp26
g5
I805
sg6
I100
sg7
I2
sg8
I22
sg9
I2
sg10
I3
sg11
I600
ssg12
(dp27
g5
I524
sg6
I89
sg7
I8
sg8
I21
sg9
I7
sg10
I3
sg11
I330
ssg14
(dp28
g5
I1180
sg6
I69
sg7
I34
sg8
I0
sg9
I1
sg10
I3
sg11
I1180
ssg16
(dp29
g5
I1129
sg6
I79
sg7
I23
sg8
I43
sg9
I2
sg10
I0
sg11
I540
sssS'Danijel.csv'
p30
(dp31
g3
(dp32
g5
I1543
sg6
I34
sg7
I13
sg8
I6
sg9
I1
sg10
I2
sg11
I1390
ssg12
(dp33
g5
I590
sg6
I30
sg7
I11
sg8
I10
sg9
I7
sg10
I0
sg11
I500
ssg14
(dp34
g5
I1000
sg6
I35
sg7
I12
sg8
I0
sg9
I1
sg10
I2
sg11
I1000
ssg16
(dp35
g5
I1438
sg6
I43
sg7
I3
sg8
I17
sg9
I2
sg10
I0
sg11
I710
sss.(dp0
S'K_all3.csv'
p1
(dp2
S'machine'
p3
(dp4
S'count'
p5
I653
sS'truepos'
p6
I28
sS'falseneg'
p7
I14
sS'correction'
p8
I1
sS'unknownyes'
p9
I3
sS'falsepos'
p10
I5
sS'unique'
p11
I650
ssS'knee'
p12
(dp13
g5
I79
sg6
I1
sg7
I0
sg8
I0
sg9
I44
sg10
I0
sg11
I70
ssS'none'
p14
(dp15
g5
I650
sg6
I33
sg7
I11
sg8
I0
sg9
I1
sg10
I5
sg11
I650
ssS'three'
p16
(dp17
g5
I1496
sg6
I32
sg7
I12
sg8
I34
sg9
I1
sg10
I2
sg11
I730
sssS'Wahono.csv'
p18
(dp19
g3
(dp20
g5
I2074
sg6
I52
sg7
I7
sg8
I15
sg9
I3
sg10
I5
sg11
I1380
ssg12
(dp21
g5
I1116
sg6
I49
sg7
I9
sg8
I11
sg9
I4
sg10
I2
sg11
I820
ssg14
(dp22
g5
I2050
sg6
I42
sg7
I19
sg8
I0
sg9
I1
sg10
I9
sg11
I2050
ssg16
(dp23
g5
I2994
sg6
I48
sg7
I12
sg8
I32
sg9
I2
sg10
I0
sg11
I1480
sssS'Hall.csv'
p24
(dp25
g3
(dp26
g5
I714
sg6
I94
sg7
I8
sg8
I29
sg9
I2
sg10
I4
sg11
I490
ssg12
(dp27
g5
I624
sg6
I79
sg7
I22
sg8
I19
sg9
I3
sg10
I1
sg11
I500
ssg14
(dp28
g5
I890
sg6
I75
sg7
I27
sg8
I0
sg9
I2
sg10
I4
sg11
I890
ssg16
(dp29
g5
I1248
sg6
I84
sg7
I18
sg8
I42
sg9
I2
sg10
I0
sg11
I600
sssS'Danijel.csv'
p30
(dp31
g3
(dp32
g5
I1301
sg6
I38
sg7
I7
sg8
I9
sg9
I3
sg10
I4
sg11
I950
ssg12
(dp33
g5
I804
sg6
I35
sg7
I7
sg8
I6
sg9
I6
sg10
I1
sg11
I540
ssg14
(dp34
g5
I1930
sg6
I28
sg7
I19
sg8
I0
sg9
I1
sg10
I3
sg11
I1930
ssg16
(dp35
g5
I2726
sg6
I35
sg7
I12
sg8
I23
sg9
I1
sg10
I0
sg11
I1350
sss.(dp0
S'K_all3.csv'
p1
(dp2
S'machine'
p3
(dp4
S'count'
p5
I801
sS'truepos'
p6
I33
sS'falseneg'
p7
I6
sS'correction'
p8
I2
sS'unknownyes'
p9
I6
sS'falsepos'
p10
I5
sS'unique'
p11
I700
ssS'knee'
p12
(dp13
g5
I148
sg6
I1
sg7
I1
sg8
I0
sg9
I43
sg10
I1
sg11
I120
ssS'none'
p14
(dp15
g5
I890
sg6
I24
sg7
I17
sg8
I0
sg9
I4
sg10
I7
sg11
I890
ssS'three'
p16
(dp17
g5
I1324
sg6
I36
sg7
I7
sg8
I21
sg9
I2
sg10
I0
sg11
I650
sssS'Wahono.csv'
p18
(dp19
g3
(dp20
g5
I2138
sg6
I45
sg7
I14
sg8
I13
sg9
I3
sg10
I5
sg11
I1480
ssg12
(dp21
g5
I1507
sg6
I48
sg7
I10
sg8
I12
sg9
I4
sg10
I3
sg11
I1200
ssg14
(dp22
g5
I1750
sg6
I41
sg7
I18
sg8
I0
sg9
I3
sg10
I7
sg11
I1750
ssg16
(dp23
g5
I2997
sg6
I45
sg7
I14
sg8
I32
sg9
I3
sg10
I0
sg11
I1480
sssS'Hall.csv'
p24
(dp25
g3
(dp26
g5
I722
sg6
I91
sg7
I10
sg8
I20
sg9
I3
sg10
I3
sg11
I520
ssg12
(dp27
g5
I889
sg6
I96
sg7
I6
sg8
I35
sg9
I2
sg10
I0
sg11
I610
ssg14
(dp28
g5
I1520
sg6
I70
sg7
I33
sg8
I0
sg9
I1
sg10
I5
sg11
I1520
ssg16
(dp29
g5
I1310
sg6
I87
sg7
I15
sg8
I44
sg9
I2
sg10
I0
sg11
I630
sssS'Danijel.csv'
p30
(dp31
g3
(dp32
g5
I1317
sg6
I39
sg7
I8
sg8
I10
sg9
I1
sg10
I4
sg11
I960
ssg12
(dp33
g5
I1007
sg6
I39
sg7
I5
sg8
I14
sg9
I4
sg10
I0
sg11
I760
ssg14
(dp34
g5
I1370
sg6
I33
sg7
I13
sg8
I0
sg9
I2
sg10
I4
sg11
I1370
ssg16
(dp35
g5
I2965
sg6
I35
sg7
I12
sg8
I22
sg9
I1
sg10
I0
sg11
I1470
sss.(dp0
S'K_all3.csv'
p1
(dp2
S'machine'
p3
(dp4
S'count'
p5
I932
sS'truepos'
p6
I25
sS'falseneg'
p7
I13
sS'correction'
p8
I0
sS'unknownyes'
p9
I7
sS'falsepos'
p10
I5
sS'unique'
p11
I930
ssS'knee'
p12
(dp13
g5
I1539
sg6
I38
sg7
I7
sg8
I14
sg9
I0
sg10
I4
sg11
I1260
ssS'none'
p14
(dp15
g5
I600
sg6
I31
sg7
I10
sg8
I0
sg9
I4
sg10
I7
sg11
I600
ssS'three'
p16
(dp17
g5
I1205
sg6
I37
sg7
I7
sg8
I25
sg9
I1
sg10
I0
sg11
I590
sssS'Wahono.csv'
p18
(dp19
g3
(dp20
g5
I2267
sg6
I55
sg7
I6
sg8
I18
sg9
I1
sg10
I7
sg11
I1560
ssg12
(dp21
g5
I939
sg6
I45
sg7
I7
sg8
I9
sg9
I10
sg10
I2
sg11
I700
ssg14
(dp22
g5
I2000
sg6
I40
sg7
I19
sg8
I0
sg9
I3
sg10
I8
sg11
I2000
ssg16
(dp23
g5
I3311
sg6
I47
sg7
I14
sg8
I28
sg9
I1
sg10
I0
sg11
I1640
sssS'Hall.csv'
p24
(dp25
g3
(dp26
g5
I825
sg6
I94
sg7
I8
sg8
I23
sg9
I2
sg10
I3
sg11
I610
ssg12
(dp27
g5
I24
sg6
I8
sg7
I0
sg8
I2
sg9
I96
sg10
I0
sg11
I20
ssg14
(dp28
g5
I940
sg6
I71
sg7
I31
sg8
I0
sg9
I2
sg10
I4
sg11
I940
ssg16
(dp29
g5
I1660
sg6
I85
sg7
I18
sg8
I33
sg9
I1
sg10
I0
sg11
I810
sssS'Danijel.csv'
p30
(dp31
g3
(dp32
g5
I921
sg6
I37
sg7
I5
sg8
I8
sg9
I6
sg10
I2
sg11
I720
ssg12
(dp33
g5
I470
sg6
I33
sg7
I5
sg8
I7
sg9
I10
sg10
I0
sg11
I330
ssg14
(dp34
g5
I1250
sg6
I30
sg7
I17
sg8
I0
sg9
I1
sg10
I3
sg11
I1250
ssg16
(dp35
g5
I2199
sg6
I36
sg7
I10
sg8
I18
sg9
I2
sg10
I0
sg11
I1090
sss.(dp0
S'K_all3.csv'
p1
(dp2
S'machine'
p3
(dp4
S'count'
p5
I866
sS'truepos'
p6
I29
sS'falseneg'
p7
I15
sS'correction'
p8
I1
sS'unknownyes'
p9
I1
sS'falsepos'
p10
I2
sS'unique'
p11
I860
ssS'knee'
p12
(dp13
g5
I529
sg6
I28
sg7
I5
sg8
I6
sg9
I12
sg10
I1
sg11
I350
ssS'none'
p14
(dp15
g5
I830
sg6
I27
sg7
I17
sg8
I0
sg9
I1
sg10
I8
sg11
I830
ssS'three'
p16
(dp17
g5
I1335
sg6
I36
sg7
I5
sg8
I33
sg9
I4
sg10
I0
sg11
I650
sssS'Wahono.csv'
p18
(dp19
g3
(dp20
g5
I2837
sg6
I48
sg7
I13
sg8
I11
sg9
I1
sg10
I6
sg11
I2080
ssg12
(dp21
g5
I119
sg6
I14
sg7
I0
sg8
I3
sg9
I48
sg10
I0
sg11
I80
ssg14
(dp22
g5
I1550
sg6
I45
sg7
I15
sg8
I0
sg9
I2
sg10
I5
sg11
I1550
ssg16
(dp23
g5
I2977
sg6
I46
sg7
I15
sg8
I31
sg9
I1
sg10
I0
sg11
I1470
sssS'Hall.csv'
p24
(dp25
g3
(dp26
g5
I785
sg6
I92
sg7
I10
sg8
I21
sg9
I2
sg10
I2
sg11
I580
ssg12
(dp27
g5
I720
sg6
I87
sg7
I14
sg8
I21
sg9
I3
sg10
I0
sg11
I510
ssg14
(dp28
g5
I800
sg6
I73
sg7
I29
sg8
I0
sg9
I2
sg10
I4
sg11
I800
ssg16
(dp29
g5
I1266
sg6
I77
sg7
I24
sg8
I36
sg9
I3
sg10
I0
sg11
I610
sssS'Danijel.csv'
p30
(dp31
g3
(dp32
g5
I1412
sg6
I37
sg7
I9
sg8
I9
sg9
I2
sg10
I7
sg11
I1110
ssg12
(dp33
g5
I617
sg6
I32
sg7
I8
sg8
I9
sg9
I8
sg10
I0
sg11
I470
ssg14
(dp34
g5
I710
sg6
I37
sg7
I9
sg8
I0
sg9
I2
sg10
I1
sg11
I710
ssg16
(dp35
g5
I3138
sg6
I32
sg7
I15
sg8
I31
sg9
I1
sg10
I0
sg11
I1550
sss.(dp0
S'K_all3.csv'
p1
(dp2
S'machine'
p3
(dp4
S'count'
p5
I723
sS'truepos'
p6
I35
sS'falseneg'
p7
I5
sS'correction'
p8
I6
sS'unknownyes'
p9
I5
sS'falsepos'
p10
I5
sS'unique'
p11
I620
ssS'knee'
p12
(dp13
g5
I79
sg6
I1
sg7
I0
sg8
I0
sg9
I44
sg10
I0
sg11
I70
ssS'none'
p14
(dp15
g5
I700
sg6
I31
sg7
I13
sg8
I0
sg9
I1
sg10
I3
sg11
I700
ssS'three'
p16
(dp17
g5
I1199
sg6
I35
sg7
I8
sg8
I19
sg9
I2
sg10
I0
sg11
I590
sssS'Wahono.csv'
p18
(dp19
g3
(dp20
g5
I2271
sg6
I51
sg7
I10
sg8
I8
sg9
I1
sg10
I10
sg11
I1490
ssg12
(dp21
g5
I834
sg6
I45
sg7
I4
sg8
I11
sg9
I13
sg10
I2
sg11
I590
ssg14
(dp22
g5
I1490
sg6
I42
sg7
I17
sg8
I0
sg9
I3
sg10
I2
sg11
I1490
ssg16
(dp23
g5
I2579
sg6
I48
sg7
I11
sg8
I34
sg9
I3
sg10
I0
sg11
I1270
sssS'Hall.csv'
p24
(dp25
g3
(dp26
g5
I776
sg6
I93
sg7
I9
sg8
I19
sg9
I2
sg10
I2
sg11
I570
ssg12
(dp27
g5
I891
sg6
I87
sg7
I15
sg8
I27
sg9
I2
sg10
I2
sg11
I660
ssg14
(dp28
g5
I1170
sg6
I73
sg7
I30
sg8
I0
sg9
I1
sg10
I4
sg11
I1170
ssg16
(dp29
g5
I2105
sg6
I75
sg7
I28
sg8
I56
sg9
I1
sg10
I0
sg11
I1020
sssS'Danijel.csv'
p30
(dp31
g3
(dp32
g5
I1172
sg6
I41
sg7
I5
sg8
I8
sg9
I2
sg10
I0
sg11
I870
ssg12
(dp33
g5
I781
sg6
I36
sg7
I7
sg8
I10
sg9
I5
sg10
I0
sg11
I560
ssg14
(dp34
g5
I1730
sg6
I34
sg7
I14
sg8
I0
sg9
I0
sg10
I3
sg11
I1730
ssg16
(dp35
g5
I3243
sg6
I30
sg7
I16
sg8
I19
sg9
I2
sg10
I0
sg11
I1610
sss.(dp0
S'K_all3.csv'
p1
(dp2
S'machine'
p3
(dp4
S'count'
p5
I632
sS'truepos'
p6
I36
sS'falseneg'
p7
I5
sS'correction'
p8
I6
sS'unknownyes'
p9
I4
sS'falsepos'
p10
I6
sS'unique'
p11
I530
ssS'knee'
p12
(dp13
g5
I1180
sg6
I41
sg7
I3
sg8
I14
sg9
I1
sg10
I10
sg11
I740
ssS'none'
p14
(dp15
g5
I560
sg6
I32
sg7
I9
sg8
I0
sg9
I4
sg10
I4
sg11
I560
ssS'three'
p16
(dp17
g5
I1395
sg6
I37
sg7
I7
sg8
I32
sg9
I1
sg10
I0
sg11
I680
sssS'Wahono.csv'
p18
(dp19
g3
(dp20
g5
I2024
sg6
I54
sg7
I5
sg8
I9
sg9
I3
sg10
I4
sg11
I1290
ssg12
(dp21
g5
I265
sg6
I21
sg7
I7
sg8
I4
sg9
I34
sg10
I0
sg11
I180
ssg14
(dp22
g5
I1630
sg6
I45
sg7
I15
sg8
I0
sg9
I2
sg10
I6
sg11
I1630
ssg16
(dp23
g5
I2916
sg6
I49
sg7
I12
sg8
I32
sg9
I1
sg10
I0
sg11
I1440
sssS'Hall.csv'
p24
(dp25
g3
(dp26
g5
I748
sg6
I94
sg7
I8
sg8
I18
sg9
I2
sg10
I1
sg11
I540
ssg12
(dp27
g5
I542
sg6
I92
sg7
I7
sg8
I17
sg9
I5
sg10
I2
sg11
I360
ssg14
(dp28
g5
I1450
sg6
I71
sg7
I32
sg8
I0
sg9
I1
sg10
I3
sg11
I1450
ssg16
(dp29
g5
I1108
sg6
I76
sg7
I26
sg8
I40
sg9
I2
sg10
I0
sg11
I530
sssS'Danijel.csv'
p30
(dp31
g3
(dp32
g5
I1244
sg6
I41
sg7
I5
sg8
I6
sg9
I2
sg10
I2
sg11
I820
ssg12
(dp33
g5
I1008
sg6
I40
sg7
I5
sg8
I7
sg9
I3
sg10
I1
sg11
I800
ssg14
(dp34
g5
I2230
sg6
I27
sg7
I19
sg8
I0
sg9
I2
sg10
I3
sg11
I2230
ssg16
(dp35
g5
I1624
sg6
I38
sg7
I8
sg8
I22
sg9
I2
sg10
I0
sg11
I800
sss.(dp0
S'K_all3.csv'
p1
(dp2
S'machine'
p3
(dp4
S'count'
p5
I601
sS'truepos'
p6
I28
sS'falseneg'
p7
I14
sS'correction'
p8
I0
sS'unknownyes'
p9
I3
sS'falsepos'
p10
I4
sS'unique'
p11
I600
ssS'knee'
p12
(dp13
g5
I98
sg6
I1
sg7
I0
sg8
I0
sg9
I44
sg10
I1
sg11
I80
ssS'none'
p14
(dp15
g5
I760
sg6
I28
sg7
I14
sg8
I0
sg9
I3
sg10
I5
sg11
I760
ssS'three'
p16
(dp17
g5
I1362
sg6
I35
sg7
I8
sg8
I20
sg9
I2
sg10
I0
sg11
I670
sssS'Wahono.csv'
p18
(dp19
g3
(dp20
g5
I1947
sg6
I55
sg7
I4
sg8
I14
sg9
I3
sg10
I3
sg11
I1250
ssg12
(dp21
g5
I1205
sg6
I50
sg7
I5
sg8
I19
sg9
I7
sg10
I2
sg11
I820
ssg14
(dp22
g5
I1990
sg6
I41
sg7
I18
sg8
I0
sg9
I3
sg10
I8
sg11
I1990
ssg16
(dp23
g5
I3468
sg6
I48
sg7
I13
sg8
I25
sg9
I1
sg10
I0
sg11
I1720
sssS'Hall.csv'
p24
(dp25
g3
(dp26
g5
I729
sg6
I92
sg7
I10
sg8
I20
sg9
I2
sg10
I1
sg11
I520
ssg12
(dp27
g5
I731
sg6
I93
sg7
I8
sg8
I27
sg9
I3
sg10
I2
sg11
I530
ssg14
(dp28
g5
I1500
sg6
I69
sg7
I34
sg8
I0
sg9
I1
sg10
I6
sg11
I1500
ssg16
(dp29
g5
I1804
sg6
I72
sg7
I30
sg8
I38
sg9
I2
sg10
I0
sg11
I880
sssS'Danijel.csv'
p30
(dp31
g3
(dp32
g5
I1290
sg6
I39
sg7
I5
sg8
I8
sg9
I4
sg10
I4
sg11
I840
ssg12
(dp33
g5
I950
sg6
I40
sg7
I5
sg8
I5
sg9
I3
sg10
I1
sg11
I720
ssg14
(dp34
g5
I920
sg6
I36
sg7
I10
sg8
I0
sg9
I2
sg10
I2
sg11
I920
ssg16
(dp35
g5
I1623
sg6
I40
sg7
I6
sg8
I22
sg9
I2
sg10
I0
sg11
I800
sss.