(dp0
S'K_all3.csv'
p1
(dp2
S'none'
p3
(dp4
S'count'
p5
I500
sS'truepos'
p6
I38
sS'falseneg'
p7
I0
sS'correction'
p8
I0
sS'unknownyes'
p9
I7
sS'falsepos'
p10
I0
sS'unique'
p11
I500
ssS'three'
p12
(dp13
g5
I960
sg6
I37
sg7
I0
sg8
I0
sg9
I8
sg10
I0
sg11
I480
ssS'machine'
p14
(dp15
g5
I582
sg6
I37
sg7
I0
sg8
I0
sg9
I8
sg10
I0
sg11
I500
ssS'machine4'
p16
(dp17
g5
I500
sg6
I38
sg7
I0
sg8
I0
sg9
I7
sg10
I0
sg11
I500
ssS'machine3'
p18
(dp19
g5
I551
sg6
I36
sg7
I0
sg8
I0
sg9
I9
sg10
I0
sg11
I480
ssS'machine2'
p20
(dp21
g5
I550
sg6
I36
sg7
I0
sg8
I0
sg9
I9
sg10
I0
sg11
I480
sssS'Wahono.csv'
p22
(dp23
g3
(dp24
g5
I1070
sg6
I59
sg7
I0
sg8
I0
sg9
I3
sg10
I0
sg11
I1070
ssg12
(dp25
g5
I2260
sg6
I59
sg7
I0
sg8
I0
sg9
I3
sg10
I0
sg11
I1130
ssg14
(dp26
g5
I1329
sg6
I59
sg7
I0
sg8
I0
sg9
I3
sg10
I0
sg11
I1070
ssg16
(dp27
g5
I1100
sg6
I59
sg7
I0
sg8
I0
sg9
I3
sg10
I0
sg11
I1100
ssg18
(dp28
g5
I1419
sg6
I59
sg7
I0
sg8
I0
sg9
I3
sg10
I0
sg11
I1150
ssg20
(dp29
g5
I1380
sg6
I59
sg7
I0
sg8
I0
sg9
I3
sg10
I0
sg11
I1120
sssS'Hall.csv'
p30
(dp31
g3
(dp32
g5
I490
sg6
I102
sg7
I0
sg8
I0
sg9
I4
sg10
I0
sg11
I490
ssg12
(dp33
g5
I980
sg6
I102
sg7
I0
sg8
I0
sg9
I4
sg10
I0
sg11
I490
ssg14
(dp34
g5
I662
sg6
I101
sg7
I0
sg8
I0
sg9
I5
sg10
I0
sg11
I470
ssg16
(dp35
g5
I520
sg6
I102
sg7
I0
sg8
I0
sg9
I4
sg10
I0
sg11
I520
ssg18
(dp36
g5
I602
sg6
I101
sg7
I0
sg8
I0
sg9
I5
sg10
I0
sg11
I420
ssg20
(dp37
g5
I672
sg6
I102
sg7
I0
sg8
I0
sg9
I4
sg10
I0
sg11
I480
sssS'Danijel.csv'
p38
(dp39
g3
(dp40
g5
I760
sg6
I45
sg7
I0
sg8
I0
sg9
I3
sg10
I0
sg11
I760
ssg12
(dp41
g5
I1540
sg6
I45
sg7
I0
sg8
I0
sg9
I3
sg10
I0
sg11
I770
ssg14
(dp42
g5
I925
sg6
I45
sg7
I0
sg8
I0
sg9
I3
sg10
I0
sg11
I750
ssg16
(dp43
g5
I790
sg6
I45
sg7
I0
sg8
I0
sg9
I3
sg10
I0
sg11
I790
ssg18
(dp44
g5
I915
sg6
I45
sg7
I0
sg8
I0
sg9
I3
sg10
I0
sg11
I740
ssg20
(dp45
g5
I975
sg6
I45
sg7
I0
sg8
I0
sg9
I3
sg10
I0
sg11
I790
sss.(dp0
S'K_all3.csv'
p1
(dp2
S'none'
p3
(dp4
S'count'
p5
I500
sS'truepos'
p6
I38
sS'falseneg'
p7
I0
sS'correction'
p8
I0
sS'unknownyes'
p9
I7
sS'falsepos'
p10
I0
sS'unique'
p11
I500
ssS'three'
p12
(dp13
g5
I980
sg6
I37
sg7
I0
sg8
I0
sg9
I8
sg10
I0
sg11
I490
ssS'machine'
p14
(dp15
g5
I541
sg6
I36
sg7
I0
sg8
I0
sg9
I9
sg10
I0
sg11
I470
ssS'machine4'
p16
(dp17
g5
I510
sg6
I37
sg7
I0
sg8
I0
sg9
I8
sg10
I0
sg11
I510
ssS'machine3'
p18
(dp19
g5
I583
sg6
I38
sg7
I0
sg8
I0
sg9
I7
sg10
I0
sg11
I500
ssS'machine2'
p20
(dp21
g5
I541
sg6
I36
sg7
I0
sg8
I0
sg9
I9
sg10
I0
sg11
I470
sssS'Wahono.csv'
p22
(dp23
g3
(dp24
g5
I1140
sg6
I59
sg7
I0
sg8
I0
sg9
I3
sg10
I0
sg11
I1140
ssg12
(dp25
g5
I2220
sg6
I59
sg7
I0
sg8
I0
sg9
I3
sg10
I0
sg11
I1110
ssg14
(dp26
g5
I1500
sg6
I59
sg7
I0
sg8
I0
sg9
I3
sg10
I0
sg11
I1210
ssg16
(dp27
g5
I1180
sg6
I59
sg7
I0
sg8
I0
sg9
I3
sg10
I0
sg11
I1180
ssg18
(dp28
g5
I1419
sg6
I59
sg7
I0
sg8
I0
sg9
I3
sg10
I0
sg11
I1150
ssg20
(dp29
g5
I1410
sg6
I59
sg7
I0
sg8
I0
sg9
I3
sg10
I0
sg11
I1140
sssS'Hall.csv'
p30
(dp31
g3
(dp32
g5
I510
sg6
I102
sg7
I0
sg8
I0
sg9
I4
sg10
I0
sg11
I510
ssg12
(dp33
g5
I900
sg6
I101
sg7
I0
sg8
I0
sg9
I5
sg10
I0
sg11
I450
ssg14
(dp34
g5
I714
sg6
I102
sg7
I0
sg8
I0
sg9
I4
sg10
I0
sg11
I510
ssg16
(dp35
g5
I450
sg6
I101
sg7
I0
sg8
I0
sg9
I5
sg10
I0
sg11
I450
ssg18
(dp36
g5
I683
sg6
I101
sg7
I0
sg8
I0
sg9
I5
sg10
I0
sg11
I490
ssg20
(dp37
g5
I714
sg6
I102
sg7
I0
sg8
I0
sg9
I4
sg10
I0
sg11
I510
sssS'Danijel.csv'
p38
(dp39
g3
(dp40
g5
I720
sg6
I45
sg7
I0
sg8
I0
sg9
I3
sg10
I0
sg11
I720
ssg12
(dp41
g5
I1460
sg6
I45
sg7
I0
sg8
I0
sg9
I3
sg10
I0
sg11
I730
ssg14
(dp42
g5
I1015
sg6
I45
sg7
I0
sg8
I0
sg9
I3
sg10
I0
sg11
I820
ssg16
(dp43
g5
I700
sg6
I45
sg7
I0
sg8
I0
sg9
I3
sg10
I0
sg11
I700
ssg18
(dp44
g5
I965
sg6
I45
sg7
I0
sg8
I0
sg9
I3
sg10
I0
sg11
I780
ssg20
(dp45
g5
I905
sg6
I45
sg7
I0
sg8
I0
sg9
I3
sg10
I0
sg11
I730
sss.(dp0
S'K_all3.csv'
p1
(dp2
S'none'
p3
(dp4
S'count'
p5
I490
sS'truepos'
p6
I36
sS'falseneg'
p7
I0
sS'correction'
p8
I0
sS'unknownyes'
p9
I9
sS'falsepos'
p10
I0
sS'unique'
p11
I490
ssS'three'
p12
(dp13
g5
I960
sg6
I38
sg7
I0
sg8
I0
sg9
I7
sg10
I0
sg11
I480
ssS'machine'
p14
(dp15
g5
I591
sg6
I37
sg7
I0
sg8
I0
sg9
I8
sg10
I0
sg11
I510
ssS'machine4'
p16
(dp17
g5
I470
sg6
I36
sg7
I0
sg8
I0
sg9
I9
sg10
I0
sg11
I470
ssS'machine3'
p18
(dp19
g5
I560
sg6
I35
sg7
I0
sg8
I0
sg9
I10
sg10
I0
sg11
I490
ssS'machine2'
p20
(dp21
g5
I561
sg6
I36
sg7
I0
sg8
I0
sg9
I9
sg10
I0
sg11
I480
sssS'Wahono.csv'
p22
(dp23
g3
(dp24
g5
I1120
sg6
I59
sg7
I0
sg8
I0
sg9
I3
sg10
I0
sg11
I1120
ssg12
(dp25
g5
I2340
sg6
I59
sg7
I0
sg8
I0
sg9
I3
sg10
I0
sg11
I1170
ssg14
(dp26
g5
I1432
sg6
I60
sg7
I0
sg8
I0
sg9
I2
sg10
I0
sg11
I1160
ssg16
(dp27
g5
I1160
sg6
I59
sg7
I0
sg8
I0
sg9
I3
sg10
I0
sg11
I1160
ssg18
(dp28
g5
I1399
sg6
I59
sg7
I0
sg8
I0
sg9
I3
sg10
I0
sg11
I1130
ssg20
(dp29
g5
I1400
sg6
I59
sg7
I0
sg8
I0
sg9
I3
sg10
I0
sg11
I1130
sssS'Hall.csv'
p30
(dp31
g3
(dp32
g5
I490
sg6
I102
sg7
I0
sg8
I0
sg9
I4
sg10
I0
sg11
I490
ssg12
(dp33
g5
I1040
sg6
I102
sg7
I0
sg8
I0
sg9
I4
sg10
I0
sg11
I520
ssg14
(dp34
g5
I632
sg6
I102
sg7
I0
sg8
I0
sg9
I4
sg10
I0
sg11
I460
ssg16
(dp35
g5
I490
sg6
I102
sg7
I0
sg8
I0
sg9
I4
sg10
I0
sg11
I490
ssg18
(dp36
g5
I685
sg6
I102
sg7
I0
sg8
I0
sg9
I4
sg10
I0
sg11
I490
ssg20
(dp37
g5
I601
sg6
I101
sg7
I0
sg8
I0
sg9
I5
sg10
I0
sg11
I430
sssS'Danijel.csv'
p38
(dp39
g3
(dp40
g5
I710
sg6
I45
sg7
I0
sg8
I0
sg9
I3
sg10
I0
sg11
I710
ssg12
(dp41
g5
I1380
sg6
I45
sg7
I0
sg8
I0
sg9
I3
sg10
I0
sg11
I690
ssg14
(dp42
g5
I905
sg6
I45
sg7
I0
sg8
I0
sg9
I3
sg10
I0
sg11
I730
ssg16
(dp43
g5
I760
sg6
I45
sg7
I0
sg8
I0
sg9
I3
sg10
I0
sg11
I760
ssg18
(dp44
g5
I945
sg6
I45
sg7
I0
sg8
I0
sg9
I3
sg10
I0
sg11
I770
ssg20
(dp45
g5
I905
sg6
I45
sg7
I0
sg8
I0
sg9
I3
sg10
I0
sg11
I730
sss.(dp0
S'K_all3.csv'
p1
(dp2
S'none'
p3
(dp4
S'count'
p5
I500
sS'truepos'
p6
I38
sS'falseneg'
p7
I0
sS'correction'
p8
I0
sS'unknownyes'
p9
I7
sS'falsepos'
p10
I0
sS'unique'
p11
I500
ssS'three'
p12
(dp13
g5
I980
sg6
I37
sg7
I0
sg8
I0
sg9
I8
sg10
I0
sg11
I490
ssS'machine'
p14
(dp15
g5
I551
sg6
I36
sg7
I0
sg8
I0
sg9
I9
sg10
I0
sg11
I480
ssS'machine4'
p16
(dp17
g5
I470
sg6
I38
sg7
I0
sg8
I0
sg9
I7
sg10
I0
sg11
I470
ssS'machine3'
p18
(dp19
g5
I509
sg6
I35
sg7
I0
sg8
I0
sg9
I10
sg10
I0
sg11
I450
ssS'machine2'
p20
(dp21
g5
I603
sg6
I38
sg7
I0
sg8
I0
sg9
I7
sg10
I0
sg11
I520
sssS'Wahono.csv'
p22
(dp23
g3
(dp24
g5
I1120
sg6
I59
sg7
I0
sg8
I0
sg9
I3
sg10
I0
sg11
I1120
ssg12
(dp25
g5
I2340
sg6
I59
sg7
I0
sg8
I0
sg9
I3
sg10
I0
sg11
I1170
ssg14
(dp26
g5
I1439
sg6
I59
sg7
I0
sg8
I0
sg9
I3
sg10
I0
sg11
I1160
ssg16
(dp27
g5
I1160
sg6
I59
sg7
I0
sg8
I0
sg9
I3
sg10
I0
sg11
I1160
ssg18
(dp28
g5
I1459
sg6
I59
sg7
I0
sg8
I0
sg9
I3
sg10
I0
sg11
I1180
ssg20
(dp29
g5
I1419
sg6
I59
sg7
I0
sg8
I0
sg9
I3
sg10
I0
sg11
I1150
sssS'Hall.csv'
p30
(dp31
g3
(dp32
g5
I480
sg6
I102
sg7
I0
sg8
I0
sg9
I4
sg10
I0
sg11
I480
ssg12
(dp33
g5
I1020
sg6
I102
sg7
I0
sg8
I0
sg9
I4
sg10
I0
sg11
I510
ssg14
(dp34
g5
I653
sg6
I101
sg7
I0
sg8
I0
sg9
I5
sg10
I0
sg11
I460
ssg16
(dp35
g5
I420
sg6
I101
sg7
I0
sg8
I0
sg9
I5
sg10
I0
sg11
I420
ssg18
(dp36
g5
I694
sg6
I102
sg7
I0
sg8
I0
sg9
I4
sg10
I0
sg11
I500
ssg20
(dp37
g5
I612
sg6
I101
sg7
I0
sg8
I0
sg9
I5
sg10
I0
sg11
I440
sssS'Danijel.csv'
p38
(dp39
g3
(dp40
g5
I680
sg6
I45
sg7
I0
sg8
I0
sg9
I3
sg10
I0
sg11
I680
ssg12
(dp41
g5
I1460
sg6
I45
sg7
I0
sg8
I0
sg9
I3
sg10
I0
sg11
I730
ssg14
(dp42
g5
I945
sg6
I45
sg7
I0
sg8
I0
sg9
I3
sg10
I0
sg11
I760
ssg16
(dp43
g5
I750
sg6
I45
sg7
I0
sg8
I0
sg9
I3
sg10
I0
sg11
I750
ssg18
(dp44
g5
I905
sg6
I45
sg7
I0
sg8
I0
sg9
I3
sg10
I0
sg11
I730
ssg20
(dp45
g5
I865
sg6
I45
sg7
I0
sg8
I0
sg9
I3
sg10
I0
sg11
I700
sss.(dp0
S'K_all3.csv'
p1
(dp2
S'none'
p3
(dp4
S'count'
p5
I480
sS'truepos'
p6
I36
sS'falseneg'
p7
I0
sS'correction'
p8
I0
sS'unknownyes'
p9
I9
sS'falsepos'
p10
I0
sS'unique'
p11
I480
ssS'three'
p12
(dp13
g5
I1000
sg6
I39
sg7
I0
sg8
I0
sg9
I6
sg10
I0
sg11
I500
ssS'machine'
p14
(dp15
g5
I570
sg6
I35
sg7
I0
sg8
I0
sg9
I10
sg10
I0
sg11
I490
ssS'machine4'
p16
(dp17
g5
I480
sg6
I35
sg7
I0
sg8
I0
sg9
I10
sg10
I0
sg11
I480
ssS'machine3'
p18
(dp19
g5
I499
sg6
I35
sg7
I0
sg8
I0
sg9
I10
sg10
I0
sg11
I440
ssS'machine2'
p20
(dp21
g5
I541
sg6
I36
sg7
I0
sg8
I0
sg9
I9
sg10
I0
sg11
I470
sssS'Wahono.csv'
p22
(dp23
g3
(dp24
g5
I1140
sg6
I59
sg7
I0
sg8
I0
sg9
I3
sg10
I0
sg11
I1140
ssg12
(dp25
g5
I2320
sg6
I59
sg7
I0
sg8
I0
sg9
I3
sg10
I0
sg11
I1160
ssg14
(dp26
g5
I1439
sg6
I59
sg7
I0
sg8
I0
sg9
I3
sg10
I0
sg11
I1160
ssg16
(dp27
g5
I1170
sg6
I59
sg7
I0
sg8
I0
sg9
I3
sg10
I0
sg11
I1170
ssg18
(dp28
g5
I1429
sg6
I59
sg7
I0
sg8
I0
sg9
I3
sg10
I0
sg11
I1160
ssg20
(dp29
g5
I1380
sg6
I59
sg7
I0
sg8
I0
sg9
I3
sg10
I0
sg11
I1120
sssS'Hall.csv'
p30
(dp31
g3
(dp32
g5
I400
sg6
I99
sg7
I0
sg8
I0
sg9
I7
sg10
I0
sg11
I400
ssg12
(dp33
g5
I1000
sg6
I102
sg7
I0
sg8
I0
sg9
I4
sg10
I0
sg11
I500
ssg14
(dp34
g5
I724
sg6
I102
sg7
I0
sg8
I0
sg9
I4
sg10
I0
sg11
I520
ssg16
(dp35
g5
I490
sg6
I102
sg7
I0
sg8
I0
sg9
I4
sg10
I0
sg11
I490
ssg18
(dp36
g5
I696
sg6
I102
sg7
I0
sg8
I0
sg9
I4
sg10
I0
sg11
I500
ssg20
(dp37
g5
I672
sg6
I102
sg7
I0
sg8
I0
sg9
I4
sg10
I0
sg11
I480
sssS'Danijel.csv'
p38
(dp39
g3
(dp40
g5
I760
sg6
I45
sg7
I0
sg8
I0
sg9
I3
sg10
I0
sg11
I760
ssg12
(dp41
g5
I1500
sg6
I45
sg7
I0
sg8
I0
sg9
I3
sg10
I0
sg11
I750
ssg14
(dp42
g5
I976
sg6
I46
sg7
I0
sg8
I0
sg9
I2
sg10
I0
sg11
I800
ssg16
(dp43
g5
I790
sg6
I45
sg7
I0
sg8
I0
sg9
I3
sg10
I0
sg11
I790
ssg18
(dp44
g5
I905
sg6
I45
sg7
I0
sg8
I0
sg9
I3
sg10
I0
sg11
I730
ssg20
(dp45
g5
I855
sg6
I45
sg7
I0
sg8
I0
sg9
I3
sg10
I0
sg11
I690
sss.(dp0
S'K_all3.csv'
p1
(dp2
S'none'
p3
(dp4
S'count'
p5
I500
sS'truepos'
p6
I39
sS'falseneg'
p7
I0
sS'correction'
p8
I0
sS'unknownyes'
p9
I6
sS'falsepos'
p10
I0
sS'unique'
p11
I500
ssS'three'
p12
(dp13
g5
I980
sg6
I34
sg7
I0
sg8
I0
sg9
I11
sg10
I0
sg11
I490
ssS'machine'
p14
(dp15
g5
I593
sg6
I39
sg7
I0
sg8
I0
sg9
I6
sg10
I0
sg11
I510
ssS'machine4'
p16
(dp17
g5
I490
sg6
I36
sg7
I0
sg8
I0
sg9
I9
sg10
I0
sg11
I490
ssS'machine3'
p18
(dp19
g5
I509
sg6
I35
sg7
I0
sg8
I0
sg9
I10
sg10
I0
sg11
I450
ssS'machine2'
p20
(dp21
g5
I592
sg6
I38
sg7
I0
sg8
I0
sg9
I7
sg10
I0
sg11
I510
sssS'Wahono.csv'
p22
(dp23
g3
(dp24
g5
I1150
sg6
I59
sg7
I0
sg8
I0
sg9
I3
sg10
I0
sg11
I1150
ssg12
(dp25
g5
I2320
sg6
I59
sg7
I0
sg8
I0
sg9
I3
sg10
I0
sg11
I1160
ssg14
(dp26
g5
I1281
sg6
I59
sg7
I0
sg8
I0
sg9
I3
sg10
I0
sg11
I1040
ssg16
(dp27
g5
I1170
sg6
I59
sg7
I0
sg8
I0
sg9
I3
sg10
I0
sg11
I1170
ssg18
(dp28
g5
I1479
sg6
I59
sg7
I0
sg8
I0
sg9
I3
sg10
I0
sg11
I1200
ssg20
(dp29
g5
I1421
sg6
I59
sg7
I0
sg8
I0
sg9
I3
sg10
I0
sg11
I1150
sssS'Hall.csv'
p30
(dp31
g3
(dp32
g5
I530
sg6
I102
sg7
I0
sg8
I0
sg9
I4
sg10
I0
sg11
I530
ssg12
(dp33
g5
I880
sg6
I101
sg7
I0
sg8
I0
sg9
I5
sg10
I0
sg11
I440
ssg14
(dp34
g5
I724
sg6
I102
sg7
I0
sg8
I0
sg9
I4
sg10
I0
sg11
I520
ssg16
(dp35
g5
I470
sg6
I102
sg7
I0
sg8
I0
sg9
I4
sg10
I0
sg11
I470
ssg18
(dp36
g5
I743
sg6
I102
sg7
I0
sg8
I0
sg9
I4
sg10
I0
sg11
I540
ssg20
(dp37
g5
I692
sg6
I102
sg7
I0
sg8
I0
sg9
I4
sg10
I0
sg11
I500
sssS'Danijel.csv'
p38
(dp39
g3
(dp40
g5
I760
sg6
I45
sg7
I0
sg8
I0
sg9
I3
sg10
I0
sg11
I760
ssg12
(dp41
g5
I1700
sg6
I45
sg7
I0
sg8
I0
sg9
I3
sg10
I0
sg11
I850
ssg14
(dp42
g5
I985
sg6
I45
sg7
I0
sg8
I0
sg9
I3
sg10
I0
sg11
I800
ssg16
(dp43
g5
I700
sg6
I46
sg7
I0
sg8
I0
sg9
I2
sg10
I0
sg11
I700
ssg18
(dp44
g5
I825
sg6
I45
sg7
I0
sg8
I0
sg9
I3
sg10
I0
sg11
I670
ssg20
(dp45
g5
I875
sg6
I45
sg7
I0
sg8
I0
sg9
I3
sg10
I0
sg11
I710
sss.(dp0
S'K_all3.csv'
p1
(dp2
S'none'
p3
(dp4
S'count'
p5
I510
sS'truepos'
p6
I39
sS'falseneg'
p7
I0
sS'correction'
p8
I0
sS'unknownyes'
p9
I6
sS'falsepos'
p10
I0
sS'unique'
p11
I510
ssS'three'
p12
(dp13
g5
I1020
sg6
I37
sg7
I0
sg8
I0
sg9
I8
sg10
I0
sg11
I510
ssS'machine'
p14
(dp15
g5
I592
sg6
I38
sg7
I0
sg8
I0
sg9
I7
sg10
I0
sg11
I510
ssS'machine4'
p16
(dp17
g5
I500
sg6
I37
sg7
I0
sg8
I0
sg9
I8
sg10
I0
sg11
I500
ssS'machine3'
p18
(dp19
g5
I510
sg6
I36
sg7
I0
sg8
I0
sg9
I9
sg10
I0
sg11
I450
ssS'machine2'
p20
(dp21
g5
I490
sg6
I36
sg7
I0
sg8
I0
sg9
I9
sg10
I0
sg11
I430
sssS'Wahono.csv'
p22
(dp23
g3
(dp24
g5
I1130
sg6
I59
sg7
I0
sg8
I0
sg9
I3
sg10
I0
sg11
I1130
ssg12
(dp25
g5
I2240
sg6
I59
sg7
I0
sg8
I0
sg9
I3
sg10
I0
sg11
I1120
ssg14
(dp26
g5
I1449
sg6
I59
sg7
I0
sg8
I0
sg9
I3
sg10
I0
sg11
I1170
ssg16
(dp27
g5
I1100
sg6
I59
sg7
I0
sg8
I0
sg9
I3
sg10
I0
sg11
I1100
ssg18
(dp28
g5
I1409
sg6
I59
sg7
I0
sg8
I0
sg9
I3
sg10
I0
sg11
I1140
ssg20
(dp29
g5
I1390
sg6
I59
sg7
I0
sg8
I0
sg9
I3
sg10
I0
sg11
I1120
sssS'Hall.csv'
p30
(dp31
g3
(dp32
g5
I480
sg6
I102
sg7
I0
sg8
I0
sg9
I4
sg10
I0
sg11
I480
ssg12
(dp33
g5
I1060
sg6
I102
sg7
I0
sg8
I0
sg9
I4
sg10
I0
sg11
I530
ssg14
(dp34
g5
I692
sg6
I102
sg7
I0
sg8
I0
sg9
I4
sg10
I0
sg11
I500
ssg16
(dp35
g5
I450
sg6
I102
sg7
I0
sg8
I0
sg9
I4
sg10
I0
sg11
I450
ssg18
(dp36
g5
I694
sg6
I102
sg7
I0
sg8
I0
sg9
I4
sg10
I0
sg11
I500
ssg20
(dp37
g5
I672
sg6
I102
sg7
I0
sg8
I0
sg9
I4
sg10
I0
sg11
I480
sssS'Danijel.csv'
p38
(dp39
g3
(dp40
g5
I700
sg6
I45
sg7
I0
sg8
I0
sg9
I3
sg10
I0
sg11
I700
ssg12
(dp41
g5
I1540
sg6
I45
sg7
I0
sg8
I0
sg9
I3
sg10
I0
sg11
I770
ssg14
(dp42
g5
I925
sg6
I45
sg7
I0
sg8
I0
sg9
I3
sg10
I0
sg11
I750
ssg16
(dp43
g5
I770
sg6
I45
sg7
I0
sg8
I0
sg9
I3
sg10
I0
sg11
I770
ssg18
(dp44
g5
I945
sg6
I45
sg7
I0
sg8
I0
sg9
I3
sg10
I0
sg11
I770
ssg20
(dp45
g5
I966
sg6
I45
sg7
I0
sg8
I0
sg9
I3
sg10
I0
sg11
I780
sss.(dp0
S'K_all3.csv'
p1
(dp2
S'none'
p3
(dp4
S'count'
p5
I490
sS'truepos'
p6
I37
sS'falseneg'
p7
I0
sS'correction'
p8
I0
sS'unknownyes'
p9
I8
sS'falsepos'
p10
I0
sS'unique'
p11
I490
ssS'three'
p12
(dp13
g5
I1000
sg6
I37
sg7
I0
sg8
I0
sg9
I8
sg10
I0
sg11
I500
ssS'machine'
p14
(dp15
g5
I571
sg6
I37
sg7
I0
sg8
I0
sg9
I8
sg10
I0
sg11
I490
ssS'machine4'
p16
(dp17
g5
I480
sg6
I35
sg7
I0
sg8
I0
sg9
I10
sg10
I0
sg11
I480
ssS'machine3'
p18
(dp19
g5
I582
sg6
I38
sg7
I0
sg8
I0
sg9
I7
sg10
I0
sg11
I500
ssS'machine2'
p20
(dp21
g5
I539
sg6
I35
sg7
I0
sg8
I0
sg9
I10
sg10
I0
sg11
I470
sssS'Wahono.csv'
p22
(dp23
g3
(dp24
g5
I1160
sg6
I59
sg7
I0
sg8
I0
sg9
I3
sg10
I0
sg11
I1160
ssg12
(dp25
g5
I2300
sg6
I59
sg7
I0
sg8
I0
sg9
I3
sg10
I0
sg11
I1150
ssg14
(dp26
g5
I1449
sg6
I59
sg7
I0
sg8
I0
sg9
I3
sg10
I0
sg11
I1170
ssg16
(dp27
g5
I1060
sg6
I59
sg7
I0
sg8
I0
sg9
I3
sg10
I0
sg11
I1060
ssg18
(dp28
g5
I1439
sg6
I59
sg7
I0
sg8
I0
sg9
I3
sg10
I0
sg11
I1170
ssg20
(dp29
g5
I1440
sg6
I59
sg7
I0
sg8
I0
sg9
I3
sg10
I0
sg11
I1160
sssS'Hall.csv'
p30
(dp31
g3
(dp32
g5
I500
sg6
I102
sg7
I0
sg8
I0
sg9
I4
sg10
I0
sg11
I500
ssg12
(dp33
g5
I1000
sg6
I102
sg7
I0
sg8
I0
sg9
I4
sg10
I0
sg11
I500
ssg14
(dp34
g5
I673
sg6
I102
sg7
I0
sg8
I0
sg9
I4
sg10
I0
sg11
I480
ssg16
(dp35
g5
I500
sg6
I102
sg7
I0
sg8
I0
sg9
I4
sg10
I0
sg11
I500
ssg18
(dp36
g5
I714
sg6
I102
sg7
I0
sg8
I0
sg9
I4
sg10
I0
sg11
I510
ssg20
(dp37
g5
I632
sg6
I102
sg7
I0
sg8
I0
sg9
I4
sg10
I0
sg11
I460
sssS'Danijel.csv'
p38
(dp39
g3
(dp40
g5
I820
sg6
I45
sg7
I0
sg8
I0
sg9
I3
sg10
I0
sg11
I820
ssg12
(dp41
g5
I1520
sg6
I45
sg7
I0
sg8
I0
sg9
I3
sg10
I0
sg11
I760
ssg14
(dp42
g5
I945
sg6
I45
sg7
I0
sg8
I0
sg9
I3
sg10
I0
sg11
I760
ssg16
(dp43
g5
I720
sg6
I45
sg7
I0
sg8
I0
sg9
I3
sg10
I0
sg11
I720
ssg18
(dp44
g5
I945
sg6
I45
sg7
I0
sg8
I0
sg9
I3
sg10
I0
sg11
I770
ssg20
(dp45
g5
I945
sg6
I45
sg7
I0
sg8
I0
sg9
I3
sg10
I0
sg11
I760
sss.(dp0
S'K_all3.csv'
p1
(dp2
S'none'
p3
(dp4
S'count'
p5
I490
sS'truepos'
p6
I36
sS'falseneg'
p7
I0
sS'correction'
p8
I0
sS'unknownyes'
p9
I9
sS'falsepos'
p10
I0
sS'unique'
p11
I490
ssS'three'
p12
(dp13
g5
I1020
sg6
I36
sg7
I0
sg8
I0
sg9
I9
sg10
I0
sg11
I510
ssS'machine'
p14
(dp15
g5
I549
sg6
I35
sg7
I0
sg8
I0
sg9
I10
sg10
I0
sg11
I480
ssS'machine4'
p16
(dp17
g5
I500
sg6
I36
sg7
I0
sg8
I0
sg9
I9
sg10
I0
sg11
I500
ssS'machine3'
p18
(dp19
g5
I550
sg6
I36
sg7
I0
sg8
I0
sg9
I9
sg10
I0
sg11
I480
ssS'machine2'
p20
(dp21
g5
I542
sg6
I37
sg7
I0
sg8
I0
sg9
I8
sg10
I0
sg11
I470
sssS'Wahono.csv'
p22
(dp23
g3
(dp24
g5
I1180
sg6
I59
sg7
I0
sg8
I0
sg9
I3
sg10
I0
sg11
I1180
ssg12
(dp25
g5
I2300
sg6
I59
sg7
I0
sg8
I0
sg9
I3
sg10
I0
sg11
I1150
ssg14
(dp26
g5
I1410
sg6
I59
sg7
I0
sg8
I0
sg9
I3
sg10
I0
sg11
I1140
ssg16
(dp27
g5
I1140
sg6
I59
sg7
I0
sg8
I0
sg9
I3
sg10
I0
sg11
I1140
ssg18
(dp28
g5
I1429
sg6
I59
sg7
I0
sg8
I0
sg9
I3
sg10
I0
sg11
I1160
ssg20
(dp29
g5
I1400
sg6
I59
sg7
I0
sg8
I0
sg9
I3
sg10
I0
sg11
I1130
sssS'Hall.csv'
p30
(dp31
g3
(dp32
g5
I470
sg6
I102
sg7
I0
sg8
I0
sg9
I4
sg10
I0
sg11
I470
ssg12
(dp33
g5
I1000
sg6
I102
sg7
I0
sg8
I0
sg9
I4
sg10
I0
sg11
I500
ssg14
(dp34
g5
I672
sg6
I102
sg7
I0
sg8
I0
sg9
I4
sg10
I0
sg11
I480
ssg16
(dp35
g5
I480
sg6
I102
sg7
I0
sg8
I0
sg9
I4
sg10
I0
sg11
I480
ssg18
(dp36
g5
I635
sg6
I102
sg7
I0
sg8
I0
sg9
I4
sg10
I0
sg11
I450
ssg20
(dp37
g5
I714
sg6
I102
sg7
I0
sg8
I0
sg9
I4
sg10
I0
sg11
I510
sssS'Danijel.csv'
p38
(dp39
g3
(dp40
g5
I820
sg6
I46
sg7
I0
sg8
I0
sg9
I2
sg10
I0
sg11
I820
ssg12
(dp41
g5
I1560
sg6
I45
sg7
I0
sg8
I0
sg9
I3
sg10
I0
sg11
I780
ssg14
(dp42
g5
I946
sg6
I46
sg7
I0
sg8
I0
sg9
I2
sg10
I0
sg11
I760
ssg16
(dp43
g5
I770
sg6
I46
sg7
I0
sg8
I0
sg9
I2
sg10
I0
sg11
I770
ssg18
(dp44
g5
I835
sg6
I45
sg7
I0
sg8
I0
sg9
I3
sg10
I0
sg11
I680
ssg20
(dp45
g5
I815
sg6
I45
sg7
I0
sg8
I0
sg9
I3
sg10
I0
sg11
I660
sss.(dp0
S'K_all3.csv'
p1
(dp2
S'none'
p3
(dp4
S'count'
p5
I480
sS'truepos'
p6
I38
sS'falseneg'
p7
I0
sS'correction'
p8
I0
sS'unknownyes'
p9
I7
sS'falsepos'
p10
I0
sS'unique'
p11
I480
ssS'three'
p12
(dp13
g5
I1000
sg6
I35
sg7
I0
sg8
I0
sg9
I10
sg10
I0
sg11
I500
ssS'machine'
p14
(dp15
g5
I541
sg6
I36
sg7
I0
sg8
I0
sg9
I9
sg10
I0
sg11
I470
ssS'machine4'
p16
(dp17
g5
I470
sg6
I36
sg7
I0
sg8
I0
sg9
I9
sg10
I0
sg11
I470
ssS'machine3'
p18
(dp19
g5
I552
sg6
I37
sg7
I0
sg8
I0
sg9
I8
sg10
I0
sg11
I480
ssS'machine2'
p20
(dp21
g5
I550
sg6
I35
sg7
I0
sg8
I0
sg9
I10
sg10
I0
sg11
I470
sssS'Wahono.csv'
p22
(dp23
g3
(dp24
g5
I1150
sg6
I59
sg7
I0
sg8
I0
sg9
I3
sg10
I0
sg11
I1150
ssg12
(dp25
g5
I2360
sg6
I59
sg7
I0
sg8
I0
sg9
I3
sg10
I0
sg11
I1180
ssg14
(dp26
g5
I1360
sg6
I59
sg7
I0
sg8
I0
sg9
I3
sg10
I0
sg11
I1100
ssg16
(dp27
g5
I1100
sg6
I59
sg7
I0
sg8
I0
sg9
I3
sg10
I0
sg11
I1100
ssg18
(dp28
g5
I1460
sg6
I60
sg7
I0
sg8
I0
sg9
I2
sg10
I0
sg11
I1180
ssg20
(dp29
g5
I1509
sg6
I59
sg7
I0
sg8
I0
sg9
I3
sg10
I0
sg11
I1220
sssS'Hall.csv'
p30
(dp31
g3
(dp32
g5
I500
sg6
I102
sg7
I0
sg8
I0
sg9
I4
sg10
I0
sg11
I500
ssg12
(dp33
g5
I1000
sg6
I102
sg7
I0
sg8
I0
sg9
I4
sg10
I0
sg11
I500
ssg14
(dp34
g5
I624
sg6
I101
sg7
I0
sg8
I0
sg9
I5
sg10
I0
sg11
I450
ssg16
(dp35
g5
I460
sg6
I102
sg7
I0
sg8
I0
sg9
I4
sg10
I0
sg11
I460
ssg18
(dp36
g5
I714
sg6
I102
sg7
I0
sg8
I0
sg9
I4
sg10
I0
sg11
I510
ssg20
(dp37
g5
I725
sg6
I102
sg7
I0
sg8
I0
sg9
I4
sg10
I0
sg11
I520
sssS'Danijel.csv'
p38
(dp39
g3
(dp40
g5
I770
sg6
I46
sg7
I0
sg8
I0
sg9
I2
sg10
I0
sg11
I770
ssg12
(dp41
g5
I1600
sg6
I45
sg7
I0
sg8
I0
sg9
I3
sg10
I0
sg11
I800
ssg14
(dp42
g5
I855
sg6
I45
sg7
I0
sg8
I0
sg9
I3
sg10
I0
sg11
I690
ssg16
(dp43
g5
I730
sg6
I46
sg7
I0
sg8
I0
sg9
I2
sg10
I0
sg11
I730
ssg18
(dp44
g5
I916
sg6
I45
sg7
I0
sg8
I0
sg9
I3
sg10
I0
sg11
I740
ssg20
(dp45
g5
I885
sg6
I45
sg7
I0
sg8
I0
sg9
I3
sg10
I0
sg11
I710
sss.(dp0
S'K_all3.csv'
p1
(dp2
S'none'
p3
(dp4
S'count'
p5
I490
sS'truepos'
p6
I39
sS'falseneg'
p7
I0
sS'correction'
p8
I0
sS'unknownyes'
p9
I6
sS'falsepos'
p10
I0
sS'unique'
p11
I490
ssS'three'
p12
(dp13
g5
I1020
sg6
I38
sg7
I0
sg8
I0
sg9
I7
sg10
I0
sg11
I510
ssS'machine'
p14
(dp15
g5
I592
sg6
I38
sg7
I0
sg8
I0
sg9
I7
sg10
I0
sg11
I510
ssS'machine4'
p16
(dp17
g5
I500
sg6
I38
sg7
I0
sg8
I0
sg9
I7
sg10
I0
sg11
I500
ssS'machine3'
p18
(dp19
g5
I571
sg6
I37
sg7
I0
sg8
I0
sg9
I8
sg10
I0
sg11
I490
ssS'machine2'
p20
(dp21
g5
I582
sg6
I37
sg7
I0
sg8
I0
sg9
I8
sg10
I0
sg11
I500
sssS'Wahono.csv'
p22
(dp23
g3
(dp24
g5
I1200
sg6
I59
sg7
I0
sg8
I0
sg9
I3
sg10
I0
sg11
I1200
ssg12
(dp25
g5
I2200
sg6
I59
sg7
I0
sg8
I0
sg9
I3
sg10
I0
sg11
I1100
ssg14
(dp26
g5
I1469
sg6
I59
sg7
I0
sg8
I0
sg9
I3
sg10
I0
sg11
I1190
ssg16
(dp27
g5
I1160
sg6
I59
sg7
I0
sg8
I0
sg9
I3
sg10
I0
sg11
I1160
ssg18
(dp28
g5
I1441
sg6
I59
sg7
I0
sg8
I0
sg9
I3
sg10
I0
sg11
I1160
ssg20
(dp29
g5
I1430
sg6
I59
sg7
I0
sg8
I0
sg9
I3
sg10
I0
sg11
I1160
sssS'Hall.csv'
p30
(dp31
g3
(dp32
g5
I450
sg6
I101
sg7
I0
sg8
I0
sg9
I5
sg10
I0
sg11
I450
ssg12
(dp33
g5
I1020
sg6
I102
sg7
I0
sg8
I0
sg9
I4
sg10
I0
sg11
I510
ssg14
(dp34
g5
I724
sg6
I102
sg7
I0
sg8
I0
sg9
I4
sg10
I0
sg11
I520
ssg16
(dp35
g5
I460
sg6
I102
sg7
I0
sg8
I0
sg9
I4
sg10
I0
sg11
I460
ssg18
(dp36
g5
I694
sg6
I102
sg7
I0
sg8
I0
sg9
I4
sg10
I0
sg11
I500
ssg20
(dp37
g5
I621
sg6
I101
sg7
I0
sg8
I0
sg9
I5
sg10
I0
sg11
I450
sssS'Danijel.csv'
p38
(dp39
g3
(dp40
g5
I770
sg6
I45
sg7
I0
sg8
I0
sg9
I3
sg10
I0
sg11
I770
ssg12
(dp41
g5
I1480
sg6
I46
sg7
I0
sg8
I0
sg9
I2
sg10
I0
sg11
I740
ssg14
(dp42
g5
I935
sg6
I45
sg7
I0
sg8
I0
sg9
I3
sg10
I0
sg11
I760
ssg16
(dp43
g5
I760
sg6
I46
sg7
I0
sg8
I0
sg9
I2
sg10
I0
sg11
I760
ssg18
(dp44
g5
I945
sg6
I45
sg7
I0
sg8
I0
sg9
I3
sg10
I0
sg11
I770
ssg20
(dp45
g5
I975
sg6
I45
sg7
I0
sg8
I0
sg9
I3
sg10
I0
sg11
I790
sss.(dp0
S'K_all3.csv'
p1
(dp2
S'none'
p3
(dp4
S'count'
p5
I520
sS'truepos'
p6
I38
sS'falseneg'
p7
I0
sS'correction'
p8
I0
sS'unknownyes'
p9
I7
sS'falsepos'
p10
I0
sS'unique'
p11
I520
ssS'three'
p12
(dp13
g5
I1000
sg6
I35
sg7
I0
sg8
I0
sg9
I10
sg10
I0
sg11
I500
ssS'machine'
p14
(dp15
g5
I550
sg6
I36
sg7
I0
sg8
I0
sg9
I9
sg10
I0
sg11
I480
ssS'machine4'
p16
(dp17
g5
I510
sg6
I38
sg7
I0
sg8
I0
sg9
I7
sg10
I0
sg11
I510
ssS'machine3'
p18
(dp19
g5
I560
sg6
I36
sg7
I0
sg8
I0
sg9
I9
sg10
I0
sg11
I490
ssS'machine2'
p20
(dp21
g5
I541
sg6
I36
sg7
I0
sg8
I0
sg9
I9
sg10
I0
sg11
I470
sssS'Wahono.csv'
p22
(dp23
g3
(dp24
g5
I1120
sg6
I59
sg7
I0
sg8
I0
sg9
I3
sg10
I0
sg11
I1120
ssg12
(dp25
g5
I2160
sg6
I59
sg7
I0
sg8
I0
sg9
I3
sg10
I0
sg11
I1080
ssg14
(dp26
g5
I1390
sg6
I59
sg7
I0
sg8
I0
sg9
I3
sg10
I0
sg11
I1120
ssg16
(dp27
g5
I1130
sg6
I59
sg7
I0
sg8
I0
sg9
I3
sg10
I0
sg11
I1130
ssg18
(dp28
g5
I1470
sg6
I59
sg7
I0
sg8
I0
sg9
I3
sg10
I0
sg11
I1190
ssg20
(dp29
g5
I1479
sg6
I59
sg7
I0
sg8
I0
sg9
I3
sg10
I0
sg11
I1200
sssS'Hall.csv'
p30
(dp31
g3
(dp32
g5
I500
sg6
I102
sg7
I0
sg8
I0
sg9
I4
sg10
I0
sg11
I500
ssg12
(dp33
g5
I960
sg6
I102
sg7
I0
sg8
I0
sg9
I4
sg10
I0
sg11
I480
ssg14
(dp34
g5
I715
sg6
I102
sg7
I0
sg8
I0
sg9
I4
sg10
I0
sg11
I510
ssg16
(dp35
g5
I460
sg6
I102
sg7
I0
sg8
I0
sg9
I4
sg10
I0
sg11
I460
ssg18
(dp36
g5
I724
sg6
I102
sg7
I0
sg8
I0
sg9
I4
sg10
I0
sg11
I520
ssg20
(dp37
g5
I684
sg6
I102
sg7
I0
sg8
I0
sg9
I4
sg10
I0
sg11
I490
sssS'Danijel.csv'
p38
(dp39
g3
(dp40
g5
I790
sg6
I46
sg7
I0
sg8
I0
sg9
I2
sg10
I0
sg11
I790
ssg12
(dp41
g5
I1500
sg6
I44
sg7
I0
sg8
I0
sg9
I4
sg10
I0
sg11
I750
ssg14
(dp42
g5
I955
sg6
I45
sg7
I0
sg8
I0
sg9
I3
sg10
I0
sg11
I770
ssg16
(dp43
g5
I770
sg6
I45
sg7
I0
sg8
I0
sg9
I3
sg10
I0
sg11
I770
ssg18
(dp44
g5
I896
sg6
I46
sg7
I0
sg8
I0
sg9
I2
sg10
I0
sg11
I730
ssg20
(dp45
g5
I965
sg6
I45
sg7
I0
sg8
I0
sg9
I3
sg10
I0
sg11
I780
sss.(dp0
S'K_all3.csv'
p1
(dp2
S'none'
p3
(dp4
S'count'
p5
I480
sS'truepos'
p6
I37
sS'falseneg'
p7
I0
sS'correction'
p8
I0
sS'unknownyes'
p9
I8
sS'falsepos'
p10
I0
sS'unique'
p11
I480
ssS'three'
p12
(dp13
g5
I960
sg6
I38
sg7
I0
sg8
I0
sg9
I7
sg10
I0
sg11
I480
ssS'machine'
p14
(dp15
g5
I533
sg6
I38
sg7
I0
sg8
I0
sg9
I7
sg10
I0
sg11
I460
ssS'machine4'
p16
(dp17
g5
I500
sg6
I37
sg7
I0
sg8
I0
sg9
I8
sg10
I0
sg11
I500
ssS'machine3'
p18
(dp19
g5
I551
sg6
I37
sg7
I0
sg8
I0
sg9
I8
sg10
I0
sg11
I480
ssS'machine2'
p20
(dp21
g5
I571
sg6
I37
sg7
I0
sg8
I0
sg9
I8
sg10
I0
sg11
I490
sssS'Wahono.csv'
p22
(dp23
g3
(dp24
g5
I1160
sg6
I59
sg7
I0
sg8
I0
sg9
I3
sg10
I0
sg11
I1160
ssg12
(dp25
g5
I2320
sg6
I59
sg7
I0
sg8
I0
sg9
I3
sg10
I0
sg11
I1160
ssg14
(dp26
g5
I1439
sg6
I59
sg7
I0
sg8
I0
sg9
I3
sg10
I0
sg11
I1160
ssg16
(dp27
g5
I1150
sg6
I59
sg7
I0
sg8
I0
sg9
I3
sg10
I0
sg11
I1150
ssg18
(dp28
g5
I1429
sg6
I59
sg7
I0
sg8
I0
sg9
I3
sg10
I0
sg11
I1160
ssg20
(dp29
g5
I1459
sg6
I59
sg7
I0
sg8
I0
sg9
I3
sg10
I0
sg11
I1180
sssS'Hall.csv'
p30
(dp31
g3
(dp32
g5
I510
sg6
I102
sg7
I0
sg8
I0
sg9
I4
sg10
I0
sg11
I510
ssg12
(dp33
g5
I1000
sg6
I102
sg7
I0
sg8
I0
sg9
I4
sg10
I0
sg11
I500
ssg14
(dp34
g5
I682
sg6
I102
sg7
I0
sg8
I0
sg9
I4
sg10
I0
sg11
I490
ssg16
(dp35
g5
I460
sg6
I102
sg7
I0
sg8
I0
sg9
I4
sg10
I0
sg11
I460
ssg18
(dp36
g5
I684
sg6
I102
sg7
I0
sg8
I0
sg9
I4
sg10
I0
sg11
I490
ssg20
(dp37
g5
I733
sg6
I102
sg7
I0
sg8
I0
sg9
I4
sg10
I0
sg11
I530
sssS'Danijel.csv'
p38
(dp39
g3
(dp40
g5
I750
sg6
I45
sg7
I0
sg8
I0
sg9
I3
sg10
I0
sg11
I750
ssg12
(dp41
g5
I1560
sg6
I45
sg7
I0
sg8
I0
sg9
I3
sg10
I0
sg11
I780
ssg14
(dp42
g5
I915
sg6
I45
sg7
I0
sg8
I0
sg9
I3
sg10
I0
sg11
I740
ssg16
(dp43
g5
I750
sg6
I45
sg7
I0
sg8
I0
sg9
I3
sg10
I0
sg11
I750
ssg18
(dp44
g5
I935
sg6
I45
sg7
I0
sg8
I0
sg9
I3
sg10
I0
sg11
I760
ssg20
(dp45
g5
I915
sg6
I45
sg7
I0
sg8
I0
sg9
I3
sg10
I0
sg11
I740
sss.(dp0
S'K_all3.csv'
p1
(dp2
S'none'
p3
(dp4
S'count'
p5
I500
sS'truepos'
p6
I36
sS'falseneg'
p7
I0
sS'correction'
p8
I0
sS'unknownyes'
p9
I9
sS'falsepos'
p10
I0
sS'unique'
p11
I500
ssS'three'
p12
(dp13
g5
I1020
sg6
I38
sg7
I0
sg8
I0
sg9
I7
sg10
I0
sg11
I510
ssS'machine'
p14
(dp15
g5
I572
sg6
I37
sg7
I0
sg8
I0
sg9
I8
sg10
I0
sg11
I490
ssS'machine4'
p16
(dp17
g5
I520
sg6
I37
sg7
I0
sg8
I0
sg9
I8
sg10
I0
sg11
I520
ssS'machine3'
p18
(dp19
g5
I551
sg6
I37
sg7
I0
sg8
I0
sg9
I8
sg10
I0
sg11
I480
ssS'machine2'
p20
(dp21
g5
I550
sg6
I36
sg7
I0
sg8
I0
sg9
I9
sg10
I0
sg11
I480
sssS'Wahono.csv'
p22
(dp23
g3
(dp24
g5
I1130
sg6
I59
sg7
I0
sg8
I0
sg9
I3
sg10
I0
sg11
I1130
ssg12
(dp25
g5
I2320
sg6
I59
sg7
I0
sg8
I0
sg9
I3
sg10
I0
sg11
I1160
ssg14
(dp26
g5
I1380
sg6
I59
sg7
I0
sg8
I0
sg9
I3
sg10
I0
sg11
I1110
ssg16
(dp27
g5
I1110
sg6
I59
sg7
I0
sg8
I0
sg9
I3
sg10
I0
sg11
I1110
ssg18
(dp28
g5
I1439
sg6
I59
sg7
I0
sg8
I0
sg9
I3
sg10
I0
sg11
I1170
ssg20
(dp29
g5
I1449
sg6
I59
sg7
I0
sg8
I0
sg9
I3
sg10
I0
sg11
I1170
sssS'Hall.csv'
p30
(dp31
g3
(dp32
g5
I430
sg6
I101
sg7
I0
sg8
I0
sg9
I5
sg10
I0
sg11
I430
ssg12
(dp33
g5
I900
sg6
I102
sg7
I0
sg8
I0
sg9
I4
sg10
I0
sg11
I450
ssg14
(dp34
g5
I714
sg6
I102
sg7
I0
sg8
I0
sg9
I4
sg10
I0
sg11
I510
ssg16
(dp35
g5
I480
sg6
I102
sg7
I0
sg8
I0
sg9
I4
sg10
I0
sg11
I480
ssg18
(dp36
g5
I662
sg6
I101
sg7
I0
sg8
I0
sg9
I5
sg10
I0
sg11
I470
ssg20
(dp37
g5
I532
sg6
I99
sg7
I0
sg8
I0
sg9
I7
sg10
I0
sg11
I380
sssS'Danijel.csv'
p38
(dp39
g3
(dp40
g5
I720
sg6
I45
sg7
I0
sg8
I0
sg9
I3
sg10
I0
sg11
I720
ssg12
(dp41
g5
I1520
sg6
I45
sg7
I0
sg8
I0
sg9
I3
sg10
I0
sg11
I760
ssg14
(dp42
g5
I945
sg6
I45
sg7
I0
sg8
I0
sg9
I3
sg10
I0
sg11
I760
ssg16
(dp43
g5
I800
sg6
I45
sg7
I0
sg8
I0
sg9
I3
sg10
I0
sg11
I800
ssg18
(dp44
g5
I925
sg6
I45
sg7
I0
sg8
I0
sg9
I3
sg10
I0
sg11
I750
ssg20
(dp45
g5
I915
sg6
I45
sg7
I0
sg8
I0
sg9
I3
sg10
I0
sg11
I740
sss.(dp0
S'K_all3.csv'
p1
(dp2
S'none'
p3
(dp4
S'count'
p5
I520
sS'truepos'
p6
I38
sS'falseneg'
p7
I0
sS'correction'
p8
I0
sS'unknownyes'
p9
I7
sS'falsepos'
p10
I0
sS'unique'
p11
I520
ssS'three'
p12
(dp13
g5
I960
sg6
I35
sg7
I0
sg8
I0
sg9
I10
sg10
I0
sg11
I480
ssS'machine'
p14
(dp15
g5
I541
sg6
I36
sg7
I0
sg8
I0
sg9
I9
sg10
I0
sg11
I470
ssS'machine4'
p16
(dp17
g5
I480
sg6
I38
sg7
I0
sg8
I0
sg9
I7
sg10
I0
sg11
I480
ssS'machine3'
p18
(dp19
g5
I582
sg6
I37
sg7
I0
sg8
I0
sg9
I8
sg10
I0
sg11
I500
ssS'machine2'
p20
(dp21
g5
I519
sg6
I34
sg7
I0
sg8
I0
sg9
I11
sg10
I0
sg11
I450
sssS'Wahono.csv'
p22
(dp23
g3
(dp24
g5
I1140
sg6
I59
sg7
I0
sg8
I0
sg9
I3
sg10
I0
sg11
I1140
ssg12
(dp25
g5
I2160
sg6
I59
sg7
I0
sg8
I0
sg9
I3
sg10
I0
sg11
I1080
ssg14
(dp26
g5
I1509
sg6
I59
sg7
I0
sg8
I0
sg9
I3
sg10
I0
sg11
I1220
ssg16
(dp27
g5
I1190
sg6
I59
sg7
I0
sg8
I0
sg9
I3
sg10
I0
sg11
I1190
ssg18
(dp28
g5
I1410
sg6
I59
sg7
I0
sg8
I0
sg9
I3
sg10
I0
sg11
I1140
ssg20
(dp29
g5
I1499
sg6
I59
sg7
I0
sg8
I0
sg9
I3
sg10
I0
sg11
I1210
sssS'Hall.csv'
p30
(dp31
g3
(dp32
g5
I470
sg6
I101
sg7
I0
sg8
I0
sg9
I5
sg10
I0
sg11
I470
ssg12
(dp33
g5
I900
sg6
I102
sg7
I0
sg8
I0
sg9
I4
sg10
I0
sg11
I450
ssg14
(dp34
g5
I715
sg6
I102
sg7
I0
sg8
I0
sg9
I4
sg10
I0
sg11
I510
ssg16
(dp35
g5
I510
sg6
I102
sg7
I0
sg8
I0
sg9
I4
sg10
I0
sg11
I510
ssg18
(dp36
g5
I633
sg6
I101
sg7
I0
sg8
I0
sg9
I5
sg10
I0
sg11
I450
ssg20
(dp37
g5
I682
sg6
I102
sg7
I0
sg8
I0
sg9
I4
sg10
I0
sg11
I490
sssS'Danijel.csv'
p38
(dp39
g3
(dp40
g5
I780
sg6
I45
sg7
I0
sg8
I0
sg9
I3
sg10
I0
sg11
I780
ssg12
(dp41
g5
I1520
sg6
I45
sg7
I0
sg8
I0
sg9
I3
sg10
I0
sg11
I760
ssg14
(dp42
g5
I955
sg6
I45
sg7
I0
sg8
I0
sg9
I3
sg10
I0
sg11
I770
ssg16
(dp43
g5
I710
sg6
I45
sg7
I0
sg8
I0
sg9
I3
sg10
I0
sg11
I710
ssg18
(dp44
g5
I945
sg6
I45
sg7
I0
sg8
I0
sg9
I3
sg10
I0
sg11
I770
ssg20
(dp45
g5
I946
sg6
I46
sg7
I0
sg8
I0
sg9
I2
sg10
I0
sg11
I760
sss.(dp0
S'K_all3.csv'
p1
(dp2
S'none'
p3
(dp4
S'count'
p5
I470
sS'truepos'
p6
I36
sS'falseneg'
p7
I0
sS'correction'
p8
I0
sS'unknownyes'
p9
I9
sS'falsepos'
p10
I0
sS'unique'
p11
I470
ssS'three'
p12
(dp13
g5
I960
sg6
I36
sg7
I0
sg8
I0
sg9
I9
sg10
I0
sg11
I480
ssS'machine'
p14
(dp15
g5
I479
sg6
I35
sg7
I0
sg8
I0
sg9
I10
sg10
I0
sg11
I420
ssS'machine4'
p16
(dp17
g5
I540
sg6
I38
sg7
I0
sg8
I0
sg9
I7
sg10
I0
sg11
I540
ssS'machine3'
p18
(dp19
g5
I601
sg6
I37
sg7
I0
sg8
I0
sg9
I8
sg10
I0
sg11
I520
ssS'machine2'
p20
(dp21
g5
I573
sg6
I38
sg7
I0
sg8
I0
sg9
I7
sg10
I0
sg11
I490
sssS'Wahono.csv'
p22
(dp23
g3
(dp24
g5
I1190
sg6
I59
sg7
I0
sg8
I0
sg9
I3
sg10
I0
sg11
I1190
ssg12
(dp25
g5
I2200
sg6
I60
sg7
I0
sg8
I0
sg9
I2
sg10
I0
sg11
I1100
ssg14
(dp26
g5
I1440
sg6
I59
sg7
I0
sg8
I0
sg9
I3
sg10
I0
sg11
I1160
ssg16
(dp27
g5
I1190
sg6
I59
sg7
I0
sg8
I0
sg9
I3
sg10
I0
sg11
I1190
ssg18
(dp28
g5
I1409
sg6
I59
sg7
I0
sg8
I0
sg9
I3
sg10
I0
sg11
I1140
ssg20
(dp29
g5
I1349
sg6
I59
sg7
I0
sg8
I0
sg9
I3
sg10
I0
sg11
I1090
sssS'Hall.csv'
p30
(dp31
g3
(dp32
g5
I500
sg6
I102
sg7
I0
sg8
I0
sg9
I4
sg10
I0
sg11
I500
ssg12
(dp33
g5
I1040
sg6
I102
sg7
I0
sg8
I0
sg9
I4
sg10
I0
sg11
I520
ssg14
(dp34
g5
I682
sg6
I102
sg7
I0
sg8
I0
sg9
I4
sg10
I0
sg11
I490
ssg16
(dp35
g5
I500
sg6
I102
sg7
I0
sg8
I0
sg9
I4
sg10
I0
sg11
I500
ssg18
(dp36
g5
I634
sg6
I102
sg7
I0
sg8
I0
sg9
I4
sg10
I0
sg11
I450
ssg20
(dp37
g5
I691
sg6
I102
sg7
I0
sg8
I0
sg9
I4
sg10
I0
sg11
I500
sssS'Danijel.csv'
p38
(dp39
g3
(dp40
g5
I710
sg6
I45
sg7
I0
sg8
I0
sg9
I3
sg10
I0
sg11
I710
ssg12
(dp41
g5
I1420
sg6
I45
sg7
I0
sg8
I0
sg9
I3
sg10
I0
sg11
I710
ssg14
(dp42
g5
I985
sg6
I45
sg7
I0
sg8
I0
sg9
I3
sg10
I0
sg11
I800
ssg16
(dp43
g5
I790
sg6
I45
sg7
I0
sg8
I0
sg9
I3
sg10
I0
sg11
I790
ssg18
(dp44
g5
I925
sg6
I45
sg7
I0
sg8
I0
sg9
I3
sg10
I0
sg11
I750
ssg20
(dp45
g5
I886
sg6
I45
sg7
I0
sg8
I0
sg9
I3
sg10
I0
sg11
I720
sss.(dp0
S'K_all3.csv'
p1
(dp2
S'none'
p3
(dp4
S'count'
p5
I460
sS'truepos'
p6
I35
sS'falseneg'
p7
I0
sS'correction'
p8
I0
sS'unknownyes'
p9
I10
sS'falsepos'
p10
I0
sS'unique'
p11
I460
ssS'three'
p12
(dp13
g5
I900
sg6
I34
sg7
I0
sg8
I0
sg9
I11
sg10
I0
sg11
I450
ssS'machine'
p14
(dp15
g5
I574
sg6
I39
sg7
I0
sg8
I0
sg9
I6
sg10
I0
sg11
I490
ssS'machine4'
p16
(dp17
g5
I510
sg6
I36
sg7
I0
sg8
I0
sg9
I9
sg10
I0
sg11
I510
ssS'machine3'
p18
(dp19
g5
I552
sg6
I38
sg7
I0
sg8
I0
sg9
I7
sg10
I0
sg11
I480
ssS'machine2'
p20
(dp21
g5
I561
sg6
I37
sg7
I0
sg8
I0
sg9
I8
sg10
I0
sg11
I480
sssS'Wahono.csv'
p22
(dp23
g3
(dp24
g5
I1110
sg6
I59
sg7
I0
sg8
I0
sg9
I3
sg10
I0
sg11
I1110
ssg12
(dp25
g5
I2380
sg6
I59
sg7
I0
sg8
I0
sg9
I3
sg10
I0
sg11
I1190
ssg14
(dp26
g5
I1419
sg6
I59
sg7
I0
sg8
I0
sg9
I3
sg10
I0
sg11
I1150
ssg16
(dp27
g5
I1130
sg6
I59
sg7
I0
sg8
I0
sg9
I3
sg10
I0
sg11
I1130
ssg18
(dp28
g5
I1390
sg6
I59
sg7
I0
sg8
I0
sg9
I3
sg10
I0
sg11
I1120
ssg20
(dp29
g5
I1419
sg6
I59
sg7
I0
sg8
I0
sg9
I3
sg10
I0
sg11
I1150
sssS'Hall.csv'
p30
(dp31
g3
(dp32
g5
I480
sg6
I102
sg7
I0
sg8
I0
sg9
I4
sg10
I0
sg11
I480
ssg12
(dp33
g5
I1060
sg6
I102
sg7
I0
sg8
I0
sg9
I4
sg10
I0
sg11
I530
ssg14
(dp34
g5
I691
sg6
I102
sg7
I0
sg8
I0
sg9
I4
sg10
I0
sg11
I500
ssg16
(dp35
g5
I460
sg6
I101
sg7
I0
sg8
I0
sg9
I5
sg10
I0
sg11
I460
ssg18
(dp36
g5
I633
sg6
I101
sg7
I0
sg8
I0
sg9
I5
sg10
I0
sg11
I450
ssg20
(dp37
g5
I634
sg6
I102
sg7
I0
sg8
I0
sg9
I4
sg10
I0
sg11
I460
sssS'Danijel.csv'
p38
(dp39
g3
(dp40
g5
I730
sg6
I45
sg7
I0
sg8
I0
sg9
I3
sg10
I0
sg11
I730
ssg12
(dp41
g5
I1500
sg6
I45
sg7
I0
sg8
I0
sg9
I3
sg10
I0
sg11
I750
ssg14
(dp42
g5
I945
sg6
I45
sg7
I0
sg8
I0
sg9
I3
sg10
I0
sg11
I760
ssg16
(dp43
g5
I770
sg6
I45
sg7
I0
sg8
I0
sg9
I3
sg10
I0
sg11
I770
ssg18
(dp44
g5
I1005
sg6
I45
sg7
I0
sg8
I0
sg9
I3
sg10
I0
sg11
I820
ssg20
(dp45
g5
I865
sg6
I45
sg7
I0
sg8
I0
sg9
I3
sg10
I0
sg11
I700
sss.(dp0
S'K_all3.csv'
p1
(dp2
S'none'
p3
(dp4
S'count'
p5
I480
sS'truepos'
p6
I38
sS'falseneg'
p7
I0
sS'correction'
p8
I0
sS'unknownyes'
p9
I7
sS'falsepos'
p10
I0
sS'unique'
p11
I480
ssS'three'
p12
(dp13
g5
I1020
sg6
I38
sg7
I0
sg8
I0
sg9
I7
sg10
I0
sg11
I510
ssS'machine'
p14
(dp15
g5
I551
sg6
I37
sg7
I0
sg8
I0
sg9
I8
sg10
I0
sg11
I480
ssS'machine4'
p16
(dp17
g5
I520
sg6
I38
sg7
I0
sg8
I0
sg9
I7
sg10
I0
sg11
I520
ssS'machine3'
p18
(dp19
g5
I583
sg6
I38
sg7
I0
sg8
I0
sg9
I7
sg10
I0
sg11
I500
ssS'machine2'
p20
(dp21
g5
I591
sg6
I36
sg7
I0
sg8
I0
sg9
I9
sg10
I0
sg11
I510
sssS'Wahono.csv'
p22
(dp23
g3
(dp24
g5
I1210
sg6
I59
sg7
I0
sg8
I0
sg9
I3
sg10
I0
sg11
I1210
ssg12
(dp25
g5
I2260
sg6
I59
sg7
I0
sg8
I0
sg9
I3
sg10
I0
sg11
I1130
ssg14
(dp26
g5
I1460
sg6
I60
sg7
I0
sg8
I0
sg9
I2
sg10
I0
sg11
I1180
ssg16
(dp27
g5
I1180
sg6
I59
sg7
I0
sg8
I0
sg9
I3
sg10
I0
sg11
I1180
ssg18
(dp28
g5
I1469
sg6
I59
sg7
I0
sg8
I0
sg9
I3
sg10
I0
sg11
I1190
ssg20
(dp29
g5
I1419
sg6
I59
sg7
I0
sg8
I0
sg9
I3
sg10
I0
sg11
I1150
sssS'Hall.csv'
p30
(dp31
g3
(dp32
g5
I480
sg6
I102
sg7
I0
sg8
I0
sg9
I4
sg10
I0
sg11
I480
ssg12
(dp33
g5
I960
sg6
I102
sg7
I0
sg8
I0
sg9
I4
sg10
I0
sg11
I480
ssg14
(dp34
g5
I663
sg6
I102
sg7
I0
sg8
I0
sg9
I4
sg10
I0
sg11
I470
ssg16
(dp35
g5
I450
sg6
I101
sg7
I0
sg8
I0
sg9
I5
sg10
I0
sg11
I450
ssg18
(dp36
g5
I694
sg6
I102
sg7
I0
sg8
I0
sg9
I4
sg10
I0
sg11
I500
ssg20
(dp37
g5
I734
sg6
I102
sg7
I0
sg8
I0
sg9
I4
sg10
I0
sg11
I530
sssS'Danijel.csv'
p38
(dp39
g3
(dp40
g5
I740
sg6
I45
sg7
I0
sg8
I0
sg9
I3
sg10
I0
sg11
I740
ssg12
(dp41
g5
I1540
sg6
I46
sg7
I0
sg8
I0
sg9
I2
sg10
I0
sg11
I770
ssg14
(dp42
g5
I865
sg6
I45
sg7
I0
sg8
I0
sg9
I3
sg10
I0
sg11
I700
ssg16
(dp43
g5
I770
sg6
I46
sg7
I0
sg8
I0
sg9
I2
sg10
I0
sg11
I770
ssg18
(dp44
g5
I945
sg6
I45
sg7
I0
sg8
I0
sg9
I3
sg10
I0
sg11
I770
ssg20
(dp45
g5
I926
sg6
I45
sg7
I0
sg8
I0
sg9
I3
sg10
I0
sg11
I750
sss.(dp0
S'K_all3.csv'
p1
(dp2
S'none'
p3
(dp4
S'count'
p5
I530
sS'truepos'
p6
I38
sS'falseneg'
p7
I0
sS'correction'
p8
I0
sS'unknownyes'
p9
I7
sS'falsepos'
p10
I0
sS'unique'
p11
I530
ssS'three'
p12
(dp13
g5
I980
sg6
I37
sg7
I0
sg8
I0
sg9
I8
sg10
I0
sg11
I490
ssS'machine'
p14
(dp15
g5
I541
sg6
I36
sg7
I0
sg8
I0
sg9
I9
sg10
I0
sg11
I470
ssS'machine4'
p16
(dp17
g5
I480
sg6
I37
sg7
I0
sg8
I0
sg9
I8
sg10
I0
sg11
I480
ssS'machine3'
p18
(dp19
g5
I561
sg6
I36
sg7
I0
sg8
I0
sg9
I9
sg10
I0
sg11
I480
ssS'machine2'
p20
(dp21
g5
I593
sg6
I38
sg7
I0
sg8
I0
sg9
I7
sg10
I0
sg11
I510
sssS'Wahono.csv'
p22
(dp23
g3
(dp24
g5
I1170
sg6
I59
sg7
I0
sg8
I0
sg9
I3
sg10
I0
sg11
I1170
ssg12
(dp25
g5
I2280
sg6
I59
sg7
I0
sg8
I0
sg9
I3
sg10
I0
sg11
I1140
ssg14
(dp26
g5
I1470
sg6
I59
sg7
I0
sg8
I0
sg9
I3
sg10
I0
sg11
I1190
ssg16
(dp27
g5
I1170
sg6
I59
sg7
I0
sg8
I0
sg9
I3
sg10
I0
sg11
I1170
ssg18
(dp28
g5
I1430
sg6
I59
sg7
I0
sg8
I0
sg9
I3
sg10
I0
sg11
I1160
ssg20
(dp29
g5
I1469
sg6
I59
sg7
I0
sg8
I0
sg9
I3
sg10
I0
sg11
I1190
sssS'Hall.csv'
p30
(dp31
g3
(dp32
g5
I520
sg6
I102
sg7
I0
sg8
I0
sg9
I4
sg10
I0
sg11
I520
ssg12
(dp33
g5
I980
sg6
I102
sg7
I0
sg8
I0
sg9
I4
sg10
I0
sg11
I490
ssg14
(dp34
g5
I723
sg6
I102
sg7
I0
sg8
I0
sg9
I4
sg10
I0
sg11
I520
ssg16
(dp35
g5
I440
sg6
I101
sg7
I0
sg8
I0
sg9
I5
sg10
I0
sg11
I440
ssg18
(dp36
g5
I675
sg6
I102
sg7
I0
sg8
I0
sg9
I4
sg10
I0
sg11
I480
ssg20
(dp37
g5
I692
sg6
I102
sg7
I0
sg8
I0
sg9
I4
sg10
I0
sg11
I500
sssS'Danijel.csv'
p38
(dp39
g3
(dp40
g5
I740
sg6
I46
sg7
I0
sg8
I0
sg9
I2
sg10
I0
sg11
I740
ssg12
(dp41
g5
I1380
sg6
I45
sg7
I0
sg8
I0
sg9
I3
sg10
I0
sg11
I690
ssg14
(dp42
g5
I815
sg6
I45
sg7
I0
sg8
I0
sg9
I3
sg10
I0
sg11
I660
ssg16
(dp43
g5
I780
sg6
I45
sg7
I0
sg8
I0
sg9
I3
sg10
I0
sg11
I780
ssg18
(dp44
g5
I945
sg6
I45
sg7
I0
sg8
I0
sg9
I3
sg10
I0
sg11
I770
ssg20
(dp45
g5
I925
sg6
I45
sg7
I0
sg8
I0
sg9
I3
sg10
I0
sg11
I750
sss.(dp0
S'K_all3.csv'
p1
(dp2
S'none'
p3
(dp4
S'count'
p5
I510
sS'truepos'
p6
I38
sS'falseneg'
p7
I0
sS'correction'
p8
I0
sS'unknownyes'
p9
I7
sS'falsepos'
p10
I0
sS'unique'
p11
I510
ssS'three'
p12
(dp13
g5
I1000
sg6
I38
sg7
I0
sg8
I0
sg9
I7
sg10
I0
sg11
I500
ssS'machine'
p14
(dp15
g5
I551
sg6
I36
sg7
I0
sg8
I0
sg9
I9
sg10
I0
sg11
I470
ssS'machine4'
p16
(dp17
g5
I500
sg6
I37
sg7
I0
sg8
I0
sg9
I8
sg10
I0
sg11
I500
ssS'machine3'
p18
(dp19
g5
I500
sg6
I35
sg7
I0
sg8
I0
sg9
I10
sg10
I0
sg11
I440
ssS'machine2'
p20
(dp21
g5
I612
sg6
I38
sg7
I0
sg8
I0
sg9
I7
sg10
I0
sg11
I530
sssS'Wahono.csv'
p22
(dp23
g3
(dp24
g5
I1200
sg6
I59
sg7
I0
sg8
I0
sg9
I3
sg10
I0
sg11
I1200
ssg12
(dp25
g5
I2320
sg6
I59
sg7
I0
sg8
I0
sg9
I3
sg10
I0
sg11
I1160
ssg14
(dp26
g5
I1451
sg6
I60
sg7
I0
sg8
I0
sg9
I2
sg10
I0
sg11
I1170
ssg16
(dp27
g5
I1100
sg6
I59
sg7
I0
sg8
I0
sg9
I3
sg10
I0
sg11
I1100
ssg18
(dp28
g5
I1390
sg6
I59
sg7
I0
sg8
I0
sg9
I3
sg10
I0
sg11
I1120
ssg20
(dp29
g5
I1419
sg6
I59
sg7
I0
sg8
I0
sg9
I3
sg10
I0
sg11
I1150
sssS'Hall.csv'
p30
(dp31
g3
(dp32
g5
I480
sg6
I102
sg7
I0
sg8
I0
sg9
I4
sg10
I0
sg11
I480
ssg12
(dp33
g5
I900
sg6
I101
sg7
I0
sg8
I0
sg9
I5
sg10
I0
sg11
I450
ssg14
(dp34
g5
I563
sg6
I100
sg7
I0
sg8
I0
sg9
I6
sg10
I0
sg11
I410
ssg16
(dp35
g5
I490
sg6
I102
sg7
I0
sg8
I0
sg9
I4
sg10
I0
sg11
I490
ssg18
(dp36
g5
I694
sg6
I102
sg7
I0
sg8
I0
sg9
I4
sg10
I0
sg11
I500
ssg20
(dp37
g5
I694
sg6
I102
sg7
I0
sg8
I0
sg9
I4
sg10
I0
sg11
I500
sssS'Danijel.csv'
p38
(dp39
g3
(dp40
g5
I830
sg6
I45
sg7
I0
sg8
I0
sg9
I3
sg10
I0
sg11
I830
ssg12
(dp41
g5
I1480
sg6
I45
sg7
I0
sg8
I0
sg9
I3
sg10
I0
sg11
I740
ssg14
(dp42
g5
I965
sg6
I45
sg7
I0
sg8
I0
sg9
I3
sg10
I0
sg11
I780
ssg16
(dp43
g5
I790
sg6
I45
sg7
I0
sg8
I0
sg9
I3
sg10
I0
sg11
I790
ssg18
(dp44
g5
I905
sg6
I45
sg7
I0
sg8
I0
sg9
I3
sg10
I0
sg11
I730
ssg20
(dp45
g5
I905
sg6
I45
sg7
I0
sg8
I0
sg9
I3
sg10
I0
sg11
I740
sss.(dp0
S'K_all3.csv'
p1
(dp2
S'none'
p3
(dp4
S'count'
p5
I500
sS'truepos'
p6
I38
sS'falseneg'
p7
I0
sS'correction'
p8
I0
sS'unknownyes'
p9
I7
sS'falsepos'
p10
I0
sS'unique'
p11
I500
ssS'three'
p12
(dp13
g5
I920
sg6
I33
sg7
I0
sg8
I0
sg9
I12
sg10
I0
sg11
I460
ssS'machine'
p14
(dp15
g5
I553
sg6
I38
sg7
I0
sg8
I0
sg9
I7
sg10
I0
sg11
I470
ssS'machine4'
p16
(dp17
g5
I510
sg6
I36
sg7
I0
sg8
I0
sg9
I9
sg10
I0
sg11
I510
ssS'machine3'
p18
(dp19
g5
I602
sg6
I37
sg7
I0
sg8
I0
sg9
I8
sg10
I0
sg11
I520
ssS'machine2'
p20
(dp21
g5
I602
sg6
I38
sg7
I0
sg8
I0
sg9
I7
sg10
I0
sg11
I520
sssS'Wahono.csv'
p22
(dp23
g3
(dp24
g5
I1180
sg6
I59
sg7
I0
sg8
I0
sg9
I3
sg10
I0
sg11
I1180
ssg12
(dp25
g5
I2360
sg6
I59
sg7
I0
sg8
I0
sg9
I3
sg10
I0
sg11
I1180
ssg14
(dp26
g5
I1509
sg6
I59
sg7
I0
sg8
I0
sg9
I3
sg10
I0
sg11
I1220
ssg16
(dp27
g5
I1140
sg6
I59
sg7
I0
sg8
I0
sg9
I3
sg10
I0
sg11
I1140
ssg18
(dp28
g5
I1359
sg6
I59
sg7
I0
sg8
I0
sg9
I3
sg10
I0
sg11
I1100
ssg20
(dp29
g5
I1359
sg6
I59
sg7
I0
sg8
I0
sg9
I3
sg10
I0
sg11
I1100
sssS'Hall.csv'
p30
(dp31
g3
(dp32
g5
I500
sg6
I102
sg7
I0
sg8
I0
sg9
I4
sg10
I0
sg11
I500
ssg12
(dp33
g5
I980
sg6
I102
sg7
I0
sg8
I0
sg9
I4
sg10
I0
sg11
I490
ssg14
(dp34
g5
I582
sg6
I99
sg7
I0
sg8
I0
sg9
I7
sg10
I0
sg11
I410
ssg16
(dp35
g5
I460
sg6
I102
sg7
I0
sg8
I0
sg9
I4
sg10
I0
sg11
I460
ssg18
(dp36
g5
I635
sg6
I102
sg7
I0
sg8
I0
sg9
I4
sg10
I0
sg11
I450
ssg20
(dp37
g5
I682
sg6
I102
sg7
I0
sg8
I0
sg9
I4
sg10
I0
sg11
I490
sssS'Danijel.csv'
p38
(dp39
g3
(dp40
g5
I750
sg6
I45
sg7
I0
sg8
I0
sg9
I3
sg10
I0
sg11
I750
ssg12
(dp41
g5
I1560
sg6
I45
sg7
I0
sg8
I0
sg9
I3
sg10
I0
sg11
I780
ssg14
(dp42
g5
I965
sg6
I45
sg7
I0
sg8
I0
sg9
I3
sg10
I0
sg11
I790
ssg16
(dp43
g5
I720
sg6
I45
sg7
I0
sg8
I0
sg9
I3
sg10
I0
sg11
I720
ssg18
(dp44
g5
I925
sg6
I45
sg7
I0
sg8
I0
sg9
I3
sg10
I0
sg11
I750
ssg20
(dp45
g5
I895
sg6
I45
sg7
I0
sg8
I0
sg9
I3
sg10
I0
sg11
I730
sss.(dp0
S'K_all3.csv'
p1
(dp2
S'none'
p3
(dp4
S'count'
p5
I500
sS'truepos'
p6
I38
sS'falseneg'
p7
I0
sS'correction'
p8
I0
sS'unknownyes'
p9
I7
sS'falsepos'
p10
I0
sS'unique'
p11
I500
ssS'three'
p12
(dp13
g5
I940
sg6
I38
sg7
I0
sg8
I0
sg9
I7
sg10
I0
sg11
I470
ssS'machine'
p14
(dp15
g5
I477
sg6
I33
sg7
I0
sg8
I0
sg9
I12
sg10
I0
sg11
I420
ssS'machine4'
p16
(dp17
g5
I500
sg6
I37
sg7
I0
sg8
I0
sg9
I8
sg10
I0
sg11
I500
ssS'machine3'
p18
(dp19
g5
I591
sg6
I37
sg7
I0
sg8
I0
sg9
I8
sg10
I0
sg11
I510
ssS'machine2'
p20
(dp21
g5
I591
sg6
I36
sg7
I0
sg8
I0
sg9
I9
sg10
I0
sg11
I510
sssS'Wahono.csv'
p22
(dp23
g3
(dp24
g5
I1210
sg6
I59
sg7
I0
sg8
I0
sg9
I3
sg10
I0
sg11
I1210
ssg12
(dp25
g5
I2220
sg6
I60
sg7
I0
sg8
I0
sg9
I2
sg10
I0
sg11
I1110
ssg14
(dp26
g5
I759
sg6
I57
sg7
I0
sg8
I0
sg9
I5
sg10
I0
sg11
I610
ssg16
(dp27
g5
I1190
sg6
I60
sg7
I0
sg8
I0
sg9
I2
sg10
I0
sg11
I1190
ssg18
(dp28
g5
I1429
sg6
I59
sg7
I0
sg8
I0
sg9
I3
sg10
I0
sg11
I1160
ssg20
(dp29
g5
I1460
sg6
I60
sg7
I0
sg8
I0
sg9
I2
sg10
I0
sg11
I1180
sssS'Hall.csv'
p30
(dp31
g3
(dp32
g5
I480
sg6
I102
sg7
I0
sg8
I0
sg9
I4
sg10
I0
sg11
I480
ssg12
(dp33
g5
I1000
sg6
I102
sg7
I0
sg8
I0
sg9
I4
sg10
I0
sg11
I500
ssg14
(dp34
g5
I671
sg6
I102
sg7
I0
sg8
I0
sg9
I4
sg10
I0
sg11
I480
ssg16
(dp35
g5
I410
sg6
I99
sg7
I0
sg8
I0
sg9
I7
sg10
I0
sg11
I410
ssg18
(dp36
g5
I613
sg6
I101
sg7
I0
sg8
I0
sg9
I5
sg10
I0
sg11
I430
ssg20
(dp37
g5
I724
sg6
I102
sg7
I0
sg8
I0
sg9
I4
sg10
I0
sg11
I520
sssS'Danijel.csv'
p38
(dp39
g3
(dp40
g5
I740
sg6
I45
sg7
I0
sg8
I0
sg9
I3
sg10
I0
sg11
I740
ssg12
(dp41
g5
I1520
sg6
I45
sg7
I0
sg8
I0
sg9
I3
sg10
I0
sg11
I760
ssg14
(dp42
g5
I915
sg6
I45
sg7
I0
sg8
I0
sg9
I3
sg10
I0
sg11
I740
ssg16
(dp43
g5
I710
sg6
I45
sg7
I0
sg8
I0
sg9
I3
sg10
I0
sg11
I710
ssg18
(dp44
g5
I855
sg6
I45
sg7
I0
sg8
I0
sg9
I3
sg10
I0
sg11
I690
ssg20
(dp45
g5
I925
sg6
I45
sg7
I0
sg8
I0
sg9
I3
sg10
I0
sg11
I750
sss.(dp0
S'K_all3.csv'
p1
(dp2
S'none'
p3
(dp4
S'count'
p5
I530
sS'truepos'
p6
I37
sS'falseneg'
p7
I0
sS'correction'
p8
I0
sS'unknownyes'
p9
I8
sS'falsepos'
p10
I0
sS'unique'
p11
I530
ssS'three'
p12
(dp13
g5
I1000
sg6
I38
sg7
I0
sg8
I0
sg9
I7
sg10
I0
sg11
I500
ssS'machine'
p14
(dp15
g5
I604
sg6
I39
sg7
I0
sg8
I0
sg9
I6
sg10
I0
sg11
I520
ssS'machine4'
p16
(dp17
g5
I460
sg6
I35
sg7
I0
sg8
I0
sg9
I10
sg10
I0
sg11
I460
ssS'machine3'
p18
(dp19
g5
I510
sg6
I36
sg7
I0
sg8
I0
sg9
I9
sg10
I0
sg11
I450
ssS'machine2'
p20
(dp21
g5
I540
sg6
I36
sg7
I0
sg8
I0
sg9
I9
sg10
I0
sg11
I470
sssS'Wahono.csv'
p22
(dp23
g3
(dp24
g5
I1180
sg6
I59
sg7
I0
sg8
I0
sg9
I3
sg10
I0
sg11
I1180
ssg12
(dp25
g5
I2340
sg6
I59
sg7
I0
sg8
I0
sg9
I3
sg10
I0
sg11
I1170
ssg14
(dp26
g5
I1449
sg6
I59
sg7
I0
sg8
I0
sg9
I3
sg10
I0
sg11
I1170
ssg16
(dp27
g5
I1210
sg6
I59
sg7
I0
sg8
I0
sg9
I3
sg10
I0
sg11
I1210
ssg18
(dp28
g5
I1440
sg6
I60
sg7
I0
sg8
I0
sg9
I2
sg10
I0
sg11
I1170
ssg20
(dp29
g5
I1429
sg6
I59
sg7
I0
sg8
I0
sg9
I3
sg10
I0
sg11
I1160
sssS'Hall.csv'
p30
(dp31
g3
(dp32
g5
I490
sg6
I102
sg7
I0
sg8
I0
sg9
I4
sg10
I0
sg11
I490
ssg12
(dp33
g5
I960
sg6
I102
sg7
I0
sg8
I0
sg9
I4
sg10
I0
sg11
I480
ssg14
(dp34
g5
I602
sg6
I101
sg7
I0
sg8
I0
sg9
I5
sg10
I0
sg11
I430
ssg16
(dp35
g5
I510
sg6
I102
sg7
I0
sg8
I0
sg9
I4
sg10
I0
sg11
I510
ssg18
(dp36
g5
I644
sg6
I102
sg7
I0
sg8
I0
sg9
I4
sg10
I0
sg11
I460
ssg20
(dp37
g5
I692
sg6
I102
sg7
I0
sg8
I0
sg9
I4
sg10
I0
sg11
I500
sssS'Danijel.csv'
p38
(dp39
g3
(dp40
g5
I720
sg6
I45
sg7
I0
sg8
I0
sg9
I3
sg10
I0
sg11
I720
ssg12
(dp41
g5
I1660
sg6
I45
sg7
I0
sg8
I0
sg9
I3
sg10
I0
sg11
I830
ssg14
(dp42
g5
I925
sg6
I45
sg7
I0
sg8
I0
sg9
I3
sg10
I0
sg11
I750
ssg16
(dp43
g5
I810
sg6
I45
sg7
I0
sg8
I0
sg9
I3
sg10
I0
sg11
I810
ssg18
(dp44
g5
I945
sg6
I45
sg7
I0
sg8
I0
sg9
I3
sg10
I0
sg11
I770
ssg20
(dp45
g5
I936
sg6
I46
sg7
I0
sg8
I0
sg9
I2
sg10
I0
sg11
I760
sss.(dp0
S'K_all3.csv'
p1
(dp2
S'none'
p3
(dp4
S'count'
p5
I520
sS'truepos'
p6
I37
sS'falseneg'
p7
I0
sS'correction'
p8
I0
sS'unknownyes'
p9
I8
sS'falsepos'
p10
I0
sS'unique'
p11
I520
ssS'three'
p12
(dp13
g5
I1000
sg6
I35
sg7
I0
sg8
I0
sg9
I10
sg10
I0
sg11
I500
ssS'machine'
p14
(dp15
g5
I539
sg6
I35
sg7
I0
sg8
I0
sg9
I10
sg10
I0
sg11
I470
ssS'machine4'
p16
(dp17
g5
I500
sg6
I38
sg7
I0
sg8
I0
sg9
I7
sg10
I0
sg11
I500
ssS'machine3'
p18
(dp19
g5
I549
sg6
I35
sg7
I0
sg8
I0
sg9
I10
sg10
I0
sg11
I470
ssS'machine2'
p20
(dp21
g5
I541
sg6
I37
sg7
I0
sg8
I0
sg9
I8
sg10
I0
sg11
I470
sssS'Wahono.csv'
p22
(dp23
g3
(dp24
g5
I1110
sg6
I59
sg7
I0
sg8
I0
sg9
I3
sg10
I0
sg11
I1110
ssg12
(dp25
g5
I2240
sg6
I59
sg7
I0
sg8
I0
sg9
I3
sg10
I0
sg11
I1120
ssg14
(dp26
g5
I1509
sg6
I59
sg7
I0
sg8
I0
sg9
I3
sg10
I0
sg11
I1220
ssg16
(dp27
g5
I1160
sg6
I59
sg7
I0
sg8
I0
sg9
I3
sg10
I0
sg11
I1160
ssg18
(dp28
g5
I1421
sg6
I59
sg7
I0
sg8
I0
sg9
I3
sg10
I0
sg11
I1150
ssg20
(dp29
g5
I1450
sg6
I59
sg7
I0
sg8
I0
sg9
I3
sg10
I0
sg11
I1170
sssS'Hall.csv'
p30
(dp31
g3
(dp32
g5
I520
sg6
I102
sg7
I0
sg8
I0
sg9
I4
sg10
I0
sg11
I520
ssg12
(dp33
g5
I980
sg6
I102
sg7
I0
sg8
I0
sg9
I4
sg10
I0
sg11
I490
ssg14
(dp34
g5
I633
sg6
I102
sg7
I0
sg8
I0
sg9
I4
sg10
I0
sg11
I460
ssg16
(dp35
g5
I510
sg6
I102
sg7
I0
sg8
I0
sg9
I4
sg10
I0
sg11
I510
ssg18
(dp36
g5
I644
sg6
I102
sg7
I0
sg8
I0
sg9
I4
sg10
I0
sg11
I460
ssg20
(dp37
g5
I633
sg6
I102
sg7
I0
sg8
I0
sg9
I4
sg10
I0
sg11
I460
sssS'Danijel.csv'
p38
(dp39
g3
(dp40
g5
I720
sg6
I45
sg7
I0
sg8
I0
sg9
I3
sg10
I0
sg11
I720
ssg12
(dp41
g5
I1480
sg6
I45
sg7
I0
sg8
I0
sg9
I3
sg10
I0
sg11
I740
ssg14
(dp42
g5
I955
sg6
I45
sg7
I0
sg8
I0
sg9
I3
sg10
I0
sg11
I770
ssg16
(dp43
g5
I780
sg6
I45
sg7
I0
sg8
I0
sg9
I3
sg10
I0
sg11
I780
ssg18
(dp44
g5
I985
sg6
I45
sg7
I0
sg8
I0
sg9
I3
sg10
I0
sg11
I800
ssg20
(dp45
g5
I955
sg6
I45
sg7
I0
sg8
I0
sg9
I3
sg10
I0
sg11
I770
sss.(dp0
S'K_all3.csv'
p1
(dp2
S'none'
p3
(dp4
S'count'
p5
I500
sS'truepos'
p6
I36
sS'falseneg'
p7
I0
sS'correction'
p8
I0
sS'unknownyes'
p9
I9
sS'falsepos'
p10
I0
sS'unique'
p11
I500
ssS'three'
p12
(dp13
g5
I1020
sg6
I38
sg7
I0
sg8
I0
sg9
I7
sg10
I0
sg11
I510
ssS'machine'
p14
(dp15
g5
I551
sg6
I37
sg7
I0
sg8
I0
sg9
I8
sg10
I0
sg11
I480
ssS'machine4'
p16
(dp17
g5
I500
sg6
I35
sg7
I0
sg8
I0
sg9
I10
sg10
I0
sg11
I500
ssS'machine3'
p18
(dp19
g5
I581
sg6
I37
sg7
I0
sg8
I0
sg9
I8
sg10
I0
sg11
I500
ssS'machine2'
p20
(dp21
g5
I572
sg6
I38
sg7
I0
sg8
I0
sg9
I7
sg10
I0
sg11
I490
sssS'Wahono.csv'
p22
(dp23
g3
(dp24
g5
I1140
sg6
I59
sg7
I0
sg8
I0
sg9
I3
sg10
I0
sg11
I1140
ssg12
(dp25
g5
I2200
sg6
I59
sg7
I0
sg8
I0
sg9
I3
sg10
I0
sg11
I1100
ssg14
(dp26
g5
I1329
sg6
I59
sg7
I0
sg8
I0
sg9
I3
sg10
I0
sg11
I1070
ssg16
(dp27
g5
I1230
sg6
I59
sg7
I0
sg8
I0
sg9
I3
sg10
I0
sg11
I1230
ssg18
(dp28
g5
I1399
sg6
I59
sg7
I0
sg8
I0
sg9
I3
sg10
I0
sg11
I1130
ssg20
(dp29
g5
I1440
sg6
I59
sg7
I0
sg8
I0
sg9
I3
sg10
I0
sg11
I1160
sssS'Hall.csv'
p30
(dp31
g3
(dp32
g5
I410
sg6
I99
sg7
I0
sg8
I0
sg9
I7
sg10
I0
sg11
I410
ssg12
(dp33
g5
I1020
sg6
I102
sg7
I0
sg8
I0
sg9
I4
sg10
I0
sg11
I510
ssg14
(dp34
g5
I652
sg6
I102
sg7
I0
sg8
I0
sg9
I4
sg10
I0
sg11
I460
ssg16
(dp35
g5
I490
sg6
I102
sg7
I0
sg8
I0
sg9
I4
sg10
I0
sg11
I490
ssg18
(dp36
g5
I665
sg6
I102
sg7
I0
sg8
I0
sg9
I4
sg10
I0
sg11
I470
ssg20
(dp37
g5
I663
sg6
I102
sg7
I0
sg8
I0
sg9
I4
sg10
I0
sg11
I470
sssS'Danijel.csv'
p38
(dp39
g3
(dp40
g5
I720
sg6
I45
sg7
I0
sg8
I0
sg9
I3
sg10
I0
sg11
I720
ssg12
(dp41
g5
I1520
sg6
I45
sg7
I0
sg8
I0
sg9
I3
sg10
I0
sg11
I760
ssg14
(dp42
g5
I965
sg6
I45
sg7
I0
sg8
I0
sg9
I3
sg10
I0
sg11
I780
ssg16
(dp43
g5
I790
sg6
I45
sg7
I0
sg8
I0
sg9
I3
sg10
I0
sg11
I790
ssg18
(dp44
g5
I905
sg6
I45
sg7
I0
sg8
I0
sg9
I3
sg10
I0
sg11
I730
ssg20
(dp45
g5
I905
sg6
I45
sg7
I0
sg8
I0
sg9
I3
sg10
I0
sg11
I730
sss.(dp0
S'K_all3.csv'
p1
(dp2
S'none'
p3
(dp4
S'count'
p5
I490
sS'truepos'
p6
I36
sS'falseneg'
p7
I0
sS'correction'
p8
I0
sS'unknownyes'
p9
I9
sS'falsepos'
p10
I0
sS'unique'
p11
I490
ssS'three'
p12
(dp13
g5
I980
sg6
I38
sg7
I0
sg8
I0
sg9
I7
sg10
I0
sg11
I490
ssS'machine'
p14
(dp15
g5
I572
sg6
I38
sg7
I0
sg8
I0
sg9
I7
sg10
I0
sg11
I490
ssS'machine4'
p16
(dp17
g5
I490
sg6
I38
sg7
I0
sg8
I0
sg9
I7
sg10
I0
sg11
I490
ssS'machine3'
p18
(dp19
g5
I490
sg6
I35
sg7
I0
sg8
I0
sg9
I10
sg10
I0
sg11
I430
ssS'machine2'
p20
(dp21
g5
I531
sg6
I36
sg7
I0
sg8
I0
sg9
I9
sg10
I0
sg11
I460
sssS'Wahono.csv'
p22
(dp23
g3
(dp24
g5
I1180
sg6
I59
sg7
I0
sg8
I0
sg9
I3
sg10
I0
sg11
I1180
ssg12
(dp25
g5
I2260
sg6
I59
sg7
I0
sg8
I0
sg9
I3
sg10
I0
sg11
I1130
ssg14
(dp26
g5
I1439
sg6
I59
sg7
I0
sg8
I0
sg9
I3
sg10
I0
sg11
I1160
ssg16
(dp27
g5
I1120
sg6
I59
sg7
I0
sg8
I0
sg9
I3
sg10
I0
sg11
I1120
ssg18
(dp28
g5
I1390
sg6
I59
sg7
I0
sg8
I0
sg9
I3
sg10
I0
sg11
I1120
ssg20
(dp29
g5
I1499
sg6
I59
sg7
I0
sg8
I0
sg9
I3
sg10
I0
sg11
I1210
sssS'Hall.csv'
p30
(dp31
g3
(dp32
g5
I490
sg6
I102
sg7
I0
sg8
I0
sg9
I4
sg10
I0
sg11
I490
ssg12
(dp33
g5
I1000
sg6
I102
sg7
I0
sg8
I0
sg9
I4
sg10
I0
sg11
I500
ssg14
(dp34
g5
I652
sg6
I102
sg7
I0
sg8
I0
sg9
I4
sg10
I0
sg11
I460
ssg16
(dp35
g5
I480
sg6
I102
sg7
I0
sg8
I0
sg9
I4
sg10
I0
sg11
I480
ssg18
(dp36
g5
I693
sg6
I102
sg7
I0
sg8
I0
sg9
I4
sg10
I0
sg11
I500
ssg20
(dp37
g5
I652
sg6
I102
sg7
I0
sg8
I0
sg9
I4
sg10
I0
sg11
I460
sssS'Danijel.csv'
p38
(dp39
g3
(dp40
g5
I780
sg6
I45
sg7
I0
sg8
I0
sg9
I3
sg10
I0
sg11
I780
ssg12
(dp41
g5
I1500
sg6
I45
sg7
I0
sg8
I0
sg9
I3
sg10
I0
sg11
I750
ssg14
(dp42
g5
I965
sg6
I45
sg7
I0
sg8
I0
sg9
I3
sg10
I0
sg11
I780
ssg16
(dp43
g5
I720
sg6
I45
sg7
I0
sg8
I0
sg9
I3
sg10
I0
sg11
I720
ssg18
(dp44
g5
I925
sg6
I45
sg7
I0
sg8
I0
sg9
I3
sg10
I0
sg11
I750
ssg20
(dp45
g5
I1005
sg6
I45
sg7
I0
sg8
I0
sg9
I3
sg10
I0
sg11
I810
sss.(dp0
S'K_all3.csv'
p1
(dp2
S'none'
p3
(dp4
S'count'
p5
I520
sS'truepos'
p6
I37
sS'falseneg'
p7
I0
sS'correction'
p8
I0
sS'unknownyes'
p9
I8
sS'falsepos'
p10
I0
sS'unique'
p11
I520
ssS'three'
p12
(dp13
g5
I940
sg6
I37
sg7
I0
sg8
I0
sg9
I8
sg10
I0
sg11
I470
ssS'machine'
p14
(dp15
g5
I549
sg6
I35
sg7
I0
sg8
I0
sg9
I10
sg10
I0
sg11
I480
ssS'machine4'
p16
(dp17
g5
I480
sg6
I36
sg7
I0
sg8
I0
sg9
I9
sg10
I0
sg11
I480
ssS'machine3'
p18
(dp19
g5
I581
sg6
I37
sg7
I0
sg8
I0
sg9
I8
sg10
I0
sg11
I500
ssS'machine2'
p20
(dp21
g5
I541
sg6
I36
sg7
I0
sg8
I0
sg9
I9
sg10
I0
sg11
I470
sssS'Wahono.csv'
p22
(dp23
g3
(dp24
g5
I1130
sg6
I59
sg7
I0
sg8
I0
sg9
I3
sg10
I0
sg11
I1130
ssg12
(dp25
g5
I2320
sg6
I59
sg7
I0
sg8
I0
sg9
I3
sg10
I0
sg11
I1160
ssg14
(dp26
g5
I1460
sg6
I59
sg7
I0
sg8
I0
sg9
I3
sg10
I0
sg11
I1190
ssg16
(dp27
g5
I1130
sg6
I59
sg7
I0
sg8
I0
sg9
I3
sg10
I0
sg11
I1130
ssg18
(dp28
g5
I1451
sg6
I59
sg7
I0
sg8
I0
sg9
I3
sg10
I0
sg11
I1170
ssg20
(dp29
g5
I1360
sg6
I59
sg7
I0
sg8
I0
sg9
I3
sg10
I0
sg11
I1100
sssS'Hall.csv'
p30
(dp31
g3
(dp32
g5
I540
sg6
I102
sg7
I0
sg8
I0
sg9
I4
sg10
I0
sg11
I540
ssg12
(dp33
g5
I940
sg6
I102
sg7
I0
sg8
I0
sg9
I4
sg10
I0
sg11
I470
ssg14
(dp34
g5
I623
sg6
I101
sg7
I0
sg8
I0
sg9
I5
sg10
I0
sg11
I450
ssg16
(dp35
g5
I460
sg6
I102
sg7
I0
sg8
I0
sg9
I4
sg10
I0
sg11
I460
ssg18
(dp36
g5
I713
sg6
I102
sg7
I0
sg8
I0
sg9
I4
sg10
I0
sg11
I510
ssg20
(dp37
g5
I672
sg6
I102
sg7
I0
sg8
I0
sg9
I4
sg10
I0
sg11
I480
sssS'Danijel.csv'
p38
(dp39
g3
(dp40
g5
I770
sg6
I45
sg7
I0
sg8
I0
sg9
I3
sg10
I0
sg11
I770
ssg12
(dp41
g5
I1580
sg6
I45
sg7
I0
sg8
I0
sg9
I3
sg10
I0
sg11
I790
ssg14
(dp42
g5
I855
sg6
I45
sg7
I0
sg8
I0
sg9
I3
sg10
I0
sg11
I690
ssg16
(dp43
g5
I750
sg6
I45
sg7
I0
sg8
I0
sg9
I3
sg10
I0
sg11
I750
ssg18
(dp44
g5
I775
sg6
I45
sg7
I0
sg8
I0
sg9
I3
sg10
I0
sg11
I630
ssg20
(dp45
g5
I935
sg6
I45
sg7
I0
sg8
I0
sg9
I3
sg10
I0
sg11
I760
sss.(dp0
S'K_all3.csv'
p1
(dp2
S'none'
p3
(dp4
S'count'
p5
I510
sS'truepos'
p6
I38
sS'falseneg'
p7
I0
sS'correction'
p8
I0
sS'unknownyes'
p9
I7
sS'falsepos'
p10
I0
sS'unique'
p11
I510
ssS'three'
p12
(dp13
g5
I1020
sg6
I38
sg7
I0
sg8
I0
sg9
I7
sg10
I0
sg11
I510
ssS'machine'
p14
(dp15
g5
I543
sg6
I39
sg7
I0
sg8
I0
sg9
I6
sg10
I0
sg11
I470
ssS'machine4'
p16
(dp17
g5
I480
sg6
I36
sg7
I0
sg8
I0
sg9
I9
sg10
I0
sg11
I480
ssS'machine3'
p18
(dp19
g5
I509
sg6
I35
sg7
I0
sg8
I0
sg9
I10
sg10
I0
sg11
I440
ssS'machine2'
p20
(dp21
g5
I573
sg6
I38
sg7
I0
sg8
I0
sg9
I7
sg10
I0
sg11
I490
sssS'Wahono.csv'
p22
(dp23
g3
(dp24
g5
I1150
sg6
I59
sg7
I0
sg8
I0
sg9
I3
sg10
I0
sg11
I1150
ssg12
(dp25
g5
I2360
sg6
I59
sg7
I0
sg8
I0
sg9
I3
sg10
I0
sg11
I1180
ssg14
(dp26
g5
I1379
sg6
I59
sg7
I0
sg8
I0
sg9
I3
sg10
I0
sg11
I1110
ssg16
(dp27
g5
I1070
sg6
I59
sg7
I0
sg8
I0
sg9
I3
sg10
I0
sg11
I1070
ssg18
(dp28
g5
I1349
sg6
I59
sg7
I0
sg8
I0
sg9
I3
sg10
I0
sg11
I1090
ssg20
(dp29
g5
I1419
sg6
I59
sg7
I0
sg8
I0
sg9
I3
sg10
I0
sg11
I1150
sssS'Hall.csv'
p30
(dp31
g3
(dp32
g5
I490
sg6
I102
sg7
I0
sg8
I0
sg9
I4
sg10
I0
sg11
I490
ssg12
(dp33
g5
I940
sg6
I102
sg7
I0
sg8
I0
sg9
I4
sg10
I0
sg11
I470
ssg14
(dp34
g5
I661
sg6
I102
sg7
I0
sg8
I0
sg9
I4
sg10
I0
sg11
I470
ssg16
(dp35
g5
I450
sg6
I102
sg7
I0
sg8
I0
sg9
I4
sg10
I0
sg11
I450
ssg18
(dp36
g5
I675
sg6
I102
sg7
I0
sg8
I0
sg9
I4
sg10
I0
sg11
I480
ssg20
(dp37
g5
I682
sg6
I102
sg7
I0
sg8
I0
sg9
I4
sg10
I0
sg11
I490
sssS'Danijel.csv'
p38
(dp39
g3
(dp40
g5
I740
sg6
I45
sg7
I0
sg8
I0
sg9
I3
sg10
I0
sg11
I740
ssg12
(dp41
g5
I1500
sg6
I45
sg7
I0
sg8
I0
sg9
I3
sg10
I0
sg11
I750
ssg14
(dp42
g5
I905
sg6
I45
sg7
I0
sg8
I0
sg9
I3
sg10
I0
sg11
I740
ssg16
(dp43
g5
I750
sg6
I45
sg7
I0
sg8
I0
sg9
I3
sg10
I0
sg11
I750
ssg18
(dp44
g5
I935
sg6
I45
sg7
I0
sg8
I0
sg9
I3
sg10
I0
sg11
I760
ssg20
(dp45
g5
I965
sg6
I45
sg7
I0
sg8
I0
sg9
I3
sg10
I0
sg11
I780
sss.(dp0
S'K_all3.csv'
p1
(dp2
S'none'
p3
(dp4
S'count'
p5
I520
sS'truepos'
p6
I38
sS'falseneg'
p7
I0
sS'correction'
p8
I0
sS'unknownyes'
p9
I7
sS'falsepos'
p10
I0
sS'unique'
p11
I520
ssS'three'
p12
(dp13
g5
I1000
sg6
I39
sg7
I0
sg8
I0
sg9
I6
sg10
I0
sg11
I500
ssS'machine'
p14
(dp15
g5
I581
sg6
I37
sg7
I0
sg8
I0
sg9
I8
sg10
I0
sg11
I500
ssS'machine4'
p16
(dp17
g5
I500
sg6
I38
sg7
I0
sg8
I0
sg9
I7
sg10
I0
sg11
I500
ssS'machine3'
p18
(dp19
g5
I550
sg6
I36
sg7
I0
sg8
I0
sg9
I9
sg10
I0
sg11
I480
ssS'machine2'
p20
(dp21
g5
I571
sg6
I36
sg7
I0
sg8
I0
sg9
I9
sg10
I0
sg11
I490
sssS'Wahono.csv'
p22
(dp23
g3
(dp24
g5
I1140
sg6
I59
sg7
I0
sg8
I0
sg9
I3
sg10
I0
sg11
I1140
ssg12
(dp25
g5
I2260
sg6
I59
sg7
I0
sg8
I0
sg9
I3
sg10
I0
sg11
I1130
ssg14
(dp26
g5
I1389
sg6
I59
sg7
I0
sg8
I0
sg9
I3
sg10
I0
sg11
I1120
ssg16
(dp27
g5
I1180
sg6
I59
sg7
I0
sg8
I0
sg9
I3
sg10
I0
sg11
I1180
ssg18
(dp28
g5
I1399
sg6
I59
sg7
I0
sg8
I0
sg9
I3
sg10
I0
sg11
I1130
ssg20
(dp29
g5
I1479
sg6
I59
sg7
I0
sg8
I0
sg9
I3
sg10
I0
sg11
I1200
sssS'Hall.csv'
p30
(dp31
g3
(dp32
g5
I450
sg6
I101
sg7
I0
sg8
I0
sg9
I5
sg10
I0
sg11
I450
ssg12
(dp33
g5
I1040
sg6
I102
sg7
I0
sg8
I0
sg9
I4
sg10
I0
sg11
I520
ssg14
(dp34
g5
I683
sg6
I102
sg7
I0
sg8
I0
sg9
I4
sg10
I0
sg11
I490
ssg16
(dp35
g5
I480
sg6
I101
sg7
I0
sg8
I0
sg9
I5
sg10
I0
sg11
I480
ssg18
(dp36
g5
I694
sg6
I102
sg7
I0
sg8
I0
sg9
I4
sg10
I0
sg11
I500
ssg20
(dp37
g5
I682
sg6
I102
sg7
I0
sg8
I0
sg9
I4
sg10
I0
sg11
I490
sssS'Danijel.csv'
p38
(dp39
g3
(dp40
g5
I730
sg6
I45
sg7
I0
sg8
I0
sg9
I3
sg10
I0
sg11
I730
ssg12
(dp41
g5
I1540
sg6
I45
sg7
I0
sg8
I0
sg9
I3
sg10
I0
sg11
I770
ssg14
(dp42
g5
I886
sg6
I46
sg7
I0
sg8
I0
sg9
I2
sg10
I0
sg11
I710
ssg16
(dp43
g5
I750
sg6
I45
sg7
I0
sg8
I0
sg9
I3
sg10
I0
sg11
I750
ssg18
(dp44
g5
I915
sg6
I45
sg7
I0
sg8
I0
sg9
I3
sg10
I0
sg11
I740
ssg20
(dp45
g5
I1025
sg6
I45
sg7
I0
sg8
I0
sg9
I3
sg10
I0
sg11
I830
sss.(dp0
S'K_all3.csv'
p1
(dp2
S'none'
p3
(dp4
S'count'
p5
I510
sS'truepos'
p6
I38
sS'falseneg'
p7
I0
sS'correction'
p8
I0
sS'unknownyes'
p9
I7
sS'falsepos'
p10
I0
sS'unique'
p11
I510
ssS'three'
p12
(dp13
g5
I1020
sg6
I38
sg7
I0
sg8
I0
sg9
I7
sg10
I0
sg11
I510
ssS'machine'
p14
(dp15
g5
I570
sg6
I36
sg7
I0
sg8
I0
sg9
I9
sg10
I0
sg11
I490
ssS'machine4'
p16
(dp17
g5
I550
sg6
I38
sg7
I0
sg8
I0
sg9
I7
sg10
I0
sg11
I550
ssS'machine3'
p18
(dp19
g5
I542
sg6
I37
sg7
I0
sg8
I0
sg9
I8
sg10
I0
sg11
I470
ssS'machine2'
p20
(dp21
g5
I543
sg6
I38
sg7
I0
sg8
I0
sg9
I7
sg10
I0
sg11
I470
sssS'Wahono.csv'
p22
(dp23
g3
(dp24
g5
I1140
sg6
I59
sg7
I0
sg8
I0
sg9
I3
sg10
I0
sg11
I1140
ssg12
(dp25
g5
I2320
sg6
I59
sg7
I0
sg8
I0
sg9
I3
sg10
I0
sg11
I1160
ssg14
(dp26
g5
I1409
sg6
I59
sg7
I0
sg8
I0
sg9
I3
sg10
I0
sg11
I1140
ssg16
(dp27
g5
I1140
sg6
I59
sg7
I0
sg8
I0
sg9
I3
sg10
I0
sg11
I1140
ssg18
(dp28
g5
I1409
sg6
I59
sg7
I0
sg8
I0
sg9
I3
sg10
I0
sg11
I1140
ssg20
(dp29
g5
I1430
sg6
I59
sg7
I0
sg8
I0
sg9
I3
sg10
I0
sg11
I1160
sssS'Hall.csv'
p30
(dp31
g3
(dp32
g5
I470
sg6
I102
sg7
I0
sg8
I0
sg9
I4
sg10
I0
sg11
I470
ssg12
(dp33
g5
I1040
sg6
I102
sg7
I0
sg8
I0
sg9
I4
sg10
I0
sg11
I520
ssg14
(dp34
g5
I726
sg6
I102
sg7
I0
sg8
I0
sg9
I4
sg10
I0
sg11
I520
ssg16
(dp35
g5
I410
sg6
I101
sg7
I0
sg8
I0
sg9
I5
sg10
I0
sg11
I410
ssg18
(dp36
g5
I683
sg6
I101
sg7
I0
sg8
I0
sg9
I5
sg10
I0
sg11
I490
ssg20
(dp37
g5
I725
sg6
I102
sg7
I0
sg8
I0
sg9
I4
sg10
I0
sg11
I520
sssS'Danijel.csv'
p38
(dp39
g3
(dp40
g5
I760
sg6
I45
sg7
I0
sg8
I0
sg9
I3
sg10
I0
sg11
I760
ssg12
(dp41
g5
I1540
sg6
I46
sg7
I0
sg8
I0
sg9
I2
sg10
I0
sg11
I770
ssg14
(dp42
g5
I885
sg6
I45
sg7
I0
sg8
I0
sg9
I3
sg10
I0
sg11
I710
ssg16
(dp43
g5
I780
sg6
I45
sg7
I0
sg8
I0
sg9
I3
sg10
I0
sg11
I780
ssg18
(dp44
g5
I1005
sg6
I45
sg7
I0
sg8
I0
sg9
I3
sg10
I0
sg11
I820
ssg20
(dp45
g5
I905
sg6
I45
sg7
I0
sg8
I0
sg9
I3
sg10
I0
sg11
I730
sss.