(dp0
S'K_all3.csv'
p1
(dp2
S'machine'
p3
(dp4
S'count'
p5
I763
sS'truepos'
p6
I31
sS'falseneg'
p7
I9
sS'correction'
p8
I6
sS'unknownyes'
p9
I5
sS'falsepos'
p10
I7
sS'unique'
p11
I710
ssS'knee'
p12
(dp13
g5
I1106
sg6
I33
sg7
I9
sg8
I12
sg9
I3
sg10
I4
sg11
I800
ssS'none'
p14
(dp15
g5
I640
sg6
I27
sg7
I13
sg8
I0
sg9
I5
sg10
I3
sg11
I640
ssS'three'
p16
(dp17
g5
I968
sg6
I33
sg7
I7
sg8
I26
sg9
I5
sg10
I0
sg11
I470
sssS'Wahono.csv'
p18
(dp19
g3
(dp20
g5
I2215
sg6
I52
sg7
I9
sg8
I13
sg9
I1
sg10
I9
sg11
I1470
ssg12
(dp21
g5
I35
sg6
I7
sg7
I0
sg8
I0
sg9
I55
sg10
I0
sg11
I30
ssg14
(dp22
g5
I1410
sg6
I50
sg7
I10
sg8
I0
sg9
I2
sg10
I5
sg11
I1410
ssg16
(dp23
g5
I3110
sg6
I52
sg7
I9
sg8
I28
sg9
I1
sg10
I0
sg11
I1540
sssS'Hall.csv'
p24
(dp25
g3
(dp26
g5
I906
sg6
I90
sg7
I12
sg8
I19
sg9
I2
sg10
I3
sg11
I680
ssg12
(dp27
g5
I24
sg6
I8
sg7
I1
sg8
I2
sg9
I95
sg10
I0
sg11
I20
ssg14
(dp28
g5
I880
sg6
I63
sg7
I39
sg8
I0
sg9
I2
sg10
I4
sg11
I880
ssg16
(dp29
g5
I1171
sg6
I83
sg7
I19
sg8
I43
sg9
I2
sg10
I0
sg11
I560
sssS'Danijel.csv'
p30
(dp31
g3
(dp32
g5
I1218
sg6
I42
sg7
I3
sg8
I10
sg9
I3
sg10
I2
sg11
I850
ssg12
(dp33
g5
I411
sg6
I32
sg7
I5
sg8
I9
sg9
I11
sg10
I0
sg11
I280
ssg14
(dp34
g5
I940
sg6
I38
sg7
I8
sg8
I0
sg9
I2
sg10
I4
sg11
I940
ssg16
(dp35
g5
I2326
sg6
I36
sg7
I10
sg8
I23
sg9
I2
sg10
I0
sg11
I1150
sss.(dp0
S'K_all3.csv'
p1
(dp2
S'machine'
p3
(dp4
S'count'
p5
I740
sS'truepos'
p6
I28
sS'falseneg'
p7
I14
sS'correction'
p8
I0
sS'unknownyes'
p9
I3
sS'falsepos'
p10
I2
sS'unique'
p11
I740
ssS'knee'
p12
(dp13
g5
I412
sg6
I26
sg7
I5
sg8
I7
sg9
I14
sg10
I3
sg11
I280
ssS'none'
p14
(dp15
g5
I650
sg6
I28
sg7
I15
sg8
I0
sg9
I2
sg10
I6
sg11
I650
ssS'three'
p16
(dp17
g5
I1040
sg6
I33
sg7
I7
sg8
I18
sg9
I5
sg10
I0
sg11
I510
sssS'Wahono.csv'
p18
(dp19
g3
(dp20
g5
I1766
sg6
I56
sg7
I3
sg8
I14
sg9
I3
sg10
I3
sg11
I1170
ssg12
(dp21
g5
I1480
sg6
I49
sg7
I9
sg8
I12
sg9
I4
sg10
I5
sg11
I1130
ssg14
(dp22
g5
I1490
sg6
I39
sg7
I20
sg8
I0
sg9
I3
sg10
I4
sg11
I1490
ssg16
(dp23
g5
I2506
sg6
I48
sg7
I11
sg8
I25
sg9
I3
sg10
I0
sg11
I1240
sssS'Hall.csv'
p24
(dp25
g3
(dp26
g5
I871
sg6
I93
sg7
I9
sg8
I19
sg9
I2
sg10
I0
sg11
I630
ssg12
(dp27
g5
I49
sg6
I13
sg7
I1
sg8
I2
sg9
I90
sg10
I0
sg11
I40
ssg14
(dp28
g5
I1140
sg6
I77
sg7
I26
sg8
I0
sg9
I1
sg10
I3
sg11
I1140
ssg16
(dp29
g5
I1307
sg6
I79
sg7
I23
sg8
I39
sg9
I2
sg10
I0
sg11
I630
sssS'Danijel.csv'
p30
(dp31
g3
(dp32
g5
I1011
sg6
I38
sg7
I7
sg8
I5
sg9
I3
sg10
I0
sg11
I710
ssg12
(dp33
g5
I375
sg6
I31
sg7
I4
sg8
I3
sg9
I13
sg10
I1
sg11
I250
ssg14
(dp34
g5
I1240
sg6
I31
sg7
I15
sg8
I0
sg9
I2
sg10
I2
sg11
I1240
ssg16
(dp35
g5
I2545
sg6
I34
sg7
I12
sg8
I21
sg9
I2
sg10
I0
sg11
I1260
sss.(dp0
S'K_all3.csv'
p1
(dp2
S'machine'
p3
(dp4
S'count'
p5
I591
sS'truepos'
p6
I29
sS'falseneg'
p7
I11
sS'correction'
p8
I0
sS'unknownyes'
p9
I5
sS'falsepos'
p10
I2
sS'unique'
p11
I590
ssS'knee'
p12
(dp13
g5
I1317
sg6
I39
sg7
I4
sg8
I16
sg9
I2
sg10
I6
sg11
I1010
ssS'none'
p14
(dp15
g5
I490
sg6
I36
sg7
I6
sg8
I0
sg9
I3
sg10
I1
sg11
I490
ssS'three'
p16
(dp17
g5
I1117
sg6
I30
sg7
I10
sg8
I14
sg9
I5
sg10
I0
sg11
I550
sssS'Wahono.csv'
p18
(dp19
g3
(dp20
g5
I1792
sg6
I54
sg7
I6
sg8
I11
sg9
I2
sg10
I3
sg11
I1230
ssg12
(dp21
g5
I549
sg6
I37
sg7
I7
sg8
I3
sg9
I18
sg10
I5
sg11
I370
ssg14
(dp22
g5
I1340
sg6
I43
sg7
I15
sg8
I0
sg9
I4
sg10
I3
sg11
I1340
ssg16
(dp23
g5
I2748
sg6
I53
sg7
I7
sg8
I26
sg9
I2
sg10
I0
sg11
I1360
sssS'Hall.csv'
p24
(dp25
g3
(dp26
g5
I728
sg6
I92
sg7
I10
sg8
I24
sg9
I2
sg10
I3
sg11
I490
ssg12
(dp27
g5
I630
sg6
I89
sg7
I9
sg8
I25
sg9
I6
sg10
I0
sg11
I390
ssg14
(dp28
g5
I780
sg6
I72
sg7
I31
sg8
I0
sg9
I1
sg10
I1
sg11
I780
ssg16
(dp29
g5
I1403
sg6
I89
sg7
I13
sg8
I39
sg9
I2
sg10
I0
sg11
I680
sssS'Danijel.csv'
p30
(dp31
g3
(dp32
g5
I911
sg6
I39
sg7
I6
sg8
I7
sg9
I3
sg10
I0
sg11
I810
ssg12
(dp33
g5
I390
sg6
I35
sg7
I1
sg8
I5
sg9
I12
sg10
I2
sg11
I230
ssg14
(dp34
g5
I1490
sg6
I33
sg7
I14
sg8
I0
sg9
I1
sg10
I0
sg11
I1490
ssg16
(dp35
g5
I2260
sg6
I35
sg7
I11
sg8
I19
sg9
I2
sg10
I0
sg11
I1120
sss.(dp0
S'K_all3.csv'
p1
(dp2
S'machine'
p3
(dp4
S'count'
p5
I641
sS'truepos'
p6
I34
sS'falseneg'
p7
I3
sS'correction'
p8
I4
sS'unknownyes'
p9
I8
sS'falsepos'
p10
I2
sS'unique'
p11
I440
ssS'knee'
p12
(dp13
g5
I594
sg6
I33
sg7
I5
sg8
I11
sg9
I7
sg10
I3
sg11
I440
ssS'none'
p14
(dp15
g5
I520
sg6
I34
sg7
I8
sg8
I0
sg9
I3
sg10
I4
sg11
I520
ssS'three'
p16
(dp17
g5
I1379
sg6
I31
sg7
I11
sg8
I16
sg9
I3
sg10
I0
sg11
I680
sssS'Wahono.csv'
p18
(dp19
g3
(dp20
g5
I1912
sg6
I51
sg7
I8
sg8
I18
sg9
I3
sg10
I6
sg11
I1270
ssg12
(dp21
g5
I133
sg6
I16
sg7
I2
sg8
I7
sg9
I44
sg10
I0
sg11
I100
ssg14
(dp22
g5
I1550
sg6
I44
sg7
I16
sg8
I0
sg9
I2
sg10
I5
sg11
I1550
ssg16
(dp23
g5
I3008
sg6
I45
sg7
I14
sg8
I24
sg9
I3
sg10
I0
sg11
I1490
sssS'Hall.csv'
p24
(dp25
g3
(dp26
g5
I974
sg6
I90
sg7
I12
sg8
I29
sg9
I2
sg10
I2
sg11
I700
ssg12
(dp27
g5
I52
sg6
I10
sg7
I3
sg8
I2
sg9
I91
sg10
I0
sg11
I40
ssg14
(dp28
g5
I790
sg6
I73
sg7
I29
sg8
I0
sg9
I2
sg10
I5
sg11
I790
ssg16
(dp29
g5
I1669
sg6
I77
sg7
I25
sg8
I40
sg9
I2
sg10
I0
sg11
I810
sssS'Danijel.csv'
p30
(dp31
g3
(dp32
g5
I1254
sg6
I37
sg7
I8
sg8
I6
sg9
I3
sg10
I1
sg11
I1050
ssg12
(dp33
g5
I1224
sg6
I35
sg7
I10
sg8
I7
sg9
I3
sg10
I1
sg11
I910
ssg14
(dp34
g5
I1080
sg6
I33
sg7
I13
sg8
I0
sg9
I2
sg10
I4
sg11
I1080
ssg16
(dp35
g5
I2063
sg6
I36
sg7
I10
sg8
I21
sg9
I2
sg10
I0
sg11
I1020
sss.(dp0
S'K_all3.csv'
p1
(dp2
S'machine'
p3
(dp4
S'count'
p5
I850
sS'truepos'
p6
I26
sS'falseneg'
p7
I12
sS'correction'
p8
I7
sS'unknownyes'
p9
I7
sS'falsepos'
p10
I7
sS'unique'
p11
I790
ssS'knee'
p12
(dp13
g5
I789
sg6
I30
sg7
I8
sg8
I7
sg9
I7
sg10
I2
sg11
I620
ssS'none'
p14
(dp15
g5
I650
sg6
I27
sg7
I14
sg8
I0
sg9
I4
sg10
I4
sg11
I650
ssS'three'
p16
(dp17
g5
I1170
sg6
I32
sg7
I10
sg8
I28
sg9
I3
sg10
I1
sg11
I570
sssS'Wahono.csv'
p18
(dp19
g3
(dp20
g5
I2132
sg6
I53
sg7
I7
sg8
I18
sg9
I2
sg10
I4
sg11
I1460
ssg12
(dp21
g5
I1430
sg6
I56
sg7
I3
sg8
I17
sg9
I3
sg10
I1
sg11
I980
ssg14
(dp22
g5
I1390
sg6
I37
sg7
I22
sg8
I0
sg9
I3
sg10
I4
sg11
I1390
ssg16
(dp23
g5
I2733
sg6
I50
sg7
I11
sg8
I30
sg9
I1
sg10
I0
sg11
I1350
sssS'Hall.csv'
p24
(dp25
g3
(dp26
g5
I1111
sg6
I91
sg7
I11
sg8
I23
sg9
I2
sg10
I3
sg11
I830
ssg12
(dp27
g5
I625
sg6
I92
sg7
I9
sg8
I27
sg9
I3
sg10
I1
sg11
I430
ssg14
(dp28
g5
I840
sg6
I69
sg7
I33
sg8
I0
sg9
I2
sg10
I4
sg11
I840
ssg16
(dp29
g5
I1560
sg6
I81
sg7
I21
sg8
I34
sg9
I2
sg10
I0
sg11
I760
sssS'Danijel.csv'
p30
(dp31
g3
(dp32
g5
I1318
sg6
I40
sg7
I6
sg8
I7
sg9
I2
sg10
I2
sg11
I810
ssg12
(dp33
g5
I36
sg6
I4
sg7
I1
sg8
I0
sg9
I43
sg10
I0
sg11
I30
ssg14
(dp34
g5
I900
sg6
I37
sg7
I9
sg8
I0
sg9
I2
sg10
I2
sg11
I900
ssg16
(dp35
g5
I2243
sg6
I37
sg7
I9
sg8
I21
sg9
I2
sg10
I0
sg11
I1110
sss.(dp0
S'K_all3.csv'
p1
(dp2
S'machine'
p3
(dp4
S'count'
p5
I600
sS'truepos'
p6
I32
sS'falseneg'
p7
I5
sS'correction'
p8
I2
sS'unknownyes'
p9
I8
sS'falsepos'
p10
I3
sS'unique'
p11
I500
ssS'knee'
p12
(dp13
g5
I383
sg6
I22
sg7
I5
sg8
I7
sg9
I18
sg10
I5
sg11
I230
ssS'none'
p14
(dp15
g5
I590
sg6
I31
sg7
I12
sg8
I0
sg9
I2
sg10
I4
sg11
I590
ssS'three'
p16
(dp17
g5
I1107
sg6
I33
sg7
I9
sg8
I25
sg9
I3
sg10
I0
sg11
I540
sssS'Wahono.csv'
p18
(dp19
g3
(dp20
g5
I1761
sg6
I56
sg7
I3
sg8
I9
sg9
I3
sg10
I3
sg11
I1190
ssg12
(dp21
g5
I278
sg6
I23
sg7
I7
sg8
I7
sg9
I32
sg10
I0
sg11
I200
ssg14
(dp22
g5
I1480
sg6
I45
sg7
I15
sg8
I0
sg9
I2
sg10
I2
sg11
I1480
ssg16
(dp23
g5
I2510
sg6
I51
sg7
I8
sg8
I28
sg9
I3
sg10
I0
sg11
I1240
sssS'Hall.csv'
p24
(dp25
g3
(dp26
g5
I1065
sg6
I92
sg7
I11
sg8
I27
sg9
I1
sg10
I6
sg11
I800
ssg12
(dp27
g5
I698
sg6
I87
sg7
I14
sg8
I26
sg9
I3
sg10
I0
sg11
I510
ssg14
(dp28
g5
I1290
sg6
I68
sg7
I34
sg8
I0
sg9
I2
sg10
I6
sg11
I1290
ssg16
(dp29
g5
I1439
sg6
I71
sg7
I30
sg8
I33
sg9
I3
sg10
I0
sg11
I700
sssS'Danijel.csv'
p30
(dp31
g3
(dp32
g5
I1301
sg6
I35
sg7
I9
sg8
I3
sg9
I4
sg10
I3
sg11
I840
ssg12
(dp33
g5
I791
sg6
I39
sg7
I6
sg8
I7
sg9
I3
sg10
I0
sg11
I590
ssg14
(dp34
g5
I1660
sg6
I29
sg7
I18
sg8
I0
sg9
I1
sg10
I3
sg11
I1660
ssg16
(dp35
g5
I2304
sg6
I38
sg7
I9
sg8
I20
sg9
I1
sg10
I0
sg11
I1140
sss.(dp0
S'K_all3.csv'
p1
(dp2
S'machine'
p3
(dp4
S'count'
p5
I581
sS'truepos'
p6
I33
sS'falseneg'
p7
I5
sS'correction'
p8
I4
sS'unknownyes'
p9
I7
sS'falsepos'
p10
I2
sS'unique'
p11
I480
ssS'knee'
p12
(dp13
g5
I463
sg6
I26
sg7
I7
sg8
I3
sg9
I12
sg10
I3
sg11
I340
ssS'none'
p14
(dp15
g5
I480
sg6
I34
sg7
I6
sg8
I0
sg9
I5
sg10
I1
sg11
I480
ssS'three'
p16
(dp17
g5
I1386
sg6
I31
sg7
I12
sg8
I19
sg9
I2
sg10
I0
sg11
I680
sssS'Wahono.csv'
p18
(dp19
g3
(dp20
g5
I2230
sg6
I53
sg7
I7
sg8
I11
sg9
I2
sg10
I3
sg11
I1520
ssg12
(dp21
g5
I52
sg6
I9
sg7
I0
sg8
I2
sg9
I53
sg10
I1
sg11
I40
ssg14
(dp22
g5
I1620
sg6
I44
sg7
I17
sg8
I0
sg9
I1
sg10
I2
sg11
I1620
ssg16
(dp23
g5
I3413
sg6
I53
sg7
I8
sg8
I29
sg9
I1
sg10
I0
sg11
I1690
sssS'Hall.csv'
p24
(dp25
g3
(dp26
g5
I1034
sg6
I89
sg7
I13
sg8
I20
sg9
I2
sg10
I4
sg11
I760
ssg12
(dp27
g5
I23
sg6
I7
sg7
I2
sg8
I0
sg9
I95
sg10
I0
sg11
I20
ssg14
(dp28
g5
I820
sg6
I67
sg7
I35
sg8
I0
sg9
I2
sg10
I0
sg11
I820
ssg16
(dp29
g5
I1498
sg6
I88
sg7
I15
sg8
I36
sg9
I1
sg10
I0
sg11
I730
sssS'Danijel.csv'
p30
(dp31
g3
(dp32
g5
I1340
sg6
I41
sg7
I5
sg8
I8
sg9
I2
sg10
I1
sg11
I910
ssg12
(dp33
g5
I812
sg6
I43
sg7
I3
sg8
I9
sg9
I2
sg10
I0
sg11
I620
ssg14
(dp34
g5
I1420
sg6
I32
sg7
I14
sg8
I0
sg9
I2
sg10
I6
sg11
I1420
ssg16
(dp35
g5
I2365
sg6
I34
sg7
I12
sg8
I22
sg9
I2
sg10
I0
sg11
I1170
sss.(dp0
S'K_all3.csv'
p1
(dp2
S'machine'
p3
(dp4
S'count'
p5
I840
sS'truepos'
p6
I30
sS'falseneg'
p7
I13
sS'correction'
p8
I4
sS'unknownyes'
p9
I2
sS'falsepos'
p10
I7
sS'unique'
p11
I740
ssS'knee'
p12
(dp13
g5
I991
sg6
I38
sg7
I4
sg8
I7
sg9
I3
sg10
I9
sg11
I670
ssS'none'
p14
(dp15
g5
I690
sg6
I27
sg7
I14
sg8
I0
sg9
I4
sg10
I5
sg11
I690
ssS'three'
p16
(dp17
g5
I1443
sg6
I30
sg7
I11
sg8
I19
sg9
I4
sg10
I0
sg11
I710
sssS'Wahono.csv'
p18
(dp19
g3
(dp20
g5
I2217
sg6
I57
sg7
I3
sg8
I18
sg9
I2
sg10
I3
sg11
I1510
ssg12
(dp21
g5
I151
sg6
I18
sg7
I4
sg8
I7
sg9
I40
sg10
I0
sg11
I110
ssg14
(dp22
g5
I1860
sg6
I43
sg7
I19
sg8
I0
sg9
I0
sg10
I7
sg11
I1860
ssg16
(dp23
g5
I2730
sg6
I50
sg7
I9
sg8
I30
sg9
I3
sg10
I0
sg11
I1350
sssS'Hall.csv'
p24
(dp25
g3
(dp26
g5
I808
sg6
I94
sg7
I8
sg8
I21
sg9
I2
sg10
I4
sg11
I590
ssg12
(dp27
g5
I594
sg6
I84
sg7
I16
sg8
I12
sg9
I4
sg10
I1
sg11
I420
ssg14
(dp28
g5
I1250
sg6
I67
sg7
I36
sg8
I0
sg9
I1
sg10
I3
sg11
I1250
ssg16
(dp29
g5
I1510
sg6
I83
sg7
I19
sg8
I44
sg9
I2
sg10
I0
sg11
I730
sssS'Danijel.csv'
p30
(dp31
g3
(dp32
g5
I1173
sg6
I38
sg7
I6
sg8
I9
sg9
I4
sg10
I0
sg11
I880
ssg12
(dp33
g5
I37
sg6
I4
sg7
I2
sg8
I1
sg9
I42
sg10
I0
sg11
I30
ssg14
(dp34
g5
I1270
sg6
I30
sg7
I16
sg8
I0
sg9
I2
sg10
I3
sg11
I1270
ssg16
(dp35
g5
I2108
sg6
I35
sg7
I11
sg8
I25
sg9
I2
sg10
I0
sg11
I1040
sss.(dp0
S'K_all3.csv'
p1
(dp2
S'machine'
p3
(dp4
S'count'
p5
I762
sS'truepos'
p6
I32
sS'falseneg'
p7
I8
sS'correction'
p8
I5
sS'unknownyes'
p9
I5
sS'falsepos'
p10
I6
sS'unique'
p11
I660
ssS'knee'
p12
(dp13
g5
I692
sg6
I30
sg7
I11
sg8
I10
sg9
I4
sg10
I1
sg11
I590
ssS'none'
p14
(dp15
g5
I1100
sg6
I24
sg7
I21
sg8
I0
sg9
I0
sg10
I6
sg11
I1100
ssS'three'
p16
(dp17
g5
I2009
sg6
I30
sg7
I14
sg8
I24
sg9
I1
sg10
I0
sg11
I990
sssS'Wahono.csv'
p18
(dp19
g3
(dp20
g5
I1974
sg6
I55
sg7
I4
sg8
I10
sg9
I3
sg10
I4
sg11
I1240
ssg12
(dp21
g5
I840
sg6
I48
sg7
I9
sg8
I11
sg9
I5
sg10
I0
sg11
I710
ssg14
(dp22
g5
I2010
sg6
I42
sg7
I19
sg8
I0
sg9
I1
sg10
I6
sg11
I2010
ssg16
(dp23
g5
I3095
sg6
I44
sg7
I17
sg8
I29
sg9
I1
sg10
I0
sg11
I1530
sssS'Hall.csv'
p24
(dp25
g3
(dp26
g5
I705
sg6
I86
sg7
I14
sg8
I19
sg9
I4
sg10
I4
sg11
I520
ssg12
(dp27
g5
I52
sg6
I12
sg7
I3
sg8
I4
sg9
I89
sg10
I0
sg11
I40
ssg14
(dp28
g5
I840
sg6
I74
sg7
I29
sg8
I0
sg9
I1
sg10
I4
sg11
I840
ssg16
(dp29
g5
I1571
sg6
I78
sg7
I24
sg8
I44
sg9
I2
sg10
I0
sg11
I760
sssS'Danijel.csv'
p30
(dp31
g3
(dp32
g5
I1462
sg6
I37
sg7
I9
sg8
I9
sg9
I2
sg10
I5
sg11
I960
ssg12
(dp33
g5
I47
sg6
I5
sg7
I2
sg8
I0
sg9
I41
sg10
I0
sg11
I40
ssg14
(dp34
g5
I990
sg6
I34
sg7
I11
sg8
I0
sg9
I3
sg10
I4
sg11
I990
ssg16
(dp35
g5
I2768
sg6
I35
sg7
I11
sg8
I26
sg9
I2
sg10
I0
sg11
I1370
sss.(dp0
S'K_all3.csv'
p1
(dp2
S'machine'
p3
(dp4
S'count'
p5
I684
sS'truepos'
p6
I33
sS'falseneg'
p7
I6
sS'correction'
p8
I7
sS'unknownyes'
p9
I6
sS'falsepos'
p10
I7
sS'unique'
p11
I580
ssS'knee'
p12
(dp13
g5
I1181
sg6
I37
sg7
I8
sg8
I6
sg9
I0
sg10
I4
sg11
I880
ssS'none'
p14
(dp15
g5
I630
sg6
I30
sg7
I11
sg8
I0
sg9
I4
sg10
I5
sg11
I630
ssS'three'
p16
(dp17
g5
I1506
sg6
I30
sg7
I11
sg8
I21
sg9
I4
sg10
I0
sg11
I740
sssS'Wahono.csv'
p18
(dp19
g3
(dp20
g5
I1924
sg6
I55
sg7
I4
sg8
I17
sg9
I3
sg10
I6
sg11
I1380
ssg12
(dp21
g5
I1332
sg6
I55
sg7
I3
sg8
I13
sg9
I4
sg10
I0
sg11
I950
ssg14
(dp22
g5
I1540
sg6
I43
sg7
I17
sg8
I0
sg9
I2
sg10
I5
sg11
I1540
ssg16
(dp23
g5
I2992
sg6
I51
sg7
I8
sg8
I30
sg9
I3
sg10
I0
sg11
I1480
sssS'Hall.csv'
p24
(dp25
g3
(dp26
g5
I766
sg6
I93
sg7
I9
sg8
I22
sg9
I2
sg10
I3
sg11
I530
ssg12
(dp27
g5
I633
sg6
I83
sg7
I19
sg8
I19
sg9
I2
sg10
I0
sg11
I480
ssg14
(dp28
g5
I1000
sg6
I73
sg7
I29
sg8
I0
sg9
I2
sg10
I6
sg11
I1000
ssg16
(dp29
g5
I1389
sg6
I76
sg7
I26
sg8
I43
sg9
I2
sg10
I0
sg11
I670
sssS'Danijel.csv'
p30
(dp31
g3
(dp32
g5
I1432
sg6
I43
sg7
I3
sg8
I16
sg9
I2
sg10
I5
sg11
I1180
ssg12
(dp33
g5
I496
sg6
I35
sg7
I5
sg8
I5
sg9
I8
sg10
I0
sg11
I340
ssg14
(dp34
g5
I1450
sg6
I35
sg7
I12
sg8
I0
sg9
I1
sg10
I2
sg11
I1450
ssg16
(dp35
g5
I1762
sg6
I42
sg7
I4
sg8
I22
sg9
I2
sg10
I0
sg11
I870
sss.(dp0
S'K_all3.csv'
p1
(dp2
S'machine'
p3
(dp4
S'count'
p5
I673
sS'truepos'
p6
I32
sS'falseneg'
p7
I6
sS'correction'
p8
I7
sS'unknownyes'
p9
I7
sS'falsepos'
p10
I7
sS'unique'
p11
I570
ssS'knee'
p12
(dp13
g5
I701
sg6
I31
sg7
I8
sg8
I4
sg9
I6
sg10
I5
sg11
I510
ssS'none'
p14
(dp15
g5
I700
sg6
I25
sg7
I13
sg8
I0
sg9
I7
sg10
I5
sg11
I700
ssS'three'
p16
(dp17
g5
I1147
sg6
I30
sg7
I9
sg8
I25
sg9
I6
sg10
I0
sg11
I560
sssS'Wahono.csv'
p18
(dp19
g3
(dp20
g5
I1826
sg6
I58
sg7
I1
sg8
I16
sg9
I3
sg10
I3
sg11
I1230
ssg12
(dp21
g5
I808
sg6
I46
sg7
I6
sg8
I6
sg9
I10
sg10
I0
sg11
I550
ssg14
(dp22
g5
I1520
sg6
I38
sg7
I21
sg8
I0
sg9
I3
sg10
I2
sg11
I1520
ssg16
(dp23
g5
I2674
sg6
I47
sg7
I12
sg8
I29
sg9
I3
sg10
I0
sg11
I1320
sssS'Hall.csv'
p24
(dp25
g3
(dp26
g5
I922
sg6
I87
sg7
I15
sg8
I18
sg9
I2
sg10
I4
sg11
I680
ssg12
(dp27
g5
I630
sg6
I90
sg7
I11
sg8
I19
sg9
I3
sg10
I1
sg11
I460
ssg14
(dp28
g5
I1060
sg6
I75
sg7
I27
sg8
I0
sg9
I2
sg10
I6
sg11
I1060
ssg16
(dp29
g5
I1256
sg6
I84
sg7
I18
sg8
I49
sg9
I2
sg10
I0
sg11
I600
sssS'Danijel.csv'
p30
(dp31
g3
(dp32
g5
I1302
sg6
I35
sg7
I11
sg8
I7
sg9
I2
sg10
I3
sg11
I1050
ssg12
(dp33
g5
I771
sg6
I37
sg7
I7
sg8
I9
sg9
I4
sg10
I0
sg11
I620
ssg14
(dp34
g5
I1580
sg6
I33
sg7
I14
sg8
I0
sg9
I1
sg10
I2
sg11
I1580
ssg16
(dp35
g5
I2201
sg6
I38
sg7
I8
sg8
I19
sg9
I2
sg10
I0
sg11
I1090
sss.(dp0
S'K_all3.csv'
p1
(dp2
S'machine'
p3
(dp4
S'count'
p5
I720
sS'truepos'
p6
I29
sS'falseneg'
p7
I10
sS'correction'
p8
I2
sS'unknownyes'
p9
I6
sS'falsepos'
p10
I5
sS'unique'
p11
I620
ssS'knee'
p12
(dp13
g5
I808
sg6
I28
sg7
I6
sg8
I9
sg9
I11
sg10
I9
sg11
I620
ssS'none'
p14
(dp15
g5
I710
sg6
I27
sg7
I13
sg8
I0
sg9
I5
sg10
I5
sg11
I710
ssS'three'
p16
(dp17
g5
I1390
sg6
I30
sg7
I13
sg8
I26
sg9
I2
sg10
I0
sg11
I680
sssS'Wahono.csv'
p18
(dp19
g3
(dp20
g5
I1684
sg6
I55
sg7
I5
sg8
I18
sg9
I2
sg10
I3
sg11
I1200
ssg12
(dp21
g5
I327
sg6
I23
sg7
I5
sg8
I5
sg9
I34
sg10
I0
sg11
I280
ssg14
(dp22
g5
I1430
sg6
I45
sg7
I15
sg8
I0
sg9
I2
sg10
I0
sg11
I1430
ssg16
(dp23
g5
I2876
sg6
I49
sg7
I10
sg8
I31
sg9
I3
sg10
I0
sg11
I1420
sssS'Hall.csv'
p24
(dp25
g3
(dp26
g5
I736
sg6
I91
sg7
I11
sg8
I12
sg9
I2
sg10
I1
sg11
I510
ssg12
(dp27
g5
I33
sg6
I9
sg7
I1
sg8
I0
sg9
I94
sg10
I0
sg11
I30
ssg14
(dp28
g5
I870
sg6
I75
sg7
I27
sg8
I0
sg9
I2
sg10
I4
sg11
I870
ssg16
(dp29
g5
I1357
sg6
I79
sg7
I23
sg8
I33
sg9
I2
sg10
I0
sg11
I660
sssS'Danijel.csv'
p30
(dp31
g3
(dp32
g5
I1315
sg6
I42
sg7
I3
sg8
I9
sg9
I3
sg10
I4
sg11
I840
ssg12
(dp33
g5
I36
sg6
I4
sg7
I3
sg8
I0
sg9
I41
sg10
I0
sg11
I30
ssg14
(dp34
g5
I1030
sg6
I31
sg7
I15
sg8
I0
sg9
I2
sg10
I0
sg11
I1030
ssg16
(dp35
g5
I2387
sg6
I36
sg7
I10
sg8
I25
sg9
I2
sg10
I0
sg11
I1180
sss.(dp0
S'K_all3.csv'
p1
(dp2
S'machine'
p3
(dp4
S'count'
p5
I1060
sS'truepos'
p6
I28
sS'falseneg'
p7
I16
sS'correction'
p8
I0
sS'unknownyes'
p9
I1
sS'falsepos'
p10
I2
sS'unique'
p11
I1060
ssS'knee'
p12
(dp13
g5
I596
sg6
I32
sg7
I4
sg8
I6
sg9
I9
sg10
I4
sg11
I390
ssS'none'
p14
(dp15
g5
I640
sg6
I28
sg7
I14
sg8
I0
sg9
I3
sg10
I5
sg11
I640
ssS'three'
p16
(dp17
g5
I1060
sg6
I34
sg7
I6
sg8
I19
sg9
I5
sg10
I0
sg11
I520
sssS'Wahono.csv'
p18
(dp19
g3
(dp20
g5
I2085
sg6
I58
sg7
I2
sg8
I5
sg9
I2
sg10
I5
sg11
I1400
ssg12
(dp21
g5
I35
sg6
I7
sg7
I0
sg8
I0
sg9
I55
sg10
I0
sg11
I30
ssg14
(dp22
g5
I1660
sg6
I37
sg7
I22
sg8
I0
sg9
I3
sg10
I6
sg11
I1660
ssg16
(dp23
g5
I2749
sg6
I51
sg7
I8
sg8
I26
sg9
I3
sg10
I0
sg11
I1360
sssS'Hall.csv'
p24
(dp25
g3
(dp26
g5
I911
sg6
I91
sg7
I11
sg8
I20
sg9
I2
sg10
I2
sg11
I650
ssg12
(dp27
g5
I697
sg6
I84
sg7
I18
sg8
I25
sg9
I2
sg10
I1
sg11
I500
ssg14
(dp28
g5
I730
sg6
I72
sg7
I30
sg8
I0
sg9
I2
sg10
I2
sg11
I730
ssg16
(dp29
g5
I1432
sg6
I80
sg7
I22
sg8
I45
sg9
I2
sg10
I0
sg11
I690
sssS'Danijel.csv'
p30
(dp31
g3
(dp32
g5
I1202
sg6
I36
sg7
I7
sg8
I8
sg9
I5
sg10
I4
sg11
I850
ssg12
(dp33
g5
I1482
sg6
I45
sg7
I1
sg8
I15
sg9
I2
sg10
I3
sg11
I1120
ssg14
(dp34
g5
I1370
sg6
I32
sg7
I15
sg8
I0
sg9
I1
sg10
I2
sg11
I1370
ssg16
(dp35
g5
I1704
sg6
I41
sg7
I5
sg8
I22
sg9
I2
sg10
I0
sg11
I840
sss.(dp0
S'K_all3.csv'
p1
(dp2
S'machine'
p3
(dp4
S'count'
p5
I630
sS'truepos'
p6
I35
sS'falseneg'
p7
I5
sS'correction'
p8
I5
sS'unknownyes'
p9
I5
sS'falsepos'
p10
I3
sS'unique'
p11
I530
ssS'knee'
p12
(dp13
g5
I100
sg6
I13
sg7
I1
sg8
I4
sg9
I31
sg10
I1
sg11
I70
ssS'none'
p14
(dp15
g5
I640
sg6
I31
sg7
I10
sg8
I0
sg9
I4
sg10
I4
sg11
I640
ssS'three'
p16
(dp17
g5
I1585
sg6
I30
sg7
I13
sg8
I20
sg9
I2
sg10
I0
sg11
I780
sssS'Wahono.csv'
p18
(dp19
g3
(dp20
g5
I2260
sg6
I51
sg7
I8
sg8
I10
sg9
I3
sg10
I4
sg11
I1520
ssg12
(dp21
g5
I1133
sg6
I44
sg7
I14
sg8
I12
sg9
I4
sg10
I0
sg11
I940
ssg14
(dp22
g5
I1690
sg6
I39
sg7
I20
sg8
I0
sg9
I3
sg10
I3
sg11
I1690
ssg16
(dp23
g5
I2975
sg6
I48
sg7
I12
sg8
I30
sg9
I2
sg10
I0
sg11
I1470
sssS'Hall.csv'
p24
(dp25
g3
(dp26
g5
I698
sg6
I95
sg7
I7
sg8
I21
sg9
I2
sg10
I1
sg11
I490
ssg12
(dp27
g5
I566
sg6
I85
sg7
I13
sg8
I14
sg9
I6
sg10
I2
sg11
I410
ssg14
(dp28
g5
I1340
sg6
I73
sg7
I30
sg8
I0
sg9
I1
sg10
I5
sg11
I1340
ssg16
(dp29
g5
I1698
sg6
I81
sg7
I21
sg8
I52
sg9
I2
sg10
I0
sg11
I820
sssS'Danijel.csv'
p30
(dp31
g3
(dp32
g5
I1244
sg6
I39
sg7
I6
sg8
I5
sg9
I3
sg10
I4
sg11
I790
ssg12
(dp33
g5
I590
sg6
I35
sg7
I5
sg8
I9
sg9
I8
sg10
I0
sg11
I410
ssg14
(dp34
g5
I1520
sg6
I34
sg7
I12
sg8
I0
sg9
I2
sg10
I3
sg11
I1520
ssg16
(dp35
g5
I2344
sg6
I35
sg7
I11
sg8
I19
sg9
I2
sg10
I0
sg11
I1160
sss.(dp0
S'K_all3.csv'
p1
(dp2
S'machine'
p3
(dp4
S'count'
p5
I772
sS'truepos'
p6
I33
sS'falseneg'
p7
I10
sS'correction'
p8
I3
sS'unknownyes'
p9
I2
sS'falsepos'
p10
I5
sS'unique'
p11
I670
ssS'knee'
p12
(dp13
g5
I657
sg6
I33
sg7
I5
sg8
I6
sg9
I7
sg10
I1
sg11
I450
ssS'none'
p14
(dp15
g5
I740
sg6
I24
sg7
I14
sg8
I0
sg9
I7
sg10
I6
sg11
I740
ssS'three'
p16
(dp17
g5
I1103
sg6
I33
sg7
I7
sg8
I20
sg9
I5
sg10
I0
sg11
I540
sssS'Wahono.csv'
p18
(dp19
g3
(dp20
g5
I1766
sg6
I56
sg7
I4
sg8
I9
sg9
I2
sg10
I2
sg11
I1180
ssg12
(dp21
g5
I1435
sg6
I46
sg7
I13
sg8
I9
sg9
I3
sg10
I0
sg11
I1140
ssg14
(dp22
g5
I1650
sg6
I44
sg7
I16
sg8
I0
sg9
I2
sg10
I3
sg11
I1650
ssg16
(dp23
g5
I2335
sg6
I47
sg7
I13
sg8
I31
sg9
I2
sg10
I0
sg11
I1150
sssS'Hall.csv'
p24
(dp25
g3
(dp26
g5
I1055
sg6
I91
sg7
I12
sg8
I27
sg9
I1
sg10
I5
sg11
I800
ssg12
(dp27
g5
I771
sg6
I83
sg7
I19
sg8
I21
sg9
I2
sg10
I1
sg11
I570
ssg14
(dp28
g5
I590
sg6
I80
sg7
I22
sg8
I0
sg9
I2
sg10
I1
sg11
I590
ssg16
(dp29
g5
I1741
sg6
I74
sg7
I28
sg8
I32
sg9
I2
sg10
I0
sg11
I850
sssS'Danijel.csv'
p30
(dp31
g3
(dp32
g5
I1236
sg6
I39
sg7
I7
sg8
I7
sg9
I2
sg10
I2
sg11
I930
ssg12
(dp33
g5
I584
sg6
I28
sg7
I8
sg8
I7
sg9
I12
sg10
I2
sg11
I410
ssg14
(dp34
g5
I1180
sg6
I33
sg7
I14
sg8
I0
sg9
I1
sg10
I2
sg11
I1180
ssg16
(dp35
g5
I1461
sg6
I38
sg7
I8
sg8
I19
sg9
I2
sg10
I0
sg11
I720
sss.(dp0
S'K_all3.csv'
p1
(dp2
S'machine'
p3
(dp4
S'count'
p5
I633
sS'truepos'
p6
I33
sS'falseneg'
p7
I4
sS'correction'
p8
I5
sS'unknownyes'
p9
I8
sS'falsepos'
p10
I2
sS'unique'
p11
I580
ssS'knee'
p12
(dp13
g5
I1494
sg6
I33
sg7
I11
sg8
I17
sg9
I1
sg10
I2
sg11
I1240
ssS'none'
p14
(dp15
g5
I1120
sg6
I22
sg7
I18
sg8
I0
sg9
I5
sg10
I8
sg11
I1120
ssS'three'
p16
(dp17
g5
I1268
sg6
I30
sg7
I9
sg8
I24
sg9
I6
sg10
I0
sg11
I620
sssS'Wahono.csv'
p18
(dp19
g3
(dp20
g5
I1854
sg6
I57
sg7
I3
sg8
I10
sg9
I2
sg10
I4
sg11
I1240
ssg12
(dp21
g5
I1006
sg6
I49
sg7
I8
sg8
I12
sg9
I5
sg10
I1
sg11
I730
ssg14
(dp22
g5
I1450
sg6
I40
sg7
I19
sg8
I0
sg9
I3
sg10
I3
sg11
I1450
ssg16
(dp23
g5
I3193
sg6
I46
sg7
I13
sg8
I30
sg9
I3
sg10
I0
sg11
I1580
sssS'Hall.csv'
p24
(dp25
g3
(dp26
g5
I999
sg6
I89
sg7
I13
sg8
I21
sg9
I2
sg10
I1
sg11
I750
ssg12
(dp27
g5
I24
sg6
I8
sg7
I0
sg8
I2
sg9
I96
sg10
I0
sg11
I20
ssg14
(dp28
g5
I900
sg6
I73
sg7
I29
sg8
I0
sg9
I2
sg10
I4
sg11
I900
ssg16
(dp29
g5
I1613
sg6
I79
sg7
I24
sg8
I49
sg9
I1
sg10
I0
sg11
I780
sssS'Danijel.csv'
p30
(dp31
g3
(dp32
g5
I954
sg6
I40
sg7
I4
sg8
I8
sg9
I4
sg10
I1
sg11
I600
ssg12
(dp33
g5
I1009
sg6
I42
sg7
I3
sg8
I8
sg9
I3
sg10
I2
sg11
I750
ssg14
(dp34
g5
I1120
sg6
I36
sg7
I10
sg8
I0
sg9
I2
sg10
I0
sg11
I1120
ssg16
(dp35
g5
I2062
sg6
I37
sg7
I9
sg8
I20
sg9
I2
sg10
I0
sg11
I1020
sss.(dp0
S'K_all3.csv'
p1
(dp2
S'machine'
p3
(dp4
S'count'
p5
I762
sS'truepos'
p6
I28
sS'falseneg'
p7
I14
sS'correction'
p8
I0
sS'unknownyes'
p9
I3
sS'falsepos'
p10
I3
sS'unique'
p11
I760
ssS'knee'
p12
(dp13
g5
I589
sg6
I31
sg7
I3
sg8
I12
sg9
I11
sg10
I3
sg11
I350
ssS'none'
p14
(dp15
g5
I510
sg6
I30
sg7
I8
sg8
I0
sg9
I7
sg10
I8
sg11
I510
ssS'three'
p16
(dp17
g5
I1130
sg6
I34
sg7
I7
sg8
I26
sg9
I4
sg10
I0
sg11
I550
sssS'Wahono.csv'
p18
(dp19
g3
(dp20
g5
I1819
sg6
I51
sg7
I5
sg8
I11
sg9
I6
sg10
I6
sg11
I1170
ssg12
(dp21
g5
I1038
sg6
I52
sg7
I5
sg8
I15
sg9
I5
sg10
I2
sg11
I770
ssg14
(dp22
g5
I1480
sg6
I45
sg7
I14
sg8
I0
sg9
I3
sg10
I3
sg11
I1480
ssg16
(dp23
g5
I3277
sg6
I47
sg7
I14
sg8
I34
sg9
I1
sg10
I0
sg11
I1620
sssS'Hall.csv'
p24
(dp25
g3
(dp26
g5
I731
sg6
I96
sg7
I6
sg8
I24
sg9
I2
sg10
I3
sg11
I530
ssg12
(dp27
g5
I756
sg6
I86
sg7
I16
sg8
I20
sg9
I2
sg10
I1
sg11
I590
ssg14
(dp28
g5
I840
sg6
I65
sg7
I37
sg8
I0
sg9
I2
sg10
I1
sg11
I840
ssg16
(dp29
g5
I1290
sg6
I79
sg7
I23
sg8
I44
sg9
I2
sg10
I0
sg11
I620
sssS'Danijel.csv'
p30
(dp31
g3
(dp32
g5
I1341
sg6
I37
sg7
I10
sg8
I10
sg9
I1
sg10
I1
sg11
I1230
ssg12
(dp33
g5
I36
sg6
I4
sg7
I3
sg8
I0
sg9
I41
sg10
I0
sg11
I30
ssg14
(dp34
g5
I970
sg6
I33
sg7
I13
sg8
I0
sg9
I2
sg10
I6
sg11
I970
ssg16
(dp35
g5
I1862
sg6
I41
sg7
I5
sg8
I21
sg9
I2
sg10
I0
sg11
I920
sss.(dp0
S'K_all3.csv'
p1
(dp2
S'machine'
p3
(dp4
S'count'
p5
I772
sS'truepos'
p6
I32
sS'falseneg'
p7
I8
sS'correction'
p8
I2
sS'unknownyes'
p9
I5
sS'falsepos'
p10
I3
sS'unique'
p11
I670
ssS'knee'
p12
(dp13
g5
I1536
sg6
I35
sg7
I7
sg8
I10
sg9
I3
sg10
I9
sg11
I1050
ssS'none'
p14
(dp15
g5
I560
sg6
I27
sg7
I11
sg8
I0
sg9
I7
sg10
I5
sg11
I560
ssS'three'
p16
(dp17
g5
I999
sg6
I31
sg7
I7
sg8
I17
sg9
I7
sg10
I0
sg11
I490
sssS'Wahono.csv'
p18
(dp19
g3
(dp20
g5
I1903
sg6
I57
sg7
I2
sg8
I13
sg9
I3
sg10
I4
sg11
I1290
ssg12
(dp21
g5
I931
sg6
I52
sg7
I6
sg8
I8
sg9
I4
sg10
I2
sg11
I680
ssg14
(dp22
g5
I1220
sg6
I37
sg7
I23
sg8
I0
sg9
I2
sg10
I2
sg11
I1220
ssg16
(dp23
g5
I2831
sg6
I49
sg7
I12
sg8
I30
sg9
I1
sg10
I0
sg11
I1400
sssS'Hall.csv'
p24
(dp25
g3
(dp26
g5
I813
sg6
I90
sg7
I12
sg8
I16
sg9
I2
sg10
I2
sg11
I600
ssg12
(dp27
g5
I675
sg6
I77
sg7
I24
sg8
I19
sg9
I3
sg10
I1
sg11
I510
ssg14
(dp28
g5
I1320
sg6
I69
sg7
I33
sg8
I0
sg9
I2
sg10
I10
sg11
I1320
ssg16
(dp29
g5
I1141
sg6
I85
sg7
I17
sg8
I38
sg9
I2
sg10
I0
sg11
I550
sssS'Danijel.csv'
p30
(dp31
g3
(dp32
g5
I1485
sg6
I44
sg7
I2
sg8
I12
sg9
I2
sg10
I2
sg11
I1030
ssg12
(dp33
g5
I573
sg6
I35
sg7
I4
sg8
I7
sg9
I9
sg10
I2
sg11
I380
ssg14
(dp34
g5
I1310
sg6
I30
sg7
I17
sg8
I0
sg9
I1
sg10
I2
sg11
I1310
ssg16
(dp35
g5
I2539
sg6
I35
sg7
I11
sg8
I19
sg9
I2
sg10
I0
sg11
I1260
sss.(dp0
S'K_all3.csv'
p1
(dp2
S'machine'
p3
(dp4
S'count'
p5
I662
sS'truepos'
p6
I34
sS'falseneg'
p7
I5
sS'correction'
p8
I4
sS'unknownyes'
p9
I6
sS'falsepos'
p10
I6
sS'unique'
p11
I510
ssS'knee'
p12
(dp13
g5
I999
sg6
I35
sg7
I6
sg8
I10
sg9
I4
sg10
I11
sg11
I730
ssS'none'
p14
(dp15
g5
I520
sg6
I32
sg7
I9
sg8
I0
sg9
I4
sg10
I2
sg11
I520
ssS'three'
p16
(dp17
g5
I943
sg6
I33
sg7
I6
sg8
I23
sg9
I6
sg10
I0
sg11
I460
sssS'Wahono.csv'
p18
(dp19
g3
(dp20
g5
I2025
sg6
I56
sg7
I3
sg8
I17
sg9
I3
sg10
I2
sg11
I1320
ssg12
(dp21
g5
I35
sg6
I6
sg7
I1
sg8
I1
sg9
I55
sg10
I0
sg11
I30
ssg14
(dp22
g5
I1560
sg6
I47
sg7
I13
sg8
I0
sg9
I2
sg10
I3
sg11
I1560
ssg16
(dp23
g5
I3192
sg6
I51
sg7
I11
sg8
I30
sg9
I0
sg10
I0
sg11
I1580
sssS'Hall.csv'
p24
(dp25
g3
(dp26
g5
I804
sg6
I98
sg7
I4
sg8
I24
sg9
I2
sg10
I3
sg11
I590
ssg12
(dp27
g5
I525
sg6
I81
sg7
I17
sg8
I18
sg9
I6
sg10
I1
sg11
I390
ssg14
(dp28
g5
I790
sg6
I70
sg7
I32
sg8
I0
sg9
I2
sg10
I2
sg11
I790
ssg16
(dp29
g5
I1237
sg6
I82
sg7
I20
sg8
I30
sg9
I2
sg10
I0
sg11
I600
sssS'Danijel.csv'
p30
(dp31
g3
(dp32
g5
I1115
sg6
I36
sg7
I8
sg8
I7
sg9
I4
sg10
I2
sg11
I910
ssg12
(dp33
g5
I555
sg6
I35
sg7
I5
sg8
I8
sg9
I8
sg10
I1
sg11
I360
ssg14
(dp34
g5
I2540
sg6
I30
sg7
I17
sg8
I0
sg9
I1
sg10
I7
sg11
I2540
ssg16
(dp35
g5
I2368
sg6
I33
sg7
I13
sg8
I25
sg9
I2
sg10
I0
sg11
I1170
sss.(dp0
S'K_all3.csv'
p1
(dp2
S'machine'
p3
(dp4
S'count'
p5
I565
sS'truepos'
p6
I31
sS'falseneg'
p7
I8
sS'correction'
p8
I6
sS'unknownyes'
p9
I6
sS'falsepos'
p10
I10
sS'unique'
p11
I460
ssS'knee'
p12
(dp13
g5
I416
sg6
I22
sg7
I10
sg8
I4
sg9
I13
sg10
I0
sg11
I350
ssS'none'
p14
(dp15
g5
I580
sg6
I32
sg7
I8
sg8
I0
sg9
I5
sg10
I2
sg11
I580
ssS'three'
p16
(dp17
g5
I1022
sg6
I36
sg7
I6
sg8
I20
sg9
I3
sg10
I0
sg11
I500
sssS'Wahono.csv'
p18
(dp19
g3
(dp20
g5
I1896
sg6
I53
sg7
I6
sg8
I14
sg9
I3
sg10
I1
sg11
I1290
ssg12
(dp21
g5
I303
sg6
I17
sg7
I9
sg8
I6
sg9
I36
sg10
I0
sg11
I260
ssg14
(dp22
g5
I1550
sg6
I40
sg7
I19
sg8
I0
sg9
I3
sg10
I1
sg11
I1550
ssg16
(dp23
g5
I3331
sg6
I43
sg7
I18
sg8
I26
sg9
I1
sg10
I1
sg11
I1650
sssS'Hall.csv'
p24
(dp25
g3
(dp26
g5
I947
sg6
I93
sg7
I9
sg8
I22
sg9
I2
sg10
I5
sg11
I710
ssg12
(dp27
g5
I24
sg6
I8
sg7
I0
sg8
I2
sg9
I96
sg10
I0
sg11
I20
ssg14
(dp28
g5
I980
sg6
I73
sg7
I30
sg8
I0
sg9
I1
sg10
I3
sg11
I980
ssg16
(dp29
g5
I1429
sg6
I82
sg7
I20
sg8
I43
sg9
I2
sg10
I0
sg11
I690
sssS'Danijel.csv'
p30
(dp31
g3
(dp32
g5
I1270
sg6
I37
sg7
I9
sg8
I8
sg9
I2
sg10
I4
sg11
I1020
ssg12
(dp33
g5
I1363
sg6
I41
sg7
I3
sg8
I14
sg9
I4
sg10
I2
sg11
I870
ssg14
(dp34
g5
I1560
sg6
I29
sg7
I16
sg8
I0
sg9
I3
sg10
I2
sg11
I1560
ssg16
(dp35
g5
I2462
sg6
I37
sg7
I9
sg8
I22
sg9
I2
sg10
I0
sg11
I1220
sss.(dp0
S'K_all3.csv'
p1
(dp2
S'machine'
p3
(dp4
S'count'
p5
I702
sS'truepos'
p6
I29
sS'falseneg'
p7
I10
sS'correction'
p8
I7
sS'unknownyes'
p9
I6
sS'falsepos'
p10
I8
sS'unique'
p11
I650
ssS'knee'
p12
(dp13
g5
I203
sg6
I16
sg7
I8
sg8
I3
sg9
I21
sg10
I0
sg11
I160
ssS'none'
p14
(dp15
g5
I470
sg6
I33
sg7
I7
sg8
I0
sg9
I5
sg10
I5
sg11
I470
ssS'three'
p16
(dp17
g5
I1430
sg6
I30
sg7
I9
sg8
I27
sg9
I6
sg10
I0
sg11
I700
sssS'Wahono.csv'
p18
(dp19
g3
(dp20
g5
I1791
sg6
I49
sg7
I10
sg8
I10
sg9
I3
sg10
I9
sg11
I1110
ssg12
(dp21
g5
I24
sg6
I6
sg7
I0
sg8
I0
sg9
I56
sg10
I0
sg11
I20
ssg14
(dp22
g5
I1500
sg6
I46
sg7
I13
sg8
I0
sg9
I3
sg10
I1
sg11
I1500
ssg16
(dp23
g5
I2849
sg6
I44
sg7
I15
sg8
I24
sg9
I3
sg10
I0
sg11
I1410
sssS'Hall.csv'
p24
(dp25
g3
(dp26
g5
I888
sg6
I88
sg7
I14
sg8
I13
sg9
I2
sg10
I2
sg11
I670
ssg12
(dp27
g5
I651
sg6
I83
sg7
I19
sg8
I19
sg9
I2
sg10
I2
sg11
I460
ssg14
(dp28
g5
I990
sg6
I62
sg7
I40
sg8
I0
sg9
I2
sg10
I2
sg11
I990
ssg16
(dp29
g5
I1913
sg6
I80
sg7
I22
sg8
I47
sg9
I2
sg10
I0
sg11
I930
sssS'Danijel.csv'
p30
(dp31
g3
(dp32
g5
I2088
sg6
I33
sg7
I14
sg8
I8
sg9
I1
sg10
I4
sg11
I1930
ssg12
(dp33
g5
I328
sg6
I28
sg7
I4
sg8
I5
sg9
I16
sg10
I1
sg11
I210
ssg14
(dp34
g5
I1450
sg6
I31
sg7
I15
sg8
I0
sg9
I2
sg10
I2
sg11
I1450
ssg16
(dp35
g5
I2144
sg6
I37
sg7
I8
sg8
I22
sg9
I3
sg10
I0
sg11
I1060
sss.(dp0
S'K_all3.csv'
p1
(dp2
S'machine'
p3
(dp4
S'count'
p5
I672
sS'truepos'
p6
I28
sS'falseneg'
p7
I10
sS'correction'
p8
I3
sS'unknownyes'
p9
I7
sS'falsepos'
p10
I6
sS'unique'
p11
I620
ssS'knee'
p12
(dp13
g5
I1581
sg6
I38
sg7
I5
sg8
I18
sg9
I2
sg10
I1
sg11
I1310
ssS'none'
p14
(dp15
g5
I520
sg6
I31
sg7
I10
sg8
I0
sg9
I4
sg10
I5
sg11
I520
ssS'three'
p16
(dp17
g5
I1583
sg6
I30
sg7
I8
sg8
I22
sg9
I7
sg10
I0
sg11
I780
sssS'Wahono.csv'
p18
(dp19
g3
(dp20
g5
I2266
sg6
I53
sg7
I7
sg8
I13
sg9
I2
sg10
I2
sg11
I1660
ssg12
(dp21
g5
I1320
sg6
I48
sg7
I11
sg8
I13
sg9
I3
sg10
I0
sg11
I990
ssg14
(dp22
g5
I1690
sg6
I40
sg7
I20
sg8
I0
sg9
I2
sg10
I2
sg11
I1690
ssg16
(dp23
g5
I2488
sg6
I51
sg7
I8
sg8
I27
sg9
I3
sg10
I0
sg11
I1230
sssS'Hall.csv'
p24
(dp25
g3
(dp26
g5
I755
sg6
I94
sg7
I8
sg8
I14
sg9
I2
sg10
I5
sg11
I560
ssg12
(dp27
g5
I768
sg6
I91
sg7
I11
sg8
I18
sg9
I2
sg10
I0
sg11
I590
ssg14
(dp28
g5
I1170
sg6
I74
sg7
I28
sg8
I0
sg9
I2
sg10
I8
sg11
I1170
ssg16
(dp29
g5
I1176
sg6
I79
sg7
I23
sg8
I50
sg9
I2
sg10
I0
sg11
I560
sssS'Danijel.csv'
p30
(dp31
g3
(dp32
g5
I1269
sg6
I37
sg7
I10
sg8
I7
sg9
I1
sg10
I1
sg11
I1160
ssg12
(dp33
g5
I577
sg6
I33
sg7
I2
sg8
I10
sg9
I13
sg10
I0
sg11
I350
ssg14
(dp34
g5
I1340
sg6
I32
sg7
I14
sg8
I0
sg9
I2
sg10
I2
sg11
I1340
ssg16
(dp35
g5
I1757
sg6
I39
sg7
I7
sg8
I15
sg9
I2
sg10
I0
sg11
I870
sss.(dp0
S'K_all3.csv'
p1
(dp2
S'machine'
p3
(dp4
S'count'
p5
I1220
sS'truepos'
p6
I20
sS'falseneg'
p7
I22
sS'correction'
p8
I0
sS'unknownyes'
p9
I3
sS'falsepos'
p10
I11
sS'unique'
p11
I1220
ssS'knee'
p12
(dp13
g5
I969
sg6
I35
sg7
I8
sg8
I16
sg9
I2
sg10
I0
sg11
I850
ssS'none'
p14
(dp15
g5
I480
sg6
I32
sg7
I7
sg8
I0
sg9
I6
sg10
I6
sg11
I480
ssS'three'
p16
(dp17
g5
I966
sg6
I33
sg7
I6
sg8
I24
sg9
I6
sg10
I0
sg11
I470
sssS'Wahono.csv'
p18
(dp19
g3
(dp20
g5
I1970
sg6
I53
sg7
I7
sg8
I11
sg9
I2
sg10
I3
sg11
I1350
ssg12
(dp21
g5
I990
sg6
I44
sg7
I8
sg8
I5
sg9
I10
sg10
I0
sg11
I680
ssg14
(dp22
g5
I1660
sg6
I41
sg7
I19
sg8
I0
sg9
I2
sg10
I4
sg11
I1660
ssg16
(dp23
g5
I2569
sg6
I44
sg7
I15
sg8
I25
sg9
I3
sg10
I0
sg11
I1270
sssS'Hall.csv'
p24
(dp25
g3
(dp26
g5
I778
sg6
I97
sg7
I5
sg8
I22
sg9
I2
sg10
I2
sg11
I560
ssg12
(dp27
g5
I627
sg6
I91
sg7
I9
sg8
I24
sg9
I4
sg10
I2
sg11
I400
ssg14
(dp28
g5
I1100
sg6
I70
sg7
I33
sg8
I0
sg9
I1
sg10
I6
sg11
I1100
ssg16
(dp29
g5
I1288
sg6
I78
sg7
I24
sg8
I41
sg9
I2
sg10
I0
sg11
I620
sssS'Danijel.csv'
p30
(dp31
g3
(dp32
g5
I1169
sg6
I40
sg7
I4
sg8
I6
sg9
I4
sg10
I2
sg11
I740
ssg12
(dp33
g5
I37
sg6
I4
sg7
I1
sg8
I1
sg9
I43
sg10
I0
sg11
I30
ssg14
(dp34
g5
I1570
sg6
I26
sg7
I19
sg8
I0
sg9
I3
sg10
I4
sg11
I1570
ssg16
(dp35
g5
I2809
sg6
I31
sg7
I17
sg8
I23
sg9
I0
sg10
I0
sg11
I1390
sss.(dp0
S'K_all3.csv'
p1
(dp2
S'machine'
p3
(dp4
S'count'
p5
I631
sS'truepos'
p6
I33
sS'falseneg'
p7
I7
sS'correction'
p8
I2
sS'unknownyes'
p9
I5
sS'falsepos'
p10
I5
sS'unique'
p11
I480
ssS'knee'
p12
(dp13
g5
I399
sg6
I27
sg7
I6
sg8
I3
sg9
I12
sg10
I4
sg11
I270
ssS'none'
p14
(dp15
g5
I580
sg6
I30
sg7
I10
sg8
I0
sg9
I5
sg10
I6
sg11
I580
ssS'three'
p16
(dp17
g5
I1049
sg6
I34
sg7
I4
sg8
I26
sg9
I7
sg10
I1
sg11
I510
sssS'Wahono.csv'
p18
(dp19
g3
(dp20
g5
I1958
sg6
I55
sg7
I4
sg8
I13
sg9
I3
sg10
I5
sg11
I1290
ssg12
(dp21
g5
I24
sg6
I6
sg7
I0
sg8
I0
sg9
I56
sg10
I0
sg11
I20
ssg14
(dp22
g5
I2120
sg6
I39
sg7
I22
sg8
I0
sg9
I1
sg10
I4
sg11
I2120
ssg16
(dp23
g5
I3397
sg6
I48
sg7
I13
sg8
I32
sg9
I1
sg10
I0
sg11
I1680
sssS'Hall.csv'
p24
(dp25
g3
(dp26
g5
I935
sg6
I87
sg7
I15
sg8
I23
sg9
I2
sg10
I3
sg11
I670
ssg12
(dp27
g5
I674
sg6
I82
sg7
I18
sg8
I19
sg9
I4
sg10
I2
sg11
I480
ssg14
(dp28
g5
I930
sg6
I79
sg7
I23
sg8
I0
sg9
I2
sg10
I3
sg11
I930
ssg16
(dp29
g5
I1463
sg6
I84
sg7
I18
sg8
I37
sg9
I2
sg10
I0
sg11
I710
sssS'Danijel.csv'
p30
(dp31
g3
(dp32
g5
I1430
sg6
I40
sg7
I4
sg8
I7
sg9
I4
sg10
I9
sg11
I860
ssg12
(dp33
g5
I525
sg6
I34
sg7
I5
sg8
I7
sg9
I9
sg10
I0
sg11
I400
ssg14
(dp34
g5
I1490
sg6
I30
sg7
I17
sg8
I0
sg9
I1
sg10
I6
sg11
I1490
ssg16
(dp35
g5
I2584
sg6
I37
sg7
I9
sg8
I21
sg9
I2
sg10
I0
sg11
I1280
sss.(dp0
S'K_all3.csv'
p1
(dp2
S'machine'
p3
(dp4
S'count'
p5
I721
sS'truepos'
p6
I33
sS'falseneg'
p7
I6
sS'correction'
p8
I6
sS'unknownyes'
p9
I6
sS'falsepos'
p10
I6
sS'unique'
p11
I570
ssS'knee'
p12
(dp13
g5
I1305
sg6
I35
sg7
I9
sg8
I14
sg9
I1
sg10
I8
sg11
I970
ssS'none'
p14
(dp15
g5
I630
sg6
I29
sg7
I12
sg8
I0
sg9
I4
sg10
I3
sg11
I630
ssS'three'
p16
(dp17
g5
I1106
sg6
I33
sg7
I9
sg8
I24
sg9
I3
sg10
I0
sg11
I540
sssS'Wahono.csv'
p18
(dp19
g3
(dp20
g5
I2209
sg6
I54
sg7
I8
sg8
I12
sg9
I0
sg10
I2
sg11
I1530
ssg12
(dp21
g5
I2129
sg6
I48
sg7
I13
sg8
I11
sg9
I1
sg10
I3
sg11
I1580
ssg14
(dp22
g5
I1760
sg6
I37
sg7
I22
sg8
I0
sg9
I3
sg10
I5
sg11
I1760
ssg16
(dp23
g5
I3023
sg6
I48
sg7
I13
sg8
I37
sg9
I1
sg10
I1
sg11
I1490
sssS'Hall.csv'
p24
(dp25
g3
(dp26
g5
I1073
sg6
I88
sg7
I14
sg8
I19
sg9
I2
sg10
I6
sg11
I800
ssg12
(dp27
g5
I775
sg6
I91
sg7
I10
sg8
I26
sg9
I3
sg10
I2
sg11
I570
ssg14
(dp28
g5
I1150
sg6
I72
sg7
I30
sg8
I0
sg9
I2
sg10
I6
sg11
I1150
ssg16
(dp29
g5
I1629
sg6
I79
sg7
I23
sg8
I44
sg9
I2
sg10
I0
sg11
I790
sssS'Danijel.csv'
p30
(dp31
g3
(dp32
g5
I1340
sg6
I39
sg7
I5
sg8
I7
sg9
I4
sg10
I2
sg11
I890
ssg12
(dp33
g5
I48
sg6
I4
sg7
I1
sg8
I2
sg9
I43
sg10
I0
sg11
I40
ssg14
(dp34
g5
I1130
sg6
I35
sg7
I11
sg8
I0
sg9
I2
sg10
I2
sg11
I1130
ssg16
(dp35
g5
I2227
sg6
I33
sg7
I13
sg8
I23
sg9
I2
sg10
I0
sg11
I1100
sss.(dp0
S'K_all3.csv'
p1
(dp2
S'machine'
p3
(dp4
S'count'
p5
I683
sS'truepos'
p6
I32
sS'falseneg'
p7
I9
sS'correction'
p8
I7
sS'unknownyes'
p9
I4
sS'falsepos'
p10
I6
sS'unique'
p11
I580
ssS'knee'
p12
(dp13
g5
I1502
sg6
I37
sg7
I7
sg8
I15
sg9
I1
sg10
I4
sg11
I1190
ssS'none'
p14
(dp15
g5
I690
sg6
I28
sg7
I12
sg8
I0
sg9
I5
sg10
I9
sg11
I690
ssS'three'
p16
(dp17
g5
I1166
sg6
I31
sg7
I11
sg8
I22
sg9
I3
sg10
I0
sg11
I570
sssS'Wahono.csv'
p18
(dp19
g3
(dp20
g5
I2127
sg6
I54
sg7
I5
sg8
I11
sg9
I3
sg10
I3
sg11
I1450
ssg12
(dp21
g5
I277
sg6
I22
sg7
I1
sg8
I7
sg9
I39
sg10
I0
sg11
I190
ssg14
(dp22
g5
I1610
sg6
I44
sg7
I17
sg8
I0
sg9
I1
sg10
I6
sg11
I1610
ssg16
(dp23
g5
I2998
sg6
I53
sg7
I8
sg8
I36
sg9
I1
sg10
I0
sg11
I1480
sssS'Hall.csv'
p24
(dp25
g3
(dp26
g5
I1219
sg6
I90
sg7
I12
sg8
I15
sg9
I2
sg10
I4
sg11
I980
ssg12
(dp27
g5
I727
sg6
I91
sg7
I10
sg8
I25
sg9
I3
sg10
I2
sg11
I480
ssg14
(dp28
g5
I980
sg6
I72
sg7
I31
sg8
I0
sg9
I1
sg10
I2
sg11
I980
ssg16
(dp29
g5
I1451
sg6
I82
sg7
I20
sg8
I46
sg9
I2
sg10
I0
sg11
I700
sssS'Danijel.csv'
p30
(dp31
g3
(dp32
g5
I1316
sg6
I42
sg7
I3
sg8
I9
sg9
I3
sg10
I5
sg11
I860
ssg12
(dp33
g5
I296
sg6
I29
sg7
I3
sg8
I4
sg9
I16
sg10
I0
sg11
I190
ssg14
(dp34
g5
I1750
sg6
I29
sg7
I19
sg8
I0
sg9
I0
sg10
I1
sg11
I1750
ssg16
(dp35
g5
I2225
sg6
I34
sg7
I11
sg8
I22
sg9
I3
sg10
I0
sg11
I1100
sss.(dp0
S'K_all3.csv'
p1
(dp2
S'machine'
p3
(dp4
S'count'
p5
I810
sS'truepos'
p6
I35
sS'falseneg'
p7
I7
sS'correction'
p8
I7
sS'unknownyes'
p9
I3
sS'falsepos'
p10
I4
sS'unique'
p11
I710
ssS'knee'
p12
(dp13
g5
I529
sg6
I29
sg7
I8
sg8
I6
sg9
I8
sg10
I4
sg11
I420
ssS'none'
p14
(dp15
g5
I610
sg6
I25
sg7
I14
sg8
I0
sg9
I6
sg10
I6
sg11
I610
ssS'three'
p16
(dp17
g5
I1513
sg6
I31
sg7
I11
sg8
I31
sg9
I3
sg10
I1
sg11
I740
sssS'Wahono.csv'
p18
(dp19
g3
(dp20
g5
I2091
sg6
I53
sg7
I6
sg8
I11
sg9
I3
sg10
I3
sg11
I1480
ssg12
(dp21
g5
I1501
sg6
I45
sg7
I9
sg8
I11
sg9
I8
sg10
I1
sg11
I990
ssg14
(dp22
g5
I1420
sg6
I39
sg7
I20
sg8
I0
sg9
I3
sg10
I3
sg11
I1420
ssg16
(dp23
g5
I2251
sg6
I51
sg7
I8
sg8
I29
sg9
I3
sg10
I0
sg11
I1110
sssS'Hall.csv'
p24
(dp25
g3
(dp26
g5
I791
sg6
I93
sg7
I9
sg8
I20
sg9
I2
sg10
I1
sg11
I570
ssg12
(dp27
g5
I636
sg6
I87
sg7
I14
sg8
I18
sg9
I3
sg10
I1
sg11
I480
ssg14
(dp28
g5
I1010
sg6
I69
sg7
I33
sg8
I0
sg9
I2
sg10
I0
sg11
I1010
ssg16
(dp29
g5
I1107
sg6
I82
sg7
I20
sg8
I37
sg9
I2
sg10
I0
sg11
I530
sssS'Danijel.csv'
p30
(dp31
g3
(dp32
g5
I1211
sg6
I34
sg7
I12
sg8
I5
sg9
I2
sg10
I3
sg11
I1110
ssg12
(dp33
g5
I1220
sg6
I40
sg7
I5
sg8
I15
sg9
I3
sg10
I3
sg11
I970
ssg14
(dp34
g5
I2470
sg6
I25
sg7
I20
sg8
I0
sg9
I3
sg10
I5
sg11
I2470
ssg16
(dp35
g5
I2603
sg6
I31
sg7
I17
sg8
I18
sg9
I0
sg10
I0
sg11
I1290
sss.