(dp0
S'count'
p1
(lp2
I0
aI10
aI20
aI30
aI40
aI50
aI60
aI70
aI80
aI90
aI100
aI110
aI120
aI170
aI180
aI190
aI200
aI210
aI220
aI270
aI280
aI290
aI300
aI310
aI320
aI355
aI365
aI375
aI385
aI395
aI405
aI425
aI435
aI445
aI455
aI465
aI475
aI492
aI502
aI512
aI522
aI532
aI542
aI574
aI584
aI594
aI604
aI614
aI624
aI634
aI644
aI654
aI664
aI674
aI684
aI695
aI705
aI715
aI725
aI735
aI745
aI771
aI781
aI791
aI801
aI811
asS'true_pos'
p3
(lp4
I0
aI4
aI6
aI8
aI11
aI13
aI18
aI23
aI26
aI28
aI32
aI36
aI38
aI46
aI50
aI51
aI53
aI54
aI54
aI64
aI65
aI68
aI69
aI70
aI71
aI75
aI76
aI78
aI79
aI80
aI82
aI84
aI85
aI87
aI88
aI88
aI88
aI89
aI89
aI89
aI90
aI90
aI90
aI91
aI91
aI91
aI91
aI91
aI91
aI91
aI91
aI91
aI91
aI91
aI91
aI92
aI92
aI92
aI92
aI93
aI93
aI93
aI93
aI93
aI93
aI93
asS'pos'
p5
(lp6
I0
aI4
aI6
aI8
aI11
aI13
aI18
aI23
aI26
aI28
aI32
aI36
aI38
aI46
aI50
aI51
aI53
aI54
aI54
aI64
aI65
aI68
aI69
aI70
aI71
aI76
aI77
aI79
aI80
aI81
aI83
aI85
aI87
aI89
aI90
aI90
aI90
aI91
aI91
aI91
aI92
aI92
aI92
aI94
aI94
aI94
aI94
aI94
aI94
aI94
aI94
aI94
aI94
aI94
aI94
aI95
aI95
aI95
aI95
aI96
aI96
aI96
aI96
aI96
aI96
aI96
asS'false_neg'
p7
(lp8
I0
aI4
aI5
aI5
aI6
aI7
aI7
aI8
aI10
aI13
aI14
aI15
aI16
aI8
aI10
aI14
aI14
aI16
aI17
aI7
aI9
aI9
aI10
aI11
aI12
aI8
aI9
aI10
aI11
aI11
aI13
aI11
aI11
aI11
aI11
aI11
aI11
aI10
aI10
aI10
aI10
aI11
aI11
aI10
aI10
aI10
aI10
aI10
aI10
aI10
aI10
aI10
aI10
aI10
aI10
aI9
aI9
aI9
aI9
aI9
aI9
aI9
aI9
aI9
aI9
aI9
asS'false_pos'
p9
(lp10
I0
aI0
aI0
aI0
aI0
aI0
aI0
aI0
aI0
aI0
aI0
aI0
aI0
aI0
aI0
aI0
aI0
aI0
aI0
aI0
aI0
aI0
aI0
aI0
aI0
aI1
aI1
aI1
aI1
aI1
aI1
aI1
aI2
aI2
aI2
aI2
aI2
aI2
aI2
aI2
aI2
aI2
aI2
aI3
aI3
aI3
aI3
aI3
aI3
aI3
aI3
aI3
aI3
aI3
aI3
aI3
aI3
aI3
aI3
aI3
aI3
aI3
aI3
aI3
aI3
aI3
asS'x'
p11
(lp12
I0
aI10
aI20
aI30
aI40
aI50
aI60
aI70
aI80
aI90
aI100
aI110
aI120
aI120
aI130
aI140
aI150
aI160
aI170
aI170
aI180
aI190
aI200
aI210
aI220
aI220
aI230
aI240
aI250
aI260
aI270
aI270
aI280
aI290
aI300
aI310
aI320
aI320
aI330
aI340
aI350
aI360
aI370
aI370
aI380
aI390
aI400
aI410
aI420
aI430
aI440
aI450
aI460
aI470
aI480
aI480
aI490
aI500
aI510
aI520
aI530
aI530
aI540
aI550
aI560
aI570
as.(dp0
S'count'
p1
(lp2
I0
aI10
aI20
aI30
aI40
aI50
aI60
aI70
aI80
aI90
aI100
aI110
aI120
aI130
aI140
aI150
aI160
aI170
aI180
aI190
aI200
aI210
aI220
aI230
aI240
aI250
aI260
aI270
aI280
aI290
aI300
aI310
aI320
aI330
aI340
aI350
aI360
aI370
aI380
aI390
aI400
aI410
aI420
aI430
aI440
aI450
aI460
aI470
aI480
aI490
aI500
aI510
aI520
aI530
aI540
aI550
aI560
aI570
aI580
aI590
aI600
aI610
aI620
aI630
aI640
aI650
aI660
aI670
aI680
aI690
aI700
aI710
aI720
aI730
aI740
aI750
aI760
aI770
aI780
aI790
aI800
aI810
aI820
aI830
aI840
aI850
aI860
aI870
aI880
aI890
asS'true_pos'
p3
(lp4
I0
aI4
aI6
aI7
aI12
aI12
aI18
aI22
aI25
aI28
aI33
aI36
aI38
aI42
aI44
aI47
aI49
aI52
aI54
aI55
aI57
aI58
aI59
aI59
aI60
aI61
aI64
aI65
aI65
aI65
aI65
aI66
aI67
aI67
aI67
aI68
aI69
aI69
aI69
aI69
aI69
aI69
aI69
aI69
aI69
aI69
aI69
aI69
aI69
aI69
aI69
aI69
aI69
aI69
aI69
aI69
aI69
aI69
aI69
aI69
aI69
aI69
aI69
aI69
aI69
aI69
aI69
aI69
aI69
aI69
aI69
aI69
aI69
aI69
aI69
aI69
aI69
aI69
aI69
aI69
aI69
aI69
aI69
aI69
aI69
aI69
aI69
aI69
aI69
aI69
asS'pos'
p5
(lp6
I0
aI4
aI6
aI7
aI12
aI12
aI18
aI22
aI25
aI28
aI33
aI36
aI38
aI42
aI44
aI47
aI49
aI52
aI54
aI55
aI58
aI59
aI60
aI60
aI61
aI62
aI65
aI66
aI66
aI66
aI66
aI67
aI68
aI68
aI68
aI69
aI70
aI70
aI70
aI70
aI70
aI70
aI70
aI71
aI71
aI71
aI71
aI71
aI71
aI71
aI71
aI71
aI71
aI71
aI71
aI71
aI71
aI71
aI72
aI72
aI72
aI72
aI72
aI72
aI72
aI72
aI73
aI73
aI74
aI74
aI74
aI74
aI74
aI74
aI75
aI75
aI75
aI75
aI75
aI75
aI75
aI75
aI75
aI75
aI75
aI75
aI75
aI75
aI75
aI75
asS'false_neg'
p7
(lp8
I0
aI4
aI5
aI6
aI7
aI7
aI7
aI7
aI9
aI10
aI11
aI14
aI15
aI16
aI16
aI18
aI20
aI22
aI24
aI24
aI26
aI26
aI26
aI27
aI27
aI28
aI29
aI29
aI29
aI29
aI31
aI31
aI31
aI32
aI32
aI32
aI33
aI33
aI33
aI33
aI33
aI33
aI33
aI33
aI33
aI33
aI33
aI33
aI33
aI33
aI33
aI33
aI33
aI33
aI33
aI33
aI33
aI33
aI33
aI33
aI33
aI33
aI33
aI33
aI33
aI33
aI33
aI33
aI33
aI33
aI33
aI33
aI33
aI33
aI33
aI33
aI33
aI33
aI33
aI33
aI33
aI33
aI33
aI33
aI33
aI33
aI33
aI33
aI33
aI33
asS'false_pos'
p9
(lp10
I0
aI0
aI0
aI0
aI0
aI0
aI0
aI0
aI0
aI0
aI0
aI0
aI0
aI0
aI0
aI0
aI0
aI0
aI0
aI0
aI1
aI1
aI1
aI1
aI1
aI1
aI1
aI1
aI1
aI1
aI1
aI1
aI1
aI1
aI1
aI1
aI1
aI1
aI1
aI1
aI1
aI1
aI1
aI2
aI2
aI2
aI2
aI2
aI2
aI2
aI2
aI2
aI2
aI2
aI2
aI2
aI2
aI2
aI3
aI3
aI3
aI3
aI3
aI3
aI3
aI3
aI4
aI4
aI5
aI5
aI5
aI5
aI5
aI5
aI6
aI6
aI6
aI6
aI6
aI6
aI6
aI6
aI6
aI6
aI6
aI6
aI6
aI6
aI6
aI6
asS'x'
p11
(lp12
I0
aI10
aI20
aI30
aI40
aI50
aI60
aI70
aI80
aI90
aI100
aI110
aI120
aI130
aI140
aI150
aI160
aI170
aI180
aI190
aI200
aI210
aI220
aI230
aI240
aI250
aI260
aI270
aI280
aI290
aI300
aI310
aI320
aI330
aI340
aI350
aI360
aI370
aI380
aI390
aI400
aI410
aI420
aI430
aI440
aI450
aI460
aI470
aI480
aI490
aI500
aI510
aI520
aI530
aI540
aI550
aI560
aI570
aI580
aI590
aI600
aI610
aI620
aI630
aI640
aI650
aI660
aI670
aI680
aI690
aI700
aI710
aI720
aI730
aI740
aI750
aI760
aI770
aI780
aI790
aI800
aI810
aI820
aI830
aI840
aI850
aI860
aI870
aI880
aI890
as.