(dp0
S'K_all3.csv'
p1
(dp2
S'machine'
p3
(dp4
S'count'
p5
I614
sS'truepos'
p6
I38
sS'falseneg'
p7
I0
sS'correction'
p8
I5
sS'unknownyes'
p9
I7
sS'falsepos'
p10
I3
sS'unique'
p11
I400
ssS'knee'
p12
(dp13
g5
I311
sg6
I30
sg7
I1
sg8
I1
sg9
I14
sg10
I1
sg11
I190
ssS'none'
p14
(dp15
g5
I500
sg6
I35
sg7
I4
sg8
I0
sg9
I6
sg10
I0
sg11
I500
ssS'three'
p16
(dp17
g5
I804
sg6
I38
sg7
I0
sg8
I4
sg9
I7
sg10
I0
sg11
I400
sssS'Wahono.csv'
p18
(dp19
g3
(dp20
g5
I1767
sg6
I57
sg7
I2
sg8
I3
sg9
I3
sg10
I2
sg11
I1180
ssg12
(dp21
g5
I24
sg6
I6
sg7
I0
sg8
I0
sg9
I56
sg10
I0
sg11
I20
ssg14
(dp22
g5
I1180
sg6
I54
sg7
I6
sg8
I0
sg9
I2
sg10
I0
sg11
I1180
ssg16
(dp23
g5
I2049
sg6
I58
sg7
I1
sg8
I9
sg9
I3
sg10
I0
sg11
I1020
sssS'Hall.csv'
p24
(dp25
g3
(dp26
g5
I623
sg6
I100
sg7
I1
sg8
I7
sg9
I5
sg10
I0
sg11
I460
ssg12
(dp27
g5
I598
sg6
I100
sg7
I1
sg8
I8
sg9
I5
sg10
I0
sg11
I420
ssg14
(dp28
g5
I690
sg6
I91
sg7
I11
sg8
I0
sg9
I4
sg10
I0
sg11
I690
ssg16
(dp29
g5
I1073
sg6
I101
sg7
I1
sg8
I13
sg9
I4
sg10
I0
sg11
I530
sssS'Danijel.csv'
p30
(dp31
g3
(dp32
g5
I1275
sg6
I46
sg7
I0
sg8
I2
sg9
I2
sg10
I0
sg11
I770
ssg12
(dp33
g5
I617
sg6
I43
sg7
I0
sg8
I2
sg9
I5
sg10
I1
sg11
I420
ssg14
(dp34
g5
I800
sg6
I38
sg7
I8
sg8
I0
sg9
I2
sg10
I0
sg11
I800
ssg16
(dp35
g5
I1546
sg6
I45
sg7
I0
sg8
I6
sg9
I3
sg10
I0
sg11
I770
sss.(dp0
S'K_all3.csv'
p1
(dp2
S'machine'
p3
(dp4
S'count'
p5
I576
sS'truepos'
p6
I37
sS'falseneg'
p7
I0
sS'correction'
p8
I2
sS'unknownyes'
p9
I8
sS'falsepos'
p10
I1
sS'unique'
p11
I370
ssS'knee'
p12
(dp13
g5
I894
sg6
I38
sg7
I2
sg8
I5
sg9
I5
sg10
I0
sg11
I710
ssS'none'
p14
(dp15
g5
I520
sg6
I34
sg7
I4
sg8
I0
sg9
I7
sg10
I1
sg11
I520
ssS'three'
p16
(dp17
g5
I968
sg6
I38
sg7
I1
sg8
I8
sg9
I6
sg10
I0
sg11
I480
sssS'Wahono.csv'
p18
(dp19
g3
(dp20
g5
I1740
sg6
I58
sg7
I1
sg8
I7
sg9
I3
sg10
I3
sg11
I1160
ssg12
(dp21
g5
I46
sg6
I8
sg7
I0
sg8
I0
sg9
I54
sg10
I0
sg11
I40
ssg14
(dp22
g5
I1380
sg6
I50
sg7
I9
sg8
I0
sg9
I3
sg10
I1
sg11
I1380
ssg16
(dp23
g5
I2050
sg6
I57
sg7
I2
sg8
I10
sg9
I3
sg10
I0
sg11
I1020
sssS'Hall.csv'
p24
(dp25
g3
(dp26
g5
I551
sg6
I98
sg7
I1
sg8
I13
sg9
I7
sg10
I0
sg11
I390
ssg12
(dp27
g5
I512
sg6
I96
sg7
I4
sg8
I8
sg9
I6
sg10
I0
sg11
I350
ssg14
(dp28
g5
I550
sg6
I91
sg7
I11
sg8
I0
sg9
I4
sg10
I0
sg11
I550
ssg16
(dp29
g5
I1098
sg6
I96
sg7
I6
sg8
I18
sg9
I4
sg10
I0
sg11
I540
sssS'Danijel.csv'
p30
(dp31
g3
(dp32
g5
I1264
sg6
I44
sg7
I1
sg8
I1
sg9
I3
sg10
I1
sg11
I780
ssg12
(dp33
g5
I664
sg6
I42
sg7
I1
sg8
I2
sg9
I5
sg10
I0
sg11
I500
ssg14
(dp34
g5
I870
sg6
I43
sg7
I1
sg8
I0
sg9
I4
sg10
I0
sg11
I870
ssg16
(dp35
g5
I1390
sg6
I44
sg7
I1
sg8
I10
sg9
I3
sg10
I0
sg11
I690
sss.(dp0
S'K_all3.csv'
p1
(dp2
S'machine'
p3
(dp4
S'count'
p5
I602
sS'truepos'
p6
I36
sS'falseneg'
p7
I0
sS'correction'
p8
I2
sS'unknownyes'
p9
I9
sS'falsepos'
p10
I2
sS'unique'
p11
I380
ssS'knee'
p12
(dp13
g5
I681
sg6
I32
sg7
I3
sg8
I5
sg9
I10
sg10
I0
sg11
I490
ssS'none'
p14
(dp15
g5
I420
sg6
I35
sg7
I2
sg8
I0
sg9
I8
sg10
I3
sg11
I420
ssS'three'
p16
(dp17
g5
I913
sg6
I38
sg7
I1
sg8
I13
sg9
I6
sg10
I0
sg11
I450
sssS'Wahono.csv'
p18
(dp19
g3
(dp20
g5
I1858
sg6
I58
sg7
I2
sg8
I6
sg9
I2
sg10
I2
sg11
I1240
ssg12
(dp21
g5
I24
sg6
I6
sg7
I0
sg8
I0
sg9
I56
sg10
I0
sg11
I20
ssg14
(dp22
g5
I1240
sg6
I53
sg7
I6
sg8
I0
sg9
I3
sg10
I4
sg11
I1240
ssg16
(dp23
g5
I2348
sg6
I59
sg7
I0
sg8
I8
sg9
I3
sg10
I0
sg11
I1170
sssS'Hall.csv'
p24
(dp25
g3
(dp26
g5
I680
sg6
I99
sg7
I3
sg8
I12
sg9
I4
sg10
I1
sg11
I490
ssg12
(dp27
g5
I635
sg6
I94
sg7
I8
sg8
I12
sg9
I4
sg10
I0
sg11
I460
ssg14
(dp28
g5
I620
sg6
I92
sg7
I10
sg8
I0
sg9
I4
sg10
I0
sg11
I620
ssg16
(dp29
g5
I899
sg6
I99
sg7
I2
sg8
I18
sg9
I5
sg10
I0
sg11
I440
sssS'Danijel.csv'
p30
(dp31
g3
(dp32
g5
I1243
sg6
I45
sg7
I0
sg8
I6
sg9
I3
sg10
I0
sg11
I740
ssg12
(dp33
g5
I543
sg6
I39
sg7
I3
sg8
I2
sg9
I6
sg10
I0
sg11
I390
ssg14
(dp34
g5
I680
sg6
I43
sg7
I2
sg8
I0
sg9
I3
sg10
I1
sg11
I680
ssg16
(dp35
g5
I1588
sg6
I42
sg7
I3
sg8
I8
sg9
I3
sg10
I0
sg11
I790
sss.(dp0
S'K_all3.csv'
p1
(dp2
S'machine'
p3
(dp4
S'count'
p5
I552
sS'truepos'
p6
I34
sS'falseneg'
p7
I2
sS'correction'
p8
I0
sS'unknownyes'
p9
I9
sS'falsepos'
p10
I0
sS'unique'
p11
I380
ssS'knee'
p12
(dp13
g5
I539
sg6
I35
sg7
I3
sg8
I1
sg9
I7
sg10
I0
sg11
I450
ssS'none'
p14
(dp15
g5
I440
sg6
I37
sg7
I2
sg8
I0
sg9
I6
sg10
I1
sg11
I440
ssS'three'
p16
(dp17
g5
I789
sg6
I38
sg7
I0
sg8
I9
sg9
I7
sg10
I0
sg11
I390
sssS'Wahono.csv'
p18
(dp19
g3
(dp20
g5
I1706
sg6
I58
sg7
I1
sg8
I8
sg9
I3
sg10
I2
sg11
I1100
ssg12
(dp21
g5
I1089
sg6
I52
sg7
I5
sg8
I6
sg9
I5
sg10
I1
sg11
I790
ssg14
(dp22
g5
I1210
sg6
I56
sg7
I3
sg8
I0
sg9
I3
sg10
I3
sg11
I1210
ssg16
(dp23
g5
I2177
sg6
I57
sg7
I3
sg8
I17
sg9
I2
sg10
I0
sg11
I1080
sssS'Hall.csv'
p24
(dp25
g3
(dp26
g5
I633
sg6
I99
sg7
I3
sg8
I9
sg9
I4
sg10
I1
sg11
I450
ssg12
(dp27
g5
I506
sg6
I97
sg7
I2
sg8
I5
sg9
I7
sg10
I0
sg11
I360
ssg14
(dp28
g5
I590
sg6
I88
sg7
I14
sg8
I0
sg9
I4
sg10
I0
sg11
I590
ssg16
(dp29
g5
I1020
sg6
I101
sg7
I1
sg8
I20
sg9
I4
sg10
I0
sg11
I500
sssS'Danijel.csv'
p30
(dp31
g3
(dp32
g5
I1234
sg6
I46
sg7
I0
sg8
I3
sg9
I2
sg10
I2
sg11
I770
ssg12
(dp33
g5
I569
sg6
I42
sg7
I0
sg8
I1
sg9
I6
sg10
I0
sg11
I400
ssg14
(dp34
g5
I820
sg6
I44
sg7
I1
sg8
I0
sg9
I3
sg10
I1
sg11
I820
ssg16
(dp35
g5
I1613
sg6
I44
sg7
I1
sg8
I13
sg9
I3
sg10
I0
sg11
I800
sss.(dp0
S'K_all3.csv'
p1
(dp2
S'machine'
p3
(dp4
S'count'
p5
I607
sS'truepos'
p6
I37
sS'falseneg'
p7
I1
sS'correction'
p8
I3
sS'unknownyes'
p9
I7
sS'falsepos'
p10
I1
sS'unique'
p11
I410
ssS'knee'
p12
(dp13
g5
I71
sg6
I9
sg7
I2
sg8
I0
sg9
I34
sg10
I0
sg11
I50
ssS'none'
p14
(dp15
g5
I400
sg6
I36
sg7
I2
sg8
I0
sg9
I7
sg10
I2
sg11
I400
ssS'three'
p16
(dp17
g5
I1071
sg6
I37
sg7
I2
sg8
I11
sg9
I6
sg10
I0
sg11
I530
sssS'Wahono.csv'
p18
(dp19
g3
(dp20
g5
I1909
sg6
I58
sg7
I2
sg8
I3
sg9
I2
sg10
I2
sg11
I1300
ssg12
(dp21
g5
I24
sg6
I6
sg7
I0
sg8
I0
sg9
I56
sg10
I0
sg11
I20
ssg14
(dp22
g5
I1190
sg6
I50
sg7
I9
sg8
I0
sg9
I3
sg10
I1
sg11
I1190
ssg16
(dp23
g5
I2413
sg6
I57
sg7
I2
sg8
I11
sg9
I3
sg10
I0
sg11
I1200
sssS'Hall.csv'
p24
(dp25
g3
(dp26
g5
I723
sg6
I102
sg7
I0
sg8
I12
sg9
I4
sg10
I2
sg11
I520
ssg12
(dp27
g5
I660
sg6
I102
sg7
I0
sg8
I8
sg9
I4
sg10
I0
sg11
I480
ssg14
(dp28
g5
I560
sg6
I85
sg7
I17
sg8
I0
sg9
I4
sg10
I3
sg11
I560
ssg16
(dp29
g5
I1228
sg6
I97
sg7
I5
sg8
I28
sg9
I4
sg10
I0
sg11
I600
sssS'Danijel.csv'
p30
(dp31
g3
(dp32
g5
I1223
sg6
I45
sg7
I0
sg8
I2
sg9
I3
sg10
I1
sg11
I760
ssg12
(dp33
g5
I102
sg6
I9
sg7
I0
sg8
I1
sg9
I39
sg10
I0
sg11
I70
ssg14
(dp34
g5
I750
sg6
I42
sg7
I3
sg8
I0
sg9
I3
sg10
I0
sg11
I750
ssg16
(dp35
g5
I1610
sg6
I45
sg7
I1
sg8
I10
sg9
I2
sg10
I0
sg11
I800
sss.(dp0
S'K_all3.csv'
p1
(dp2
S'machine'
p3
(dp4
S'count'
p5
I611
sS'truepos'
p6
I35
sS'falseneg'
p7
I3
sS'correction'
p8
I2
sS'unknownyes'
p9
I7
sS'falsepos'
p10
I3
sS'unique'
p11
I410
ssS'knee'
p12
(dp13
g5
I320
sg6
I27
sg7
I2
sg8
I2
sg9
I16
sg10
I1
sg11
I230
ssS'none'
p14
(dp15
g5
I430
sg6
I36
sg7
I2
sg8
I0
sg9
I7
sg10
I2
sg11
I430
ssS'three'
p16
(dp17
g5
I842
sg6
I38
sg7
I1
sg8
I2
sg9
I6
sg10
I0
sg11
I420
sssS'Wahono.csv'
p18
(dp19
g3
(dp20
g5
I1743
sg6
I59
sg7
I0
sg8
I4
sg9
I3
sg10
I2
sg11
I1190
ssg12
(dp21
g5
I1049
sg6
I50
sg7
I9
sg8
I2
sg9
I3
sg10
I0
sg11
I890
ssg14
(dp22
g5
I1160
sg6
I57
sg7
I2
sg8
I0
sg9
I3
sg10
I1
sg11
I1160
ssg16
(dp23
g5
I2273
sg6
I59
sg7
I0
sg8
I13
sg9
I3
sg10
I0
sg11
I1130
sssS'Hall.csv'
p24
(dp25
g3
(dp26
g5
I674
sg6
I102
sg7
I0
sg8
I6
sg9
I4
sg10
I1
sg11
I490
ssg12
(dp27
g5
I555
sg6
I98
sg7
I3
sg8
I10
sg9
I5
sg10
I0
sg11
I390
ssg14
(dp28
g5
I560
sg6
I90
sg7
I12
sg8
I0
sg9
I4
sg10
I1
sg11
I560
ssg16
(dp29
g5
I1008
sg6
I96
sg7
I6
sg8
I24
sg9
I4
sg10
I0
sg11
I490
sssS'Danijel.csv'
p30
(dp31
g3
(dp32
g5
I1057
sg6
I46
sg7
I0
sg8
I6
sg9
I2
sg10
I0
sg11
I620
ssg12
(dp33
g5
I704
sg6
I41
sg7
I0
sg8
I3
sg9
I7
sg10
I0
sg11
I470
ssg14
(dp34
g5
I810
sg6
I42
sg7
I3
sg8
I0
sg9
I3
sg10
I0
sg11
I810
ssg16
(dp35
g5
I1571
sg6
I44
sg7
I1
sg8
I10
sg9
I3
sg10
I0
sg11
I780
sss.(dp0
S'K_all3.csv'
p1
(dp2
S'machine'
p3
(dp4
S'count'
p5
I633
sS'truepos'
p6
I36
sS'falseneg'
p7
I1
sS'correction'
p8
I4
sS'unknownyes'
p9
I8
sS'falsepos'
p10
I2
sS'unique'
p11
I420
ssS'knee'
p12
(dp13
g5
I604
sg6
I33
sg7
I3
sg8
I2
sg9
I9
sg10
I2
sg11
I420
ssS'none'
p14
(dp15
g5
I470
sg6
I38
sg7
I2
sg8
I0
sg9
I5
sg10
I2
sg11
I470
ssS'three'
p16
(dp17
g5
I1014
sg6
I37
sg7
I1
sg8
I13
sg9
I7
sg10
I0
sg11
I500
sssS'Wahono.csv'
p18
(dp19
g3
(dp20
g5
I1767
sg6
I60
sg7
I0
sg8
I4
sg9
I2
sg10
I1
sg11
I1240
ssg12
(dp21
g5
I24
sg6
I6
sg7
I1
sg8
I0
sg9
I55
sg10
I0
sg11
I20
ssg14
(dp22
g5
I1610
sg6
I52
sg7
I9
sg8
I0
sg9
I1
sg10
I1
sg11
I1610
ssg16
(dp23
g5
I2391
sg6
I57
sg7
I2
sg8
I11
sg9
I3
sg10
I0
sg11
I1190
sssS'Hall.csv'
p24
(dp25
g3
(dp26
g5
I668
sg6
I102
sg7
I0
sg8
I8
sg9
I4
sg10
I2
sg11
I500
ssg12
(dp27
g5
I569
sg6
I100
sg7
I2
sg8
I9
sg9
I4
sg10
I0
sg11
I420
ssg14
(dp28
g5
I550
sg6
I89
sg7
I13
sg8
I0
sg9
I4
sg10
I1
sg11
I550
ssg16
(dp29
g5
I862
sg6
I97
sg7
I2
sg8
I22
sg9
I7
sg10
I0
sg11
I420
sssS'Danijel.csv'
p30
(dp31
g3
(dp32
g5
I1149
sg6
I44
sg7
I1
sg8
I4
sg9
I3
sg10
I1
sg11
I700
ssg12
(dp33
g5
I47
sg6
I5
sg7
I1
sg8
I0
sg9
I42
sg10
I0
sg11
I40
ssg14
(dp34
g5
I730
sg6
I43
sg7
I3
sg8
I0
sg9
I2
sg10
I0
sg11
I730
ssg16
(dp35
g5
I1431
sg6
I44
sg7
I1
sg8
I11
sg9
I3
sg10
I0
sg11
I710
sss.(dp0
S'K_all3.csv'
p1
(dp2
S'machine'
p3
(dp4
S'count'
p5
I552
sS'truepos'
p6
I37
sS'falseneg'
p7
I1
sS'correction'
p8
I1
sS'unknownyes'
p9
I7
sS'falsepos'
p10
I1
sS'unique'
p11
I370
ssS'knee'
p12
(dp13
g5
I227
sg6
I25
sg7
I0
sg8
I2
sg9
I20
sg10
I1
sg11
I140
ssS'none'
p14
(dp15
g5
I480
sg6
I32
sg7
I8
sg8
I0
sg9
I5
sg10
I1
sg11
I480
ssS'three'
p16
(dp17
g5
I811
sg6
I38
sg7
I0
sg8
I11
sg9
I7
sg10
I0
sg11
I400
sssS'Wahono.csv'
p18
(dp19
g3
(dp20
g5
I1741
sg6
I59
sg7
I1
sg8
I2
sg9
I2
sg10
I1
sg11
I1140
ssg12
(dp21
g5
I892
sg6
I50
sg7
I5
sg8
I2
sg9
I7
sg10
I0
sg11
I630
ssg14
(dp22
g5
I1270
sg6
I51
sg7
I8
sg8
I0
sg9
I3
sg10
I0
sg11
I1270
ssg16
(dp23
g5
I2208
sg6
I58
sg7
I1
sg8
I8
sg9
I3
sg10
I0
sg11
I1100
sssS'Hall.csv'
p24
(dp25
g3
(dp26
g5
I705
sg6
I102
sg7
I0
sg8
I10
sg9
I4
sg10
I0
sg11
I520
ssg12
(dp27
g5
I622
sg6
I99
sg7
I2
sg8
I10
sg9
I5
sg10
I0
sg11
I430
ssg14
(dp28
g5
I570
sg6
I91
sg7
I11
sg8
I0
sg9
I4
sg10
I0
sg11
I570
ssg16
(dp29
g5
I1260
sg6
I95
sg7
I7
sg8
I18
sg9
I4
sg10
I0
sg11
I620
sssS'Danijel.csv'
p30
(dp31
g3
(dp32
g5
I1409
sg6
I46
sg7
I0
sg8
I4
sg9
I2
sg10
I3
sg11
I860
ssg12
(dp33
g5
I518
sg6
I39
sg7
I2
sg8
I3
sg9
I7
sg10
I0
sg11
I350
ssg14
(dp34
g5
I800
sg6
I40
sg7
I5
sg8
I0
sg9
I3
sg10
I1
sg11
I800
ssg16
(dp35
g5
I1414
sg6
I44
sg7
I1
sg8
I13
sg9
I3
sg10
I0
sg11
I700
sss.(dp0
S'K_all3.csv'
p1
(dp2
S'machine'
p3
(dp4
S'count'
p5
I710
sS'truepos'
p6
I36
sS'falseneg'
p7
I2
sS'correction'
p8
I2
sS'unknownyes'
p9
I7
sS'falsepos'
p10
I0
sS'unique'
p11
I490
ssS'knee'
p12
(dp13
g5
I947
sg6
I42
sg7
I1
sg8
I3
sg9
I2
sg10
I1
sg11
I780
ssS'none'
p14
(dp15
g5
I530
sg6
I35
sg7
I5
sg8
I0
sg9
I5
sg10
I1
sg11
I530
ssS'three'
p16
(dp17
g5
I1026
sg6
I37
sg7
I2
sg8
I5
sg9
I6
sg10
I0
sg11
I510
sssS'Wahono.csv'
p18
(dp19
g3
(dp20
g5
I1738
sg6
I58
sg7
I1
sg8
I4
sg9
I3
sg10
I0
sg11
I1220
ssg12
(dp21
g5
I736
sg6
I49
sg7
I1
sg8
I5
sg9
I12
sg10
I0
sg11
I520
ssg14
(dp22
g5
I1190
sg6
I56
sg7
I4
sg8
I0
sg9
I2
sg10
I4
sg11
I1190
ssg16
(dp23
g5
I2273
sg6
I58
sg7
I1
sg8
I13
sg9
I3
sg10
I0
sg11
I1130
sssS'Hall.csv'
p24
(dp25
g3
(dp26
g5
I567
sg6
I98
sg7
I1
sg8
I6
sg9
I7
sg10
I0
sg11
I400
ssg12
(dp27
g5
I658
sg6
I97
sg7
I5
sg8
I12
sg9
I4
sg10
I0
sg11
I490
ssg14
(dp28
g5
I520
sg6
I91
sg7
I11
sg8
I0
sg9
I4
sg10
I1
sg11
I520
ssg16
(dp29
g5
I960
sg6
I101
sg7
I1
sg8
I20
sg9
I4
sg10
I0
sg11
I470
sssS'Danijel.csv'
p30
(dp31
g3
(dp32
g5
I1188
sg6
I45
sg7
I0
sg8
I7
sg9
I3
sg10
I4
sg11
I710
ssg12
(dp33
g5
I616
sg6
I42
sg7
I1
sg8
I4
sg9
I5
sg10
I0
sg11
I460
ssg14
(dp34
g5
I740
sg6
I42
sg7
I4
sg8
I0
sg9
I2
sg10
I1
sg11
I740
ssg16
(dp35
g5
I1471
sg6
I45
sg7
I0
sg8
I11
sg9
I3
sg10
I0
sg11
I730
sss.(dp0
S'K_all3.csv'
p1
(dp2
S'machine'
p3
(dp4
S'count'
p5
I737
sS'truepos'
p6
I35
sS'falseneg'
p7
I4
sS'correction'
p8
I3
sS'unknownyes'
p9
I6
sS'falsepos'
p10
I3
sS'unique'
p11
I500
ssS'knee'
p12
(dp13
g5
I946
sg6
I42
sg7
I1
sg8
I6
sg9
I2
sg10
I3
sg11
I780
ssS'none'
p14
(dp15
g5
I470
sg6
I36
sg7
I2
sg8
I0
sg9
I7
sg10
I2
sg11
I470
ssS'three'
p16
(dp17
g5
I946
sg6
I38
sg7
I1
sg8
I6
sg9
I6
sg10
I0
sg11
I470
sssS'Wahono.csv'
p18
(dp19
g3
(dp20
g5
I1741
sg6
I59
sg7
I0
sg8
I10
sg9
I3
sg10
I2
sg11
I1170
ssg12
(dp21
g5
I24
sg6
I6
sg7
I0
sg8
I0
sg9
I56
sg10
I0
sg11
I20
ssg14
(dp22
g5
I1200
sg6
I57
sg7
I2
sg8
I0
sg9
I3
sg10
I1
sg11
I1200
ssg16
(dp23
g5
I2438
sg6
I58
sg7
I1
sg8
I18
sg9
I3
sg10
I0
sg11
I1210
sssS'Hall.csv'
p24
(dp25
g3
(dp26
g5
I721
sg6
I98
sg7
I4
sg8
I6
sg9
I4
sg10
I1
sg11
I550
ssg12
(dp27
g5
I561
sg6
I98
sg7
I3
sg8
I10
sg9
I5
sg10
I0
sg11
I390
ssg14
(dp28
g5
I560
sg6
I93
sg7
I9
sg8
I0
sg9
I4
sg10
I0
sg11
I560
ssg16
(dp29
g5
I941
sg6
I100
sg7
I1
sg8
I21
sg9
I5
sg10
I0
sg11
I460
sssS'Danijel.csv'
p30
(dp31
g3
(dp32
g5
I1160
sg6
I44
sg7
I1
sg8
I3
sg9
I3
sg10
I0
sg11
I770
ssg12
(dp33
g5
I931
sg6
I43
sg7
I2
sg8
I7
sg9
I3
sg10
I0
sg11
I660
ssg14
(dp34
g5
I770
sg6
I42
sg7
I3
sg8
I0
sg9
I3
sg10
I1
sg11
I770
ssg16
(dp35
g5
I1571
sg6
I41
sg7
I4
sg8
I9
sg9
I3
sg10
I0
sg11
I780
sss.(dp0
S'K_all3.csv'
p1
(dp2
S'machine'
p3
(dp4
S'count'
p5
I696
sS'truepos'
p6
I37
sS'falseneg'
p7
I1
sS'correction'
p8
I2
sS'unknownyes'
p9
I7
sS'falsepos'
p10
I1
sS'unique'
p11
I470
ssS'knee'
p12
(dp13
g5
I86
sg6
I14
sg7
I0
sg8
I0
sg9
I31
sg10
I0
sg11
I60
ssS'none'
p14
(dp15
g5
I610
sg6
I34
sg7
I7
sg8
I0
sg9
I4
sg10
I0
sg11
I610
ssS'three'
p16
(dp17
g5
I912
sg6
I38
sg7
I1
sg8
I12
sg9
I6
sg10
I0
sg11
I450
sssS'Wahono.csv'
p18
(dp19
g3
(dp20
g5
I1738
sg6
I59
sg7
I0
sg8
I1
sg9
I3
sg10
I0
sg11
I1190
ssg12
(dp21
g5
I35
sg6
I7
sg7
I0
sg8
I0
sg9
I55
sg10
I0
sg11
I30
ssg14
(dp22
g5
I1000
sg6
I55
sg7
I4
sg8
I0
sg9
I3
sg10
I3
sg11
I1000
ssg16
(dp23
g5
I2393
sg6
I55
sg7
I4
sg8
I11
sg9
I3
sg10
I0
sg11
I1190
sssS'Hall.csv'
p24
(dp25
g3
(dp26
g5
I637
sg6
I102
sg7
I0
sg8
I6
sg9
I4
sg10
I0
sg11
I460
ssg12
(dp27
g5
I645
sg6
I100
sg7
I2
sg8
I7
sg9
I4
sg10
I0
sg11
I440
ssg14
(dp28
g5
I970
sg6
I87
sg7
I16
sg8
I0
sg9
I3
sg10
I2
sg11
I970
ssg16
(dp29
g5
I1003
sg6
I97
sg7
I5
sg8
I22
sg9
I4
sg10
I0
sg11
I490
sssS'Danijel.csv'
p30
(dp31
g3
(dp32
g5
I1231
sg6
I45
sg7
I0
sg8
I5
sg9
I3
sg10
I2
sg11
I790
ssg12
(dp33
g5
I901
sg6
I40
sg7
I4
sg8
I6
sg9
I4
sg10
I0
sg11
I620
ssg14
(dp34
g5
I790
sg6
I40
sg7
I4
sg8
I0
sg9
I4
sg10
I0
sg11
I790
ssg16
(dp35
g5
I1473
sg6
I42
sg7
I4
sg8
I12
sg9
I2
sg10
I0
sg11
I730
sss.(dp0
S'K_all3.csv'
p1
(dp2
S'machine'
p3
(dp4
S'count'
p5
I622
sS'truepos'
p6
I36
sS'falseneg'
p7
I1
sS'correction'
p8
I1
sS'unknownyes'
p9
I8
sS'falsepos'
p10
I4
sS'unique'
p11
I420
ssS'knee'
p12
(dp13
g5
I521
sg6
I35
sg7
I4
sg8
I0
sg9
I6
sg10
I1
sg11
I410
ssS'none'
p14
(dp15
g5
I510
sg6
I36
sg7
I2
sg8
I0
sg9
I7
sg10
I1
sg11
I510
ssS'three'
p16
(dp17
g5
I771
sg6
I38
sg7
I0
sg8
I11
sg9
I7
sg10
I0
sg11
I380
sssS'Wahono.csv'
p18
(dp19
g3
(dp20
g5
I1665
sg6
I60
sg7
I0
sg8
I5
sg9
I2
sg10
I1
sg11
I1160
ssg12
(dp21
g5
I1044
sg6
I57
sg7
I1
sg8
I5
sg9
I4
sg10
I1
sg11
I820
ssg14
(dp22
g5
I1240
sg6
I56
sg7
I4
sg8
I0
sg9
I2
sg10
I0
sg11
I1240
ssg16
(dp23
g5
I2317
sg6
I58
sg7
I1
sg8
I17
sg9
I3
sg10
I0
sg11
I1150
sssS'Hall.csv'
p24
(dp25
g3
(dp26
g5
I668
sg6
I99
sg7
I3
sg8
I11
sg9
I4
sg10
I1
sg11
I490
ssg12
(dp27
g5
I654
sg6
I101
sg7
I1
sg8
I17
sg9
I4
sg10
I0
sg11
I470
ssg14
(dp28
g5
I450
sg6
I86
sg7
I15
sg8
I0
sg9
I5
sg10
I0
sg11
I450
ssg16
(dp29
g5
I940
sg6
I96
sg7
I6
sg8
I20
sg9
I4
sg10
I0
sg11
I460
sssS'Danijel.csv'
p30
(dp31
g3
(dp32
g5
I1203
sg6
I44
sg7
I1
sg8
I3
sg9
I3
sg10
I0
sg11
I740
ssg12
(dp33
g5
I680
sg6
I41
sg7
I2
sg8
I5
sg9
I5
sg10
I1
sg11
I530
ssg14
(dp34
g5
I790
sg6
I42
sg7
I3
sg8
I0
sg9
I3
sg10
I1
sg11
I790
ssg16
(dp35
g5
I1554
sg6
I43
sg7
I2
sg8
I14
sg9
I3
sg10
I0
sg11
I770
sss.(dp0
S'K_all3.csv'
p1
(dp2
S'machine'
p3
(dp4
S'count'
p5
I675
sS'truepos'
p6
I36
sS'falseneg'
p7
I1
sS'correction'
p8
I3
sS'unknownyes'
p9
I8
sS'falsepos'
p10
I2
sS'unique'
p11
I430
ssS'knee'
p12
(dp13
g5
I286
sg6
I25
sg7
I1
sg8
I1
sg9
I19
sg10
I0
sg11
I180
ssS'none'
p14
(dp15
g5
I510
sg6
I36
sg7
I4
sg8
I0
sg9
I5
sg10
I2
sg11
I510
ssS'three'
p16
(dp17
g5
I1046
sg6
I37
sg7
I1
sg8
I6
sg9
I7
sg10
I0
sg11
I520
sssS'Wahono.csv'
p18
(dp19
g3
(dp20
g5
I1910
sg6
I61
sg7
I0
sg8
I2
sg9
I1
sg10
I3
sg11
I1270
ssg12
(dp21
g5
I978
sg6
I54
sg7
I4
sg8
I7
sg9
I4
sg10
I0
sg11
I710
ssg14
(dp22
g5
I1200
sg6
I56
sg7
I4
sg8
I0
sg9
I2
sg10
I1
sg11
I1200
ssg16
(dp23
g5
I2315
sg6
I58
sg7
I1
sg8
I15
sg9
I3
sg10
I0
sg11
I1150
sssS'Hall.csv'
p24
(dp25
g3
(dp26
g5
I613
sg6
I99
sg7
I2
sg8
I10
sg9
I5
sg10
I0
sg11
I430
ssg12
(dp27
g5
I555
sg6
I100
sg7
I1
sg8
I7
sg9
I5
sg10
I0
sg11
I400
ssg14
(dp28
g5
I630
sg6
I87
sg7
I15
sg8
I0
sg9
I4
sg10
I0
sg11
I630
ssg16
(dp29
g5
I999
sg6
I98
sg7
I3
sg8
I19
sg9
I5
sg10
I0
sg11
I490
sssS'Danijel.csv'
p30
(dp31
g3
(dp32
g5
I1263
sg6
I45
sg7
I0
sg8
I8
sg9
I3
sg10
I0
sg11
I780
ssg12
(dp33
g5
I36
sg6
I4
sg7
I2
sg8
I0
sg9
I42
sg10
I0
sg11
I30
ssg14
(dp34
g5
I800
sg6
I43
sg7
I3
sg8
I0
sg9
I2
sg10
I0
sg11
I800
ssg16
(dp35
g5
I1551
sg6
I45
sg7
I0
sg8
I11
sg9
I3
sg10
I0
sg11
I770
sss.(dp0
S'K_all3.csv'
p1
(dp2
S'machine'
p3
(dp4
S'count'
p5
I679
sS'truepos'
p6
I36
sS'falseneg'
p7
I1
sS'correction'
p8
I3
sS'unknownyes'
p9
I8
sS'falsepos'
p10
I2
sS'unique'
p11
I450
ssS'knee'
p12
(dp13
g5
I288
sg6
I27
sg7
I1
sg8
I3
sg9
I17
sg10
I0
sg11
I190
ssS'none'
p14
(dp15
g5
I460
sg6
I35
sg7
I4
sg8
I0
sg9
I6
sg10
I0
sg11
I460
ssS'three'
p16
(dp17
g5
I1036
sg6
I36
sg7
I3
sg8
I15
sg9
I6
sg10
I0
sg11
I510
sssS'Wahono.csv'
p18
(dp19
g3
(dp20
g5
I1501
sg6
I58
sg7
I1
sg8
I10
sg9
I3
sg10
I0
sg11
I1020
ssg12
(dp21
g5
I1154
sg6
I55
sg7
I4
sg8
I6
sg9
I3
sg10
I0
sg11
I890
ssg14
(dp22
g5
I1300
sg6
I55
sg7
I4
sg8
I0
sg9
I3
sg10
I2
sg11
I1300
ssg16
(dp23
g5
I2232
sg6
I58
sg7
I1
sg8
I12
sg9
I3
sg10
I0
sg11
I1110
sssS'Hall.csv'
p24
(dp25
g3
(dp26
g5
I734
sg6
I99
sg7
I3
sg8
I12
sg9
I4
sg10
I0
sg11
I530
ssg12
(dp27
g5
I509
sg6
I97
sg7
I4
sg8
I9
sg9
I5
sg10
I0
sg11
I370
ssg14
(dp28
g5
I680
sg6
I87
sg7
I15
sg8
I0
sg9
I4
sg10
I1
sg11
I680
ssg16
(dp29
g5
I998
sg6
I100
sg7
I2
sg8
I18
sg9
I4
sg10
I0
sg11
I490
sssS'Danijel.csv'
p30
(dp31
g3
(dp32
g5
I1235
sg6
I45
sg7
I0
sg8
I7
sg9
I3
sg10
I1
sg11
I760
ssg12
(dp33
g5
I849
sg6
I44
sg7
I1
sg8
I2
sg9
I3
sg10
I1
sg11
I600
ssg14
(dp34
g5
I860
sg6
I40
sg7
I5
sg8
I0
sg9
I3
sg10
I1
sg11
I860
ssg16
(dp35
g5
I1667
sg6
I43
sg7
I2
sg8
I5
sg9
I3
sg10
I0
sg11
I830
sss.(dp0
S'K_all3.csv'
p1
(dp2
S'machine'
p3
(dp4
S'count'
p5
I617
sS'truepos'
p6
I37
sS'falseneg'
p7
I0
sS'correction'
p8
I4
sS'unknownyes'
p9
I8
sS'falsepos'
p10
I1
sS'unique'
p11
I400
ssS'knee'
p12
(dp13
g5
I1096
sg6
I42
sg7
I0
sg8
I2
sg9
I3
sg10
I2
sg11
I740
ssS'none'
p14
(dp15
g5
I540
sg6
I33
sg7
I6
sg8
I0
sg9
I6
sg10
I2
sg11
I540
ssS'three'
p16
(dp17
g5
I773
sg6
I38
sg7
I0
sg8
I13
sg9
I7
sg10
I0
sg11
I380
sssS'Wahono.csv'
p18
(dp19
g3
(dp20
g5
I1672
sg6
I59
sg7
I0
sg8
I3
sg9
I3
sg10
I1
sg11
I1140
ssg12
(dp21
g5
I1013
sg6
I53
sg7
I4
sg8
I2
sg9
I5
sg10
I0
sg11
I780
ssg14
(dp22
g5
I1500
sg6
I56
sg7
I4
sg8
I0
sg9
I2
sg10
I0
sg11
I1500
ssg16
(dp23
g5
I2276
sg6
I57
sg7
I2
sg8
I16
sg9
I3
sg10
I0
sg11
I1130
sssS'Hall.csv'
p24
(dp25
g3
(dp26
g5
I659
sg6
I100
sg7
I2
sg8
I8
sg9
I4
sg10
I0
sg11
I470
ssg12
(dp27
g5
I577
sg6
I95
sg7
I6
sg8
I5
sg9
I5
sg10
I0
sg11
I390
ssg14
(dp28
g5
I540
sg6
I91
sg7
I11
sg8
I0
sg9
I4
sg10
I1
sg11
I540
ssg16
(dp29
g5
I894
sg6
I101
sg7
I0
sg8
I14
sg9
I5
sg10
I0
sg11
I440
sssS'Danijel.csv'
p30
(dp31
g3
(dp32
g5
I1218
sg6
I45
sg7
I0
sg8
I2
sg9
I3
sg10
I0
sg11
I760
ssg12
(dp33
g5
I693
sg6
I38
sg7
I5
sg8
I3
sg9
I5
sg10
I0
sg11
I490
ssg14
(dp34
g5
I840
sg6
I40
sg7
I5
sg8
I0
sg9
I3
sg10
I0
sg11
I840
ssg16
(dp35
g5
I1607
sg6
I43
sg7
I2
sg8
I6
sg9
I3
sg10
I0
sg11
I800
sss.(dp0
S'K_all3.csv'
p1
(dp2
S'machine'
p3
(dp4
S'count'
p5
I646
sS'truepos'
p6
I37
sS'falseneg'
p7
I1
sS'correction'
p8
I4
sS'unknownyes'
p9
I7
sS'falsepos'
p10
I1
sS'unique'
p11
I400
ssS'knee'
p12
(dp13
g5
I46
sg6
I5
sg7
I5
sg8
I0
sg9
I35
sg10
I0
sg11
I40
ssS'none'
p14
(dp15
g5
I510
sg6
I34
sg7
I4
sg8
I0
sg9
I7
sg10
I1
sg11
I510
ssS'three'
p16
(dp17
g5
I766
sg6
I38
sg7
I0
sg8
I6
sg9
I7
sg10
I0
sg11
I380
sssS'Wahono.csv'
p18
(dp19
g3
(dp20
g5
I1722
sg6
I58
sg7
I1
sg8
I7
sg9
I3
sg10
I2
sg11
I1120
ssg12
(dp21
g5
I1288
sg6
I55
sg7
I4
sg8
I5
sg9
I3
sg10
I1
sg11
I940
ssg14
(dp22
g5
I1470
sg6
I54
sg7
I6
sg8
I0
sg9
I2
sg10
I1
sg11
I1470
ssg16
(dp23
g5
I2365
sg6
I59
sg7
I0
sg8
I5
sg9
I3
sg10
I0
sg11
I1180
sssS'Hall.csv'
p24
(dp25
g3
(dp26
g5
I712
sg6
I101
sg7
I1
sg8
I14
sg9
I4
sg10
I0
sg11
I510
ssg12
(dp27
g5
I568
sg6
I100
sg7
I2
sg8
I7
sg9
I4
sg10
I0
sg11
I390
ssg14
(dp28
g5
I520
sg6
I88
sg7
I14
sg8
I0
sg9
I4
sg10
I0
sg11
I520
ssg16
(dp29
g5
I1122
sg6
I97
sg7
I5
sg8
I19
sg9
I4
sg10
I0
sg11
I550
sssS'Danijel.csv'
p30
(dp31
g3
(dp32
g5
I1040
sg6
I45
sg7
I0
sg8
I5
sg9
I3
sg10
I0
sg11
I620
ssg12
(dp33
g5
I575
sg6
I35
sg7
I7
sg8
I3
sg9
I6
sg10
I0
sg11
I470
ssg14
(dp34
g5
I790
sg6
I39
sg7
I6
sg8
I0
sg9
I3
sg10
I1
sg11
I790
ssg16
(dp35
g5
I1676
sg6
I42
sg7
I3
sg8
I15
sg9
I3
sg10
I0
sg11
I830
sss.(dp0
S'K_all3.csv'
p1
(dp2
S'machine'
p3
(dp4
S'count'
p5
I622
sS'truepos'
p6
I35
sS'falseneg'
p7
I2
sS'correction'
p8
I4
sS'unknownyes'
p9
I8
sS'falsepos'
p10
I4
sS'unique'
p11
I420
ssS'knee'
p12
(dp13
g5
I759
sg6
I37
sg7
I3
sg8
I3
sg9
I5
sg10
I0
sg11
I630
ssS'none'
p14
(dp15
g5
I540
sg6
I35
sg7
I4
sg8
I0
sg9
I6
sg10
I1
sg11
I540
ssS'three'
p16
(dp17
g5
I1034
sg6
I37
sg7
I2
sg8
I13
sg9
I6
sg10
I0
sg11
I510
sssS'Wahono.csv'
p18
(dp19
g3
(dp20
g5
I1704
sg6
I58
sg7
I1
sg8
I4
sg9
I3
sg10
I2
sg11
I1160
ssg12
(dp21
g5
I748
sg6
I50
sg7
I1
sg8
I4
sg9
I11
sg10
I0
sg11
I540
ssg14
(dp22
g5
I1500
sg6
I53
sg7
I6
sg8
I0
sg9
I3
sg10
I2
sg11
I1500
ssg16
(dp23
g5
I2408
sg6
I59
sg7
I0
sg8
I8
sg9
I3
sg10
I0
sg11
I1200
sssS'Hall.csv'
p24
(dp25
g3
(dp26
g5
I636
sg6
I100
sg7
I2
sg8
I9
sg9
I4
sg10
I1
sg11
I460
ssg12
(dp27
g5
I660
sg6
I96
sg7
I6
sg8
I6
sg9
I4
sg10
I1
sg11
I470
ssg14
(dp28
g5
I530
sg6
I97
sg7
I5
sg8
I0
sg9
I4
sg10
I0
sg11
I530
ssg16
(dp29
g5
I761
sg6
I97
sg7
I2
sg8
I20
sg9
I7
sg10
I0
sg11
I370
sssS'Danijel.csv'
p30
(dp31
g3
(dp32
g5
I1309
sg6
I44
sg7
I1
sg8
I3
sg9
I3
sg10
I2
sg11
I790
ssg12
(dp33
g5
I791
sg6
I43
sg7
I0
sg8
I6
sg9
I5
sg10
I0
sg11
I560
ssg14
(dp34
g5
I750
sg6
I40
sg7
I6
sg8
I0
sg9
I2
sg10
I0
sg11
I750
ssg16
(dp35
g5
I1587
sg6
I45
sg7
I0
sg8
I7
sg9
I3
sg10
I0
sg11
I790
sss.(dp0
S'K_all3.csv'
p1
(dp2
S'machine'
p3
(dp4
S'count'
p5
I658
sS'truepos'
p6
I37
sS'falseneg'
p7
I0
sS'correction'
p8
I4
sS'unknownyes'
p9
I8
sS'falsepos'
p10
I2
sS'unique'
p11
I430
ssS'knee'
p12
(dp13
g5
I584
sg6
I33
sg7
I3
sg8
I1
sg9
I9
sg10
I1
sg11
I460
ssS'none'
p14
(dp15
g5
I610
sg6
I33
sg7
I6
sg8
I0
sg9
I6
sg10
I2
sg11
I610
ssS'three'
p16
(dp17
g5
I846
sg6
I39
sg7
I0
sg8
I6
sg9
I6
sg10
I0
sg11
I420
sssS'Wahono.csv'
p18
(dp19
g3
(dp20
g5
I1851
sg6
I59
sg7
I0
sg8
I4
sg9
I3
sg10
I1
sg11
I1230
ssg12
(dp21
g5
I35
sg6
I6
sg7
I0
sg8
I1
sg9
I56
sg10
I0
sg11
I30
ssg14
(dp22
g5
I1430
sg6
I51
sg7
I8
sg8
I0
sg9
I3
sg10
I2
sg11
I1430
ssg16
(dp23
g5
I2795
sg6
I57
sg7
I3
sg8
I14
sg9
I2
sg10
I0
sg11
I1390
sssS'Hall.csv'
p24
(dp25
g3
(dp26
g5
I577
sg6
I99
sg7
I3
sg8
I7
sg9
I4
sg10
I1
sg11
I420
ssg12
(dp27
g5
I482
sg6
I98
sg7
I3
sg8
I8
sg9
I5
sg10
I0
sg11
I340
ssg14
(dp28
g5
I610
sg6
I89
sg7
I13
sg8
I0
sg9
I4
sg10
I0
sg11
I610
ssg16
(dp29
g5
I1038
sg6
I99
sg7
I3
sg8
I17
sg9
I4
sg10
I0
sg11
I510
sssS'Danijel.csv'
p30
(dp31
g3
(dp32
g5
I1208
sg6
I45
sg7
I0
sg8
I4
sg9
I3
sg10
I1
sg11
I740
ssg12
(dp33
g5
I793
sg6
I43
sg7
I1
sg8
I3
sg9
I4
sg10
I1
sg11
I520
ssg14
(dp34
g5
I820
sg6
I38
sg7
I8
sg8
I0
sg9
I2
sg10
I1
sg11
I820
ssg16
(dp35
g5
I1492
sg6
I43
sg7
I2
sg8
I11
sg9
I3
sg10
I0
sg11
I740
sss.(dp0
S'K_all3.csv'
p1
(dp2
S'machine'
p3
(dp4
S'count'
p5
I517
sS'truepos'
p6
I35
sS'falseneg'
p7
I1
sS'correction'
p8
I3
sS'unknownyes'
p9
I9
sS'falsepos'
p10
I3
sS'unique'
p11
I340
ssS'knee'
p12
(dp13
g5
I306
sg6
I27
sg7
I2
sg8
I0
sg9
I16
sg10
I1
sg11
I210
ssS'none'
p14
(dp15
g5
I530
sg6
I31
sg7
I8
sg8
I0
sg9
I6
sg10
I0
sg11
I530
ssS'three'
p16
(dp17
g5
I1170
sg6
I37
sg7
I3
sg8
I9
sg9
I5
sg10
I0
sg11
I580
sssS'Wahono.csv'
p18
(dp19
g3
(dp20
g5
I1733
sg6
I59
sg7
I0
sg8
I7
sg9
I3
sg10
I2
sg11
I1160
ssg12
(dp21
g5
I594
sg6
I43
sg7
I5
sg8
I3
sg9
I14
sg10
I0
sg11
I390
ssg14
(dp22
g5
I1560
sg6
I55
sg7
I7
sg8
I0
sg9
I0
sg10
I2
sg11
I1560
ssg16
(dp23
g5
I2374
sg6
I58
sg7
I1
sg8
I14
sg9
I3
sg10
I0
sg11
I1180
sssS'Hall.csv'
p24
(dp25
g3
(dp26
g5
I681
sg6
I99
sg7
I3
sg8
I6
sg9
I4
sg10
I2
sg11
I500
ssg12
(dp27
g5
I521
sg6
I98
sg7
I1
sg8
I11
sg9
I7
sg10
I1
sg11
I350
ssg14
(dp28
g5
I540
sg6
I89
sg7
I13
sg8
I0
sg9
I4
sg10
I0
sg11
I540
ssg16
(dp29
g5
I1119
sg6
I100
sg7
I2
sg8
I19
sg9
I4
sg10
I0
sg11
I550
sssS'Danijel.csv'
p30
(dp31
g3
(dp32
g5
I1221
sg6
I45
sg7
I0
sg8
I3
sg9
I3
sg10
I0
sg11
I730
ssg12
(dp33
g5
I872
sg6
I44
sg7
I1
sg8
I7
sg9
I3
sg10
I0
sg11
I610
ssg14
(dp34
g5
I810
sg6
I38
sg7
I6
sg8
I0
sg9
I4
sg10
I3
sg11
I810
ssg16
(dp35
g5
I1606
sg6
I44
sg7
I1
sg8
I6
sg9
I3
sg10
I0
sg11
I800
sss.(dp0
S'K_all3.csv'
p1
(dp2
S'machine'
p3
(dp4
S'count'
p5
I622
sS'truepos'
p6
I37
sS'falseneg'
p7
I1
sS'correction'
p8
I6
sS'unknownyes'
p9
I7
sS'falsepos'
p10
I5
sS'unique'
p11
I420
ssS'knee'
p12
(dp13
g5
I604
sg6
I37
sg7
I3
sg8
I4
sg9
I5
sg10
I0
sg11
I520
ssS'none'
p14
(dp15
g5
I430
sg6
I37
sg7
I2
sg8
I0
sg9
I6
sg10
I1
sg11
I430
ssS'three'
p16
(dp17
g5
I808
sg6
I38
sg7
I1
sg8
I8
sg9
I6
sg10
I0
sg11
I400
sssS'Wahono.csv'
p18
(dp19
g3
(dp20
g5
I1662
sg6
I59
sg7
I0
sg8
I7
sg9
I3
sg10
I0
sg11
I1110
ssg12
(dp21
g5
I934
sg6
I58
sg7
I0
sg8
I3
sg9
I4
sg10
I1
sg11
I690
ssg14
(dp22
g5
I1380
sg6
I54
sg7
I5
sg8
I0
sg9
I3
sg10
I0
sg11
I1380
ssg16
(dp23
g5
I2791
sg6
I56
sg7
I3
sg8
I10
sg9
I3
sg10
I0
sg11
I1390
sssS'Hall.csv'
p24
(dp25
g3
(dp26
g5
I683
sg6
I101
sg7
I1
sg8
I9
sg9
I4
sg10
I1
sg11
I490
ssg12
(dp27
g5
I570
sg6
I97
sg7
I4
sg8
I7
sg9
I5
sg10
I0
sg11
I390
ssg14
(dp28
g5
I450
sg6
I99
sg7
I3
sg8
I0
sg9
I4
sg10
I1
sg11
I450
ssg16
(dp29
g5
I1000
sg6
I97
sg7
I5
sg8
I16
sg9
I4
sg10
I0
sg11
I490
sssS'Danijel.csv'
p30
(dp31
g3
(dp32
g5
I1280
sg6
I45
sg7
I0
sg8
I2
sg9
I3
sg10
I2
sg11
I780
ssg12
(dp33
g5
I636
sg6
I41
sg7
I2
sg8
I3
sg9
I5
sg10
I0
sg11
I520
ssg14
(dp34
g5
I830
sg6
I39
sg7
I7
sg8
I0
sg9
I2
sg10
I1
sg11
I830
ssg16
(dp35
g5
I1506
sg6
I45
sg7
I0
sg8
I6
sg9
I3
sg10
I0
sg11
I750
sss.(dp0
S'K_all3.csv'
p1
(dp2
S'machine'
p3
(dp4
S'count'
p5
I565
sS'truepos'
p6
I34
sS'falseneg'
p7
I2
sS'correction'
p8
I2
sS'unknownyes'
p9
I9
sS'falsepos'
p10
I1
sS'unique'
p11
I380
ssS'knee'
p12
(dp13
g5
I503
sg6
I30
sg7
I3
sg8
I4
sg9
I12
sg10
I2
sg11
I390
ssS'none'
p14
(dp15
g5
I420
sg6
I36
sg7
I2
sg8
I0
sg9
I7
sg10
I3
sg11
I420
ssS'three'
p16
(dp17
g5
I995
sg6
I37
sg7
I2
sg8
I14
sg9
I6
sg10
I0
sg11
I490
sssS'Wahono.csv'
p18
(dp19
g3
(dp20
g5
I1817
sg6
I59
sg7
I0
sg8
I9
sg9
I3
sg10
I1
sg11
I1190
ssg12
(dp21
g5
I795
sg6
I48
sg7
I3
sg8
I4
sg9
I11
sg10
I1
sg11
I610
ssg14
(dp22
g5
I1390
sg6
I55
sg7
I5
sg8
I0
sg9
I2
sg10
I0
sg11
I1390
ssg16
(dp23
g5
I2371
sg6
I57
sg7
I1
sg8
I11
sg9
I4
sg10
I0
sg11
I1180
sssS'Hall.csv'
p24
(dp25
g3
(dp26
g5
I666
sg6
I101
sg7
I1
sg8
I4
sg9
I4
sg10
I0
sg11
I480
ssg12
(dp27
g5
I644
sg6
I100
sg7
I0
sg8
I12
sg9
I6
sg10
I1
sg11
I460
ssg14
(dp28
g5
I620
sg6
I93
sg7
I9
sg8
I0
sg9
I4
sg10
I0
sg11
I620
ssg16
(dp29
g5
I1096
sg6
I100
sg7
I2
sg8
I16
sg9
I4
sg10
I0
sg11
I540
sssS'Danijel.csv'
p30
(dp31
g3
(dp32
g5
I1219
sg6
I45
sg7
I0
sg8
I3
sg9
I3
sg10
I0
sg11
I770
ssg12
(dp33
g5
I820
sg6
I44
sg7
I0
sg8
I2
sg9
I4
sg10
I0
sg11
I590
ssg14
(dp34
g5
I840
sg6
I39
sg7
I6
sg8
I0
sg9
I3
sg10
I1
sg11
I840
ssg16
(dp35
g5
I1528
sg6
I44
sg7
I0
sg8
I8
sg9
I4
sg10
I0
sg11
I760
sss.(dp0
S'K_all3.csv'
p1
(dp2
S'machine'
p3
(dp4
S'count'
p5
I726
sS'truepos'
p6
I37
sS'falseneg'
p7
I1
sS'correction'
p8
I3
sS'unknownyes'
p9
I7
sS'falsepos'
p10
I1
sS'unique'
p11
I490
ssS'knee'
p12
(dp13
g5
I429
sg6
I29
sg7
I2
sg8
I4
sg9
I14
sg10
I0
sg11
I290
ssS'none'
p14
(dp15
g5
I510
sg6
I35
sg7
I3
sg8
I0
sg9
I7
sg10
I1
sg11
I510
ssS'three'
p16
(dp17
g5
I789
sg6
I38
sg7
I0
sg8
I9
sg9
I7
sg10
I0
sg11
I390
sssS'Wahono.csv'
p18
(dp19
g3
(dp20
g5
I1706
sg6
I59
sg7
I0
sg8
I3
sg9
I3
sg10
I0
sg11
I1150
ssg12
(dp21
g5
I1100
sg6
I57
sg7
I2
sg8
I6
sg9
I3
sg10
I1
sg11
I890
ssg14
(dp22
g5
I1240
sg6
I57
sg7
I2
sg8
I0
sg9
I3
sg10
I1
sg11
I1240
ssg16
(dp23
g5
I2469
sg6
I58
sg7
I2
sg8
I9
sg9
I2
sg10
I0
sg11
I1230
sssS'Hall.csv'
p24
(dp25
g3
(dp26
g5
I646
sg6
I99
sg7
I3
sg8
I5
sg9
I4
sg10
I0
sg11
I470
ssg12
(dp27
g5
I636
sg6
I100
sg7
I1
sg8
I14
sg9
I5
sg10
I0
sg11
I470
ssg14
(dp28
g5
I630
sg6
I92
sg7
I10
sg8
I0
sg9
I4
sg10
I0
sg11
I630
ssg16
(dp29
g5
I1066
sg6
I99
sg7
I3
sg8
I25
sg9
I4
sg10
I0
sg11
I520
sssS'Danijel.csv'
p30
(dp31
g3
(dp32
g5
I1420
sg6
I43
sg7
I2
sg8
I3
sg9
I3
sg10
I1
sg11
I910
ssg12
(dp33
g5
I575
sg6
I42
sg7
I1
sg8
I3
sg9
I5
sg10
I0
sg11
I430
ssg14
(dp34
g5
I790
sg6
I42
sg7
I4
sg8
I0
sg9
I2
sg10
I1
sg11
I790
ssg16
(dp35
g5
I1608
sg6
I43
sg7
I3
sg8
I8
sg9
I2
sg10
I0
sg11
I800
sss.(dp0
S'K_all3.csv'
p1
(dp2
S'machine'
p3
(dp4
S'count'
p5
I668
sS'truepos'
p6
I36
sS'falseneg'
p7
I1
sS'correction'
p8
I7
sS'unknownyes'
p9
I8
sS'falsepos'
p10
I4
sS'unique'
p11
I430
ssS'knee'
p12
(dp13
g5
I358
sg6
I28
sg7
I1
sg8
I4
sg9
I16
sg10
I2
sg11
I230
ssS'none'
p14
(dp15
g5
I520
sg6
I32
sg7
I7
sg8
I0
sg9
I6
sg10
I3
sg11
I520
ssS'three'
p16
(dp17
g5
I1029
sg6
I35
sg7
I3
sg8
I9
sg9
I7
sg10
I0
sg11
I510
sssS'Wahono.csv'
p18
(dp19
g3
(dp20
g5
I1712
sg6
I57
sg7
I2
sg8
I4
sg9
I3
sg10
I2
sg11
I1130
ssg12
(dp21
g5
I1116
sg6
I56
sg7
I3
sg8
I2
sg9
I3
sg10
I1
sg11
I890
ssg14
(dp22
g5
I1460
sg6
I54
sg7
I6
sg8
I0
sg9
I2
sg10
I0
sg11
I1460
ssg16
(dp23
g5
I2350
sg6
I59
sg7
I0
sg8
I10
sg9
I3
sg10
I0
sg11
I1170
sssS'Hall.csv'
p24
(dp25
g3
(dp26
g5
I713
sg6
I101
sg7
I1
sg8
I8
sg9
I4
sg10
I1
sg11
I530
ssg12
(dp27
g5
I551
sg6
I97
sg7
I4
sg8
I3
sg9
I5
sg10
I0
sg11
I420
ssg14
(dp28
g5
I660
sg6
I93
sg7
I9
sg8
I0
sg9
I4
sg10
I0
sg11
I660
ssg16
(dp29
g5
I980
sg6
I98
sg7
I4
sg8
I18
sg9
I4
sg10
I0
sg11
I480
sssS'Danijel.csv'
p30
(dp31
g3
(dp32
g5
I1223
sg6
I45
sg7
I0
sg8
I1
sg9
I3
sg10
I0
sg11
I770
ssg12
(dp33
g5
I246
sg6
I28
sg7
I1
sg8
I4
sg9
I19
sg10
I0
sg11
I150
ssg14
(dp34
g5
I770
sg6
I41
sg7
I5
sg8
I0
sg9
I2
sg10
I0
sg11
I770
ssg16
(dp35
g5
I1668
sg6
I43
sg7
I2
sg8
I8
sg9
I3
sg10
I0
sg11
I830
sss.(dp0
S'K_all3.csv'
p1
(dp2
S'machine'
p3
(dp4
S'count'
p5
I622
sS'truepos'
p6
I38
sS'falseneg'
p7
I1
sS'correction'
p8
I7
sS'unknownyes'
p9
I6
sS'falsepos'
p10
I0
sS'unique'
p11
I410
ssS'knee'
p12
(dp13
g5
I198
sg6
I16
sg7
I1
sg8
I2
sg9
I28
sg10
I0
sg11
I140
ssS'none'
p14
(dp15
g5
I420
sg6
I37
sg7
I1
sg8
I0
sg9
I7
sg10
I1
sg11
I420
ssS'three'
p16
(dp17
g5
I888
sg6
I38
sg7
I1
sg8
I8
sg9
I6
sg10
I0
sg11
I440
sssS'Wahono.csv'
p18
(dp19
g3
(dp20
g5
I1907
sg6
I58
sg7
I2
sg8
I6
sg9
I2
sg10
I1
sg11
I1280
ssg12
(dp21
g5
I636
sg6
I51
sg7
I0
sg8
I5
sg9
I11
sg10
I0
sg11
I390
ssg14
(dp22
g5
I1490
sg6
I53
sg7
I8
sg8
I0
sg9
I1
sg10
I2
sg11
I1490
ssg16
(dp23
g5
I2395
sg6
I59
sg7
I0
sg8
I15
sg9
I3
sg10
I0
sg11
I1190
sssS'Hall.csv'
p24
(dp25
g3
(dp26
g5
I793
sg6
I102
sg7
I0
sg8
I6
sg9
I4
sg10
I2
sg11
I590
ssg12
(dp27
g5
I562
sg6
I99
sg7
I2
sg8
I8
sg9
I5
sg10
I0
sg11
I420
ssg14
(dp28
g5
I670
sg6
I89
sg7
I13
sg8
I0
sg9
I4
sg10
I1
sg11
I670
ssg16
(dp29
g5
I997
sg6
I97
sg7
I5
sg8
I16
sg9
I4
sg10
I0
sg11
I490
sssS'Danijel.csv'
p30
(dp31
g3
(dp32
g5
I1297
sg6
I45
sg7
I1
sg8
I5
sg9
I2
sg10
I2
sg11
I800
ssg12
(dp33
g5
I543
sg6
I39
sg7
I1
sg8
I4
sg9
I8
sg10
I0
sg11
I380
ssg14
(dp34
g5
I870
sg6
I42
sg7
I4
sg8
I0
sg9
I2
sg10
I0
sg11
I870
ssg16
(dp35
g5
I1547
sg6
I44
sg7
I1
sg8
I7
sg9
I3
sg10
I0
sg11
I770
sss.(dp0
S'K_all3.csv'
p1
(dp2
S'machine'
p3
(dp4
S'count'
p5
I656
sS'truepos'
p6
I36
sS'falseneg'
p7
I2
sS'correction'
p8
I3
sS'unknownyes'
p9
I7
sS'falsepos'
p10
I1
sS'unique'
p11
I470
ssS'knee'
p12
(dp13
g5
I1236
sg6
I40
sg7
I2
sg8
I8
sg9
I3
sg10
I1
sg11
I920
ssS'none'
p14
(dp15
g5
I470
sg6
I35
sg7
I4
sg8
I0
sg9
I6
sg10
I0
sg11
I470
ssS'three'
p16
(dp17
g5
I867
sg6
I38
sg7
I0
sg8
I7
sg9
I7
sg10
I0
sg11
I430
sssS'Wahono.csv'
p18
(dp19
g3
(dp20
g5
I1788
sg6
I59
sg7
I0
sg8
I4
sg9
I3
sg10
I1
sg11
I1180
ssg12
(dp21
g5
I24
sg6
I6
sg7
I0
sg8
I0
sg9
I56
sg10
I0
sg11
I20
ssg14
(dp22
g5
I1640
sg6
I49
sg7
I11
sg8
I0
sg9
I2
sg10
I1
sg11
I1640
ssg16
(dp23
g5
I2434
sg6
I57
sg7
I2
sg8
I13
sg9
I3
sg10
I0
sg11
I1210
sssS'Hall.csv'
p24
(dp25
g3
(dp26
g5
I651
sg6
I100
sg7
I1
sg8
I17
sg9
I5
sg10
I0
sg11
I460
ssg12
(dp27
g5
I486
sg6
I97
sg7
I2
sg8
I8
sg9
I7
sg10
I0
sg11
I320
ssg14
(dp28
g5
I560
sg6
I92
sg7
I10
sg8
I0
sg9
I4
sg10
I0
sg11
I560
ssg16
(dp29
g5
I1060
sg6
I97
sg7
I5
sg8
I20
sg9
I4
sg10
I0
sg11
I520
sssS'Danijel.csv'
p30
(dp31
g3
(dp32
g5
I1306
sg6
I45
sg7
I1
sg8
I3
sg9
I2
sg10
I2
sg11
I810
ssg12
(dp33
g5
I678
sg6
I42
sg7
I1
sg8
I2
sg9
I5
sg10
I0
sg11
I530
ssg14
(dp34
g5
I850
sg6
I41
sg7
I5
sg8
I0
sg9
I2
sg10
I0
sg11
I850
ssg16
(dp35
g5
I1547
sg6
I45
sg7
I0
sg8
I7
sg9
I3
sg10
I0
sg11
I770
sss.(dp0
S'K_all3.csv'
p1
(dp2
S'machine'
p3
(dp4
S'count'
p5
I572
sS'truepos'
p6
I37
sS'falseneg'
p7
I0
sS'correction'
p8
I0
sS'unknownyes'
p9
I8
sS'falsepos'
p10
I4
sS'unique'
p11
I370
ssS'knee'
p12
(dp13
g5
I1030
sg6
I40
sg7
I2
sg8
I7
sg9
I3
sg10
I1
sg11
I800
ssS'none'
p14
(dp15
g5
I480
sg6
I34
sg7
I4
sg8
I0
sg9
I7
sg10
I0
sg11
I480
ssS'three'
p16
(dp17
g5
I1171
sg6
I37
sg7
I2
sg8
I11
sg9
I6
sg10
I0
sg11
I580
sssS'Wahono.csv'
p18
(dp19
g3
(dp20
g5
I1789
sg6
I59
sg7
I0
sg8
I4
sg9
I3
sg10
I2
sg11
I1160
ssg12
(dp21
g5
I1108
sg6
I55
sg7
I3
sg8
I2
sg9
I4
sg10
I0
sg11
I840
ssg14
(dp22
g5
I1450
sg6
I55
sg7
I5
sg8
I0
sg9
I2
sg10
I0
sg11
I1450
ssg16
(dp23
g5
I2378
sg6
I57
sg7
I2
sg8
I18
sg9
I3
sg10
I0
sg11
I1180
sssS'Hall.csv'
p24
(dp25
g3
(dp26
g5
I599
sg6
I99
sg7
I2
sg8
I12
sg9
I5
sg10
I1
sg11
I420
ssg12
(dp27
g5
I600
sg6
I101
sg7
I1
sg8
I10
sg9
I4
sg10
I0
sg11
I440
ssg14
(dp28
g5
I580
sg6
I87
sg7
I15
sg8
I0
sg9
I4
sg10
I0
sg11
I580
ssg16
(dp29
g5
I1040
sg6
I101
sg7
I1
sg8
I20
sg9
I4
sg10
I0
sg11
I510
sssS'Danijel.csv'
p30
(dp31
g3
(dp32
g5
I1102
sg6
I44
sg7
I1
sg8
I3
sg9
I3
sg10
I2
sg11
I670
ssg12
(dp33
g5
I593
sg6
I38
sg7
I2
sg8
I6
sg9
I8
sg10
I0
sg11
I400
ssg14
(dp34
g5
I1040
sg6
I38
sg7
I8
sg8
I0
sg9
I2
sg10
I0
sg11
I1040
ssg16
(dp35
g5
I1626
sg6
I44
sg7
I2
sg8
I6
sg9
I2
sg10
I0
sg11
I810
sss.(dp0
S'K_all3.csv'
p1
(dp2
S'machine'
p3
(dp4
S'count'
p5
I570
sS'truepos'
p6
I35
sS'falseneg'
p7
I3
sS'correction'
p8
I4
sS'unknownyes'
p9
I7
sS'falsepos'
p10
I0
sS'unique'
p11
I380
ssS'knee'
p12
(dp13
g5
I324
sg6
I28
sg7
I1
sg8
I3
sg9
I16
sg10
I1
sg11
I210
ssS'none'
p14
(dp15
g5
I550
sg6
I32
sg7
I8
sg8
I0
sg9
I5
sg10
I2
sg11
I550
ssS'three'
p16
(dp17
g5
I846
sg6
I38
sg7
I0
sg8
I6
sg9
I7
sg10
I0
sg11
I420
sssS'Wahono.csv'
p18
(dp19
g3
(dp20
g5
I1703
sg6
I57
sg7
I2
sg8
I3
sg9
I3
sg10
I3
sg11
I1140
ssg12
(dp21
g5
I1111
sg6
I54
sg7
I4
sg8
I6
sg9
I4
sg10
I1
sg11
I840
ssg14
(dp22
g5
I1640
sg6
I54
sg7
I6
sg8
I0
sg9
I2
sg10
I1
sg11
I1640
ssg16
(dp23
g5
I2292
sg6
I59
sg7
I0
sg8
I12
sg9
I3
sg10
I0
sg11
I1140
sssS'Hall.csv'
p24
(dp25
g3
(dp26
g5
I716
sg6
I99
sg7
I3
sg8
I11
sg9
I4
sg10
I1
sg11
I530
ssg12
(dp27
g5
I615
sg6
I100
sg7
I1
sg8
I12
sg9
I5
sg10
I0
sg11
I430
ssg14
(dp28
g5
I470
sg6
I94
sg7
I7
sg8
I0
sg9
I5
sg10
I0
sg11
I470
ssg16
(dp29
g5
I1043
sg6
I102
sg7
I0
sg8
I23
sg9
I4
sg10
I0
sg11
I510
sssS'Danijel.csv'
p30
(dp31
g3
(dp32
g5
I1225
sg6
I44
sg7
I1
sg8
I2
sg9
I3
sg10
I1
sg11
I800
ssg12
(dp33
g5
I900
sg6
I43
sg7
I1
sg8
I8
sg9
I4
sg10
I0
sg11
I600
ssg14
(dp34
g5
I800
sg6
I44
sg7
I1
sg8
I0
sg9
I3
sg10
I1
sg11
I800
ssg16
(dp35
g5
I1510
sg6
I44
sg7
I1
sg8
I9
sg9
I3
sg10
I0
sg11
I750
sss.(dp0
S'K_all3.csv'
p1
(dp2
S'machine'
p3
(dp4
S'count'
p5
I628
sS'truepos'
p6
I39
sS'falseneg'
p7
I1
sS'correction'
p8
I3
sS'unknownyes'
p9
I5
sS'falsepos'
p10
I0
sS'unique'
p11
I410
ssS'knee'
p12
(dp13
g5
I496
sg6
I32
sg7
I1
sg8
I3
sg9
I12
sg10
I1
sg11
I400
ssS'none'
p14
(dp15
g5
I510
sg6
I32
sg7
I6
sg8
I0
sg9
I7
sg10
I4
sg11
I510
ssS'three'
p16
(dp17
g5
I852
sg6
I38
sg7
I0
sg8
I12
sg9
I7
sg10
I0
sg11
I420
sssS'Wahono.csv'
p18
(dp19
g3
(dp20
g5
I1861
sg6
I58
sg7
I1
sg8
I6
sg9
I3
sg10
I1
sg11
I1240
ssg12
(dp21
g5
I1011
sg6
I53
sg7
I5
sg8
I4
sg9
I4
sg10
I2
sg11
I780
ssg14
(dp22
g5
I1330
sg6
I55
sg7
I6
sg8
I0
sg9
I1
sg10
I2
sg11
I1330
ssg16
(dp23
g5
I2291
sg6
I58
sg7
I1
sg8
I11
sg9
I3
sg10
I0
sg11
I1140
sssS'Hall.csv'
p24
(dp25
g3
(dp26
g5
I646
sg6
I99
sg7
I3
sg8
I9
sg9
I4
sg10
I0
sg11
I470
ssg12
(dp27
g5
I560
sg6
I94
sg7
I7
sg8
I8
sg9
I5
sg10
I0
sg11
I430
ssg14
(dp28
g5
I560
sg6
I93
sg7
I9
sg8
I0
sg9
I4
sg10
I2
sg11
I560
ssg16
(dp29
g5
I1012
sg6
I100
sg7
I2
sg8
I12
sg9
I4
sg10
I0
sg11
I500
sssS'Danijel.csv'
p30
(dp31
g3
(dp32
g5
I1212
sg6
I46
sg7
I0
sg8
I8
sg9
I2
sg10
I0
sg11
I760
ssg12
(dp33
g5
I744
sg6
I39
sg7
I3
sg8
I5
sg9
I6
sg10
I0
sg11
I540
ssg14
(dp34
g5
I770
sg6
I41
sg7
I5
sg8
I0
sg9
I2
sg10
I1
sg11
I770
ssg16
(dp35
g5
I1586
sg6
I44
sg7
I1
sg8
I5
sg9
I3
sg10
I0
sg11
I790
sss.(dp0
S'K_all3.csv'
p1
(dp2
S'machine'
p3
(dp4
S'count'
p5
I581
sS'truepos'
p6
I37
sS'falseneg'
p7
I1
sS'correction'
p8
I4
sS'unknownyes'
p9
I7
sS'falsepos'
p10
I2
sS'unique'
p11
I360
ssS'knee'
p12
(dp13
g5
I927
sg6
I42
sg7
I1
sg8
I4
sg9
I2
sg10
I0
sg11
I770
ssS'none'
p14
(dp15
g5
I510
sg6
I36
sg7
I3
sg8
I0
sg9
I6
sg10
I1
sg11
I510
ssS'three'
p16
(dp17
g5
I868
sg6
I38
sg7
I1
sg8
I8
sg9
I6
sg10
I0
sg11
I430
sssS'Wahono.csv'
p18
(dp19
g3
(dp20
g5
I2192
sg6
I58
sg7
I2
sg8
I3
sg9
I2
sg10
I4
sg11
I1430
ssg12
(dp21
g5
I310
sg6
I36
sg7
I1
sg8
I4
sg9
I25
sg10
I0
sg11
I200
ssg14
(dp22
g5
I1200
sg6
I58
sg7
I2
sg8
I0
sg9
I2
sg10
I1
sg11
I1200
ssg16
(dp23
g5
I2560
sg6
I55
sg7
I4
sg8
I17
sg9
I3
sg10
I0
sg11
I1270
sssS'Hall.csv'
p24
(dp25
g3
(dp26
g5
I745
sg6
I100
sg7
I2
sg8
I7
sg9
I4
sg10
I0
sg11
I540
ssg12
(dp27
g5
I580
sg6
I95
sg7
I6
sg8
I11
sg9
I5
sg10
I0
sg11
I440
ssg14
(dp28
g5
I740
sg6
I86
sg7
I16
sg8
I0
sg9
I4
sg10
I0
sg11
I740
ssg16
(dp29
g5
I1039
sg6
I100
sg7
I2
sg8
I18
sg9
I4
sg10
I0
sg11
I510
sssS'Danijel.csv'
p30
(dp31
g3
(dp32
g5
I1302
sg6
I45
sg7
I0
sg8
I2
sg9
I3
sg10
I1
sg11
I790
ssg12
(dp33
g5
I836
sg6
I44
sg7
I2
sg8
I4
sg9
I2
sg10
I0
sg11
I650
ssg14
(dp34
g5
I840
sg6
I38
sg7
I7
sg8
I0
sg9
I3
sg10
I1
sg11
I840
ssg16
(dp35
g5
I1573
sg6
I43
sg7
I2
sg8
I11
sg9
I3
sg10
I0
sg11
I780
sss.(dp0
S'K_all3.csv'
p1
(dp2
S'machine'
p3
(dp4
S'count'
p5
I563
sS'truepos'
p6
I36
sS'falseneg'
p7
I1
sS'correction'
p8
I2
sS'unknownyes'
p9
I8
sS'falsepos'
p10
I3
sS'unique'
p11
I370
ssS'knee'
p12
(dp13
g5
I893
sg6
I37
sg7
I5
sg8
I0
sg9
I3
sg10
I1
sg11
I640
ssS'none'
p14
(dp15
g5
I500
sg6
I36
sg7
I3
sg8
I0
sg9
I6
sg10
I1
sg11
I500
ssS'three'
p16
(dp17
g5
I1011
sg6
I38
sg7
I1
sg8
I10
sg9
I6
sg10
I0
sg11
I500
sssS'Wahono.csv'
p18
(dp19
g3
(dp20
g5
I1722
sg6
I59
sg7
I0
sg8
I5
sg9
I3
sg10
I1
sg11
I1160
ssg12
(dp21
g5
I979
sg6
I56
sg7
I2
sg8
I3
sg9
I4
sg10
I0
sg11
I790
ssg14
(dp22
g5
I1450
sg6
I53
sg7
I8
sg8
I0
sg9
I1
sg10
I0
sg11
I1450
ssg16
(dp23
g5
I3269
sg6
I56
sg7
I5
sg8
I7
sg9
I1
sg10
I0
sg11
I1630
sssS'Hall.csv'
p24
(dp25
g3
(dp26
g5
I696
sg6
I101
sg7
I1
sg8
I7
sg9
I4
sg10
I0
sg11
I510
ssg12
(dp27
g5
I577
sg6
I98
sg7
I3
sg8
I6
sg9
I5
sg10
I0
sg11
I390
ssg14
(dp28
g5
I570
sg6
I90
sg7
I12
sg8
I0
sg9
I4
sg10
I0
sg11
I570
ssg16
(dp29
g5
I819
sg6
I97
sg7
I3
sg8
I17
sg9
I6
sg10
I0
sg11
I400
sssS'Danijel.csv'
p30
(dp31
g3
(dp32
g5
I1291
sg6
I46
sg7
I0
sg8
I4
sg9
I2
sg10
I1
sg11
I800
ssg12
(dp33
g5
I716
sg6
I40
sg7
I4
sg8
I1
sg9
I4
sg10
I0
sg11
I590
ssg14
(dp34
g5
I860
sg6
I42
sg7
I4
sg8
I0
sg9
I2
sg10
I0
sg11
I860
ssg16
(dp35
g5
I1654
sg6
I44
sg7
I1
sg8
I14
sg9
I3
sg10
I0
sg11
I820
sss.(dp0
S'K_all3.csv'
p1
(dp2
S'machine'
p3
(dp4
S'count'
p5
I655
sS'truepos'
p6
I38
sS'falseneg'
p7
I0
sS'correction'
p8
I2
sS'unknownyes'
p9
I7
sS'falsepos'
p10
I1
sS'unique'
p11
I430
ssS'knee'
p12
(dp13
g5
I1016
sg6
I36
sg7
I5
sg8
I6
sg9
I4
sg10
I0
sg11
I820
ssS'none'
p14
(dp15
g5
I580
sg6
I33
sg7
I5
sg8
I0
sg9
I7
sg10
I2
sg11
I580
ssS'three'
p16
(dp17
g5
I1014
sg6
I37
sg7
I2
sg8
I12
sg9
I6
sg10
I0
sg11
I500
sssS'Wahono.csv'
p18
(dp19
g3
(dp20
g5
I1771
sg6
I59
sg7
I0
sg8
I5
sg9
I3
sg10
I1
sg11
I1190
ssg12
(dp21
g5
I1019
sg6
I57
sg7
I1
sg8
I1
sg9
I4
sg10
I0
sg11
I740
ssg14
(dp22
g5
I1140
sg6
I55
sg7
I5
sg8
I0
sg9
I2
sg10
I2
sg11
I1140
ssg16
(dp23
g5
I2475
sg6
I57
sg7
I2
sg8
I15
sg9
I3
sg10
I0
sg11
I1230
sssS'Hall.csv'
p24
(dp25
g3
(dp26
g5
I643
sg6
I101
sg7
I1
sg8
I8
sg9
I4
sg10
I0
sg11
I490
ssg12
(dp27
g5
I602
sg6
I97
sg7
I4
sg8
I9
sg9
I5
sg10
I0
sg11
I440
ssg14
(dp28
g5
I540
sg6
I95
sg7
I7
sg8
I0
sg9
I4
sg10
I1
sg11
I540
ssg16
(dp29
g5
I943
sg6
I100
sg7
I1
sg8
I23
sg9
I5
sg10
I0
sg11
I460
sssS'Danijel.csv'
p30
(dp31
g3
(dp32
g5
I1210
sg6
I44
sg7
I1
sg8
I3
sg9
I3
sg10
I0
sg11
I760
ssg12
(dp33
g5
I674
sg6
I40
sg7
I4
sg8
I0
sg9
I4
sg10
I0
sg11
I550
ssg14
(dp34
g5
I850
sg6
I43
sg7
I2
sg8
I0
sg9
I3
sg10
I1
sg11
I850
ssg16
(dp35
g5
I1627
sg6
I46
sg7
I0
sg8
I7
sg9
I2
sg10
I0
sg11
I810
sss.