(dp0
S'K_all3.csv'
p1
(dp2
S'machine'
p3
(dp4
S'count'
p5
I875
sS'truepos'
p6
I38
sS'falseneg'
p7
I4
sS'correction'
p8
I11
sS'unknownyes'
p9
I3
sS'falsepos'
p10
I4
sS'unique'
p11
I630
ssS'knee'
p12
(dp13
g5
I2324
sg6
I42
sg7
I3
sg8
I14
sg9
I0
sg10
I12
sg11
I1580
ssS'none'
p14
(dp15
g5
I530
sg6
I28
sg7
I9
sg8
I0
sg9
I8
sg10
I7
sg11
I530
ssS'three'
p16
(dp17
g5
I1189
sg6
I37
sg7
I6
sg8
I27
sg9
I2
sg10
I0
sg11
I580
sssS'Wahono.csv'
p18
(dp19
g3
(dp20
g5
I1782
sg6
I48
sg7
I11
sg8
I22
sg9
I3
sg10
I0
sg11
I1270
ssg12
(dp21
g5
I823
sg6
I43
sg7
I8
sg8
I9
sg9
I11
sg10
I1
sg11
I630
ssg14
(dp22
g5
I1730
sg6
I43
sg7
I17
sg8
I0
sg9
I2
sg10
I8
sg11
I1730
ssg16
(dp23
g5
I2874
sg6
I48
sg7
I11
sg8
I31
sg9
I3
sg10
I0
sg11
I1420
sssS'Hall.csv'
p24
(dp25
g3
(dp26
g5
I804
sg6
I91
sg7
I11
sg8
I21
sg9
I2
sg10
I1
sg11
I580
ssg12
(dp27
g5
I698
sg6
I89
sg7
I13
sg8
I16
sg9
I2
sg10
I2
sg11
I540
ssg14
(dp28
g5
I920
sg6
I72
sg7
I30
sg8
I0
sg9
I2
sg10
I4
sg11
I920
ssg16
(dp29
g5
I1357
sg6
I81
sg7
I21
sg8
I32
sg9
I2
sg10
I0
sg11
I660
sssS'Danijel.csv'
p30
(dp31
g3
(dp32
g5
I1515
sg6
I36
sg7
I11
sg8
I10
sg9
I1
sg10
I2
sg11
I1090
ssg12
(dp33
g5
I1037
sg6
I41
sg7
I5
sg8
I10
sg9
I2
sg10
I0
sg11
I820
ssg14
(dp34
g5
I920
sg6
I37
sg7
I8
sg8
I0
sg9
I3
sg10
I1
sg11
I920
ssg16
(dp35
g5
I1594
sg6
I41
sg7
I5
sg8
I12
sg9
I2
sg10
I0
sg11
I790
sss.(dp0
S'K_all3.csv'
p1
(dp2
S'machine'
p3
(dp4
S'count'
p5
I824
sS'truepos'
p6
I39
sS'falseneg'
p7
I3
sS'correction'
p8
I12
sS'unknownyes'
p9
I3
sS'falsepos'
p10
I4
sS'unique'
p11
I600
ssS'knee'
p12
(dp13
g5
I1100
sg6
I34
sg7
I10
sg8
I14
sg9
I1
sg10
I2
sg11
I870
ssS'none'
p14
(dp15
g5
I640
sg6
I28
sg7
I13
sg8
I0
sg9
I4
sg10
I10
sg11
I640
ssS'three'
p16
(dp17
g5
I1290
sg6
I35
sg7
I8
sg8
I27
sg9
I2
sg10
I0
sg11
I630
sssS'Wahono.csv'
p18
(dp19
g3
(dp20
g5
I1951
sg6
I51
sg7
I9
sg8
I21
sg9
I2
sg10
I1
sg11
I1400
ssg12
(dp21
g5
I1419
sg6
I48
sg7
I11
sg8
I9
sg9
I3
sg10
I0
sg11
I1070
ssg14
(dp22
g5
I1960
sg6
I34
sg7
I27
sg8
I0
sg9
I1
sg10
I4
sg11
I1960
ssg16
(dp23
g5
I2935
sg6
I44
sg7
I16
sg8
I27
sg9
I2
sg10
I0
sg11
I1450
sssS'Hall.csv'
p24
(dp25
g3
(dp26
g5
I674
sg6
I91
sg7
I11
sg8
I19
sg9
I2
sg10
I2
sg11
I490
ssg12
(dp27
g5
I600
sg6
I85
sg7
I14
sg8
I22
sg9
I5
sg10
I1
sg11
I450
ssg14
(dp28
g5
I530
sg6
I75
sg7
I27
sg8
I0
sg9
I2
sg10
I0
sg11
I530
ssg16
(dp29
g5
I1140
sg6
I78
sg7
I24
sg8
I33
sg9
I2
sg10
I0
sg11
I550
sssS'Danijel.csv'
p30
(dp31
g3
(dp32
g5
I1282
sg6
I39
sg7
I7
sg8
I13
sg9
I2
sg10
I2
sg11
I920
ssg12
(dp33
g5
I675
sg6
I37
sg7
I5
sg8
I4
sg9
I6
sg10
I1
sg11
I470
ssg14
(dp34
g5
I1390
sg6
I35
sg7
I12
sg8
I0
sg9
I1
sg10
I3
sg11
I1390
ssg16
(dp35
g5
I2322
sg6
I36
sg7
I10
sg8
I19
sg9
I2
sg10
I1
sg11
I1150
sss.(dp0
S'K_all3.csv'
p1
(dp2
S'machine'
p3
(dp4
S'count'
p5
I805
sS'truepos'
p6
I34
sS'falseneg'
p7
I6
sS'correction'
p8
I14
sS'unknownyes'
p9
I5
sS'falsepos'
p10
I3
sS'unique'
p11
I580
ssS'knee'
p12
(dp13
g5
I853
sg6
I37
sg7
I2
sg8
I9
sg9
I6
sg10
I5
sg11
I550
ssS'none'
p14
(dp15
g5
I880
sg6
I25
sg7
I18
sg8
I0
sg9
I2
sg10
I6
sg11
I880
ssS'three'
p16
(dp17
g5
I1733
sg6
I33
sg7
I11
sg8
I31
sg9
I1
sg10
I0
sg11
I850
sssS'Wahono.csv'
p18
(dp19
g3
(dp20
g5
I2050
sg6
I50
sg7
I11
sg8
I26
sg9
I1
sg10
I4
sg11
I1460
ssg12
(dp21
g5
I865
sg6
I36
sg7
I14
sg8
I10
sg9
I12
sg10
I1
sg11
I680
ssg14
(dp22
g5
I1750
sg6
I40
sg7
I19
sg8
I0
sg9
I3
sg10
I11
sg11
I1750
ssg16
(dp23
g5
I2913
sg6
I45
sg7
I16
sg8
I27
sg9
I1
sg10
I0
sg11
I1440
sssS'Hall.csv'
p24
(dp25
g3
(dp26
g5
I664
sg6
I94
sg7
I7
sg8
I20
sg9
I3
sg10
I0
sg11
I480
ssg12
(dp27
g5
I517
sg6
I81
sg7
I17
sg8
I17
sg9
I6
sg10
I1
sg11
I360
ssg14
(dp28
g5
I1820
sg6
I78
sg7
I25
sg8
I0
sg9
I1
sg10
I10
sg11
I1820
ssg16
(dp29
g5
I1132
sg6
I76
sg7
I25
sg8
I41
sg9
I3
sg10
I0
sg11
I540
sssS'Danijel.csv'
p30
(dp31
g3
(dp32
g5
I1095
sg6
I39
sg7
I6
sg8
I15
sg9
I3
sg10
I1
sg11
I790
ssg12
(dp33
g5
I523
sg6
I36
sg7
I5
sg8
I5
sg9
I7
sg10
I2
sg11
I350
ssg14
(dp34
g5
I1650
sg6
I33
sg7
I13
sg8
I0
sg9
I2
sg10
I4
sg11
I1650
ssg16
(dp35
g5
I1565
sg6
I41
sg7
I5
sg8
I23
sg9
I2
sg10
I0
sg11
I770
sss.(dp0
S'K_all3.csv'
p1
(dp2
S'machine'
p3
(dp4
S'count'
p5
I760
sS'truepos'
p6
I35
sS'falseneg'
p7
I10
sS'correction'
p8
I5
sS'unknownyes'
p9
I0
sS'falsepos'
p10
I3
sS'unique'
p11
I560
ssS'knee'
p12
(dp13
g5
I1304
sg6
I34
sg7
I9
sg8
I5
sg9
I2
sg10
I7
sg11
I860
ssS'none'
p14
(dp15
g5
I650
sg6
I33
sg7
I8
sg8
I0
sg9
I4
sg10
I5
sg11
I650
ssS'three'
p16
(dp17
g5
I1885
sg6
I31
sg7
I14
sg8
I37
sg9
I0
sg10
I0
sg11
I920
sssS'Wahono.csv'
p18
(dp19
g3
(dp20
g5
I1879
sg6
I53
sg7
I7
sg8
I16
sg9
I2
sg10
I0
sg11
I1350
ssg12
(dp21
g5
I2004
sg6
I49
sg7
I11
sg8
I12
sg9
I2
sg10
I2
sg11
I1570
ssg14
(dp22
g5
I1580
sg6
I40
sg7
I19
sg8
I0
sg9
I3
sg10
I3
sg11
I1580
ssg16
(dp23
g5
I3307
sg6
I50
sg7
I10
sg8
I25
sg9
I2
sg10
I0
sg11
I1640
sssS'Hall.csv'
p24
(dp25
g3
(dp26
g5
I946
sg6
I90
sg7
I12
sg8
I27
sg9
I2
sg10
I4
sg11
I680
ssg12
(dp27
g5
I588
sg6
I93
sg7
I8
sg8
I17
sg9
I3
sg10
I1
sg11
I410
ssg14
(dp28
g5
I620
sg6
I79
sg7
I23
sg8
I0
sg9
I2
sg10
I1
sg11
I620
ssg16
(dp29
g5
I1387
sg6
I77
sg7
I25
sg8
I39
sg9
I2
sg10
I0
sg11
I670
sssS'Danijel.csv'
p30
(dp31
g3
(dp32
g5
I1554
sg6
I36
sg7
I10
sg8
I13
sg9
I2
sg10
I0
sg11
I1110
ssg12
(dp33
g5
I896
sg6
I36
sg7
I6
sg8
I5
sg9
I6
sg10
I2
sg11
I630
ssg14
(dp34
g5
I720
sg6
I40
sg7
I6
sg8
I0
sg9
I2
sg10
I1
sg11
I720
ssg16
(dp35
g5
I1782
sg6
I40
sg7
I5
sg8
I21
sg9
I3
sg10
I0
sg11
I880
sss.
sss.(dp0
S'K_all3.csv'
p1
(dp2
S'machine'
p3
(dp4
S'count'
p5
I744
sS'truepos'
p6
I34
sS'falseneg'
p7
I9
sS'correction'
p8
I15
sS'unknownyes'
p9
I2
sS'falsepos'
p10
I1
sS'unique'
p11
I540
ssS'knee'
p12
(dp13
g5
I1583
sg6
I39
sg7
I6
sg8
I9
sg9
I0
sg10
I9
sg11
I1070
ssS'none'
p14
(dp15
g5
I670
sg6
I31
sg7
I12
sg8
I0
sg9
I2
sg10
I5
sg11
I670
ssS'three'
p16
(dp17
g5
I1236
sg6
I31
sg7
I11
sg8
I32
sg9
I3
sg10
I1
sg11
I600
sssS'Wahono.csv'
p18
(dp19
g3
(dp20
g5
I2622
sg6
I50
sg7
I12
sg8
I17
sg9
I0
sg10
I1
sg11
I1870
ssg12
(dp21
g5
I1047
sg6
I45
sg7
I10
sg8
I11
sg9
I7
sg10
I2
sg11
I830
ssg14
(dp22
g5
I1640
sg6
I40
sg7
I20
sg8
I0
sg9
I2
sg10
I5
sg11
I1640
ssg16
(dp23
g5
I2914
sg6
I47
sg7
I11
sg8
I32
sg9
I4
sg10
I0
sg11
I1440
sssS'Hall.csv'
p24
(dp25
g3
(dp26
g5
I1147
sg6
I90
sg7
I13
sg8
I29
sg9
I1
sg10
I0
sg11
I820
ssg12
(dp27
g5
I819
sg6
I90
sg7
I12
sg8
I24
sg9
I2
sg10
I0
sg11
I570
ssg14
(dp28
g5
I710
sg6
I75
sg7
I28
sg8
I0
sg9
I1
sg10
I5
sg11
I710
ssg16
(dp29
g5
I2562
sg6
I77
sg7
I26
sg8
I55
sg9
I1
sg10
I0
sg11
I1250
sssS'Danijel.csv'
p30
(dp31
g3
(dp32
g5
I1153
sg6
I38
sg7
I7
sg8
I11
sg9
I3
sg10
I3
sg11
I830
ssg12
(dp33
g5
I568
sg6
I30
sg7
I8
sg8
I5
sg9
I10
sg10
I0
sg11
I480
ssg14
(dp34
g5
I1100
sg6
I37
sg7
I9
sg8
I0
sg9
I2
sg10
I3
sg11
I1100
ssg16
(dp35
g5
I2744
sg6
I34
sg7
I13
sg8
I21
sg9
I1
sg10
I0
sg11
I1360
sss.(dp0
S'K_all3.csv'
p1
(dp2
S'machine'
p3
(dp4
S'count'
p5
I896
sS'truepos'
p6
I34
sS'falseneg'
p7
I8
sS'correction'
p8
I16
sS'unknownyes'
p9
I3
sS'falsepos'
p10
I1
sS'unique'
p11
I650
ssS'knee'
p12
(dp13
g5
I1394
sg6
I36
sg7
I9
sg8
I13
sg9
I0
sg10
I6
sg11
I1140
ssS'none'
p14
(dp15
g5
I550
sg6
I33
sg7
I8
sg8
I0
sg9
I4
sg10
I1
sg11
I550
ssS'three'
p16
(dp17
g5
I1594
sg6
I33
sg7
I10
sg8
I31
sg9
I2
sg10
I0
sg11
I780
sssS'Wahono.csv'
p18
(dp19
g3
(dp20
g5
I1770
sg6
I46
sg7
I14
sg8
I11
sg9
I2
sg10
I0
sg11
I1260
ssg12
(dp21
g5
I1462
sg6
I43
sg7
I10
sg8
I16
sg9
I9
sg10
I4
sg11
I1090
ssg14
(dp22
g5
I1560
sg6
I43
sg7
I17
sg8
I0
sg9
I2
sg10
I4
sg11
I1560
ssg16
(dp23
g5
I3831
sg6
I46
sg7
I16
sg8
I29
sg9
I0
sg10
I0
sg11
I1900
sssS'Hall.csv'
p24
(dp25
g3
(dp26
g5
I653
sg6
I96
sg7
I6
sg8
I31
sg9
I2
sg10
I0
sg11
I470
ssg12
(dp27
g5
I709
sg6
I90
sg7
I11
sg8
I19
sg9
I3
sg10
I0
sg11
I480
ssg14
(dp28
g5
I1070
sg6
I74
sg7
I29
sg8
I0
sg9
I1
sg10
I1
sg11
I1070
ssg16
(dp29
g5
I1306
sg6
I81
sg7
I21
sg8
I40
sg9
I2
sg10
I0
sg11
I630
sssS'Danijel.csv'
p30
(dp31
g3
(dp32
g5
I1219
sg6
I37
sg7
I9
sg8
I15
sg9
I2
sg10
I1
sg11
I870
ssg12
(dp33
g5
I1038
sg6
I40
sg7
I3
sg8
I13
sg9
I5
sg10
I2
sg11
I760
ssg14
(dp34
g5
I1320
sg6
I29
sg7
I16
sg8
I0
sg9
I3
sg10
I1
sg11
I1320
ssg16
(dp35
g5
I1604
sg6
I39
sg7
I7
sg8
I22
sg9
I2
sg10
I0
sg11
I790
sss.(dp0
S'K_all3.csv'
p1
(dp2
S'machine'
p3
(dp4
S'count'
p5
I968
sS'truepos'
p6
I34
sS'falseneg'
p7
I10
sS'correction'
p8
I13
sS'unknownyes'
p9
I1
sS'falsepos'
p10
I2
sS'unique'
p11
I700
ssS'knee'
p12
(dp13
g5
I1369
sg6
I40
sg7
I4
sg8
I7
sg9
I1
sg10
I13
sg11
I1030
ssS'none'
p14
(dp15
g5
I560
sg6
I34
sg7
I8
sg8
I0
sg9
I3
sg10
I4
sg11
I560
ssS'three'
p16
(dp17
g5
I1304
sg6
I33
sg7
I8
sg8
I21
sg9
I4
sg10
I0
sg11
I640
sssS'Wahono.csv'
p18
(dp19
g3
(dp20
g5
I2094
sg6
I54
sg7
I7
sg8
I27
sg9
I1
sg10
I2
sg11
I1500
ssg12
(dp21
g5
I69
sg6
I10
sg7
I4
sg8
I1
sg9
I48
sg10
I0
sg11
I60
ssg14
(dp22
g5
I1920
sg6
I47
sg7
I14
sg8
I0
sg9
I1
sg10
I6
sg11
I1920
ssg16
(dp23
g5
I2609
sg6
I54
sg7
I6
sg8
I26
sg9
I2
sg10
I0
sg11
I1290
sssS'Hall.csv'
p24
(dp25
g3
(dp26
g5
I574
sg6
I88
sg7
I13
sg8
I22
sg9
I3
sg10
I0
sg11
I410
ssg12
(dp27
g5
I564
sg6
I84
sg7
I17
sg8
I17
sg9
I3
sg10
I0
sg11
I420
ssg14
(dp28
g5
I1020
sg6
I67
sg7
I35
sg8
I0
sg9
I2
sg10
I3
sg11
I1020
ssg16
(dp29
g5
I2630
sg6
I77
sg7
I26
sg8
I47
sg9
I1
sg10
I0
sg11
I1290
sssS'Danijel.csv'
p30
(dp31
g3
(dp32
g5
I1239
sg6
I37
sg7
I9
sg8
I14
sg9
I2
sg10
I1
sg11
I890
ssg12
(dp33
g5
I765
sg6
I37
sg7
I7
sg8
I5
sg9
I4
sg10
I0
sg11
I600
ssg14
(dp34
g5
I1690
sg6
I36
sg7
I12
sg8
I0
sg9
I0
sg10
I1
sg11
I1690
ssg16
(dp35
g5
I2727
sg6
I35
sg7
I11
sg8
I25
sg9
I2
sg10
I0
sg11
I1350
sss.(dp0
S'K_all3.csv'
p1
(dp2
S'machine'
p3
(dp4
S'count'
p5
I602
sS'truepos'
p6
I38
sS'falseneg'
p7
I3
sS'correction'
p8
I10
sS'unknownyes'
p9
I4
sS'falsepos'
p10
I4
sS'unique'
p11
I440
ssS'knee'
p12
(dp13
g5
I1022
sg6
I30
sg7
I11
sg8
I6
sg9
I4
sg10
I4
sg11
I770
ssS'none'
p14
(dp15
g5
I670
sg6
I30
sg7
I11
sg8
I0
sg9
I4
sg10
I6
sg11
I670
ssS'three'
p16
(dp17
g5
I1407
sg6
I34
sg7
I9
sg8
I23
sg9
I2
sg10
I0
sg11
I690
sssS'Wahono.csv'
p18
(dp19
g3
(dp20
g5
I1909
sg6
I49
sg7
I10
sg8
I17
sg9
I3
sg10
I5
sg11
I1360
ssg12
(dp21
g5
I942
sg6
I49
sg7
I6
sg8
I9
sg9
I7
sg10
I1
sg11
I560
ssg14
(dp22
g5
I1660
sg6
I43
sg7
I16
sg8
I0
sg9
I3
sg10
I7
sg11
I1660
ssg16
(dp23
g5
I3092
sg6
I50
sg7
I9
sg8
I29
sg9
I3
sg10
I0
sg11
I1530
sssS'Hall.csv'
p24
(dp25
g3
(dp26
g5
I753
sg6
I94
sg7
I8
sg8
I27
sg9
I2
sg10
I1
sg11
I550
ssg12
(dp27
g5
I521
sg6
I83
sg7
I15
sg8
I23
sg9
I6
sg10
I0
sg11
I360
ssg14
(dp28
g5
I2140
sg6
I71
sg7
I32
sg8
I0
sg9
I1
sg10
I5
sg11
I2140
ssg16
(dp29
g5
I2709
sg6
I89
sg7
I14
sg8
I45
sg9
I1
sg10
I0
sg11
I1330
sssS'Danijel.csv'
p30
(dp31
g3
(dp32
g5
I1275
sg6
I33
sg7
I11
sg8
I11
sg9
I4
sg10
I5
sg11
I910
ssg12
(dp33
g5
I885
sg6
I38
sg7
I5
sg8
I11
sg9
I5
sg10
I1
sg11
I680
ssg14
(dp34
g5
I1040
sg6
I35
sg7
I11
sg8
I0
sg9
I2
sg10
I6
sg11
I1040
ssg16
(dp35
g5
I3266
sg6
I36
sg7
I12
sg8
I23
sg9
I0
sg10
I0
sg11
I1620
sss.(dp0
S'K_all3.csv'
p1
(dp2
S'machine'
p3
(dp4
S'count'
p5
I936
sS'truepos'
p6
I33
sS'falseneg'
p7
I10
sS'correction'
p8
I12
sS'unknownyes'
p9
I2
sS'falsepos'
p10
I1
sS'unique'
p11
I670
ssS'knee'
p12
(dp13
g5
I1216
sg6
I38
sg7
I4
sg8
I10
sg9
I3
sg10
I10
sg11
I750
ssS'none'
p14
(dp15
g5
I710
sg6
I28
sg7
I13
sg8
I0
sg9
I4
sg10
I6
sg11
I710
ssS'three'
p16
(dp17
g5
I1411
sg6
I31
sg7
I11
sg8
I27
sg9
I3
sg10
I2
sg11
I690
sssS'Wahono.csv'
p18
(dp19
g3
(dp20
g5
I1937
sg6
I52
sg7
I8
sg8
I18
sg9
I2
sg10
I0
sg11
I1390
ssg12
(dp21
g5
I70
sg6
I9
sg7
I8
sg8
I1
sg9
I45
sg10
I0
sg11
I60
ssg14
(dp22
g5
I1600
sg6
I42
sg7
I19
sg8
I0
sg9
I1
sg10
I4
sg11
I1600
ssg16
(dp23
g5
I3721
sg6
I42
sg7
I18
sg8
I36
sg9
I2
sg10
I0
sg11
I1840
sssS'Hall.csv'
p24
(dp25
g3
(dp26
g5
I714
sg6
I99
sg7
I3
sg8
I22
sg9
I2
sg10
I2
sg11
I510
ssg12
(dp27
g5
I642
sg6
I88
sg7
I13
sg8
I24
sg9
I3
sg10
I1
sg11
I490
ssg14
(dp28
g5
I1440
sg6
I69
sg7
I34
sg8
I0
sg9
I1
sg10
I3
sg11
I1440
ssg16
(dp29
g5
I2253
sg6
I76
sg7
I27
sg8
I48
sg9
I1
sg10
I0
sg11
I1100
sssS'Danijel.csv'
p30
(dp31
g3
(dp32
g5
I1205
sg6
I39
sg7
I6
sg8
I13
sg9
I3
sg10
I0
sg11
I860
ssg12
(dp33
g5
I892
sg6
I40
sg7
I4
sg8
I14
sg9
I4
sg10
I1
sg11
I650
ssg14
(dp34
g5
I1660
sg6
I30
sg7
I17
sg8
I0
sg9
I1
sg10
I6
sg11
I1660
ssg16
(dp35
g5
I2644
sg6
I32
sg7
I15
sg8
I22
sg9
I1
sg10
I0
sg11
I1310
sss.(dp0
S'K_all3.csv'
p1
(dp2
S'machine'
p3
(dp4
S'count'
p5
I743
sS'truepos'
p6
I35
sS'falseneg'
p7
I6
sS'correction'
p8
I11
sS'unknownyes'
p9
I4
sS'falsepos'
p10
I3
sS'unique'
p11
I540
ssS'knee'
p12
(dp13
g5
I1602
sg6
I36
sg7
I8
sg8
I14
sg9
I1
sg10
I3
sg11
I1330
ssS'none'
p14
(dp15
g5
I760
sg6
I28
sg7
I15
sg8
I0
sg9
I2
sg10
I4
sg11
I760
ssS'three'
p16
(dp17
g5
I3451
sg6
I29
sg7
I16
sg8
I40
sg9
I0
sg10
I0
sg11
I1704
sssS'Wahono.csv'
p18
(dp19
g3
(dp20
g5
I2189
sg6
I51
sg7
I9
sg8
I19
sg9
I2
sg10
I1
sg11
I1560
ssg12
(dp21
g5
I1347
sg6
I42
sg7
I15
sg8
I14
sg9
I5
sg10
I0
sg11
I1120
ssg14
(dp22
g5
I1620
sg6
I48
sg7
I14
sg8
I0
sg9
I0
sg10
I6
sg11
I1620
ssg16
(dp23
g5
I4158
sg6
I42
sg7
I19
sg8
I33
sg9
I1
sg10
I0
sg11
I2060
sssS'Hall.csv'
p24
(dp25
g3
(dp26
g5
I926
sg6
I92
sg7
I10
sg8
I25
sg9
I2
sg10
I3
sg11
I660
ssg12
(dp27
g5
I663
sg6
I86
sg7
I16
sg8
I15
sg9
I2
sg10
I2
sg11
I480
ssg14
(dp28
g5
I1610
sg6
I69
sg7
I34
sg8
I0
sg9
I1
sg10
I5
sg11
I1610
ssg16
(dp29
g5
I1089
sg6
I79
sg7
I23
sg8
I43
sg9
I2
sg10
I0
sg11
I520
sssS'Danijel.csv'
p30
(dp31
g3
(dp32
g5
I962
sg6
I40
sg7
I5
sg8
I6
sg9
I3
sg10
I2
sg11
I700
ssg12
(dp33
g5
I1050
sg6
I39
sg7
I7
sg8
I11
sg9
I2
sg10
I1
sg11
I870
ssg14
(dp34
g5
I1380
sg6
I30
sg7
I16
sg8
I0
sg9
I2
sg10
I3
sg11
I1380
ssg16
(dp35
g5
I2912
sg6
I36
sg7
I11
sg8
I27
sg9
I1
sg10
I0
sg11
I1440
sss.(dp0
S'K_all3.csv'
p1
(dp2
S'machine'
p3
(dp4
S'count'
p5
I945
sS'truepos'
p6
I32
sS'falseneg'
p7
I10
sS'correction'
p8
I13
sS'unknownyes'
p9
I3
sS'falsepos'
p10
I6
sS'unique'
p11
I680
ssS'knee'
p12
(dp13
g5
I1874
sg6
I38
sg7
I7
sg8
I14
sg9
I0
sg10
I7
sg11
I1480
ssS'none'
p14
(dp15
g5
I650
sg6
I31
sg7
I11
sg8
I0
sg9
I3
sg10
I4
sg11
I650
ssS'three'
p16
(dp17
g5
I1271
sg6
I34
sg7
I8
sg8
I27
sg9
I3
sg10
I0
sg11
I620
sssS'Wahono.csv'
p18
(dp19
g3
(dp20
g5
I2150
sg6
I53
sg7
I7
sg8
I24
sg9
I2
sg10
I2
sg11
I1540
ssg12
(dp21
g5
I1521
sg6
I47
sg7
I12
sg8
I18
sg9
I3
sg10
I1
sg11
I1280
ssg14
(dp22
g5
I1630
sg6
I37
sg7
I20
sg8
I0
sg9
I5
sg10
I6
sg11
I1630
ssg16
(dp23
g5
I2523
sg6
I48
sg7
I12
sg8
I19
sg9
I2
sg10
I0
sg11
I1250
sssS'Hall.csv'
p24
(dp25
g3
(dp26
g5
I723
sg6
I85
sg7
I16
sg8
I23
sg9
I3
sg10
I3
sg11
I520
ssg12
(dp27
g5
I898
sg6
I94
sg7
I8
sg8
I23
sg9
I2
sg10
I2
sg11
I640
ssg14
(dp28
g5
I2080
sg6
I69
sg7
I35
sg8
I0
sg9
I0
sg10
I6
sg11
I2080
ssg16
(dp29
g5
I1846
sg6
I77
sg7
I25
sg8
I40
sg9
I2
sg10
I0
sg11
I900
sssS'Danijel.csv'
p30
(dp31
g3
(dp32
g5
I1021
sg6
I41
sg7
I4
sg8
I12
sg9
I3
sg10
I2
sg11
I740
ssg12
(dp33
g5
I697
sg6
I36
sg7
I6
sg8
I7
sg9
I6
sg10
I1
sg11
I500
ssg14
(dp34
g5
I1350
sg6
I31
sg7
I15
sg8
I0
sg9
I2
sg10
I7
sg11
I1350
ssg16
(dp35
g5
I3547
sg6
I37
sg7
I11
sg8
I26
sg9
I0
sg10
I0
sg11
I1760
sss.(dp0
S'K_all3.csv'
p1
(dp2
S'machine'
p3
(dp4
S'count'
p5
I656
sS'truepos'
p6
I36
sS'falseneg'
p7
I5
sS'correction'
p8
I10
sS'unknownyes'
p9
I4
sS'falsepos'
p10
I2
sS'unique'
p11
I470
ssS'knee'
p12
(dp13
g5
I1374
sg6
I37
sg7
I7
sg8
I10
sg9
I1
sg10
I17
sg11
I970
ssS'none'
p14
(dp15
g5
I610
sg6
I33
sg7
I8
sg8
I0
sg9
I4
sg10
I5
sg11
I610
ssS'three'
p16
(dp17
g5
I1332
sg6
I35
sg7
I7
sg8
I31
sg9
I3
sg10
I0
sg11
I650
sssS'Wahono.csv'
p18
(dp19
g3
(dp20
g5
I1910
sg6
I55
sg7
I5
sg8
I26
sg9
I2
sg10
I2
sg11
I1360
ssg12
(dp21
g5
I1347
sg6
I49
sg7
I10
sg8
I7
sg9
I3
sg10
I2
sg11
I1020
ssg14
(dp22
g5
I1440
sg6
I45
sg7
I14
sg8
I0
sg9
I3
sg10
I3
sg11
I1440
ssg16
(dp23
g5
I2616
sg6
I44
sg7
I16
sg8
I32
sg9
I2
sg10
I0
sg11
I1290
sssS'Hall.csv'
p24
(dp25
g3
(dp26
g5
I873
sg6
I95
sg7
I7
sg8
I20
sg9
I2
sg10
I2
sg11
I630
ssg12
(dp27
g5
I683
sg6
I85
sg7
I16
sg8
I22
sg9
I3
sg10
I1
sg11
I520
ssg14
(dp28
g5
I1420
sg6
I71
sg7
I32
sg8
I0
sg9
I1
sg10
I3
sg11
I1420
ssg16
(dp29
g5
I1629
sg6
I85
sg7
I17
sg8
I44
sg9
I2
sg10
I0
sg11
I790
sssS'Danijel.csv'
p30
(dp31
g3
(dp32
g5
I962
sg6
I44
sg7
I2
sg8
I13
sg9
I2
sg10
I1
sg11
I700
ssg12
(dp33
g5
I1244
sg6
I45
sg7
I1
sg8
I9
sg9
I2
sg10
I3
sg11
I870
ssg14
(dp34
g5
I2390
sg6
I25
sg7
I22
sg8
I0
sg9
I1
sg10
I5
sg11
I2390
ssg16
(dp35
g5
I2764
sg6
I34
sg7
I13
sg8
I22
sg9
I1
sg10
I0
sg11
I1370
sss.(dp0
S'K_all3.csv'
p1
(dp2
S'machine'
p3
(dp4
S'count'
p5
I888
sS'truepos'
p6
I35
sS'falseneg'
p7
I9
sS'correction'
p8
I12
sS'unknownyes'
p9
I1
sS'falsepos'
p10
I8
sS'unique'
p11
I640
ssS'knee'
p12
(dp13
g5
I2356
sg6
I38
sg7
I7
sg8
I13
sg9
I0
sg10
I7
sg11
I1580
ssS'none'
p14
(dp15
g5
I740
sg6
I34
sg7
I8
sg8
I0
sg9
I3
sg10
I1
sg11
I740
ssS'three'
p16
(dp17
g5
I1834
sg6
I30
sg7
I13
sg8
I29
sg9
I2
sg10
I0
sg11
I900
sssS'Wahono.csv'
p18
(dp19
g3
(dp20
g5
I2001
sg6
I52
sg7
I9
sg8
I21
sg9
I1
sg10
I1
sg11
I1430
ssg12
(dp21
g5
I2196
sg6
I52
sg7
I8
sg8
I19
sg9
I2
sg10
I4
sg11
I1580
ssg14
(dp22
g5
I2100
sg6
I39
sg7
I21
sg8
I0
sg9
I2
sg10
I3
sg11
I2100
ssg16
(dp23
g5
I4375
sg6
I47
sg7
I15
sg8
I29
sg9
I0
sg10
I0
sg11
I2170
sssS'Hall.csv'
p24
(dp25
g3
(dp26
g5
I793
sg6
I91
sg7
I11
sg8
I24
sg9
I2
sg10
I0
sg11
I570
ssg12
(dp27
g5
I716
sg6
I93
sg7
I9
sg8
I23
sg9
I2
sg10
I2
sg11
I510
ssg14
(dp28
g5
I1410
sg6
I69
sg7
I34
sg8
I0
sg9
I1
sg10
I3
sg11
I1410
ssg16
(dp29
g5
I4275
sg6
I79
sg7
I24
sg8
I42
sg9
I1
sg10
I0
sg11
I2110
sssS'Danijel.csv'
p30
(dp31
g3
(dp32
g5
I1013
sg6
I40
sg7
I6
sg8
I8
sg9
I2
sg10
I0
sg11
I730
ssg12
(dp33
g5
I991
sg6
I38
sg7
I5
sg8
I12
sg9
I5
sg10
I0
sg11
I690
ssg14
(dp34
g5
I1790
sg6
I31
sg7
I16
sg8
I0
sg9
I1
sg10
I4
sg11
I1790
ssg16
(dp35
g5
I2606
sg6
I37
sg7
I9
sg8
I26
sg9
I2
sg10
I0
sg11
I1290
sss.(dp0
S'K_all3.csv'
p1
(dp2
S'machine'
p3
(dp4
S'count'
p5
I855
sS'truepos'
p6
I34
sS'falseneg'
p7
I9
sS'correction'
p8
I11
sS'unknownyes'
p9
I2
sS'falsepos'
p10
I4
sS'unique'
p11
I610
ssS'knee'
p12
(dp13
g5
I2212
sg6
I42
sg7
I3
sg8
I15
sg9
I0
sg10
I13
sg11
I1540
ssS'none'
p14
(dp15
g5
I680
sg6
I26
sg7
I15
sg8
I0
sg9
I4
sg10
I7
sg11
I680
ssS'three'
p16
(dp17
g5
I1285
sg6
I34
sg7
I5
sg8
I24
sg9
I6
sg10
I0
sg11
I630
sssS'Wahono.csv'
p18
(dp19
g3
(dp20
g5
I2367
sg6
I47
sg7
I13
sg8
I36
sg9
I2
sg10
I2
sg11
I1690
ssg12
(dp21
g5
I1849
sg6
I47
sg7
I13
sg8
I16
sg9
I2
sg10
I2
sg11
I1470
ssg14
(dp22
g5
I2360
sg6
I44
sg7
I17
sg8
I0
sg9
I1
sg10
I9
sg11
I2360
ssg16
(dp23
g5
I4260
sg6
I45
sg7
I16
sg8
I33
sg9
I1
sg10
I0
sg11
I2110
sssS'Hall.csv'
p24
(dp25
g3
(dp26
g5
I885
sg6
I93
sg7
I9
sg8
I30
sg9
I2
sg10
I3
sg11
I640
ssg12
(dp27
g5
I628
sg6
I92
sg7
I9
sg8
I18
sg9
I3
sg10
I1
sg11
I460
ssg14
(dp28
g5
I2520
sg6
I70
sg7
I33
sg8
I0
sg9
I1
sg10
I9
sg11
I2520
ssg16
(dp29
g5
I2940
sg6
I72
sg7
I31
sg8
I48
sg9
I1
sg10
I0
sg11
I1440
sssS'Danijel.csv'
p30
(dp31
g3
(dp32
g5
I2121
sg6
I32
sg7
I14
sg8
I20
sg9
I2
sg10
I1
sg11
I1510
ssg12
(dp33
g5
I358
sg6
I35
sg7
I2
sg8
I1
sg9
I11
sg10
I1
sg11
I230
ssg14
(dp34
g5
I2120
sg6
I26
sg7
I21
sg8
I0
sg9
I1
sg10
I4
sg11
I2120
ssg16
(dp35
g5
I2464
sg6
I33
sg7
I14
sg8
I19
sg9
I1
sg10
I0
sg11
I1220
sss.