(dp0
S'K_all3.csv'
p1
(dp2
S'machine'
p3
(dp4
S'count'
p5
I733
sS'truepos'
p6
I27
sS'falseneg'
p7
I16
sS'correction'
p8
I0
sS'unknownyes'
p9
I2
sS'falsepos'
p10
I7
sS'unique'
p11
I680
ssS'knee'
p12
(dp13
g5
I650
sg6
I34
sg7
I4
sg8
I8
sg9
I7
sg10
I0
sg11
I450
ssS'none'
p14
(dp15
g5
I650
sg6
I28
sg7
I12
sg8
I0
sg9
I5
sg10
I4
sg11
I650
ssS'three'
p16
(dp17
g5
I1087
sg6
I34
sg7
I9
sg8
I26
sg9
I2
sg10
I0
sg11
I530
sssS'Wahono.csv'
p18
(dp19
g3
(dp20
g5
I1901
sg6
I57
sg7
I4
sg8
I13
sg9
I1
sg10
I3
sg11
I1290
ssg12
(dp21
g5
I1113
sg6
I47
sg7
I13
sg8
I9
sg9
I2
sg10
I1
sg11
I920
ssg14
(dp22
g5
I1490
sg6
I41
sg7
I20
sg8
I0
sg9
I1
sg10
I5
sg11
I1490
ssg16
(dp23
g5
I2419
sg6
I54
sg7
I6
sg8
I38
sg9
I2
sg10
I0
sg11
I1190
sssS'Hall.csv'
p24
(dp25
g3
(dp26
g5
I776
sg6
I86
sg7
I16
sg8
I21
sg9
I2
sg10
I4
sg11
I550
ssg12
(dp27
g5
I651
sg6
I85
sg7
I17
sg8
I21
sg9
I2
sg10
I1
sg11
I460
ssg14
(dp28
g5
I780
sg6
I81
sg7
I22
sg8
I0
sg9
I1
sg10
I1
sg11
I780
ssg16
(dp29
g5
I955
sg6
I76
sg7
I24
sg8
I32
sg9
I4
sg10
I0
sg11
I460
sssS'Danijel.csv'
p30
(dp31
g3
(dp32
g5
I1131
sg6
I40
sg7
I6
sg8
I13
sg9
I2
sg10
I2
sg11
I820
ssg12
(dp33
g5
I457
sg6
I31
sg7
I5
sg8
I8
sg9
I12
sg10
I1
sg11
I270
ssg14
(dp34
g5
I1150
sg6
I34
sg7
I11
sg8
I0
sg9
I3
sg10
I2
sg11
I1150
ssg16
(dp35
g5
I2761
sg6
I35
sg7
I11
sg8
I20
sg9
I2
sg10
I0
sg11
I1370
sss.(dp0
S'K_all3.csv'
p1
(dp2
S'machine'
p3
(dp4
S'count'
p5
I710
sS'truepos'
p6
I33
sS'falseneg'
p7
I8
sS'correction'
p8
I5
sS'unknownyes'
p9
I4
sS'falsepos'
p10
I4
sS'unique'
p11
I610
ssS'knee'
p12
(dp13
g5
I113
sg6
I10
sg7
I3
sg8
I3
sg9
I32
sg10
I0
sg11
I80
ssS'none'
p14
(dp15
g5
I580
sg6
I31
sg7
I10
sg8
I0
sg9
I4
sg10
I5
sg11
I580
ssS'three'
p16
(dp17
g5
I1536
sg6
I30
sg7
I12
sg8
I33
sg9
I3
sg10
I0
sg11
I750
sssS'Wahono.csv'
p18
(dp19
g3
(dp20
g5
I1794
sg6
I51
sg7
I9
sg8
I13
sg9
I2
sg10
I4
sg11
I1240
ssg12
(dp21
g5
I865
sg6
I42
sg7
I13
sg8
I11
sg9
I7
sg10
I3
sg11
I720
ssg14
(dp22
g5
I1510
sg6
I38
sg7
I23
sg8
I0
sg9
I1
sg10
I6
sg11
I1510
ssg16
(dp23
g5
I2911
sg6
I47
sg7
I13
sg8
I28
sg9
I2
sg10
I0
sg11
I1440
sssS'Hall.csv'
p24
(dp25
g3
(dp26
g5
I870
sg6
I86
sg7
I16
sg8
I18
sg9
I2
sg10
I2
sg11
I640
ssg12
(dp27
g5
I693
sg6
I84
sg7
I18
sg8
I16
sg9
I2
sg10
I0
sg11
I510
ssg14
(dp28
g5
I990
sg6
I69
sg7
I33
sg8
I0
sg9
I2
sg10
I1
sg11
I990
ssg16
(dp29
g5
I1462
sg6
I81
sg7
I21
sg8
I37
sg9
I2
sg10
I0
sg11
I710
sssS'Danijel.csv'
p30
(dp31
g3
(dp32
g5
I1229
sg6
I40
sg7
I5
sg8
I11
sg9
I3
sg10
I3
sg11
I840
ssg12
(dp33
g5
I47
sg6
I5
sg7
I2
sg8
I0
sg9
I41
sg10
I0
sg11
I40
ssg14
(dp34
g5
I930
sg6
I36
sg7
I8
sg8
I0
sg9
I4
sg10
I4
sg11
I930
ssg16
(dp35
g5
I1583
sg6
I43
sg7
I2
sg8
I23
sg9
I3
sg10
I0
sg11
I780
sss.(dp0
S'K_all3.csv'
p1
(dp2
S'machine'
p3
(dp4
S'count'
p5
I913
sS'truepos'
p6
I29
sS'falseneg'
p7
I16
sS'correction'
p8
I6
sS'unknownyes'
p9
I0
sS'falsepos'
p10
I11
sS'unique'
p11
I810
ssS'knee'
p12
(dp13
g5
I457
sg6
I29
sg7
I3
sg8
I7
sg9
I13
sg10
I2
sg11
I270
ssS'none'
p14
(dp15
g5
I570
sg6
I29
sg7
I14
sg8
I0
sg9
I2
sg10
I7
sg11
I570
ssS'three'
p16
(dp17
g5
I1126
sg6
I36
sg7
I6
sg8
I24
sg9
I3
sg10
I0
sg11
I550
sssS'Wahono.csv'
p18
(dp19
g3
(dp20
g5
I1773
sg6
I57
sg7
I2
sg8
I11
sg9
I3
sg10
I2
sg11
I1290
ssg12
(dp21
g5
I661
sg6
I40
sg7
I5
sg8
I12
sg9
I17
sg10
I3
sg11
I380
ssg14
(dp22
g5
I1890
sg6
I34
sg7
I27
sg8
I0
sg9
I1
sg10
I9
sg11
I1890
ssg16
(dp23
g5
I2843
sg6
I47
sg7
I12
sg8
I22
sg9
I3
sg10
I0
sg11
I1410
sssS'Hall.csv'
p24
(dp25
g3
(dp26
g5
I900
sg6
I91
sg7
I11
sg8
I24
sg9
I2
sg10
I2
sg11
I650
ssg12
(dp27
g5
I746
sg6
I89
sg7
I13
sg8
I21
sg9
I2
sg10
I0
sg11
I540
ssg14
(dp28
g5
I800
sg6
I73
sg7
I29
sg8
I0
sg9
I2
sg10
I3
sg11
I800
ssg16
(dp29
g5
I1418
sg6
I81
sg7
I21
sg8
I35
sg9
I2
sg10
I0
sg11
I690
sssS'Danijel.csv'
p30
(dp31
g3
(dp32
g5
I1200
sg6
I41
sg7
I4
sg8
I9
sg9
I3
sg10
I2
sg11
I770
ssg12
(dp33
g5
I79
sg6
I3
sg7
I2
sg8
I2
sg9
I43
sg10
I0
sg11
I70
ssg14
(dp34
g5
I930
sg6
I38
sg7
I8
sg8
I0
sg9
I2
sg10
I2
sg11
I930
ssg16
(dp35
g5
I2569
sg6
I36
sg7
I10
sg8
I25
sg9
I2
sg10
I0
sg11
I1270
sss.(dp0
S'K_all3.csv'
p1
(dp2
S'machine'
p3
(dp4
S'count'
p5
I803
sS'truepos'
p6
I23
sS'falseneg'
p7
I13
sS'correction'
p8
I3
sS'unknownyes'
p9
I9
sS'falsepos'
p10
I7
sS'unique'
p11
I790
ssS'knee'
p12
(dp13
g5
I510
sg6
I28
sg7
I5
sg8
I10
sg9
I12
sg10
I2
sg11
I300
ssS'none'
p14
(dp15
g5
I580
sg6
I31
sg7
I11
sg8
I0
sg9
I3
sg10
I3
sg11
I580
ssS'three'
p16
(dp17
g5
I1348
sg6
I30
sg7
I12
sg8
I26
sg9
I3
sg10
I0
sg11
I660
sssS'Wahono.csv'
p18
(dp19
g3
(dp20
g5
I1658
sg6
I58
sg7
I2
sg8
I11
sg9
I2
sg10
I1
sg11
I1110
ssg12
(dp21
g5
I1219
sg6
I49
sg7
I10
sg8
I12
sg9
I3
sg10
I4
sg11
I910
ssg14
(dp22
g5
I1240
sg6
I38
sg7
I21
sg8
I0
sg9
I3
sg10
I3
sg11
I1240
ssg16
(dp23
g5
I2796
sg6
I47
sg7
I12
sg8
I33
sg9
I3
sg10
I0
sg11
I1380
sssS'Hall.csv'
p24
(dp25
g3
(dp26
g5
I743
sg6
I84
sg7
I18
sg8
I11
sg9
I2
sg10
I0
sg11
I520
ssg12
(dp27
g5
I598
sg6
I89
sg7
I12
sg8
I25
sg9
I3
sg10
I1
sg11
I410
ssg14
(dp28
g5
I740
sg6
I73
sg7
I29
sg8
I0
sg9
I2
sg10
I2
sg11
I740
ssg16
(dp29
g5
I1448
sg6
I84
sg7
I18
sg8
I42
sg9
I2
sg10
I0
sg11
I700
sssS'Danijel.csv'
p30
(dp31
g3
(dp32
g5
I1145
sg6
I40
sg7
I6
sg8
I10
sg9
I2
sg10
I3
sg11
I990
ssg12
(dp33
g5
I777
sg6
I39
sg7
I5
sg8
I10
sg9
I4
sg10
I2
sg11
I550
ssg14
(dp34
g5
I1160
sg6
I35
sg7
I11
sg8
I0
sg9
I2
sg10
I3
sg11
I1160
ssg16
(dp35
g5
I2380
sg6
I36
sg7
I10
sg8
I18
sg9
I2
sg10
I0
sg11
I1180
sss.(dp0
S'K_all3.csv'
p1
(dp2
S'machine'
p3
(dp4
S'count'
p5
I583
sS'truepos'
p6
I26
sS'falseneg'
p7
I13
sS'correction'
p8
I1
sS'unknownyes'
p9
I6
sS'falsepos'
p10
I5
sS'unique'
p11
I580
ssS'knee'
p12
(dp13
g5
I338
sg6
I22
sg7
I7
sg8
I6
sg9
I16
sg10
I2
sg11
I250
ssS'none'
p14
(dp15
g5
I580
sg6
I28
sg7
I12
sg8
I0
sg9
I5
sg10
I3
sg11
I580
ssS'three'
p16
(dp17
g5
I1169
sg6
I35
sg7
I8
sg8
I29
sg9
I2
sg10
I0
sg11
I570
sssS'Wahono.csv'
p18
(dp19
g3
(dp20
g5
I2354
sg6
I54
sg7
I7
sg8
I10
sg9
I1
sg10
I8
sg11
I1610
ssg12
(dp21
g5
I1104
sg6
I47
sg7
I7
sg8
I11
sg9
I8
sg10
I4
sg11
I670
ssg14
(dp22
g5
I1350
sg6
I41
sg7
I19
sg8
I0
sg9
I2
sg10
I1
sg11
I1350
ssg16
(dp23
g5
I3040
sg6
I43
sg7
I17
sg8
I33
sg9
I2
sg10
I0
sg11
I1500
sssS'Hall.csv'
p24
(dp25
g3
(dp26
g5
I784
sg6
I93
sg7
I9
sg8
I26
sg9
I2
sg10
I0
sg11
I580
ssg12
(dp27
g5
I694
sg6
I88
sg7
I13
sg8
I22
sg9
I3
sg10
I2
sg11
I510
ssg14
(dp28
g5
I650
sg6
I76
sg7
I26
sg8
I0
sg9
I2
sg10
I0
sg11
I650
ssg16
(dp29
g5
I1760
sg6
I83
sg7
I20
sg8
I38
sg9
I1
sg10
I0
sg11
I860
sssS'Danijel.csv'
p30
(dp31
g3
(dp32
g5
I1032
sg6
I42
sg7
I4
sg8
I10
sg9
I2
sg10
I1
sg11
I730
ssg12
(dp33
g5
I911
sg6
I35
sg7
I7
sg8
I8
sg9
I6
sg10
I0
sg11
I650
ssg14
(dp34
g5
I1230
sg6
I35
sg7
I12
sg8
I0
sg9
I1
sg10
I3
sg11
I1230
ssg16
(dp35
g5
I2324
sg6
I37
sg7
I8
sg8
I21
sg9
I3
sg10
I0
sg11
I1150
sss.(dp0
S'K_all3.csv'
p1
(dp2
S'machine'
p3
(dp4
S'count'
p5
I560
sS'truepos'
p6
I34
sS'falseneg'
p7
I7
sS'correction'
p8
I1
sS'unknownyes'
p9
I4
sS'falsepos'
p10
I3
sS'unique'
p11
I460
ssS'knee'
p12
(dp13
g5
I66
sg6
I7
sg7
I2
sg8
I3
sg9
I36
sg10
I0
sg11
I50
ssS'none'
p14
(dp15
g5
I560
sg6
I28
sg7
I13
sg8
I0
sg9
I4
sg10
I6
sg11
I560
ssS'three'
p16
(dp17
g5
I1165
sg6
I34
sg7
I10
sg8
I22
sg9
I1
sg10
I0
sg11
I570
sssS'Wahono.csv'
p18
(dp19
g3
(dp20
g5
I1885
sg6
I52
sg7
I8
sg8
I9
sg9
I2
sg10
I6
sg11
I1230
ssg12
(dp21
g5
I1779
sg6
I48
sg7
I10
sg8
I16
sg9
I4
sg10
I4
sg11
I1100
ssg14
(dp22
g5
I1390
sg6
I38
sg7
I21
sg8
I0
sg9
I3
sg10
I2
sg11
I1390
ssg16
(dp23
g5
I3114
sg6
I45
sg7
I14
sg8
I31
sg9
I3
sg10
I0
sg11
I1540
sssS'Hall.csv'
p24
(dp25
g3
(dp26
g5
I382
sg6
I75
sg7
I15
sg8
I17
sg9
I14
sg10
I1
sg11
I260
ssg12
(dp27
g5
I613
sg6
I86
sg7
I13
sg8
I21
sg9
I5
sg10
I1
sg11
I420
ssg14
(dp28
g5
I1380
sg6
I69
sg7
I34
sg8
I0
sg9
I1
sg10
I4
sg11
I1380
ssg16
(dp29
g5
I1152
sg6
I80
sg7
I22
sg8
I47
sg9
I2
sg10
I0
sg11
I550
sssS'Danijel.csv'
p30
(dp31
g3
(dp32
g5
I1533
sg6
I45
sg7
I1
sg8
I7
sg9
I2
sg10
I5
sg11
I940
ssg12
(dp33
g5
I36
sg6
I4
sg7
I1
sg8
I0
sg9
I43
sg10
I0
sg11
I30
ssg14
(dp34
g5
I1290
sg6
I30
sg7
I16
sg8
I0
sg9
I2
sg10
I3
sg11
I1290
ssg16
(dp35
g5
I2228
sg6
I36
sg7
I10
sg8
I26
sg9
I2
sg10
I0
sg11
I1100
sss.(dp0
S'K_all3.csv'
p1
(dp2
S'machine'
p3
(dp4
S'count'
p5
I880
sS'truepos'
p6
I25
sS'falseneg'
p7
I17
sS'correction'
p8
I0
sS'unknownyes'
p9
I3
sS'falsepos'
p10
I5
sS'unique'
p11
I880
ssS'knee'
p12
(dp13
g5
I670
sg6
I26
sg7
I6
sg8
I7
sg9
I13
sg10
I4
sg11
I440
ssS'none'
p14
(dp15
g5
I660
sg6
I25
sg7
I15
sg8
I0
sg9
I5
sg10
I6
sg11
I660
ssS'three'
p16
(dp17
g5
I970
sg6
I34
sg7
I7
sg8
I29
sg9
I4
sg10
I0
sg11
I470
sssS'Wahono.csv'
p18
(dp19
g3
(dp20
g5
I2085
sg6
I51
sg7
I10
sg8
I10
sg9
I1
sg10
I2
sg11
I1480
ssg12
(dp21
g5
I1009
sg6
I46
sg7
I6
sg8
I12
sg9
I10
sg10
I2
sg11
I630
ssg14
(dp22
g5
I1300
sg6
I49
sg7
I11
sg8
I0
sg9
I2
sg10
I5
sg11
I1300
ssg16
(dp23
g5
I2755
sg6
I49
sg7
I11
sg8
I32
sg9
I2
sg10
I0
sg11
I1360
sssS'Hall.csv'
p24
(dp25
g3
(dp26
g5
I663
sg6
I93
sg7
I9
sg8
I20
sg9
I2
sg10
I7
sg11
I470
ssg12
(dp27
g5
I636
sg6
I84
sg7
I17
sg8
I18
sg9
I3
sg10
I1
sg11
I470
ssg14
(dp28
g5
I690
sg6
I78
sg7
I24
sg8
I0
sg9
I2
sg10
I6
sg11
I690
ssg16
(dp29
g5
I1668
sg6
I86
sg7
I17
sg8
I45
sg9
I1
sg10
I0
sg11
I810
sssS'Danijel.csv'
p30
(dp31
g3
(dp32
g5
I1437
sg6
I42
sg7
I5
sg8
I8
sg9
I1
sg10
I3
sg11
I980
ssg12
(dp33
g5
I36
sg6
I4
sg7
I3
sg8
I0
sg9
I41
sg10
I0
sg11
I30
ssg14
(dp34
g5
I1320
sg6
I32
sg7
I14
sg8
I0
sg9
I2
sg10
I4
sg11
I1320
ssg16
(dp35
g5
I1799
sg6
I39
sg7
I7
sg8
I16
sg9
I2
sg10
I0
sg11
I890
sss.(dp0
S'K_all3.csv'
p1
(dp2
S'machine'
p3
(dp4
S'count'
p5
I720
sS'truepos'
p6
I31
sS'falseneg'
p7
I11
sS'correction'
p8
I1
sS'unknownyes'
p9
I3
sS'falsepos'
p10
I4
sS'unique'
p11
I670
ssS'knee'
p12
(dp13
g5
I1394
sg6
I39
sg7
I6
sg8
I15
sg9
I0
sg10
I3
sg11
I1180
ssS'none'
p14
(dp15
g5
I510
sg6
I32
sg7
I7
sg8
I0
sg9
I6
sg10
I6
sg11
I510
ssS'three'
p16
(dp17
g5
I986
sg6
I35
sg7
I7
sg8
I23
sg9
I3
sg10
I0
sg11
I480
sssS'Wahono.csv'
p18
(dp19
g3
(dp20
g5
I1822
sg6
I53
sg7
I6
sg8
I7
sg9
I3
sg10
I11
sg11
I1130
ssg12
(dp21
g5
I1020
sg6
I50
sg7
I7
sg8
I6
sg9
I5
sg10
I2
sg11
I730
ssg14
(dp22
g5
I1450
sg6
I46
sg7
I13
sg8
I0
sg9
I3
sg10
I4
sg11
I1450
ssg16
(dp23
g5
I2702
sg6
I52
sg7
I7
sg8
I41
sg9
I3
sg10
I0
sg11
I1330
sssS'Hall.csv'
p24
(dp25
g3
(dp26
g5
I817
sg6
I85
sg7
I17
sg8
I23
sg9
I2
sg10
I2
sg11
I570
ssg12
(dp27
g5
I694
sg6
I85
sg7
I17
sg8
I22
sg9
I2
sg10
I0
sg11
I530
ssg14
(dp28
g5
I950
sg6
I70
sg7
I33
sg8
I0
sg9
I1
sg10
I1
sg11
I950
ssg16
(dp29
g5
I1162
sg6
I81
sg7
I21
sg8
I38
sg9
I2
sg10
I0
sg11
I560
sssS'Danijel.csv'
p30
(dp31
g3
(dp32
g5
I1549
sg6
I37
sg7
I7
sg8
I7
sg9
I4
sg10
I7
sg11
I990
ssg12
(dp33
g5
I684
sg6
I35
sg7
I5
sg8
I7
sg9
I8
sg10
I1
sg11
I430
ssg14
(dp34
g5
I1270
sg6
I35
sg7
I11
sg8
I0
sg9
I2
sg10
I2
sg11
I1270
ssg16
(dp35
g5
I1943
sg6
I38
sg7
I8
sg8
I20
sg9
I2
sg10
I0
sg11
I960
sss.(dp0
S'K_all3.csv'
p1
(dp2
S'machine'
p3
(dp4
S'count'
p5
I790
sS'truepos'
p6
I29
sS'falseneg'
p7
I13
sS'correction'
p8
I6
sS'unknownyes'
p9
I3
sS'falsepos'
p10
I7
sS'unique'
p11
I640
ssS'knee'
p12
(dp13
g5
I926
sg6
I33
sg7
I5
sg8
I10
sg9
I7
sg10
I7
sg11
I570
ssS'none'
p14
(dp15
g5
I600
sg6
I26
sg7
I13
sg8
I0
sg9
I6
sg10
I6
sg11
I600
ssS'three'
p16
(dp17
g5
I1510
sg6
I34
sg7
I10
sg8
I28
sg9
I1
sg10
I0
sg11
I740
sssS'Wahono.csv'
p18
(dp19
g3
(dp20
g5
I2028
sg6
I51
sg7
I9
sg8
I9
sg9
I2
sg10
I4
sg11
I1420
ssg12
(dp21
g5
I393
sg6
I28
sg7
I10
sg8
I5
sg9
I24
sg10
I0
sg11
I280
ssg14
(dp22
g5
I1740
sg6
I47
sg7
I13
sg8
I0
sg9
I2
sg10
I2
sg11
I1740
ssg16
(dp23
g5
I3031
sg6
I48
sg7
I13
sg8
I27
sg9
I1
sg10
I0
sg11
I1500
sssS'Hall.csv'
p24
(dp25
g3
(dp26
g5
I730
sg6
I93
sg7
I9
sg8
I21
sg9
I2
sg10
I2
sg11
I530
ssg12
(dp27
g5
I550
sg6
I85
sg7
I12
sg8
I20
sg9
I7
sg10
I0
sg11
I400
ssg14
(dp28
g5
I970
sg6
I62
sg7
I41
sg8
I0
sg9
I1
sg10
I0
sg11
I970
ssg16
(dp29
g5
I1836
sg6
I72
sg7
I30
sg8
I44
sg9
I2
sg10
I0
sg11
I890
sssS'Danijel.csv'
p30
(dp31
g3
(dp32
g5
I1248
sg6
I42
sg7
I3
sg8
I12
sg9
I3
sg10
I2
sg11
I840
ssg12
(dp33
g5
I956
sg6
I37
sg7
I8
sg8
I7
sg9
I3
sg10
I2
sg11
I680
ssg14
(dp34
g5
I1240
sg6
I33
sg7
I13
sg8
I0
sg9
I2
sg10
I3
sg11
I1240
ssg16
(dp35
g5
I1519
sg6
I38
sg7
I5
sg8
I18
sg9
I5
sg10
I0
sg11
I750
sss.(dp0
S'K_all3.csv'
p1
(dp2
S'machine'
p3
(dp4
S'count'
p5
I753
sS'truepos'
p6
I28
sS'falseneg'
p7
I6
sS'correction'
p8
I3
sS'unknownyes'
p9
I11
sS'falsepos'
p10
I5
sS'unique'
p11
I700
ssS'knee'
p12
(dp13
g5
I260
sg6
I20
sg7
I3
sg8
I1
sg9
I22
sg10
I3
sg11
I160
ssS'none'
p14
(dp15
g5
I600
sg6
I32
sg7
I12
sg8
I0
sg9
I1
sg10
I6
sg11
I600
ssS'three'
p16
(dp17
g5
I1132
sg6
I34
sg7
I7
sg8
I30
sg9
I4
sg10
I0
sg11
I550
sssS'Wahono.csv'
p18
(dp19
g3
(dp20
g5
I1703
sg6
I52
sg7
I6
sg8
I12
sg9
I4
sg10
I6
sg11
I1030
ssg12
(dp21
g5
I1080
sg6
I50
sg7
I4
sg8
I15
sg9
I8
sg10
I2
sg11
I720
ssg14
(dp22
g5
I1260
sg6
I45
sg7
I14
sg8
I0
sg9
I3
sg10
I2
sg11
I1260
ssg16
(dp23
g5
I2869
sg6
I50
sg7
I11
sg8
I26
sg9
I1
sg10
I0
sg11
I1420
sssS'Hall.csv'
p24
(dp25
g3
(dp26
g5
I716
sg6
I94
sg7
I8
sg8
I16
sg9
I2
sg10
I3
sg11
I510
ssg12
(dp27
g5
I569
sg6
I87
sg7
I12
sg8
I18
sg9
I5
sg10
I1
sg11
I410
ssg14
(dp28
g5
I970
sg6
I71
sg7
I31
sg8
I0
sg9
I2
sg10
I0
sg11
I970
ssg16
(dp29
g5
I1265
sg6
I83
sg7
I19
sg8
I41
sg9
I2
sg10
I0
sg11
I610
sssS'Danijel.csv'
p30
(dp31
g3
(dp32
g5
I1046
sg6
I38
sg7
I7
sg8
I6
sg9
I3
sg10
I2
sg11
I710
ssg12
(dp33
g5
I465
sg6
I28
sg7
I10
sg8
I4
sg9
I10
sg10
I1
sg11
I350
ssg14
(dp34
g5
I1240
sg6
I33
sg7
I13
sg8
I0
sg9
I2
sg10
I5
sg11
I1240
ssg16
(dp35
g5
I2532
sg6
I36
sg7
I10
sg8
I28
sg9
I2
sg10
I0
sg11
I1250
sss.(dp0
S'K_all3.csv'
p1
(dp2
S'machine'
p3
(dp4
S'count'
p5
I761
sS'truepos'
p6
I32
sS'falseneg'
p7
I6
sS'correction'
p8
I5
sS'unknownyes'
p9
I7
sS'falsepos'
p10
I3
sS'unique'
p11
I710
ssS'knee'
p12
(dp13
g5
I79
sg6
I3
sg7
I0
sg8
I2
sg9
I42
sg10
I0
sg11
I70
ssS'none'
p14
(dp15
g5
I940
sg6
I27
sg7
I15
sg8
I0
sg9
I3
sg10
I5
sg11
I940
ssS'three'
p16
(dp17
g5
I1608
sg6
I31
sg7
I12
sg8
I24
sg9
I2
sg10
I0
sg11
I790
sssS'Wahono.csv'
p18
(dp19
g3
(dp20
g5
I2290
sg6
I50
sg7
I9
sg8
I11
sg9
I3
sg10
I6
sg11
I1550
ssg12
(dp21
g5
I1300
sg6
I40
sg7
I15
sg8
I11
sg9
I7
sg10
I1
sg11
I940
ssg14
(dp22
g5
I1560
sg6
I40
sg7
I20
sg8
I0
sg9
I2
sg10
I4
sg11
I1560
ssg16
(dp23
g5
I2932
sg6
I47
sg7
I13
sg8
I32
sg9
I2
sg10
I0
sg11
I1450
sssS'Hall.csv'
p24
(dp25
g3
(dp26
g5
I703
sg6
I94
sg7
I8
sg8
I16
sg9
I2
sg10
I3
sg11
I510
ssg12
(dp27
g5
I736
sg6
I92
sg7
I10
sg8
I22
sg9
I2
sg10
I2
sg11
I520
ssg14
(dp28
g5
I810
sg6
I74
sg7
I28
sg8
I0
sg9
I2
sg10
I6
sg11
I810
ssg16
(dp29
g5
I1256
sg6
I85
sg7
I17
sg8
I51
sg9
I2
sg10
I0
sg11
I600
sssS'Danijel.csv'
p30
(dp31
g3
(dp32
g5
I1062
sg6
I41
sg7
I5
sg8
I10
sg9
I2
sg10
I2
sg11
I860
ssg12
(dp33
g5
I48
sg6
I3
sg7
I2
sg8
I1
sg9
I43
sg10
I0
sg11
I40
ssg14
(dp34
g5
I1380
sg6
I30
sg7
I16
sg8
I0
sg9
I2
sg10
I3
sg11
I1380
ssg16
(dp35
g5
I2724
sg6
I33
sg7
I14
sg8
I19
sg9
I1
sg10
I0
sg11
I1350
sss.(dp0
S'K_all3.csv'
p1
(dp2
S'machine'
p3
(dp4
S'count'
p5
I791
sS'truepos'
p6
I39
sS'falseneg'
p7
I3
sS'correction'
p8
I9
sS'unknownyes'
p9
I3
sS'falsepos'
p10
I10
sS'unique'
p11
I590
ssS'knee'
p12
(dp13
g5
I144
sg6
I10
sg7
I4
sg8
I4
sg9
I31
sg10
I1
sg11
I100
ssS'none'
p14
(dp15
g5
I700
sg6
I23
sg7
I19
sg8
I0
sg9
I3
sg10
I8
sg11
I700
ssS'three'
p16
(dp17
g5
I1163
sg6
I36
sg7
I6
sg8
I19
sg9
I3
sg10
I0
sg11
I570
sssS'Wahono.csv'
p18
(dp19
g3
(dp20
g5
I1945
sg6
I56
sg7
I4
sg8
I15
sg9
I2
sg10
I8
sg11
I1210
ssg12
(dp21
g5
I845
sg6
I46
sg7
I7
sg8
I9
sg9
I9
sg10
I3
sg11
I630
ssg14
(dp22
g5
I1340
sg6
I43
sg7
I16
sg8
I0
sg9
I3
sg10
I2
sg11
I1340
ssg16
(dp23
g5
I2834
sg6
I44
sg7
I15
sg8
I30
sg9
I3
sg10
I0
sg11
I1400
sssS'Hall.csv'
p24
(dp25
g3
(dp26
g5
I958
sg6
I83
sg7
I19
sg8
I19
sg9
I2
sg10
I1
sg11
I710
ssg12
(dp27
g5
I742
sg6
I95
sg7
I6
sg8
I29
sg9
I3
sg10
I2
sg11
I500
ssg14
(dp28
g5
I740
sg6
I72
sg7
I30
sg8
I0
sg9
I2
sg10
I4
sg11
I740
ssg16
(dp29
g5
I1304
sg6
I79
sg7
I23
sg8
I39
sg9
I2
sg10
I0
sg11
I630
sssS'Danijel.csv'
p30
(dp31
g3
(dp32
g5
I1452
sg6
I38
sg7
I7
sg8
I1
sg9
I3
sg10
I2
sg11
I930
ssg12
(dp33
g5
I1771
sg6
I41
sg7
I5
sg8
I12
sg9
I2
sg10
I5
sg11
I1140
ssg14
(dp34
g5
I1240
sg6
I30
sg7
I15
sg8
I0
sg9
I3
sg10
I2
sg11
I1240
ssg16
(dp35
g5
I2834
sg6
I38
sg7
I9
sg8
I29
sg9
I1
sg10
I0
sg11
I1400
sss.(dp0
S'K_all3.csv'
p1
(dp2
S'machine'
p3
(dp4
S'count'
p5
I411
sS'truepos'
p6
I25
sS'falseneg'
p7
I9
sS'correction'
p8
I0
sS'unknownyes'
p9
I11
sS'falsepos'
p10
I7
sS'unique'
p11
I410
ssS'knee'
p12
(dp13
g5
I394
sg6
I26
sg7
I3
sg8
I3
sg9
I16
sg10
I1
sg11
I290
ssS'none'
p14
(dp15
g5
I720
sg6
I23
sg7
I18
sg8
I0
sg9
I4
sg10
I7
sg11
I720
ssS'three'
p16
(dp17
g5
I1302
sg6
I32
sg7
I9
sg8
I18
sg9
I4
sg10
I1
sg11
I640
sssS'Wahono.csv'
p18
(dp19
g3
(dp20
g5
I2134
sg6
I53
sg7
I7
sg8
I14
sg9
I2
sg10
I8
sg11
I1390
ssg12
(dp21
g5
I1398
sg6
I53
sg7
I5
sg8
I14
sg9
I4
sg10
I3
sg11
I1060
ssg14
(dp22
g5
I2090
sg6
I47
sg7
I14
sg8
I0
sg9
I1
sg10
I7
sg11
I2090
ssg16
(dp23
g5
I2668
sg6
I48
sg7
I11
sg8
I25
sg9
I3
sg10
I0
sg11
I1320
sssS'Hall.csv'
p24
(dp25
g3
(dp26
g5
I695
sg6
I97
sg7
I5
sg8
I22
sg9
I2
sg10
I3
sg11
I470
ssg12
(dp27
g5
I605
sg6
I87
sg7
I13
sg8
I17
sg9
I4
sg10
I1
sg11
I440
ssg14
(dp28
g5
I1190
sg6
I68
sg7
I35
sg8
I0
sg9
I1
sg10
I2
sg11
I1190
ssg16
(dp29
g5
I1205
sg6
I76
sg7
I26
sg8
I34
sg9
I2
sg10
I0
sg11
I580
sssS'Danijel.csv'
p30
(dp31
g3
(dp32
g5
I1206
sg6
I37
sg7
I9
sg8
I8
sg9
I2
sg10
I2
sg11
I800
ssg12
(dp33
g5
I37
sg6
I3
sg7
I2
sg8
I0
sg9
I43
sg10
I0
sg11
I30
ssg14
(dp34
g5
I810
sg6
I37
sg7
I9
sg8
I0
sg9
I2
sg10
I2
sg11
I810
ssg16
(dp35
g5
I2293
sg6
I32
sg7
I14
sg8
I31
sg9
I2
sg10
I0
sg11
I1130
sss.(dp0
S'K_all3.csv'
p1
(dp2
S'machine'
p3
(dp4
S'count'
p5
I831
sS'truepos'
p6
I31
sS'falseneg'
p7
I13
sS'correction'
p8
I1
sS'unknownyes'
p9
I1
sS'falsepos'
p10
I1
sS'unique'
p11
I820
ssS'knee'
p12
(dp13
g5
I1927
sg6
I35
sg7
I10
sg8
I17
sg9
I0
sg10
I5
sg11
I1570
ssS'none'
p14
(dp15
g5
I560
sg6
I28
sg7
I13
sg8
I0
sg9
I4
sg10
I7
sg11
I560
ssS'three'
p16
(dp17
g5
I1789
sg6
I30
sg7
I12
sg8
I24
sg9
I3
sg10
I0
sg11
I880
sssS'Wahono.csv'
p18
(dp19
g3
(dp20
g5
I1971
sg6
I58
sg7
I1
sg8
I8
sg9
I3
sg10
I4
sg11
I1270
ssg12
(dp21
g5
I1251
sg6
I48
sg7
I8
sg8
I12
sg9
I6
sg10
I3
sg11
I850
ssg14
(dp22
g5
I1480
sg6
I44
sg7
I17
sg8
I0
sg9
I1
sg10
I3
sg11
I1480
ssg16
(dp23
g5
I2654
sg6
I42
sg7
I17
sg8
I31
sg9
I3
sg10
I0
sg11
I1310
sssS'Hall.csv'
p24
(dp25
g3
(dp26
g5
I791
sg6
I88
sg7
I14
sg8
I20
sg9
I2
sg10
I1
sg11
I550
ssg12
(dp27
g5
I916
sg6
I86
sg7
I16
sg8
I28
sg9
I2
sg10
I2
sg11
I610
ssg14
(dp28
g5
I890
sg6
I72
sg7
I31
sg8
I0
sg9
I1
sg10
I4
sg11
I890
ssg16
(dp29
g5
I1208
sg6
I79
sg7
I23
sg8
I45
sg9
I2
sg10
I0
sg11
I580
sssS'Danijel.csv'
p30
(dp31
g3
(dp32
g5
I1283
sg6
I41
sg7
I6
sg8
I7
sg9
I1
sg10
I3
sg11
I880
ssg12
(dp33
g5
I48
sg6
I3
sg7
I1
sg8
I1
sg9
I44
sg10
I0
sg11
I40
ssg14
(dp34
g5
I1300
sg6
I30
sg7
I16
sg8
I0
sg9
I2
sg10
I7
sg11
I1300
ssg16
(dp35
g5
I1742
sg6
I39
sg7
I6
sg8
I20
sg9
I3
sg10
I0
sg11
I860
sss.(dp0
S'K_all3.csv'
p1
(dp2
S'machine'
p3
(dp4
S'count'
p5
I727
sS'truepos'
p6
I30
sS'falseneg'
p7
I10
sS'correction'
p8
I7
sS'unknownyes'
p9
I5
sS'falsepos'
p10
I7
sS'unique'
p11
I670
ssS'knee'
p12
(dp13
g5
I1724
sg6
I38
sg7
I7
sg8
I12
sg9
I0
sg10
I11
sg11
I1210
ssS'none'
p14
(dp15
g5
I600
sg6
I31
sg7
I12
sg8
I0
sg9
I2
sg10
I4
sg11
I600
ssS'three'
p16
(dp17
g5
I1294
sg6
I34
sg7
I8
sg8
I33
sg9
I3
sg10
I0
sg11
I630
sssS'Wahono.csv'
p18
(dp19
g3
(dp20
g5
I2129
sg6
I53
sg7
I7
sg8
I12
sg9
I2
sg10
I4
sg11
I1420
ssg12
(dp21
g5
I736
sg6
I43
sg7
I5
sg8
I7
sg9
I14
sg10
I1
sg11
I440
ssg14
(dp22
g5
I1510
sg6
I39
sg7
I22
sg8
I0
sg9
I1
sg10
I2
sg11
I1510
ssg16
(dp23
g5
I2868
sg6
I52
sg7
I7
sg8
I27
sg9
I3
sg10
I0
sg11
I1420
sssS'Hall.csv'
p24
(dp25
g3
(dp26
g5
I900
sg6
I94
sg7
I8
sg8
I20
sg9
I2
sg10
I6
sg11
I680
ssg12
(dp27
g5
I717
sg6
I90
sg7
I12
sg8
I25
sg9
I2
sg10
I0
sg11
I530
ssg14
(dp28
g5
I1340
sg6
I69
sg7
I34
sg8
I0
sg9
I1
sg10
I7
sg11
I1340
ssg16
(dp29
g5
I1823
sg6
I80
sg7
I23
sg8
I33
sg9
I1
sg10
I0
sg11
I890
sssS'Danijel.csv'
p30
(dp31
g3
(dp32
g5
I1217
sg6
I41
sg7
I5
sg8
I6
sg9
I2
sg10
I2
sg11
I820
ssg12
(dp33
g5
I927
sg6
I39
sg7
I6
sg8
I13
sg9
I3
sg10
I2
sg11
I720
ssg14
(dp34
g5
I820
sg6
I38
sg7
I8
sg8
I0
sg9
I2
sg10
I1
sg11
I820
ssg16
(dp35
g5
I1701
sg6
I38
sg7
I8
sg8
I20
sg9
I2
sg10
I0
sg11
I840
sss.(dp0
S'K_all3.csv'
p1
(dp2
S'machine'
p3
(dp4
S'count'
p5
I784
sS'truepos'
p6
I32
sS'falseneg'
p7
I11
sS'correction'
p8
I3
sS'unknownyes'
p9
I2
sS'falsepos'
p10
I4
sS'unique'
p11
I630
ssS'knee'
p12
(dp13
g5
I1363
sg6
I38
sg7
I7
sg8
I14
sg9
I0
sg10
I5
sg11
I1010
ssS'none'
p14
(dp15
g5
I610
sg6
I28
sg7
I14
sg8
I0
sg9
I3
sg10
I3
sg11
I610
ssS'three'
p16
(dp17
g5
I1120
sg6
I30
sg7
I9
sg8
I17
sg9
I6
sg10
I0
sg11
I550
sssS'Wahono.csv'
p18
(dp19
g3
(dp20
g5
I1712
sg6
I54
sg7
I5
sg8
I17
sg9
I3
sg10
I7
sg11
I1100
ssg12
(dp21
g5
I35
sg6
I6
sg7
I1
sg8
I1
sg9
I55
sg10
I0
sg11
I30
ssg14
(dp22
g5
I1400
sg6
I36
sg7
I23
sg8
I0
sg9
I3
sg10
I3
sg11
I1400
ssg16
(dp23
g5
I3073
sg6
I44
sg7
I16
sg8
I23
sg9
I2
sg10
I0
sg11
I1520
sssS'Hall.csv'
p24
(dp25
g3
(dp26
g5
I721
sg6
I96
sg7
I6
sg8
I18
sg9
I2
sg10
I3
sg11
I530
ssg12
(dp27
g5
I514
sg6
I84
sg7
I12
sg8
I16
sg9
I8
sg10
I1
sg11
I350
ssg14
(dp28
g5
I1110
sg6
I69
sg7
I33
sg8
I0
sg9
I2
sg10
I3
sg11
I1110
ssg16
(dp29
g5
I1310
sg6
I81
sg7
I21
sg8
I44
sg9
I2
sg10
I1
sg11
I630
sssS'Danijel.csv'
p30
(dp31
g3
(dp32
g5
I1288
sg6
I38
sg7
I8
sg8
I4
sg9
I2
sg10
I5
sg11
I830
ssg12
(dp33
g5
I755
sg6
I32
sg7
I9
sg8
I5
sg9
I7
sg10
I0
sg11
I490
ssg14
(dp34
g5
I1940
sg6
I27
sg7
I20
sg8
I0
sg9
I1
sg10
I3
sg11
I1940
ssg16
(dp35
g5
I2427
sg6
I36
sg7
I11
sg8
I24
sg9
I1
sg10
I0
sg11
I1200
sss.(dp0
S'K_all3.csv'
p1
(dp2
S'machine'
p3
(dp4
S'count'
p5
I872
sS'truepos'
p6
I35
sS'falseneg'
p7
I8
sS'correction'
p8
I8
sS'unknownyes'
p9
I2
sS'falsepos'
p10
I3
sS'unique'
p11
I820
ssS'knee'
p12
(dp13
g5
I1374
sg6
I42
sg7
I3
sg8
I10
sg9
I0
sg10
I8
sg11
I970
ssS'none'
p14
(dp15
g5
I640
sg6
I28
sg7
I16
sg8
I0
sg9
I1
sg10
I5
sg11
I640
ssS'three'
p16
(dp17
g5
I1755
sg6
I30
sg7
I10
sg8
I32
sg9
I5
sg10
I0
sg11
I860
sssS'Wahono.csv'
p18
(dp19
g3
(dp20
g5
I1650
sg6
I57
sg7
I2
sg8
I8
sg9
I3
sg10
I6
sg11
I1080
ssg12
(dp21
g5
I24
sg6
I6
sg7
I0
sg8
I0
sg9
I56
sg10
I0
sg11
I20
ssg14
(dp22
g5
I1530
sg6
I40
sg7
I21
sg8
I0
sg9
I1
sg10
I4
sg11
I1530
ssg16
(dp23
g5
I2810
sg6
I48
sg7
I12
sg8
I26
sg9
I2
sg10
I0
sg11
I1390
sssS'Hall.csv'
p24
(dp25
g3
(dp26
g5
I1024
sg6
I86
sg7
I16
sg8
I19
sg9
I2
sg10
I4
sg11
I750
ssg12
(dp27
g5
I784
sg6
I91
sg7
I10
sg8
I26
sg9
I3
sg10
I1
sg11
I550
ssg14
(dp28
g5
I780
sg6
I69
sg7
I33
sg8
I0
sg9
I2
sg10
I4
sg11
I780
ssg16
(dp29
g5
I1349
sg6
I84
sg7
I18
sg8
I43
sg9
I2
sg10
I0
sg11
I650
sssS'Danijel.csv'
p30
(dp31
g3
(dp32
g5
I1633
sg6
I36
sg7
I11
sg8
I9
sg9
I1
sg10
I4
sg11
I1380
ssg12
(dp33
g5
I841
sg6
I37
sg7
I3
sg8
I9
sg9
I8
sg10
I1
sg11
I480
ssg14
(dp34
g5
I1220
sg6
I32
sg7
I13
sg8
I0
sg9
I3
sg10
I5
sg11
I1220
ssg16
(dp35
g5
I2863
sg6
I33
sg7
I14
sg8
I20
sg9
I1
sg10
I0
sg11
I1420
sss.(dp0
S'K_all3.csv'
p1
(dp2
S'machine'
p3
(dp4
S'count'
p5
I711
sS'truepos'
p6
I29
sS'falseneg'
p7
I14
sS'correction'
p8
I2
sS'unknownyes'
p9
I2
sS'falsepos'
p10
I3
sS'unique'
p11
I660
ssS'knee'
p12
(dp13
g5
I816
sg6
I33
sg7
I10
sg8
I11
sg9
I2
sg10
I3
sg11
I660
ssS'none'
p14
(dp15
g5
I590
sg6
I28
sg7
I13
sg8
I0
sg9
I4
sg10
I5
sg11
I590
ssS'three'
p16
(dp17
g5
I1250
sg6
I35
sg7
I8
sg8
I25
sg9
I2
sg10
I0
sg11
I610
sssS'Wahono.csv'
p18
(dp19
g3
(dp20
g5
I2116
sg6
I55
sg7
I5
sg8
I11
sg9
I2
sg10
I6
sg11
I1330
ssg12
(dp21
g5
I315
sg6
I19
sg7
I8
sg8
I4
sg9
I35
sg10
I0
sg11
I260
ssg14
(dp22
g5
I1660
sg6
I49
sg7
I13
sg8
I0
sg9
I0
sg10
I5
sg11
I1660
ssg16
(dp23
g5
I2995
sg6
I44
sg7
I15
sg8
I30
sg9
I3
sg10
I0
sg11
I1480
sssS'Hall.csv'
p24
(dp25
g3
(dp26
g5
I775
sg6
I93
sg7
I9
sg8
I19
sg9
I2
sg10
I4
sg11
I570
ssg12
(dp27
g5
I809
sg6
I88
sg7
I14
sg8
I23
sg9
I2
sg10
I2
sg11
I640
ssg14
(dp28
g5
I1570
sg6
I66
sg7
I37
sg8
I0
sg9
I1
sg10
I5
sg11
I1570
ssg16
(dp29
g5
I1361
sg6
I82
sg7
I20
sg8
I33
sg9
I2
sg10
I0
sg11
I660
sssS'Danijel.csv'
p30
(dp31
g3
(dp32
g5
I1347
sg6
I41
sg7
I4
sg8
I7
sg9
I3
sg10
I3
sg11
I920
ssg12
(dp33
g5
I140
sg6
I13
sg7
I2
sg8
I3
sg9
I33
sg10
I0
sg11
I100
ssg14
(dp34
g5
I1320
sg6
I32
sg7
I15
sg8
I0
sg9
I1
sg10
I1
sg11
I1320
ssg16
(dp35
g5
I2345
sg6
I36
sg7
I10
sg8
I20
sg9
I2
sg10
I0
sg11
I1160
sss.(dp0
S'K_all3.csv'
p1
(dp2
S'machine'
p3
(dp4
S'count'
p5
I582
sS'truepos'
p6
I37
sS'falseneg'
p7
I4
sS'correction'
p8
I4
sS'unknownyes'
p9
I4
sS'falsepos'
p10
I3
sS'unique'
p11
I430
ssS'knee'
p12
(dp13
g5
I853
sg6
I36
sg7
I6
sg8
I9
sg9
I3
sg10
I8
sg11
I560
ssS'none'
p14
(dp15
g5
I580
sg6
I31
sg7
I12
sg8
I0
sg9
I2
sg10
I7
sg11
I580
ssS'three'
p16
(dp17
g5
I1105
sg6
I33
sg7
I7
sg8
I22
sg9
I5
sg10
I0
sg11
I540
sssS'Wahono.csv'
p18
(dp19
g3
(dp20
g5
I1880
sg6
I51
sg7
I8
sg8
I10
sg9
I3
sg10
I6
sg11
I1270
ssg12
(dp21
g5
I298
sg6
I26
sg7
I7
sg8
I5
sg9
I29
sg10
I2
sg11
I180
ssg14
(dp22
g5
I1350
sg6
I45
sg7
I14
sg8
I0
sg9
I3
sg10
I0
sg11
I1350
ssg16
(dp23
g5
I2289
sg6
I47
sg7
I11
sg8
I26
sg9
I4
sg10
I0
sg11
I1130
sssS'Hall.csv'
p24
(dp25
g3
(dp26
g5
I736
sg6
I94
sg7
I8
sg8
I20
sg9
I2
sg10
I2
sg11
I520
ssg12
(dp27
g5
I36
sg6
I9
sg7
I3
sg8
I3
sg9
I92
sg10
I0
sg11
I30
ssg14
(dp28
g5
I710
sg6
I74
sg7
I28
sg8
I0
sg9
I2
sg10
I3
sg11
I710
ssg16
(dp29
g5
I1903
sg6
I79
sg7
I23
sg8
I38
sg9
I2
sg10
I0
sg11
I930
sssS'Danijel.csv'
p30
(dp31
g3
(dp32
g5
I1218
sg6
I41
sg7
I5
sg8
I6
sg9
I2
sg10
I3
sg11
I760
ssg12
(dp33
g5
I672
sg6
I32
sg7
I8
sg8
I6
sg9
I8
sg10
I0
sg11
I480
ssg14
(dp34
g5
I1400
sg6
I33
sg7
I14
sg8
I0
sg9
I1
sg10
I6
sg11
I1400
ssg16
(dp35
g5
I2610
sg6
I36
sg7
I11
sg8
I28
sg9
I1
sg10
I0
sg11
I1290
sss.(dp0
S'K_all3.csv'
p1
(dp2
S'machine'
p3
(dp4
S'count'
p5
I840
sS'truepos'
p6
I28
sS'falseneg'
p7
I12
sS'correction'
p8
I5
sS'unknownyes'
p9
I5
sS'falsepos'
p10
I4
sS'unique'
p11
I780
ssS'knee'
p12
(dp13
g5
I1712
sg6
I42
sg7
I3
sg8
I7
sg9
I0
sg10
I10
sg11
I1130
ssS'none'
p14
(dp15
g5
I610
sg6
I30
sg7
I13
sg8
I0
sg9
I2
sg10
I2
sg11
I610
ssS'three'
p16
(dp17
g5
I3136
sg6
I29
sg7
I16
sg8
I32
sg9
I0
sg10
I0
sg11
I1550
sssS'Wahono.csv'
p18
(dp19
g3
(dp20
g5
I2173
sg6
I52
sg7
I7
sg8
I8
sg9
I3
sg10
I5
sg11
I1380
ssg12
(dp21
g5
I721
sg6
I43
sg7
I5
sg8
I9
sg9
I14
sg10
I3
sg11
I480
ssg14
(dp22
g5
I1550
sg6
I40
sg7
I19
sg8
I0
sg9
I3
sg10
I3
sg11
I1550
ssg16
(dp23
g5
I2788
sg6
I50
sg7
I10
sg8
I22
sg9
I2
sg10
I0
sg11
I1380
sssS'Hall.csv'
p24
(dp25
g3
(dp26
g5
I889
sg6
I91
sg7
I11
sg8
I17
sg9
I2
sg10
I2
sg11
I660
ssg12
(dp27
g5
I608
sg6
I93
sg7
I8
sg8
I24
sg9
I3
sg10
I2
sg11
I400
ssg14
(dp28
g5
I610
sg6
I71
sg7
I31
sg8
I0
sg9
I2
sg10
I2
sg11
I610
ssg16
(dp29
g5
I1084
sg6
I81
sg7
I21
sg8
I38
sg9
I2
sg10
I0
sg11
I520
sssS'Danijel.csv'
p30
(dp31
g3
(dp32
g5
I1276
sg6
I38
sg7
I7
sg8
I5
sg9
I3
sg10
I4
sg11
I850
ssg12
(dp33
g5
I723
sg6
I38
sg7
I5
sg8
I8
sg9
I5
sg10
I1
sg11
I550
ssg14
(dp34
g5
I1800
sg6
I28
sg7
I19
sg8
I0
sg9
I1
sg10
I7
sg11
I1800
ssg16
(dp35
g5
I2239
sg6
I35
sg7
I11
sg8
I16
sg9
I2
sg10
I0
sg11
I1110
sss.(dp0
S'K_all3.csv'
p1
(dp2
S'machine'
p3
(dp4
S'count'
p5
I953
sS'truepos'
p6
I26
sS'falseneg'
p7
I18
sS'correction'
p8
I0
sS'unknownyes'
p9
I1
sS'falsepos'
p10
I4
sS'unique'
p11
I950
ssS'knee'
p12
(dp13
g5
I705
sg6
I35
sg7
I6
sg8
I9
sg9
I4
sg10
I3
sg11
I440
ssS'none'
p14
(dp15
g5
I910
sg6
I26
sg7
I16
sg8
I0
sg9
I3
sg10
I5
sg11
I910
ssS'three'
p16
(dp17
g5
I1615
sg6
I31
sg7
I13
sg8
I31
sg9
I1
sg10
I0
sg11
I790
sssS'Wahono.csv'
p18
(dp19
g3
(dp20
g5
I2054
sg6
I53
sg7
I7
sg8
I7
sg9
I2
sg10
I3
sg11
I1450
ssg12
(dp21
g5
I134
sg6
I11
sg7
I9
sg8
I3
sg9
I42
sg10
I0
sg11
I100
ssg14
(dp22
g5
I1620
sg6
I41
sg7
I21
sg8
I0
sg9
I0
sg10
I2
sg11
I1620
ssg16
(dp23
g5
I2593
sg6
I42
sg7
I18
sg8
I32
sg9
I2
sg10
I0
sg11
I1280
sssS'Hall.csv'
p24
(dp25
g3
(dp26
g5
I1002
sg6
I86
sg7
I16
sg8
I24
sg9
I2
sg10
I2
sg11
I740
ssg12
(dp27
g5
I617
sg6
I88
sg7
I13
sg8
I23
sg9
I3
sg10
I2
sg11
I460
ssg14
(dp28
g5
I640
sg6
I73
sg7
I29
sg8
I0
sg9
I2
sg10
I4
sg11
I640
ssg16
(dp29
g5
I1280
sg6
I85
sg7
I17
sg8
I37
sg9
I2
sg10
I0
sg11
I620
sssS'Danijel.csv'
p30
(dp31
g3
(dp32
g5
I1085
sg6
I36
sg7
I10
sg8
I7
sg9
I2
sg10
I3
sg11
I980
ssg12
(dp33
g5
I589
sg6
I37
sg7
I4
sg8
I8
sg9
I7
sg10
I1
sg11
I420
ssg14
(dp34
g5
I1480
sg6
I33
sg7
I14
sg8
I0
sg9
I1
sg10
I2
sg11
I1480
ssg16
(dp35
g5
I2637
sg6
I35
sg7
I11
sg8
I16
sg9
I2
sg10
I0
sg11
I1310
sss.(dp0
S'K_all3.csv'
p1
(dp2
S'machine'
p3
(dp4
S'count'
p5
I841
sS'truepos'
p6
I34
sS'falseneg'
p7
I9
sS'correction'
p8
I4
sS'unknownyes'
p9
I2
sS'falsepos'
p10
I5
sS'unique'
p11
I790
ssS'knee'
p12
(dp13
g5
I79
sg6
I1
sg7
I2
sg8
I0
sg9
I42
sg10
I0
sg11
I70
ssS'none'
p14
(dp15
g5
I650
sg6
I27
sg7
I13
sg8
I0
sg9
I5
sg10
I7
sg11
I650
ssS'three'
p16
(dp17
g5
I1151
sg6
I33
sg7
I9
sg8
I25
sg9
I3
sg10
I0
sg11
I560
sssS'Wahono.csv'
p18
(dp19
g3
(dp20
g5
I2150
sg6
I53
sg7
I7
sg8
I10
sg9
I2
sg10
I5
sg11
I1410
ssg12
(dp21
g5
I305
sg6
I28
sg7
I7
sg8
I5
sg9
I27
sg10
I1
sg11
I230
ssg14
(dp22
g5
I1460
sg6
I43
sg7
I19
sg8
I0
sg9
I0
sg10
I2
sg11
I1460
ssg16
(dp23
g5
I3375
sg6
I43
sg7
I19
sg8
I29
sg9
I0
sg10
I0
sg11
I1670
sssS'Hall.csv'
p24
(dp25
g3
(dp26
g5
I764
sg6
I96
sg7
I6
sg8
I20
sg9
I2
sg10
I1
sg11
I550
ssg12
(dp27
g5
I625
sg6
I93
sg7
I9
sg8
I21
sg9
I2
sg10
I0
sg11
I450
ssg14
(dp28
g5
I1250
sg6
I68
sg7
I35
sg8
I0
sg9
I1
sg10
I8
sg11
I1250
ssg16
(dp29
g5
I1229
sg6
I78
sg7
I24
sg8
I42
sg9
I2
sg10
I0
sg11
I590
sssS'Danijel.csv'
p30
(dp31
g3
(dp32
g5
I1209
sg6
I39
sg7
I6
sg8
I10
sg9
I3
sg10
I3
sg11
I850
ssg12
(dp33
g5
I502
sg6
I28
sg7
I11
sg8
I8
sg9
I9
sg10
I0
sg11
I400
ssg14
(dp34
g5
I1320
sg6
I30
sg7
I16
sg8
I0
sg9
I2
sg10
I8
sg11
I1320
ssg16
(dp35
g5
I2628
sg6
I34
sg7
I12
sg8
I22
sg9
I2
sg10
I0
sg11
I1300
sss.(dp0
S'K_all3.csv'
p1
(dp2
S'machine'
p3
(dp4
S'count'
p5
I591
sS'truepos'
p6
I34
sS'falseneg'
p7
I4
sS'correction'
p8
I1
sS'unknownyes'
p9
I7
sS'falsepos'
p10
I4
sS'unique'
p11
I440
ssS'knee'
p12
(dp13
g5
I79
sg6
I2
sg7
I1
sg8
I1
sg9
I42
sg10
I0
sg11
I70
ssS'none'
p14
(dp15
g5
I780
sg6
I31
sg7
I14
sg8
I0
sg9
I0
sg10
I2
sg11
I780
ssS'three'
p16
(dp17
g5
I1509
sg6
I30
sg7
I14
sg8
I26
sg9
I1
sg10
I0
sg11
I740
sssS'Wahono.csv'
p18
(dp19
g3
(dp20
g5
I1908
sg6
I54
sg7
I5
sg8
I12
sg9
I3
sg10
I4
sg11
I1300
ssg12
(dp21
g5
I753
sg6
I44
sg7
I8
sg8
I11
sg9
I10
sg10
I1
sg11
I500
ssg14
(dp22
g5
I1850
sg6
I47
sg7
I13
sg8
I0
sg9
I2
sg10
I5
sg11
I1850
ssg16
(dp23
g5
I3394
sg6
I52
sg7
I9
sg8
I32
sg9
I1
sg10
I1
sg11
I1680
sssS'Hall.csv'
p24
(dp25
g3
(dp26
g5
I720
sg6
I93
sg7
I9
sg8
I19
sg9
I2
sg10
I0
sg11
I510
ssg12
(dp27
g5
I728
sg6
I93
sg7
I9
sg8
I25
sg9
I2
sg10
I0
sg11
I550
ssg14
(dp28
g5
I840
sg6
I72
sg7
I30
sg8
I0
sg9
I2
sg10
I2
sg11
I840
ssg16
(dp29
g5
I1589
sg6
I79
sg7
I23
sg8
I41
sg9
I2
sg10
I0
sg11
I770
sssS'Danijel.csv'
p30
(dp31
g3
(dp32
g5
I1210
sg6
I42
sg7
I2
sg8
I8
sg9
I4
sg10
I2
sg11
I810
ssg12
(dp33
g5
I867
sg6
I33
sg7
I8
sg8
I11
sg9
I7
sg10
I0
sg11
I650
ssg14
(dp34
g5
I1800
sg6
I28
sg7
I18
sg8
I0
sg9
I2
sg10
I2
sg11
I1800
ssg16
(dp35
g5
I2371
sg6
I36
sg7
I11
sg8
I26
sg9
I1
sg10
I0
sg11
I1170
sss.(dp0
S'K_all3.csv'
p1
(dp2
S'machine'
p3
(dp4
S'count'
p5
I800
sS'truepos'
p6
I32
sS'falseneg'
p7
I11
sS'correction'
p8
I3
sS'unknownyes'
p9
I2
sS'falsepos'
p10
I7
sS'unique'
p11
I650
ssS'knee'
p12
(dp13
g5
I1778
sg6
I36
sg7
I9
sg8
I11
sg9
I0
sg10
I11
sg11
I1270
ssS'none'
p14
(dp15
g5
I570
sg6
I31
sg7
I12
sg8
I0
sg9
I2
sg10
I4
sg11
I570
ssS'three'
p16
(dp17
g5
I1169
sg6
I37
sg7
I6
sg8
I26
sg9
I2
sg10
I0
sg11
I570
sssS'Wahono.csv'
p18
(dp19
g3
(dp20
g5
I2034
sg6
I55
sg7
I6
sg8
I17
sg9
I1
sg10
I6
sg11
I1350
ssg12
(dp21
g5
I1419
sg6
I50
sg7
I10
sg8
I8
sg9
I2
sg10
I3
sg11
I1090
ssg14
(dp22
g5
I1680
sg6
I39
sg7
I20
sg8
I0
sg9
I3
sg10
I9
sg11
I1680
ssg16
(dp23
g5
I4347
sg6
I38
sg7
I24
sg8
I37
sg9
I0
sg10
I0
sg11
I2150
sssS'Hall.csv'
p24
(dp25
g3
(dp26
g5
I616
sg6
I92
sg7
I8
sg8
I14
sg9
I4
sg10
I3
sg11
I420
ssg12
(dp27
g5
I487
sg6
I87
sg7
I13
sg8
I13
sg9
I4
sg10
I1
sg11
I340
ssg14
(dp28
g5
I730
sg6
I73
sg7
I30
sg8
I0
sg9
I1
sg10
I4
sg11
I730
ssg16
(dp29
g5
I1870
sg6
I80
sg7
I22
sg8
I47
sg9
I2
sg10
I0
sg11
I910
sssS'Danijel.csv'
p30
(dp31
g3
(dp32
g5
I1330
sg6
I34
sg7
I12
sg8
I4
sg9
I2
sg10
I4
sg11
I1230
ssg12
(dp33
g5
I263
sg6
I30
sg7
I2
sg8
I3
sg9
I16
sg10
I0
sg11
I160
ssg14
(dp34
g5
I900
sg6
I37
sg7
I8
sg8
I0
sg9
I3
sg10
I4
sg11
I900
ssg16
(dp35
g5
I2224
sg6
I36
sg7
I10
sg8
I21
sg9
I2
sg10
I0
sg11
I1100
sss.(dp0
S'K_all3.csv'
p1
(dp2
S'machine'
p3
(dp4
S'count'
p5
I661
sS'truepos'
p6
I36
sS'falseneg'
p7
I5
sS'correction'
p8
I5
sS'unknownyes'
p9
I4
sS'falsepos'
p10
I11
sS'unique'
p11
I470
ssS'knee'
p12
(dp13
g5
I54
sg6
I6
sg7
I2
sg8
I0
sg9
I37
sg10
I0
sg11
I40
ssS'none'
p14
(dp15
g5
I790
sg6
I24
sg7
I15
sg8
I0
sg9
I6
sg10
I9
sg11
I790
ssS'three'
p16
(dp17
g5
I1333
sg6
I34
sg7
I9
sg8
I30
sg9
I2
sg10
I0
sg11
I650
sssS'Wahono.csv'
p18
(dp19
g3
(dp20
g5
I2245
sg6
I53
sg7
I6
sg8
I14
sg9
I3
sg10
I4
sg11
I1590
ssg12
(dp21
g5
I87
sg6
I15
sg7
I2
sg8
I2
sg9
I45
sg10
I0
sg11
I60
ssg14
(dp22
g5
I1750
sg6
I39
sg7
I21
sg8
I0
sg9
I2
sg10
I6
sg11
I1750
ssg16
(dp23
g5
I2974
sg6
I49
sg7
I11
sg8
I29
sg9
I2
sg10
I0
sg11
I1470
sssS'Hall.csv'
p24
(dp25
g3
(dp26
g5
I924
sg6
I87
sg7
I15
sg8
I20
sg9
I2
sg10
I2
sg11
I670
ssg12
(dp27
g5
I641
sg6
I89
sg7
I13
sg8
I24
sg9
I2
sg10
I1
sg11
I490
ssg14
(dp28
g5
I1230
sg6
I68
sg7
I34
sg8
I0
sg9
I2
sg10
I5
sg11
I1230
ssg16
(dp29
g5
I1683
sg6
I81
sg7
I21
sg8
I39
sg9
I2
sg10
I0
sg11
I820
sssS'Danijel.csv'
p30
(dp31
g3
(dp32
g5
I1161
sg6
I41
sg7
I4
sg8
I8
sg9
I3
sg10
I3
sg11
I860
ssg12
(dp33
g5
I636
sg6
I28
sg7
I10
sg8
I5
sg9
I10
sg10
I0
sg11
I480
ssg14
(dp34
g5
I2060
sg6
I27
sg7
I21
sg8
I0
sg9
I0
sg10
I3
sg11
I2060
ssg16
(dp35
g5
I2529
sg6
I33
sg7
I13
sg8
I28
sg9
I2
sg10
I0
sg11
I1250
sss.(dp0
S'K_all3.csv'
p1
(dp2
S'machine'
p3
(dp4
S'count'
p5
I660
sS'truepos'
p6
I34
sS'falseneg'
p7
I6
sS'correction'
p8
I5
sS'unknownyes'
p9
I5
sS'falsepos'
p10
I4
sS'unique'
p11
I610
ssS'knee'
p12
(dp13
g5
I154
sg6
I19
sg7
I1
sg8
I3
sg9
I25
sg10
I0
sg11
I100
ssS'none'
p14
(dp15
g5
I760
sg6
I28
sg7
I15
sg8
I0
sg9
I2
sg10
I3
sg11
I760
ssS'three'
p16
(dp17
g5
I987
sg6
I36
sg7
I6
sg8
I26
sg9
I3
sg10
I0
sg11
I480
sssS'Wahono.csv'
p18
(dp19
g3
(dp20
g5
I2417
sg6
I48
sg7
I11
sg8
I12
sg9
I3
sg10
I7
sg11
I1650
ssg12
(dp21
g5
I931
sg6
I45
sg7
I11
sg8
I9
sg9
I6
sg10
I2
sg11
I630
ssg14
(dp22
g5
I1590
sg6
I42
sg7
I18
sg8
I0
sg9
I2
sg10
I4
sg11
I1590
ssg16
(dp23
g5
I3422
sg6
I46
sg7
I16
sg8
I37
sg9
I0
sg10
I0
sg11
I1690
sssS'Hall.csv'
p24
(dp25
g3
(dp26
g5
I745
sg6
I89
sg7
I13
sg8
I23
sg9
I2
sg10
I0
sg11
I540
ssg12
(dp27
g5
I24
sg6
I8
sg7
I1
sg8
I2
sg9
I95
sg10
I0
sg11
I20
ssg14
(dp28
g5
I1210
sg6
I79
sg7
I24
sg8
I0
sg9
I1
sg10
I4
sg11
I1210
ssg16
(dp29
g5
I1521
sg6
I83
sg7
I19
sg8
I34
sg9
I2
sg10
I0
sg11
I740
sssS'Danijel.csv'
p30
(dp31
g3
(dp32
g5
I1730
sg6
I34
sg7
I12
sg8
I8
sg9
I2
sg10
I4
sg11
I1680
ssg12
(dp33
g5
I388
sg6
I34
sg7
I3
sg8
I10
sg9
I11
sg10
I0
sg11
I250
ssg14
(dp34
g5
I1520
sg6
I28
sg7
I18
sg8
I0
sg9
I2
sg10
I4
sg11
I1520
ssg16
(dp35
g5
I2665
sg6
I34
sg7
I12
sg8
I24
sg9
I2
sg10
I0
sg11
I1320
sss.(dp0
S'K_all3.csv'
p1
(dp2
S'machine'
p3
(dp4
S'count'
p5
I961
sS'truepos'
p6
I27
sS'falseneg'
p7
I12
sS'correction'
p8
I4
sS'unknownyes'
p9
I6
sS'falsepos'
p10
I11
sS'unique'
p11
I860
ssS'knee'
p12
(dp13
g5
I691
sg6
I37
sg7
I4
sg8
I7
sg9
I4
sg10
I4
sg11
I440
ssS'none'
p14
(dp15
g5
I540
sg6
I35
sg7
I8
sg8
I0
sg9
I2
sg10
I2
sg11
I540
ssS'three'
p16
(dp17
g5
I1003
sg6
I38
sg7
I5
sg8
I23
sg9
I2
sg10
I0
sg11
I490
sssS'Wahono.csv'
p18
(dp19
g3
(dp20
g5
I2331
sg6
I56
sg7
I4
sg8
I9
sg9
I2
sg10
I12
sg11
I1470
ssg12
(dp21
g5
I1358
sg6
I49
sg7
I10
sg8
I10
sg9
I3
sg10
I2
sg11
I1020
ssg14
(dp22
g5
I2380
sg6
I31
sg7
I27
sg8
I0
sg9
I4
sg10
I8
sg11
I2380
ssg16
(dp23
g5
I2349
sg6
I45
sg7
I14
sg8
I23
sg9
I3
sg10
I0
sg11
I1160
sssS'Hall.csv'
p24
(dp25
g3
(dp26
g5
I999
sg6
I92
sg7
I10
sg8
I23
sg9
I2
sg10
I3
sg11
I730
ssg12
(dp27
g5
I670
sg6
I93
sg7
I9
sg8
I23
sg9
I2
sg10
I2
sg11
I500
ssg14
(dp28
g5
I1290
sg6
I71
sg7
I32
sg8
I0
sg9
I1
sg10
I6
sg11
I1290
ssg16
(dp29
g5
I1254
sg6
I86
sg7
I16
sg8
I50
sg9
I2
sg10
I0
sg11
I600
sssS'Danijel.csv'
p30
(dp31
g3
(dp32
g5
I1481
sg6
I32
sg7
I14
sg8
I3
sg9
I2
sg10
I3
sg11
I1380
ssg12
(dp33
g5
I527
sg6
I32
sg7
I7
sg8
I8
sg9
I9
sg10
I1
sg11
I330
ssg14
(dp34
g5
I1410
sg6
I31
sg7
I17
sg8
I0
sg9
I0
sg10
I0
sg11
I1410
ssg16
(dp35
g5
I1578
sg6
I41
sg7
I5
sg8
I17
sg9
I2
sg10
I0
sg11
I780
sss.