(dp0
S'K_all3.csv'
p1
(dp2
S'none'
p3
(dp4
S'count'
p5
I440
sS'truepos'
p6
I27
sS'falseneg'
p7
I2
sS'unknownyes'
p8
I16
sS'falsepos'
p9
I49
sS'unique'
p10
I440
ssS'three'
p11
(dp12
g5
I1294
sg6
I39
sg7
I0
sg8
I6
sg9
I17
sg10
I600
ssS'machine'
p13
(dp14
g5
I531
sg6
I31
sg7
I4
sg8
I10
sg9
I5
sg10
I410
ssS'machine4'
p15
(dp16
g5
I538
sg6
I36
sg7
I1
sg8
I8
sg9
I8
sg10
I430
ssS'machine3'
p17
(dp18
g5
I730
sg6
I32
sg7
I6
sg8
I7
sg9
I13
sg10
I530
ssS'machine2'
p19
(dp20
g5
I621
sg6
I26
sg7
I6
sg8
I13
sg9
I11
sg10
I460
sssS'Wahono.csv'
p21
(dp22
g3
(dp23
g5
I2840
sg6
I56
sg7
I4
sg8
I2
sg9
I292
sg10
I2840
ssg11
(dp24
g5
I3592
sg6
I61
sg7
I1
sg8
I0
sg9
I47
sg10
I1650
ssg13
(dp25
g5
I2092
sg6
I55
sg7
I4
sg8
I3
sg9
I16
sg10
I1560
ssg15
(dp26
g5
I1836
sg6
I52
sg7
I7
sg8
I3
sg9
I30
sg10
I1490
ssg17
(dp27
g5
I1557
sg6
I58
sg7
I1
sg8
I3
sg9
I14
sg10
I1080
ssg19
(dp28
g5
I1548
sg6
I50
sg7
I3
sg8
I9
sg9
I22
sg10
I1110
sssS'Hall.csv'
p29
(dp30
g3
(dp31
g5
I2140
sg6
I93
sg7
I10
sg8
I3
sg9
I175
sg10
I2140
ssg11
(dp32
g5
I2401
sg6
I101
sg7
I2
sg8
I3
sg9
I23
sg10
I1100
ssg13
(dp33
g5
I671
sg6
I95
sg7
I7
sg8
I4
sg9
I11
sg10
I480
ssg15
(dp34
g5
I966
sg6
I95
sg7
I7
sg8
I4
sg9
I13
sg10
I730
ssg17
(dp35
g5
I498
sg6
I86
sg7
I8
sg8
I12
sg9
I3
sg10
I310
ssg19
(dp36
g5
I590
sg6
I98
sg7
I2
sg8
I6
sg9
I15
sg10
I410
sssS'Danijel.csv'
p37
(dp38
g3
(dp39
g5
I2370
sg6
I40
sg7
I6
sg8
I2
sg9
I228
sg10
I2370
ssg11
(dp40
g5
I2314
sg6
I45
sg7
I1
sg8
I2
sg9
I39
sg10
I1060
ssg13
(dp41
g5
I1256
sg6
I42
sg7
I3
sg8
I3
sg9
I10
sg10
I960
ssg15
(dp42
g5
I1539
sg6
I41
sg7
I5
sg8
I2
sg9
I21
sg10
I1290
ssg17
(dp43
g5
I1520
sg6
I44
sg7
I1
sg8
I3
sg9
I27
sg10
I1090
ssg19
(dp44
g5
I1222
sg6
I42
sg7
I3
sg8
I3
sg9
I18
sg10
I860
sss.(dp0
S'K_all3.csv'
p1
(dp2
S'none'
p3
(dp4
S'count'
p5
I450
sS'truepos'
p6
I26
sS'falseneg'
p7
I8
sS'unknownyes'
p8
I11
sS'falsepos'
p9
I48
sS'unique'
p10
I450
ssS'three'
p11
(dp12
g5
I966
sg6
I33
sg7
I1
sg8
I11
sg9
I18
sg10
I440
ssS'machine'
p13
(dp14
g5
I700
sg6
I29
sg7
I8
sg8
I8
sg9
I4
sg10
I560
ssS'machine4'
p15
(dp16
g5
I687
sg6
I28
sg7
I9
sg8
I8
sg9
I10
sg10
I560
ssS'machine3'
p17
(dp18
g5
I580
sg6
I32
sg7
I1
sg8
I12
sg9
I8
sg10
I410
ssS'machine2'
p19
(dp20
g5
I535
sg6
I31
sg7
I5
sg8
I9
sg9
I9
sg10
I410
sssS'Wahono.csv'
p21
(dp22
g3
(dp23
g5
I2550
sg6
I57
sg7
I4
sg8
I1
sg9
I228
sg10
I2550
ssg11
(dp24
g5
I4508
sg6
I59
sg7
I1
sg8
I2
sg9
I57
sg10
I2060
ssg13
(dp25
g5
I1752
sg6
I54
sg7
I5
sg8
I3
sg9
I21
sg10
I1310
ssg15
(dp26
g5
I1915
sg6
I51
sg7
I9
sg8
I2
sg9
I25
sg10
I1610
ssg17
(dp27
g5
I1917
sg6
I56
sg7
I3
sg8
I3
sg9
I29
sg10
I1330
ssg19
(dp28
g5
I1861
sg6
I55
sg7
I3
sg8
I4
sg9
I34
sg10
I1310
sssS'Hall.csv'
p29
(dp30
g3
(dp31
g5
I1410
sg6
I95
sg7
I8
sg8
I3
sg9
I113
sg10
I1410
ssg11
(dp32
g5
I1588
sg6
I99
sg7
I3
sg8
I4
sg9
I15
sg10
I730
ssg13
(dp33
g5
I592
sg6
I97
sg7
I4
sg8
I5
sg9
I11
sg10
I420
ssg15
(dp34
g5
I1071
sg6
I88
sg7
I14
sg8
I4
sg9
I11
sg10
I850
ssg17
(dp35
g5
I877
sg6
I100
sg7
I2
sg8
I4
sg9
I16
sg10
I560
ssg19
(dp36
g5
I717
sg6
I98
sg7
I4
sg8
I4
sg9
I14
sg10
I490
sssS'Danijel.csv'
p37
(dp38
g3
(dp39
g5
I3130
sg6
I44
sg7
I3
sg8
I1
sg9
I322
sg10
I3130
ssg11
(dp40
g5
I2124
sg6
I45
sg7
I0
sg8
I3
sg9
I24
sg10
I980
ssg13
(dp41
g5
I1254
sg6
I43
sg7
I2
sg8
I3
sg9
I11
sg10
I960
ssg15
(dp42
g5
I1831
sg6
I41
sg7
I5
sg8
I2
sg9
I30
sg10
I1480
ssg17
(dp43
g5
I1137
sg6
I43
sg7
I3
sg8
I2
sg9
I9
sg10
I810
ssg19
(dp44
g5
I1112
sg6
I40
sg7
I5
sg8
I3
sg9
I18
sg10
I810
sss.(dp0
S'K_all3.csv'
p1
(dp2
S'none'
p3
(dp4
S'count'
p5
I570
sS'truepos'
p6
I36
sS'falseneg'
p7
I3
sS'unknownyes'
p8
I6
sS'falsepos'
p9
I50
sS'unique'
p10
I570
ssS'three'
p11
(dp12
g5
I838
sg6
I33
sg7
I0
sg8
I12
sg9
I9
sg10
I390
ssS'machine'
p13
(dp14
g5
I720
sg6
I28
sg7
I7
sg8
I10
sg9
I11
sg10
I560
ssS'machine4'
p15
(dp16
g5
I538
sg6
I29
sg7
I4
sg8
I12
sg9
I9
sg10
I450
ssS'machine3'
p17
(dp18
g5
I582
sg6
I32
sg7
I3
sg8
I10
sg9
I8
sg10
I420
ssS'machine2'
p19
(dp20
g5
I590
sg6
I32
sg7
I3
sg8
I10
sg9
I16
sg10
I410
sssS'Wahono.csv'
p21
(dp22
g3
(dp23
g5
I1700
sg6
I51
sg7
I7
sg8
I4
sg9
I168
sg10
I1700
ssg11
(dp24
g5
I3531
sg6
I58
sg7
I0
sg8
I4
sg9
I37
sg10
I1620
ssg13
(dp25
g5
I1871
sg6
I52
sg7
I6
sg8
I4
sg9
I21
sg10
I1410
ssg15
(dp26
g5
I1680
sg6
I51
sg7
I7
sg8
I4
sg9
I25
sg10
I1400
ssg17
(dp27
g5
I2545
sg6
I60
sg7
I2
sg8
I0
sg9
I36
sg10
I1780
ssg19
(dp28
g5
I2067
sg6
I55
sg7
I3
sg8
I4
sg9
I29
sg10
I1460
sssS'Hall.csv'
p29
(dp30
g3
(dp31
g5
I2940
sg6
I101
sg7
I4
sg8
I1
sg9
I283
sg10
I2940
ssg11
(dp32
g5
I3976
sg6
I101
sg7
I2
sg8
I3
sg9
I51
sg10
I1820
ssg13
(dp33
g5
I771
sg6
I98
sg7
I3
sg8
I5
sg9
I18
sg10
I560
ssg15
(dp34
g5
I900
sg6
I96
sg7
I6
sg8
I4
sg9
I10
sg10
I660
ssg17
(dp35
g5
I956
sg6
I100
sg7
I2
sg8
I4
sg9
I14
sg10
I600
ssg19
(dp36
g5
I1072
sg6
I101
sg7
I1
sg8
I4
sg9
I16
sg10
I720
sssS'Danijel.csv'
p37
(dp38
g3
(dp39
g5
I2660
sg6
I41
sg7
I4
sg8
I3
sg9
I261
sg10
I2660
ssg11
(dp40
g5
I2061
sg6
I42
sg7
I2
sg8
I4
sg9
I25
sg10
I950
ssg13
(dp41
g5
I679
sg6
I41
sg7
I2
sg8
I5
sg9
I4
sg10
I510
ssg15
(dp42
g5
I1286
sg6
I38
sg7
I7
sg8
I3
sg9
I17
sg10
I1060
ssg17
(dp43
g5
I1297
sg6
I40
sg7
I5
sg8
I3
sg9
I30
sg10
I910
ssg19
(dp44
g5
I797
sg6
I43
sg7
I1
sg8
I4
sg9
I12
sg10
I560
sss.(dp0
S'K_all3.csv'
p1
(dp2
S'none'
p3
(dp4
S'count'
p5
I530
sS'truepos'
p6
I2
sS'falseneg'
p7
I1
sS'unknownyes'
p8
I42
sS'falsepos'
p9
I64
sS'unique'
p10
I530
ssS'three'
p11
(dp12
g5
I862
sg6
I30
sg7
I1
sg8
I14
sg9
I9
sg10
I400
ssS'machine'
p13
(dp14
g5
I536
sg6
I30
sg7
I4
sg8
I11
sg9
I7
sg10
I420
ssS'machine4'
p15
(dp16
g5
I621
sg6
I35
sg7
I5
sg8
I5
sg9
I8
sg10
I490
ssS'machine3'
p17
(dp18
g5
I443
sg6
I32
sg7
I2
sg8
I11
sg9
I6
sg10
I340
ssS'machine2'
p19
(dp20
g5
I575
sg6
I34
sg7
I2
sg8
I9
sg9
I13
sg10
I410
sssS'Wahono.csv'
p21
(dp22
g3
(dp23
g5
I3350
sg6
I54
sg7
I7
sg8
I1
sg9
I343
sg10
I3350
ssg11
(dp24
g5
I3445
sg6
I56
sg7
I3
sg8
I3
sg9
I47
sg10
I1590
ssg13
(dp25
g5
I1622
sg6
I57
sg7
I3
sg8
I2
sg9
I23
sg10
I1210
ssg15
(dp26
g5
I2432
sg6
I57
sg7
I4
sg8
I1
sg9
I41
sg10
I1970
ssg17
(dp27
g5
I2810
sg6
I54
sg7
I5
sg8
I3
sg9
I41
sg10
I1960
ssg19
(dp28
g5
I1776
sg6
I59
sg7
I2
sg8
I1
sg9
I34
sg10
I1210
sssS'Hall.csv'
p29
(dp30
g3
(dp31
g5
I2290
sg6
I88
sg7
I14
sg8
I4
sg9
I197
sg10
I2290
ssg11
(dp32
g5
I1124
sg6
I101
sg7
I1
sg8
I4
sg9
I13
sg10
I510
ssg13
(dp33
g5
I631
sg6
I90
sg7
I9
sg8
I7
sg9
I16
sg10
I460
ssg15
(dp34
g5
I962
sg6
I93
sg7
I9
sg8
I4
sg9
I10
sg10
I730
ssg17
(dp35
g5
I627
sg6
I93
sg7
I7
sg8
I6
sg9
I4
sg10
I390
ssg19
(dp36
g5
I912
sg6
I101
sg7
I0
sg8
I5
sg9
I18
sg10
I610
sssS'Danijel.csv'
p37
(dp38
g3
(dp39
g5
I2650
sg6
I40
sg7
I6
sg8
I2
sg9
I265
sg10
I2650
ssg11
(dp40
g5
I1749
sg6
I40
sg7
I4
sg8
I4
sg9
I23
sg10
I800
ssg13
(dp41
g5
I942
sg6
I41
sg7
I3
sg8
I4
sg9
I9
sg10
I710
ssg15
(dp42
g5
I1221
sg6
I41
sg7
I4
sg8
I3
sg9
I16
sg10
I1010
ssg17
(dp43
g5
I1400
sg6
I42
sg7
I4
sg8
I2
sg9
I17
sg10
I980
ssg19
(dp44
g5
I1213
sg6
I41
sg7
I4
sg8
I3
sg9
I18
sg10
I860
sss.(dp0
S'K_all3.csv'
p1
(dp2
S'none'
p3
(dp4
S'count'
p5
I540
sS'truepos'
p6
I35
sS'falseneg'
p7
I2
sS'unknownyes'
p8
I8
sS'falsepos'
p9
I45
sS'unique'
p10
I540
ssS'three'
p11
(dp12
g5
I1172
sg6
I38
sg7
I0
sg8
I7
sg9
I13
sg10
I530
ssS'machine'
p13
(dp14
g5
I756
sg6
I34
sg7
I2
sg8
I9
sg9
I8
sg10
I580
ssS'machine4'
p15
(dp16
g5
I496
sg6
I33
sg7
I0
sg8
I12
sg9
I6
sg10
I400
ssS'machine3'
p17
(dp18
g5
I690
sg6
I33
sg7
I4
sg8
I8
sg9
I8
sg10
I520
ssS'machine2'
p19
(dp20
g5
I656
sg6
I30
sg7
I6
sg8
I9
sg9
I10
sg10
I510
sssS'Wahono.csv'
p21
(dp22
g3
(dp23
g5
I3020
sg6
I51
sg7
I7
sg8
I4
sg9
I312
sg10
I3020
ssg11
(dp24
g5
I3554
sg6
I59
sg7
I1
sg8
I2
sg9
I44
sg10
I1640
ssg13
(dp25
g5
I1425
sg6
I55
sg7
I3
sg8
I4
sg9
I17
sg10
I1060
ssg15
(dp26
g5
I2159
sg6
I54
sg7
I4
sg8
I4
sg9
I37
sg10
I1760
ssg17
(dp27
g5
I1794
sg6
I55
sg7
I4
sg8
I3
sg9
I25
sg10
I1230
ssg19
(dp28
g5
I1672
sg6
I53
sg7
I2
sg8
I7
sg9
I24
sg10
I1160
sssS'Hall.csv'
p29
(dp30
g3
(dp31
g5
I2720
sg6
I94
sg7
I9
sg8
I3
sg9
I266
sg10
I2720
ssg11
(dp32
g5
I1499
sg6
I99
sg7
I3
sg8
I4
sg9
I10
sg10
I690
ssg13
(dp33
g5
I1053
sg6
I99
sg7
I3
sg8
I4
sg9
I23
sg10
I760
ssg15
(dp34
g5
I812
sg6
I92
sg7
I10
sg8
I4
sg9
I8
sg10
I610
ssg17
(dp35
g5
I795
sg6
I99
sg7
I3
sg8
I4
sg9
I7
sg10
I500
ssg19
(dp36
g5
I770
sg6
I102
sg7
I0
sg8
I4
sg9
I13
sg10
I520
sssS'Danijel.csv'
p37
(dp38
g3
(dp39
g5
I2370
sg6
I42
sg7
I5
sg8
I1
sg9
I230
sg10
I2370
ssg11
(dp40
g5
I1951
sg6
I46
sg7
I0
sg8
I2
sg9
I14
sg10
I900
ssg13
(dp41
g5
I812
sg6
I42
sg7
I3
sg8
I3
sg9
I6
sg10
I610
ssg15
(dp42
g5
I1740
sg6
I44
sg7
I2
sg8
I2
sg9
I27
sg10
I1410
ssg17
(dp43
g5
I1296
sg6
I43
sg7
I2
sg8
I3
sg9
I15
sg10
I900
ssg19
(dp44
g5
I1875
sg6
I41
sg7
I5
sg8
I2
sg9
I19
sg10
I1310
sss.(dp0
S'K_all3.csv'
p1
(dp2
S'none'
p3
(dp4
S'count'
p5
I740
sS'truepos'
p6
I38
sS'falseneg'
p7
I3
sS'unknownyes'
p8
I4
sS'falsepos'
p9
I73
sS'unique'
p10
I740
ssS'three'
p11
(dp12
g5
I1060
sg6
I33
sg7
I2
sg8
I10
sg9
I11
sg10
I490
ssS'machine'
p13
(dp14
g5
I537
sg6
I30
sg7
I4
sg8
I11
sg9
I7
sg10
I410
ssS'machine4'
p15
(dp16
g5
I638
sg6
I29
sg7
I7
sg8
I9
sg9
I9
sg10
I520
ssS'machine3'
p17
(dp18
g5
I560
sg6
I27
sg7
I3
sg8
I15
sg9
I12
sg10
I420
ssS'machine2'
p19
(dp20
g5
I706
sg6
I33
sg7
I4
sg8
I8
sg9
I10
sg10
I510
sssS'Wahono.csv'
p21
(dp22
g3
(dp23
g5
I3370
sg6
I54
sg7
I5
sg8
I3
sg9
I319
sg10
I3370
ssg11
(dp24
g5
I3918
sg6
I56
sg7
I2
sg8
I4
sg9
I50
sg10
I1800
ssg13
(dp25
g5
I1979
sg6
I52
sg7
I5
sg8
I5
sg9
I22
sg10
I1510
ssg15
(dp26
g5
I2385
sg6
I54
sg7
I6
sg8
I2
sg9
I35
sg10
I1970
ssg17
(dp27
g5
I1921
sg6
I56
sg7
I2
sg8
I4
sg9
I20
sg10
I1370
ssg19
(dp28
g5
I1114
sg6
I56
sg7
I2
sg8
I4
sg9
I16
sg10
I760
sssS'Hall.csv'
p29
(dp30
g3
(dp31
g5
I1790
sg6
I95
sg7
I6
sg8
I5
sg9
I157
sg10
I1790
ssg11
(dp32
g5
I1678
sg6
I100
sg7
I2
sg8
I4
sg9
I17
sg10
I760
ssg13
(dp33
g5
I1261
sg6
I98
sg7
I5
sg8
I3
sg9
I13
sg10
I910
ssg15
(dp34
g5
I1153
sg6
I93
sg7
I9
sg8
I4
sg9
I17
sg10
I890
ssg17
(dp35
g5
I1242
sg6
I101
sg7
I2
sg8
I3
sg9
I22
sg10
I820
ssg19
(dp36
g5
I1121
sg6
I99
sg7
I3
sg8
I4
sg9
I17
sg10
I760
sssS'Danijel.csv'
p37
(dp38
g3
(dp39
g5
I2460
sg6
I43
sg7
I3
sg8
I2
sg9
I242
sg10
I2460
ssg11
(dp40
g5
I2741
sg6
I44
sg7
I1
sg8
I3
sg9
I44
sg10
I1250
ssg13
(dp41
g5
I1263
sg6
I42
sg7
I3
sg8
I3
sg9
I11
sg10
I960
ssg15
(dp42
g5
I1618
sg6
I41
sg7
I5
sg8
I2
sg9
I35
sg10
I1300
ssg17
(dp43
g5
I805
sg6
I42
sg7
I3
sg8
I3
sg9
I13
sg10
I590
ssg19
(dp44
g5
I1117
sg6
I43
sg7
I1
sg8
I4
sg9
I12
sg10
I810
sss.(dp0
S'K_all3.csv'
p1
(dp2
S'none'
p3
(dp4
S'count'
p5
I500
sS'truepos'
p6
I28
sS'falseneg'
p7
I3
sS'unknownyes'
p8
I14
sS'falsepos'
p9
I56
sS'unique'
p10
I500
ssS'three'
p11
(dp12
g5
I938
sg6
I31
sg7
I2
sg8
I12
sg9
I8
sg10
I440
ssS'machine'
p13
(dp14
g5
I587
sg6
I30
sg7
I6
sg8
I9
sg9
I7
sg10
I460
ssS'machine4'
p15
(dp16
g5
I582
sg6
I37
sg7
I0
sg8
I8
sg9
I7
sg10
I440
ssS'machine3'
p17
(dp18
g5
I619
sg6
I28
sg7
I4
sg8
I13
sg9
I10
sg10
I440
ssS'machine2'
p19
(dp20
g5
I594
sg6
I31
sg7
I3
sg8
I11
sg9
I19
sg10
I410
sssS'Wahono.csv'
p21
(dp22
g3
(dp23
g5
I3520
sg6
I53
sg7
I7
sg8
I2
sg9
I347
sg10
I3520
ssg11
(dp24
g5
I3856
sg6
I59
sg7
I1
sg8
I2
sg9
I49
sg10
I1770
ssg13
(dp25
g5
I1032
sg6
I51
sg7
I4
sg8
I7
sg9
I14
sg10
I760
ssg15
(dp26
g5
I1885
sg6
I51
sg7
I6
sg8
I5
sg9
I31
sg10
I1560
ssg17
(dp27
g5
I1953
sg6
I58
sg7
I2
sg8
I2
sg9
I29
sg10
I1370
ssg19
(dp28
g5
I2397
sg6
I59
sg7
I2
sg8
I1
sg9
I33
sg10
I1710
sssS'Hall.csv'
p29
(dp30
g3
(dp31
g5
I2290
sg6
I96
sg7
I9
sg8
I1
sg9
I217
sg10
I2290
ssg11
(dp32
g5
I1547
sg6
I101
sg7
I1
sg8
I4
sg9
I17
sg10
I710
ssg13
(dp33
g5
I632
sg6
I98
sg7
I4
sg8
I4
sg9
I12
sg10
I460
ssg15
(dp34
g5
I957
sg6
I96
sg7
I6
sg8
I4
sg9
I18
sg10
I700
ssg17
(dp35
g5
I694
sg6
I98
sg7
I3
sg8
I5
sg9
I7
sg10
I420
ssg19
(dp36
g5
I890
sg6
I96
sg7
I6
sg8
I4
sg9
I19
sg10
I610
sssS'Danijel.csv'
p37
(dp38
g3
(dp39
g5
I2130
sg6
I45
sg7
I2
sg8
I1
sg9
I202
sg10
I2130
ssg11
(dp40
g5
I2292
sg6
I44
sg7
I2
sg8
I2
sg9
I20
sg10
I1050
ssg13
(dp41
g5
I535
sg6
I42
sg7
I2
sg8
I4
sg9
I7
sg10
I410
ssg15
(dp42
g5
I1467
sg6
I41
sg7
I5
sg8
I2
sg9
I20
sg10
I1210
ssg17
(dp43
g5
I1151
sg6
I42
sg7
I3
sg8
I3
sg9
I21
sg10
I780
ssg19
(dp44
g5
I1286
sg6
I40
sg7
I4
sg8
I4
sg9
I20
sg10
I910
sss.(dp0
S'K_all3.csv'
p1
(dp2
S'none'
p3
(dp4
S'count'
p5
I410
sS'truepos'
p6
I28
sS'falseneg'
p7
I4
sS'unknownyes'
p8
I13
sS'falsepos'
p9
I37
sS'unique'
p10
I410
ssS'three'
p11
(dp12
g5
I920
sg6
I36
sg7
I1
sg8
I8
sg9
I12
sg10
I420
ssS'machine'
p13
(dp14
g5
I710
sg6
I31
sg7
I5
sg8
I9
sg9
I9
sg10
I560
ssS'machine4'
p15
(dp16
g5
I550
sg6
I28
sg7
I5
sg8
I12
sg9
I12
sg10
I440
ssS'machine3'
p17
(dp18
g5
I599
sg6
I30
sg7
I4
sg8
I11
sg9
I9
sg10
I440
ssS'machine2'
p19
(dp20
g5
I780
sg6
I32
sg7
I5
sg8
I8
sg9
I6
sg10
I610
sssS'Wahono.csv'
p21
(dp22
g3
(dp23
g5
I3570
sg6
I52
sg7
I8
sg8
I2
sg9
I380
sg10
I3570
ssg11
(dp24
g5
I4393
sg6
I58
sg7
I2
sg8
I2
sg9
I57
sg10
I2020
ssg13
(dp25
g5
I1747
sg6
I55
sg7
I3
sg8
I4
sg9
I22
sg10
I1310
ssg15
(dp26
g5
I2097
sg6
I55
sg7
I4
sg8
I3
sg9
I35
sg10
I1730
ssg17
(dp27
g5
I1889
sg6
I58
sg7
I3
sg8
I1
sg9
I27
sg10
I1310
ssg19
(dp28
g5
I2760
sg6
I54
sg7
I5
sg8
I3
sg9
I43
sg10
I1930
sssS'Hall.csv'
p29
(dp30
g3
(dp31
g5
I1720
sg6
I96
sg7
I6
sg8
I4
sg9
I171
sg10
I1720
ssg11
(dp32
g5
I1693
sg6
I99
sg7
I3
sg8
I4
sg9
I17
sg10
I780
ssg13
(dp33
g5
I672
sg6
I93
sg7
I8
sg8
I5
sg9
I16
sg10
I480
ssg15
(dp34
g5
I725
sg6
I100
sg7
I2
sg8
I4
sg9
I11
sg10
I530
ssg17
(dp35
g5
I1049
sg6
I99
sg7
I3
sg8
I4
sg9
I13
sg10
I660
ssg19
(dp36
g5
I1179
sg6
I98
sg7
I4
sg8
I4
sg9
I12
sg10
I810
sssS'Danijel.csv'
p37
(dp38
g3
(dp39
g5
I2590
sg6
I41
sg7
I5
sg8
I2
sg9
I248
sg10
I2590
ssg11
(dp40
g5
I1841
sg6
I44
sg7
I1
sg8
I3
sg9
I20
sg10
I840
ssg13
(dp41
g5
I934
sg6
I36
sg7
I8
sg8
I4
sg9
I10
sg10
I710
ssg15
(dp42
g5
I1281
sg6
I39
sg7
I6
sg8
I3
sg9
I16
sg10
I1000
ssg17
(dp43
g5
I1017
sg6
I44
sg7
I0
sg8
I4
sg9
I18
sg10
I690
ssg19
(dp44
g5
I1415
sg6
I44
sg7
I2
sg8
I2
sg9
I28
sg10
I960
sss.(dp0
S'K_all3.csv'
p1
(dp2
S'none'
p3
(dp4
S'count'
p5
I500
sS'truepos'
p6
I32
sS'falseneg'
p7
I3
sS'unknownyes'
p8
I10
sS'falsepos'
p9
I42
sS'unique'
p10
I500
ssS'three'
p11
(dp12
g5
I985
sg6
I35
sg7
I1
sg8
I9
sg9
I8
sg10
I450
ssS'machine'
p13
(dp14
g5
I523
sg6
I32
sg7
I2
sg8
I11
sg9
I4
sg10
I410
ssS'machine4'
p15
(dp16
g5
I554
sg6
I30
sg7
I1
sg8
I14
sg9
I11
sg10
I440
ssS'machine3'
p17
(dp18
g5
I575
sg6
I33
sg7
I3
sg8
I9
sg9
I5
sg10
I440
ssS'machine2'
p19
(dp20
g5
I517
sg6
I29
sg7
I2
sg8
I14
sg9
I7
sg10
I360
sssS'Wahono.csv'
p21
(dp22
g3
(dp23
g5
I3530
sg6
I55
sg7
I5
sg8
I2
sg9
I335
sg10
I3530
ssg11
(dp24
g5
I3173
sg6
I57
sg7
I3
sg8
I2
sg9
I31
sg10
I1470
ssg13
(dp25
g5
I1370
sg6
I52
sg7
I7
sg8
I3
sg9
I11
sg10
I1010
ssg15
(dp26
g5
I1827
sg6
I53
sg7
I7
sg8
I2
sg9
I23
sg10
I1480
ssg17
(dp27
g5
I2412
sg6
I59
sg7
I1
sg8
I2
sg9
I31
sg10
I1710
ssg19
(dp28
g5
I1663
sg6
I55
sg7
I4
sg8
I3
sg9
I30
sg10
I1160
sssS'Hall.csv'
p29
(dp30
g3
(dp31
g5
I1960
sg6
I95
sg7
I8
sg8
I3
sg9
I191
sg10
I1960
ssg11
(dp32
g5
I1432
sg6
I97
sg7
I5
sg8
I4
sg9
I14
sg10
I660
ssg13
(dp33
g5
I933
sg6
I91
sg7
I9
sg8
I6
sg9
I10
sg10
I660
ssg15
(dp34
g5
I722
sg6
I91
sg7
I11
sg8
I4
sg9
I7
sg10
I560
ssg17
(dp35
g5
I1190
sg6
I97
sg7
I5
sg8
I4
sg9
I11
sg10
I800
ssg19
(dp36
g5
I807
sg6
I97
sg7
I5
sg8
I4
sg9
I14
sg10
I560
sssS'Danijel.csv'
p37
(dp38
g3
(dp39
g5
I2550
sg6
I41
sg7
I4
sg8
I3
sg9
I245
sg10
I2550
ssg11
(dp40
g5
I2941
sg6
I46
sg7
I0
sg8
I2
sg9
I36
sg10
I1350
ssg13
(dp41
g5
I737
sg6
I39
sg7
I4
sg8
I5
sg9
I1
sg10
I560
ssg15
(dp42
g5
I1087
sg6
I40
sg7
I6
sg8
I2
sg9
I17
sg10
I890
ssg17
(dp43
g5
I1290
sg6
I40
sg7
I3
sg8
I5
sg9
I17
sg10
I900
ssg19
(dp44
g5
I2019
sg6
I44
sg7
I2
sg8
I2
sg9
I24
sg10
I1410
sss.(dp0
S'K_all3.csv'
p1
(dp2
S'none'
p3
(dp4
S'count'
p5
I450
sS'truepos'
p6
I31
sS'falseneg'
p7
I2
sS'unknownyes'
p8
I12
sS'falsepos'
p9
I44
sS'unique'
p10
I450
ssS'three'
p11
(dp12
g5
I1039
sg6
I37
sg7
I0
sg8
I8
sg9
I11
sg10
I480
ssS'machine'
p13
(dp14
g5
I601
sg6
I30
sg7
I4
sg8
I11
sg9
I5
sg10
I450
ssS'machine4'
p15
(dp16
g5
I591
sg6
I30
sg7
I5
sg8
I10
sg9
I11
sg10
I470
ssS'machine3'
p17
(dp18
g5
I620
sg6
I33
sg7
I1
sg8
I11
sg9
I7
sg10
I440
ssS'machine2'
p19
(dp20
g5
I578
sg6
I34
sg7
I1
sg8
I10
sg9
I12
sg10
I410
sssS'Wahono.csv'
p21
(dp22
g3
(dp23
g5
I2560
sg6
I51
sg7
I6
sg8
I5
sg9
I244
sg10
I2560
ssg11
(dp24
g5
I4905
sg6
I59
sg7
I0
sg8
I3
sg9
I65
sg10
I2260
ssg13
(dp25
g5
I2076
sg6
I53
sg7
I6
sg8
I3
sg9
I17
sg10
I1560
ssg15
(dp26
g5
I2005
sg6
I46
sg7
I15
sg8
I1
sg9
I32
sg10
I1690
ssg17
(dp27
g5
I2280
sg6
I58
sg7
I0
sg8
I4
sg9
I28
sg10
I1600
ssg19
(dp28
g5
I2615
sg6
I58
sg7
I2
sg8
I2
sg9
I33
sg10
I1860
sssS'Hall.csv'
p29
(dp30
g3
(dp31
g5
I3870
sg6
I93
sg7
I11
sg8
I2
sg9
I363
sg10
I3870
ssg11
(dp32
g5
I2113
sg6
I98
sg7
I4
sg8
I4
sg9
I25
sg10
I980
ssg13
(dp33
g5
I692
sg6
I93
sg7
I8
sg8
I5
sg9
I11
sg10
I500
ssg15
(dp34
g5
I797
sg6
I92
sg7
I10
sg8
I4
sg9
I12
sg10
I620
ssg17
(dp35
g5
I847
sg6
I100
sg7
I2
sg8
I4
sg9
I8
sg10
I550
ssg19
(dp36
g5
I715
sg6
I100
sg7
I1
sg8
I5
sg9
I15
sg10
I490
sssS'Danijel.csv'
p37
(dp38
g3
(dp39
g5
I1600
sg6
I39
sg7
I6
sg8
I3
sg9
I143
sg10
I1600
ssg11
(dp40
g5
I1982
sg6
I45
sg7
I0
sg8
I3
sg9
I33
sg10
I910
ssg13
(dp41
g5
I1144
sg6
I41
sg7
I2
sg8
I5
sg9
I14
sg10
I860
ssg15
(dp42
g5
I1026
sg6
I41
sg7
I5
sg8
I2
sg9
I6
sg10
I850
ssg17
(dp43
g5
I1649
sg6
I45
sg7
I1
sg8
I2
sg9
I19
sg10
I1150
ssg19
(dp44
g5
I1208
sg6
I44
sg7
I0
sg8
I4
sg9
I19
sg10
I860
sss.(dp0
S'K_all3.csv'
p1
(dp2
S'none'
p3
(dp4
S'count'
p5
I490
sS'truepos'
p6
I32
sS'falseneg'
p7
I2
sS'unknownyes'
p8
I11
sS'falsepos'
p9
I47
sS'unique'
p10
I490
ssS'three'
p11
(dp12
g5
I1098
sg6
I37
sg7
I1
sg8
I7
sg9
I14
sg10
I510
ssS'machine'
p13
(dp14
g5
I570
sg6
I30
sg7
I4
sg8
I11
sg9
I5
sg10
I460
ssS'machine4'
p15
(dp16
g5
I654
sg6
I35
sg7
I4
sg8
I6
sg9
I13
sg10
I510
ssS'machine3'
p17
(dp18
g5
I586
sg6
I33
sg7
I4
sg8
I8
sg9
I7
sg10
I430
ssS'machine2'
p19
(dp20
g5
I578
sg6
I31
sg7
I2
sg8
I12
sg9
I9
sg10
I410
sssS'Wahono.csv'
p21
(dp22
g3
(dp23
g5
I3530
sg6
I55
sg7
I6
sg8
I1
sg9
I338
sg10
I3530
ssg11
(dp24
g5
I3282
sg6
I59
sg7
I2
sg8
I1
sg9
I47
sg10
I1500
ssg13
(dp25
g5
I1552
sg6
I54
sg7
I4
sg8
I4
sg9
I19
sg10
I1160
ssg15
(dp26
g5
I1752
sg6
I53
sg7
I5
sg8
I4
sg9
I24
sg10
I1400
ssg17
(dp27
g5
I1877
sg6
I54
sg7
I4
sg8
I4
sg9
I26
sg10
I1330
ssg19
(dp28
g5
I2523
sg6
I55
sg7
I2
sg8
I5
sg9
I39
sg10
I1760
sssS'Hall.csv'
p29
(dp30
g3
(dp31
g5
I2740
sg6
I97
sg7
I7
sg8
I2
sg9
I247
sg10
I2740
ssg11
(dp32
g5
I2085
sg6
I102
sg7
I1
sg8
I3
sg9
I20
sg10
I960
ssg13
(dp33
g5
I823
sg6
I97
sg7
I4
sg8
I5
sg9
I15
sg10
I590
ssg15
(dp34
g5
I658
sg6
I94
sg7
I8
sg8
I4
sg9
I7
sg10
I500
ssg17
(dp35
g5
I653
sg6
I98
sg7
I4
sg8
I4
sg9
I1
sg10
I430
ssg19
(dp36
g5
I739
sg6
I93
sg7
I7
sg8
I6
sg9
I22
sg10
I510
sssS'Danijel.csv'
p37
(dp38
g3
(dp39
g5
I2300
sg6
I42
sg7
I3
sg8
I3
sg9
I222
sg10
I2300
ssg11
(dp40
g5
I2289
sg6
I46
sg7
I0
sg8
I2
sg9
I30
sg10
I1050
ssg13
(dp41
g5
I2084
sg6
I44
sg7
I3
sg8
I1
sg9
I23
sg10
I1560
ssg15
(dp42
g5
I950
sg6
I41
sg7
I4
sg8
I3
sg9
I16
sg10
I770
ssg17
(dp43
g5
I1625
sg6
I45
sg7
I1
sg8
I2
sg9
I34
sg10
I1130
ssg19
(dp44
g5
I1527
sg6
I44
sg7
I2
sg8
I2
sg9
I17
sg10
I1060
sss.(dp0
S'K_all3.csv'
p1
(dp2
S'none'
p3
(dp4
S'count'
p5
I460
sS'truepos'
p6
I33
sS'falseneg'
p7
I2
sS'unknownyes'
p8
I10
sS'falsepos'
p9
I44
sS'unique'
p10
I460
ssS'three'
p11
(dp12
g5
I962
sg6
I33
sg7
I1
sg8
I11
sg9
I8
sg10
I440
ssS'machine'
p13
(dp14
g5
I517
sg6
I29
sg7
I4
sg8
I12
sg9
I3
sg10
I410
ssS'machine4'
p15
(dp16
g5
I629
sg6
I31
sg7
I5
sg8
I9
sg9
I15
sg10
I510
ssS'machine3'
p17
(dp18
g5
I579
sg6
I33
sg7
I3
sg8
I9
sg9
I6
sg10
I420
ssS'machine2'
p19
(dp20
g5
I592
sg6
I25
sg7
I4
sg8
I16
sg9
I12
sg10
I410
sssS'Wahono.csv'
p21
(dp22
g3
(dp23
g5
I3240
sg6
I52
sg7
I5
sg8
I5
sg9
I307
sg10
I3240
ssg11
(dp24
g5
I3082
sg6
I58
sg7
I2
sg8
I2
sg9
I45
sg10
I1420
ssg13
(dp25
g5
I1516
sg6
I53
sg7
I5
sg8
I4
sg9
I16
sg10
I1160
ssg15
(dp26
g5
I2242
sg6
I50
sg7
I9
sg8
I3
sg9
I45
sg10
I1800
ssg17
(dp27
g5
I2539
sg6
I58
sg7
I3
sg8
I1
sg9
I36
sg10
I1760
ssg19
(dp28
g5
I2150
sg6
I48
sg7
I8
sg8
I6
sg9
I30
sg10
I1510
sssS'Hall.csv'
p29
(dp30
g3
(dp31
g5
I2560
sg6
I95
sg7
I8
sg8
I3
sg9
I212
sg10
I2560
ssg11
(dp32
g5
I1302
sg6
I98
sg7
I4
sg8
I4
sg9
I13
sg10
I600
ssg13
(dp33
g5
I652
sg6
I93
sg7
I8
sg8
I5
sg9
I6
sg10
I460
ssg15
(dp34
g5
I1710
sg6
I93
sg7
I11
sg8
I2
sg9
I24
sg10
I1370
ssg17
(dp35
g5
I1088
sg6
I98
sg7
I4
sg8
I4
sg9
I15
sg10
I710
ssg19
(dp36
g5
I427
sg6
I88
sg7
I6
sg8
I12
sg9
I11
sg10
I300
sssS'Danijel.csv'
p37
(dp38
g3
(dp39
g5
I2840
sg6
I38
sg7
I8
sg8
I2
sg9
I269
sg10
I2840
ssg11
(dp40
g5
I2830
sg6
I43
sg7
I3
sg8
I2
sg9
I28
sg10
I1300
ssg13
(dp41
g5
I845
sg6
I40
sg7
I5
sg8
I3
sg9
I1
sg10
I660
ssg15
(dp42
g5
I1266
sg6
I39
sg7
I6
sg8
I3
sg9
I18
sg10
I1040
ssg17
(dp43
g5
I1151
sg6
I43
sg7
I2
sg8
I3
sg9
I14
sg10
I840
ssg19
(dp44
g5
I1594
sg6
I44
sg7
I1
sg8
I3
sg9
I28
sg10
I1130
sss.(dp0
S'K_all3.csv'
p1
(dp2
S'none'
p3
(dp4
S'count'
p5
I480
sS'truepos'
p6
I29
sS'falseneg'
p7
I7
sS'unknownyes'
p8
I9
sS'falsepos'
p9
I48
sS'unique'
p10
I480
ssS'three'
p11
(dp12
g5
I1007
sg6
I32
sg7
I2
sg8
I11
sg9
I10
sg10
I460
ssS'machine'
p13
(dp14
g5
I481
sg6
I33
sg7
I0
sg8
I12
sg9
I15
sg10
I360
ssS'machine4'
p15
(dp16
g5
I495
sg6
I29
sg7
I1
sg8
I15
sg9
I9
sg10
I390
ssS'machine3'
p17
(dp18
g5
I583
sg6
I32
sg7
I3
sg8
I10
sg9
I8
sg10
I420
ssS'machine2'
p19
(dp20
g5
I506
sg6
I28
sg7
I3
sg8
I14
sg9
I5
sg10
I360
sssS'Wahono.csv'
p21
(dp22
g3
(dp23
g5
I3220
sg6
I56
sg7
I4
sg8
I2
sg9
I321
sg10
I3220
ssg11
(dp24
g5
I3063
sg6
I56
sg7
I2
sg8
I4
sg9
I34
sg10
I1400
ssg13
(dp25
g5
I1622
sg6
I54
sg7
I6
sg8
I2
sg9
I22
sg10
I1210
ssg15
(dp26
g5
I1638
sg6
I54
sg7
I6
sg8
I2
sg9
I27
sg10
I1340
ssg17
(dp27
g5
I1478
sg6
I56
sg7
I2
sg8
I4
sg9
I20
sg10
I1030
ssg19
(dp28
g5
I2383
sg6
I53
sg7
I5
sg8
I4
sg9
I37
sg10
I1710
sssS'Hall.csv'
p29
(dp30
g3
(dp31
g5
I2660
sg6
I96
sg7
I6
sg8
I4
sg9
I239
sg10
I2660
ssg11
(dp32
g5
I1250
sg6
I101
sg7
I0
sg8
I5
sg9
I18
sg10
I570
ssg13
(dp33
g5
I982
sg6
I98
sg7
I5
sg8
I3
sg9
I20
sg10
I710
ssg15
(dp34
g5
I996
sg6
I87
sg7
I15
sg8
I4
sg9
I12
sg10
I780
ssg17
(dp35
g5
I920
sg6
I96
sg7
I6
sg8
I4
sg9
I10
sg10
I590
ssg19
(dp36
g5
I776
sg6
I100
sg7
I2
sg8
I4
sg9
I13
sg10
I530
sssS'Danijel.csv'
p37
(dp38
g3
(dp39
g5
I2870
sg6
I41
sg7
I4
sg8
I3
sg9
I304
sg10
I2870
ssg11
(dp40
g5
I1809
sg6
I45
sg7
I1
sg8
I2
sg9
I20
sg10
I830
ssg13
(dp41
g5
I998
sg6
I42
sg7
I3
sg8
I3
sg9
I7
sg10
I760
ssg15
(dp42
g5
I1303
sg6
I38
sg7
I7
sg8
I3
sg9
I18
sg10
I1090
ssg17
(dp43
g5
I1247
sg6
I41
sg7
I3
sg8
I4
sg9
I14
sg10
I880
ssg19
(dp44
g5
I940
sg6
I42
sg7
I4
sg8
I2
sg9
I17
sg10
I670
sss.(dp0
S'K_all3.csv'
p1
(dp2
S'none'
p3
(dp4
S'count'
p5
I430
sS'truepos'
p6
I33
sS'falseneg'
p7
I2
sS'unknownyes'
p8
I10
sS'falsepos'
p9
I47
sS'unique'
p10
I430
ssS'three'
p11
(dp12
g5
I1107
sg6
I37
sg7
I2
sg8
I6
sg9
I14
sg10
I500
ssS'machine'
p13
(dp14
g5
I523
sg6
I33
sg7
I5
sg8
I7
sg9
I7
sg10
I400
ssS'machine4'
p15
(dp16
g5
I648
sg6
I28
sg7
I6
sg8
I11
sg9
I10
sg10
I520
ssS'machine3'
p17
(dp18
g5
I671
sg6
I30
sg7
I1
sg8
I14
sg9
I9
sg10
I470
ssS'machine2'
p19
(dp20
g5
I703
sg6
I34
sg7
I2
sg8
I9
sg9
I8
sg10
I510
sssS'Wahono.csv'
p21
(dp22
g3
(dp23
g5
I2750
sg6
I55
sg7
I7
sg8
I0
sg9
I254
sg10
I2750
ssg11
(dp24
g5
I5634
sg6
I61
sg7
I1
sg8
I0
sg9
I78
sg10
I2590
ssg13
(dp25
g5
I1359
sg6
I55
sg7
I3
sg8
I4
sg9
I17
sg10
I1010
ssg15
(dp26
g5
I1642
sg6
I51
sg7
I6
sg8
I5
sg9
I23
sg10
I1350
ssg17
(dp27
g5
I2115
sg6
I58
sg7
I1
sg8
I3
sg9
I37
sg10
I1480
ssg19
(dp28
g5
I1685
sg6
I54
sg7
I4
sg8
I4
sg9
I18
sg10
I1160
sssS'Hall.csv'
p29
(dp30
g3
(dp31
g5
I3360
sg6
I99
sg7
I6
sg8
I1
sg9
I311
sg10
I3360
ssg11
(dp32
g5
I1576
sg6
I97
sg7
I6
sg8
I3
sg9
I18
sg10
I720
ssg13
(dp33
g5
I731
sg6
I94
sg7
I7
sg8
I5
sg9
I8
sg10
I520
ssg15
(dp34
g5
I975
sg6
I93
sg7
I9
sg8
I4
sg9
I11
sg10
I770
ssg17
(dp35
g5
I1099
sg6
I99
sg7
I4
sg8
I3
sg9
I16
sg10
I730
ssg19
(dp36
g5
I821
sg6
I98
sg7
I4
sg8
I4
sg9
I13
sg10
I560
sssS'Danijel.csv'
p37
(dp38
g3
(dp39
g5
I2490
sg6
I43
sg7
I2
sg8
I3
sg9
I248
sg10
I2490
ssg11
(dp40
g5
I3145
sg6
I42
sg7
I4
sg8
I2
sg9
I43
sg10
I1440
ssg13
(dp41
g5
I877
sg6
I40
sg7
I3
sg8
I5
sg9
I8
sg10
I660
ssg15
(dp42
g5
I1500
sg6
I39
sg7
I7
sg8
I2
sg9
I18
sg10
I1220
ssg17
(dp43
g5
I1741
sg6
I45
sg7
I0
sg8
I3
sg9
I28
sg10
I1230
ssg19
(dp44
g5
I1361
sg6
I41
sg7
I3
sg8
I4
sg9
I17
sg10
I1010
sss.(dp0
S'K_all3.csv'
p1
(dp2
S'none'
p3
(dp4
S'count'
p5
I570
sS'truepos'
p6
I36
sS'falseneg'
p7
I4
sS'unknownyes'
p8
I5
sS'falsepos'
p9
I47
sS'unique'
p10
I570
ssS'three'
p11
(dp12
g5
I961
sg6
I36
sg7
I1
sg8
I8
sg9
I9
sg10
I440
ssS'machine'
p13
(dp14
g5
I473
sg6
I30
sg7
I4
sg8
I11
sg9
I6
sg10
I360
ssS'machine4'
p15
(dp16
g5
I572
sg6
I34
sg7
I3
sg8
I8
sg9
I11
sg10
I450
ssS'machine3'
p17
(dp18
g5
I618
sg6
I32
sg7
I4
sg8
I9
sg9
I5
sg10
I440
ssS'machine2'
p19
(dp20
g5
I587
sg6
I30
sg7
I2
sg8
I13
sg9
I12
sg10
I410
sssS'Wahono.csv'
p21
(dp22
g3
(dp23
g5
I3730
sg6
I49
sg7
I9
sg8
I4
sg9
I374
sg10
I3730
ssg11
(dp24
g5
I3139
sg6
I59
sg7
I0
sg8
I3
sg9
I37
sg10
I1450
ssg13
(dp25
g5
I2211
sg6
I56
sg7
I4
sg8
I2
sg9
I16
sg10
I1660
ssg15
(dp26
g5
I1900
sg6
I52
sg7
I8
sg8
I2
sg9
I31
sg10
I1540
ssg17
(dp27
g5
I1860
sg6
I57
sg7
I3
sg8
I2
sg9
I28
sg10
I1290
ssg19
(dp28
g5
I1698
sg6
I55
sg7
I2
sg8
I5
sg9
I22
sg10
I1210
sssS'Hall.csv'
p29
(dp30
g3
(dp31
g5
I2920
sg6
I99
sg7
I4
sg8
I3
sg9
I266
sg10
I2920
ssg11
(dp32
g5
I1130
sg6
I100
sg7
I2
sg8
I4
sg9
I7
sg10
I520
ssg13
(dp33
g5
I910
sg6
I97
sg7
I5
sg8
I4
sg9
I16
sg10
I660
ssg15
(dp34
g5
I998
sg6
I94
sg7
I8
sg8
I4
sg9
I16
sg10
I750
ssg17
(dp35
g5
I1059
sg6
I98
sg7
I4
sg8
I4
sg9
I10
sg10
I700
ssg19
(dp36
g5
I1016
sg6
I101
sg7
I1
sg8
I4
sg9
I15
sg10
I680
sssS'Danijel.csv'
p37
(dp38
g3
(dp39
g5
I2140
sg6
I43
sg7
I4
sg8
I1
sg9
I204
sg10
I2140
ssg11
(dp40
g5
I2331
sg6
I45
sg7
I1
sg8
I2
sg9
I27
sg10
I1070
ssg13
(dp41
g5
I761
sg6
I41
sg7
I2
sg8
I5
sg9
I6
sg10
I560
ssg15
(dp42
g5
I1580
sg6
I35
sg7
I11
sg8
I2
sg9
I24
sg10
I1280
ssg17
(dp43
g5
I798
sg6
I43
sg7
I2
sg8
I3
sg9
I4
sg10
I580
ssg19
(dp44
g5
I1138
sg6
I44
sg7
I1
sg8
I3
sg9
I12
sg10
I810
sss.(dp0
S'K_all3.csv'
p1
(dp2
S'none'
p3
(dp4
S'count'
p5
I640
sS'truepos'
p6
I31
sS'falseneg'
p7
I3
sS'unknownyes'
p8
I11
sS'falsepos'
p9
I57
sS'unique'
p10
I640
ssS'three'
p11
(dp12
g5
I999
sg6
I34
sg7
I0
sg8
I11
sg9
I8
sg10
I460
ssS'machine'
p13
(dp14
g5
I721
sg6
I32
sg7
I4
sg8
I9
sg9
I10
sg10
I560
ssS'machine4'
p15
(dp16
g5
I570
sg6
I30
sg7
I2
sg8
I13
sg9
I11
sg10
I440
ssS'machine3'
p17
(dp18
g5
I624
sg6
I35
sg7
I3
sg8
I7
sg9
I6
sg10
I450
ssS'machine2'
p19
(dp20
g5
I661
sg6
I39
sg7
I1
sg8
I5
sg9
I8
sg10
I460
sssS'Wahono.csv'
p21
(dp22
g3
(dp23
g5
I3470
sg6
I56
sg7
I5
sg8
I1
sg9
I337
sg10
I3470
ssg11
(dp24
g5
I3800
sg6
I58
sg7
I1
sg8
I3
sg9
I48
sg10
I1740
ssg13
(dp25
g5
I1862
sg6
I55
sg7
I4
sg8
I3
sg9
I29
sg10
I1360
ssg15
(dp26
g5
I1678
sg6
I53
sg7
I6
sg8
I3
sg9
I22
sg10
I1360
ssg17
(dp27
g5
I2123
sg6
I54
sg7
I5
sg8
I3
sg9
I43
sg10
I1490
ssg19
(dp28
g5
I2710
sg6
I59
sg7
I2
sg8
I1
sg9
I38
sg10
I1910
sssS'Hall.csv'
p29
(dp30
g3
(dp31
g5
I2500
sg6
I94
sg7
I8
sg8
I4
sg9
I234
sg10
I2500
ssg11
(dp32
g5
I1808
sg6
I98
sg7
I4
sg8
I4
sg9
I16
sg10
I830
ssg13
(dp33
g5
I692
sg6
I94
sg7
I8
sg8
I4
sg9
I14
sg10
I500
ssg15
(dp34
g5
I990
sg6
I91
sg7
I11
sg8
I4
sg9
I14
sg10
I770
ssg17
(dp35
g5
I1252
sg6
I98
sg7
I4
sg8
I4
sg9
I17
sg10
I820
ssg19
(dp36
g5
I1243
sg6
I98
sg7
I4
sg8
I4
sg9
I15
sg10
I850
sssS'Danijel.csv'
p37
(dp38
g3
(dp39
g5
I2590
sg6
I44
sg7
I3
sg8
I1
sg9
I262
sg10
I2590
ssg11
(dp40
g5
I2397
sg6
I45
sg7
I0
sg8
I3
sg9
I31
sg10
I1100
ssg13
(dp41
g5
I1275
sg6
I42
sg7
I3
sg8
I3
sg9
I14
sg10
I960
ssg15
(dp42
g5
I1031
sg6
I40
sg7
I3
sg8
I5
sg9
I10
sg10
I830
ssg17
(dp43
g5
I1150
sg6
I44
sg7
I2
sg8
I2
sg9
I12
sg10
I840
ssg19
(dp44
g5
I1637
sg6
I45
sg7
I1
sg8
I2
sg9
I22
sg10
I1160
sss.(dp0
S'K_all3.csv'
p1
(dp2
S'none'
p3
(dp4
S'count'
p5
I500
sS'truepos'
p6
I27
sS'falseneg'
p7
I4
sS'unknownyes'
p8
I14
sS'falsepos'
p9
I47
sS'unique'
p10
I500
ssS'three'
p11
(dp12
g5
I731
sg6
I29
sg7
I1
sg8
I15
sg9
I12
sg10
I340
ssS'machine'
p13
(dp14
g5
I629
sg6
I30
sg7
I3
sg8
I12
sg9
I7
sg10
I510
ssS'machine4'
p15
(dp16
g5
I605
sg6
I29
sg7
I5
sg8
I11
sg9
I9
sg10
I490
ssS'machine3'
p17
(dp18
g5
I573
sg6
I29
sg7
I3
sg8
I13
sg9
I9
sg10
I420
ssS'machine2'
p19
(dp20
g5
I489
sg6
I27
sg7
I2
sg8
I16
sg9
I5
sg10
I360
sssS'Wahono.csv'
p21
(dp22
g3
(dp23
g5
I2880
sg6
I54
sg7
I5
sg8
I3
sg9
I291
sg10
I2880
ssg11
(dp24
g5
I3695
sg6
I57
sg7
I2
sg8
I3
sg9
I57
sg10
I1690
ssg13
(dp25
g5
I1883
sg6
I54
sg7
I5
sg8
I3
sg9
I21
sg10
I1410
ssg15
(dp26
g5
I1693
sg6
I49
sg7
I8
sg8
I5
sg9
I27
sg10
I1400
ssg17
(dp27
g5
I2408
sg6
I55
sg7
I4
sg8
I3
sg9
I40
sg10
I1680
ssg19
(dp28
g5
I2592
sg6
I57
sg7
I2
sg8
I3
sg9
I37
sg10
I1810
sssS'Hall.csv'
p29
(dp30
g3
(dp31
g5
I3870
sg6
I92
sg7
I11
sg8
I3
sg9
I390
sg10
I3870
ssg11
(dp32
g5
I1699
sg6
I101
sg7
I1
sg8
I4
sg9
I15
sg10
I780
ssg13
(dp33
g5
I543
sg6
I95
sg7
I6
sg8
I5
sg9
I8
sg10
I390
ssg15
(dp34
g5
I1099
sg6
I90
sg7
I12
sg8
I4
sg9
I14
sg10
I860
ssg17
(dp35
g5
I775
sg6
I97
sg7
I5
sg8
I4
sg9
I6
sg10
I500
ssg19
(dp36
g5
I1130
sg6
I97
sg7
I5
sg8
I4
sg9
I19
sg10
I760
sssS'Danijel.csv'
p37
(dp38
g3
(dp39
g5
I2070
sg6
I41
sg7
I5
sg8
I2
sg9
I193
sg10
I2070
ssg11
(dp40
g5
I2211
sg6
I44
sg7
I1
sg8
I3
sg9
I25
sg10
I1010
ssg13
(dp41
g5
I1027
sg6
I39
sg7
I7
sg8
I2
sg9
I13
sg10
I760
ssg15
(dp42
g5
I901
sg6
I37
sg7
I9
sg8
I2
sg9
I12
sg10
I740
ssg17
(dp43
g5
I1202
sg6
I41
sg7
I1
sg8
I6
sg9
I19
sg10
I830
ssg19
(dp44
g5
I1704
sg6
I40
sg7
I3
sg8
I5
sg9
I33
sg10
I1210
sss.(dp0
S'K_all3.csv'
p1
(dp2
S'none'
p3
(dp4
S'count'
p5
I430
sS'truepos'
p6
I32
sS'falseneg'
p7
I2
sS'unknownyes'
p8
I11
sS'falsepos'
p9
I34
sS'unique'
p10
I430
ssS'three'
p11
(dp12
g5
I1263
sg6
I37
sg7
I1
sg8
I7
sg9
I19
sg10
I580
ssS'machine'
p13
(dp14
g5
I615
sg6
I33
sg7
I3
sg8
I9
sg9
I7
sg10
I460
ssS'machine4'
p15
(dp16
g5
I592
sg6
I35
sg7
I2
sg8
I8
sg9
I16
sg10
I460
ssS'machine3'
p17
(dp18
g5
I649
sg6
I36
sg7
I1
sg8
I8
sg9
I10
sg10
I470
ssS'machine2'
p19
(dp20
g5
I617
sg6
I31
sg7
I3
sg8
I11
sg9
I10
sg10
I460
sssS'Wahono.csv'
p21
(dp22
g3
(dp23
g5
I2920
sg6
I55
sg7
I6
sg8
I1
sg9
I282
sg10
I2920
ssg11
(dp24
g5
I5191
sg6
I57
sg7
I2
sg8
I3
sg9
I66
sg10
I2370
ssg13
(dp25
g5
I1696
sg6
I56
sg7
I3
sg8
I3
sg9
I19
sg10
I1260
ssg15
(dp26
g5
I1639
sg6
I55
sg7
I4
sg8
I3
sg9
I24
sg10
I1340
ssg17
(dp27
g5
I1864
sg6
I54
sg7
I3
sg8
I5
sg9
I33
sg10
I1310
ssg19
(dp28
g5
I2771
sg6
I60
sg7
I2
sg8
I0
sg9
I37
sg10
I1930
sssS'Hall.csv'
p29
(dp30
g3
(dp31
g5
I3650
sg6
I97
sg7
I9
sg8
I0
sg9
I340
sg10
I3650
ssg11
(dp32
g5
I1494
sg6
I97
sg7
I5
sg8
I4
sg9
I14
sg10
I690
ssg13
(dp33
g5
I722
sg6
I90
sg7
I11
sg8
I5
sg9
I18
sg10
I520
ssg15
(dp34
g5
I873
sg6
I92
sg7
I10
sg8
I4
sg9
I10
sg10
I660
ssg17
(dp35
g5
I676
sg6
I100
sg7
I1
sg8
I5
sg9
I4
sg10
I420
ssg19
(dp36
g5
I893
sg6
I99
sg7
I3
sg8
I4
sg9
I26
sg10
I610
sssS'Danijel.csv'
p37
(dp38
g3
(dp39
g5
I2030
sg6
I37
sg7
I9
sg8
I2
sg9
I195
sg10
I2030
ssg11
(dp40
g5
I2595
sg6
I44
sg7
I1
sg8
I3
sg9
I32
sg10
I1200
ssg13
(dp41
g5
I1207
sg6
I42
sg7
I4
sg8
I2
sg9
I9
sg10
I910
ssg15
(dp42
g5
I1125
sg6
I44
sg7
I2
sg8
I2
sg9
I19
sg10
I910
ssg17
(dp43
g5
I1152
sg6
I44
sg7
I1
sg8
I3
sg9
I16
sg10
I830
ssg19
(dp44
g5
I1017
sg6
I39
sg7
I4
sg8
I5
sg9
I19
sg10
I710
sss.(dp0
S'K_all3.csv'
p1
(dp2
S'none'
p3
(dp4
S'count'
p5
I400
sS'truepos'
p6
I30
sS'falseneg'
p7
I1
sS'unknownyes'
p8
I14
sS'falsepos'
p9
I32
sS'unique'
p10
I400
ssS'three'
p11
(dp12
g5
I884
sg6
I29
sg7
I0
sg8
I16
sg9
I10
sg10
I410
ssS'machine'
p13
(dp14
g5
I651
sg6
I28
sg7
I7
sg8
I10
sg9
I8
sg10
I510
ssS'machine4'
p15
(dp16
g5
I636
sg6
I33
sg7
I5
sg8
I7
sg9
I6
sg10
I520
ssS'machine3'
p17
(dp18
g5
I637
sg6
I32
sg7
I2
sg8
I11
sg9
I6
sg10
I480
ssS'machine2'
p19
(dp20
g5
I519
sg6
I29
sg7
I1
sg8
I15
sg9
I11
sg10
I360
sssS'Wahono.csv'
p21
(dp22
g3
(dp23
g5
I3490
sg6
I55
sg7
I7
sg8
I0
sg9
I355
sg10
I3490
ssg11
(dp24
g5
I3299
sg6
I56
sg7
I2
sg8
I4
sg9
I41
sg10
I1520
ssg13
(dp25
g5
I1542
sg6
I56
sg7
I4
sg8
I2
sg9
I15
sg10
I1160
ssg15
(dp26
g5
I1605
sg6
I52
sg7
I6
sg8
I4
sg9
I25
sg10
I1300
ssg17
(dp27
g5
I1751
sg6
I59
sg7
I1
sg8
I2
sg9
I19
sg10
I1230
ssg19
(dp28
g5
I1865
sg6
I59
sg7
I2
sg8
I1
sg9
I29
sg10
I1310
sssS'Hall.csv'
p29
(dp30
g3
(dp31
g5
I3270
sg6
I96
sg7
I7
sg8
I3
sg9
I332
sg10
I3270
ssg11
(dp32
g5
I1701
sg6
I99
sg7
I4
sg8
I3
sg9
I19
sg10
I780
ssg13
(dp33
g5
I512
sg6
I88
sg7
I9
sg8
I9
sg9
I13
sg10
I360
ssg15
(dp34
g5
I1144
sg6
I96
sg7
I6
sg8
I4
sg9
I17
sg10
I890
ssg17
(dp35
g5
I642
sg6
I95
sg7
I6
sg8
I5
sg9
I7
sg10
I400
ssg19
(dp36
g5
I930
sg6
I98
sg7
I3
sg8
I5
sg9
I14
sg10
I620
sssS'Danijel.csv'
p37
(dp38
g3
(dp39
g5
I2520
sg6
I39
sg7
I7
sg8
I2
sg9
I252
sg10
I2520
ssg11
(dp40
g5
I1897
sg6
I42
sg7
I3
sg8
I3
sg9
I14
sg10
I870
ssg13
(dp41
g5
I1241
sg6
I39
sg7
I6
sg8
I3
sg9
I15
sg10
I920
ssg15
(dp42
g5
I1586
sg6
I41
sg7
I5
sg8
I2
sg9
I18
sg10
I1290
ssg17
(dp43
g5
I1037
sg6
I43
sg7
I3
sg8
I2
sg9
I16
sg10
I730
ssg19
(dp44
g5
I1687
sg6
I45
sg7
I1
sg8
I2
sg9
I19
sg10
I1160
sss.(dp0
S'K_all3.csv'
p1
(dp2
S'none'
p3
(dp4
S'count'
p5
I470
sS'truepos'
p6
I27
sS'falseneg'
p7
I5
sS'unknownyes'
p8
I13
sS'falsepos'
p9
I39
sS'unique'
p10
I470
ssS'three'
p11
(dp12
g5
I871
sg6
I31
sg7
I1
sg8
I13
sg9
I11
sg10
I400
ssS'machine'
p13
(dp14
g5
I603
sg6
I27
sg7
I4
sg8
I14
sg9
I8
sg10
I460
ssS'machine4'
p15
(dp16
g5
I584
sg6
I32
sg7
I4
sg8
I9
sg9
I6
sg10
I480
ssS'machine3'
p17
(dp18
g5
I496
sg6
I31
sg7
I2
sg8
I12
sg9
I9
sg10
I380
ssS'machine2'
p19
(dp20
g5
I536
sg6
I30
sg7
I1
sg8
I14
sg9
I9
sg10
I390
sssS'Wahono.csv'
p21
(dp22
g3
(dp23
g5
I3320
sg6
I57
sg7
I2
sg8
I3
sg9
I345
sg10
I3320
ssg11
(dp24
g5
I4200
sg6
I61
sg7
I1
sg8
I0
sg9
I51
sg10
I1930
ssg13
(dp25
g5
I2278
sg6
I58
sg7
I1
sg8
I3
sg9
I29
sg10
I1710
ssg15
(dp26
g5
I2334
sg6
I62
sg7
I0
sg8
I0
sg9
I30
sg10
I1950
ssg17
(dp27
g5
I2527
sg6
I54
sg7
I4
sg8
I4
sg9
I33
sg10
I1790
ssg19
(dp28
g5
I2227
sg6
I55
sg7
I2
sg8
I5
sg9
I44
sg10
I1560
sssS'Hall.csv'
p29
(dp30
g3
(dp31
g5
I3160
sg6
I91
sg7
I13
sg8
I2
sg9
I315
sg10
I3160
ssg11
(dp32
g5
I2067
sg6
I102
sg7
I0
sg8
I4
sg9
I28
sg10
I950
ssg13
(dp33
g5
I511
sg6
I86
sg7
I9
sg8
I11
sg9
I17
sg10
I360
ssg15
(dp34
g5
I744
sg6
I95
sg7
I7
sg8
I4
sg9
I3
sg10
I560
ssg17
(dp35
g5
I1646
sg6
I96
sg7
I7
sg8
I3
sg9
I30
sg10
I1110
ssg19
(dp36
g5
I606
sg6
I96
sg7
I3
sg8
I7
sg9
I9
sg10
I410
sssS'Danijel.csv'
p37
(dp38
g3
(dp39
g5
I2120
sg6
I40
sg7
I5
sg8
I3
sg9
I192
sg10
I2120
ssg11
(dp40
g5
I2364
sg6
I44
sg7
I2
sg8
I2
sg9
I28
sg10
I1080
ssg13
(dp41
g5
I1272
sg6
I43
sg7
I1
sg8
I4
sg9
I10
sg10
I960
ssg15
(dp42
g5
I1157
sg6
I41
sg7
I5
sg8
I2
sg9
I18
sg10
I940
ssg17
(dp43
g5
I1312
sg6
I43
sg7
I3
sg8
I2
sg9
I11
sg10
I940
ssg19
(dp44
g5
I1160
sg6
I41
sg7
I1
sg8
I6
sg9
I16
sg10
I810
sss.(dp0
S'K_all3.csv'
p1
(dp2
S'none'
p3
(dp4
S'count'
p5
I460
sS'truepos'
p6
I29
sS'falseneg'
p7
I5
sS'unknownyes'
p8
I11
sS'falsepos'
p9
I36
sS'unique'
p10
I460
ssS'three'
p11
(dp12
g5
I844
sg6
I29
sg7
I0
sg8
I16
sg9
I10
sg10
I390
ssS'machine'
p13
(dp14
g5
I680
sg6
I36
sg7
I0
sg8
I9
sg9
I16
sg10
I500
ssS'machine4'
p15
(dp16
g5
I531
sg6
I33
sg7
I1
sg8
I11
sg9
I9
sg10
I420
ssS'machine3'
p17
(dp18
g5
I610
sg6
I32
sg7
I4
sg8
I9
sg9
I6
sg10
I450
ssS'machine2'
p19
(dp20
g5
I551
sg6
I30
sg7
I3
sg8
I12
sg9
I10
sg10
I380
sssS'Wahono.csv'
p21
(dp22
g3
(dp23
g5
I3740
sg6
I51
sg7
I9
sg8
I2
sg9
I396
sg10
I3740
ssg11
(dp24
g5
I3852
sg6
I61
sg7
I1
sg8
I0
sg9
I40
sg10
I1770
ssg13
(dp25
g5
I1428
sg6
I50
sg7
I8
sg8
I4
sg9
I13
sg10
I1060
ssg15
(dp26
g5
I2104
sg6
I57
sg7
I3
sg8
I2
sg9
I26
sg10
I1750
ssg17
(dp27
g5
I1625
sg6
I60
sg7
I1
sg8
I1
sg9
I19
sg10
I1130
ssg19
(dp28
g5
I2216
sg6
I58
sg7
I3
sg8
I1
sg9
I31
sg10
I1560
sssS'Hall.csv'
p29
(dp30
g3
(dp31
g5
I2810
sg6
I96
sg7
I8
sg8
I2
sg9
I263
sg10
I2810
ssg11
(dp32
g5
I1404
sg6
I98
sg7
I3
sg8
I5
sg9
I12
sg10
I640
ssg13
(dp33
g5
I723
sg6
I100
sg7
I2
sg8
I4
sg9
I6
sg10
I510
ssg15
(dp34
g5
I1201
sg6
I93
sg7
I9
sg8
I4
sg9
I17
sg10
I940
ssg17
(dp35
g5
I839
sg6
I100
sg7
I2
sg8
I4
sg9
I6
sg10
I530
ssg19
(dp36
g5
I674
sg6
I95
sg7
I6
sg8
I5
sg9
I12
sg10
I460
sssS'Danijel.csv'
p37
(dp38
g3
(dp39
g5
I2740
sg6
I43
sg7
I3
sg8
I2
sg9
I267
sg10
I2740
ssg11
(dp40
g5
I2349
sg6
I45
sg7
I1
sg8
I2
sg9
I27
sg10
I1080
ssg13
(dp41
g5
I964
sg6
I39
sg7
I5
sg8
I4
sg9
I14
sg10
I710
ssg15
(dp42
g5
I1241
sg6
I40
sg7
I6
sg8
I2
sg9
I13
sg10
I1010
ssg17
(dp43
g5
I1044
sg6
I43
sg7
I0
sg8
I5
sg9
I13
sg10
I740
ssg19
(dp44
g5
I1090
sg6
I42
sg7
I2
sg8
I4
sg9
I14
sg10
I760
sss.(dp0
S'K_all3.csv'
p1
(dp2
S'none'
p3
(dp4
S'count'
p5
I430
sS'truepos'
p6
I24
sS'falseneg'
p7
I7
sS'unknownyes'
p8
I14
sS'falsepos'
p9
I36
sS'unique'
p10
I430
ssS'three'
p11
(dp12
g5
I888
sg6
I31
sg7
I4
sg8
I10
sg9
I8
sg10
I400
ssS'machine'
p13
(dp14
g5
I480
sg6
I28
sg7
I4
sg8
I13
sg9
I5
sg10
I360
ssS'machine4'
p15
(dp16
g5
I538
sg6
I32
sg7
I1
sg8
I12
sg9
I7
sg10
I420
ssS'machine3'
p17
(dp18
g5
I623
sg6
I31
sg7
I2
sg8
I12
sg9
I11
sg10
I440
ssS'machine2'
p19
(dp20
g5
I590
sg6
I30
sg7
I2
sg8
I13
sg9
I16
sg10
I410
sssS'Wahono.csv'
p21
(dp22
g3
(dp23
g5
I2240
sg6
I54
sg7
I5
sg8
I3
sg9
I231
sg10
I2240
ssg11
(dp24
g5
I3909
sg6
I57
sg7
I2
sg8
I3
sg9
I46
sg10
I1780
ssg13
(dp25
g5
I2072
sg6
I55
sg7
I4
sg8
I3
sg9
I19
sg10
I1560
ssg15
(dp26
g5
I2267
sg6
I42
sg7
I18
sg8
I2
sg9
I38
sg10
I1860
ssg17
(dp27
g5
I1531
sg6
I57
sg7
I1
sg8
I4
sg9
I20
sg10
I1080
ssg19
(dp28
g5
I2188
sg6
I52
sg7
I6
sg8
I4
sg9
I31
sg10
I1510
sssS'Hall.csv'
p29
(dp30
g3
(dp31
g5
I3740
sg6
I87
sg7
I16
sg8
I3
sg9
I370
sg10
I3740
ssg11
(dp32
g5
I2020
sg6
I100
sg7
I2
sg8
I4
sg9
I25
sg10
I930
ssg13
(dp33
g5
I742
sg6
I93
sg7
I9
sg8
I4
sg9
I6
sg10
I530
ssg15
(dp34
g5
I1088
sg6
I90
sg7
I12
sg8
I4
sg9
I16
sg10
I850
ssg17
(dp35
g5
I760
sg6
I99
sg7
I2
sg8
I5
sg9
I5
sg10
I480
ssg19
(dp36
g5
I686
sg6
I94
sg7
I2
sg8
I10
sg9
I20
sg10
I460
sssS'Danijel.csv'
p37
(dp38
g3
(dp39
g5
I3040
sg6
I40
sg7
I7
sg8
I1
sg9
I300
sg10
I3040
ssg11
(dp40
g5
I2811
sg6
I46
sg7
I0
sg8
I2
sg9
I34
sg10
I1290
ssg13
(dp41
g5
I1624
sg6
I41
sg7
I1
sg8
I6
sg9
I27
sg10
I1210
ssg15
(dp42
g5
I1366
sg6
I43
sg7
I3
sg8
I2
sg9
I15
sg10
I1130
ssg17
(dp43
g5
I1751
sg6
I43
sg7
I2
sg8
I3
sg9
I25
sg10
I1230
ssg19
(dp44
g5
I1008
sg6
I42
sg7
I2
sg8
I4
sg9
I14
sg10
I710
sss.(dp0
S'K_all3.csv'
p1
(dp2
S'none'
p3
(dp4
S'count'
p5
I490
sS'truepos'
p6
I26
sS'falseneg'
p7
I5
sS'unknownyes'
p8
I14
sS'falsepos'
p9
I50
sS'unique'
p10
I490
ssS'three'
p11
(dp12
g5
I1059
sg6
I34
sg7
I0
sg8
I11
sg9
I15
sg10
I490
ssS'machine'
p13
(dp14
g5
I524
sg6
I31
sg7
I4
sg8
I10
sg9
I4
sg10
I410
ssS'machine4'
p15
(dp16
g5
I634
sg6
I29
sg7
I8
sg8
I8
sg9
I10
sg10
I510
ssS'machine3'
p17
(dp18
g5
I717
sg6
I30
sg7
I4
sg8
I11
sg9
I8
sg10
I540
ssS'machine2'
p19
(dp20
g5
I566
sg6
I30
sg7
I2
sg8
I13
sg9
I13
sg10
I410
sssS'Wahono.csv'
p21
(dp22
g3
(dp23
g5
I3100
sg6
I52
sg7
I7
sg8
I3
sg9
I268
sg10
I3100
ssg11
(dp24
g5
I3250
sg6
I59
sg7
I1
sg8
I2
sg9
I37
sg10
I1490
ssg13
(dp25
g5
I1327
sg6
I54
sg7
I4
sg8
I4
sg9
I8
sg10
I1010
ssg15
(dp26
g5
I2223
sg6
I51
sg7
I8
sg8
I3
sg9
I38
sg10
I1820
ssg17
(dp27
g5
I2118
sg6
I54
sg7
I5
sg8
I3
sg9
I28
sg10
I1480
ssg19
(dp28
g5
I2689
sg6
I57
sg7
I3
sg8
I2
sg9
I38
sg10
I1880
sssS'Hall.csv'
p29
(dp30
g3
(dp31
g5
I2750
sg6
I92
sg7
I10
sg8
I4
sg9
I269
sg10
I2750
ssg11
(dp32
g5
I2723
sg6
I100
sg7
I3
sg8
I3
sg9
I33
sg10
I1250
ssg13
(dp33
g5
I620
sg6
I94
sg7
I7
sg8
I5
sg9
I7
sg10
I450
ssg15
(dp34
g5
I929
sg6
I92
sg7
I10
sg8
I4
sg9
I10
sg10
I720
ssg17
(dp35
g5
I741
sg6
I96
sg7
I5
sg8
I5
sg9
I8
sg10
I470
ssg19
(dp36
g5
I892
sg6
I99
sg7
I3
sg8
I4
sg9
I17
sg10
I610
sssS'Danijel.csv'
p37
(dp38
g3
(dp39
g5
I3610
sg6
I40
sg7
I7
sg8
I1
sg9
I354
sg10
I3610
ssg11
(dp40
g5
I2214
sg6
I46
sg7
I0
sg8
I2
sg9
I30
sg10
I1010
ssg13
(dp41
g5
I792
sg6
I39
sg7
I5
sg8
I4
sg9
I5
sg10
I610
ssg15
(dp42
g5
I1034
sg6
I43
sg7
I2
sg8
I3
sg9
I14
sg10
I830
ssg17
(dp43
g5
I1868
sg6
I46
sg7
I1
sg8
I1
sg9
I31
sg10
I1340
ssg19
(dp44
g5
I1202
sg6
I40
sg7
I2
sg8
I6
sg9
I20
sg10
I840
sss.(dp0
S'K_all3.csv'
p1
(dp2
S'none'
p3
(dp4
S'count'
p5
I440
sS'truepos'
p6
I30
sS'falseneg'
p7
I2
sS'unknownyes'
p8
I13
sS'falsepos'
p9
I46
sS'unique'
p10
I440
ssS'three'
p11
(dp12
g5
I938
sg6
I34
sg7
I1
sg8
I10
sg9
I4
sg10
I430
ssS'machine'
p13
(dp14
g5
I552
sg6
I29
sg7
I3
sg8
I13
sg9
I8
sg10
I410
ssS'machine4'
p15
(dp16
g5
I441
sg6
I31
sg7
I1
sg8
I13
sg9
I7
sg10
I360
ssS'machine3'
p17
(dp18
g5
I663
sg6
I35
sg7
I2
sg8
I8
sg9
I10
sg10
I490
ssS'machine2'
p19
(dp20
g5
I656
sg6
I32
sg7
I4
sg8
I9
sg9
I7
sg10
I460
sssS'Wahono.csv'
p21
(dp22
g3
(dp23
g5
I3310
sg6
I56
sg7
I4
sg8
I2
sg9
I332
sg10
I3310
ssg11
(dp24
g5
I3052
sg6
I56
sg7
I3
sg8
I3
sg9
I39
sg10
I1400
ssg13
(dp25
g5
I1206
sg6
I52
sg7
I3
sg8
I7
sg9
I13
sg10
I910
ssg15
(dp26
g5
I2182
sg6
I56
sg7
I3
sg8
I3
sg9
I37
sg10
I1800
ssg17
(dp27
g5
I2113
sg6
I58
sg7
I1
sg8
I3
sg9
I37
sg10
I1470
ssg19
(dp28
g5
I2335
sg6
I57
sg7
I2
sg8
I3
sg9
I31
sg10
I1610
sssS'Hall.csv'
p29
(dp30
g3
(dp31
g5
I3630
sg6
I96
sg7
I7
sg8
I3
sg9
I355
sg10
I3630
ssg11
(dp32
g5
I1761
sg6
I99
sg7
I3
sg8
I4
sg9
I25
sg10
I810
ssg13
(dp33
g5
I792
sg6
I88
sg7
I13
sg8
I5
sg9
I10
sg10
I570
ssg15
(dp34
g5
I1173
sg6
I94
sg7
I9
sg8
I3
sg9
I14
sg10
I910
ssg17
(dp35
g5
I959
sg6
I100
sg7
I2
sg8
I4
sg9
I10
sg10
I620
ssg19
(dp36
g5
I961
sg6
I99
sg7
I3
sg8
I4
sg9
I29
sg10
I660
sssS'Danijel.csv'
p37
(dp38
g3
(dp39
g5
I2490
sg6
I39
sg7
I8
sg8
I1
sg9
I230
sg10
I2490
ssg11
(dp40
g5
I1950
sg6
I44
sg7
I1
sg8
I3
sg9
I20
sg10
I890
ssg13
(dp41
g5
I1562
sg6
I41
sg7
I4
sg8
I3
sg9
I16
sg10
I1180
ssg15
(dp42
g5
I1075
sg6
I41
sg7
I5
sg8
I2
sg9
I17
sg10
I860
ssg17
(dp43
g5
I1475
sg6
I43
sg7
I2
sg8
I3
sg9
I22
sg10
I1040
ssg19
(dp44
g5
I2292
sg6
I45
sg7
I1
sg8
I2
sg9
I33
sg10
I1610
sss.(dp0
S'K_all3.csv'
p1
(dp2
S'none'
p3
(dp4
S'count'
p5
I470
sS'truepos'
p6
I32
sS'falseneg'
p7
I2
sS'unknownyes'
p8
I11
sS'falsepos'
p9
I41
sS'unique'
p10
I470
ssS'three'
p11
(dp12
g5
I880
sg6
I37
sg7
I1
sg8
I7
sg9
I7
sg10
I400
ssS'machine'
p13
(dp14
g5
I542
sg6
I30
sg7
I2
sg8
I13
sg9
I8
sg10
I410
ssS'machine4'
p15
(dp16
g5
I545
sg6
I32
sg7
I4
sg8
I9
sg9
I6
sg10
I440
ssS'machine3'
p17
(dp18
g5
I509
sg6
I31
sg7
I0
sg8
I14
sg9
I8
sg10
I360
ssS'machine2'
p19
(dp20
g5
I488
sg6
I28
sg7
I2
sg8
I15
sg9
I6
sg10
I360
sssS'Wahono.csv'
p21
(dp22
g3
(dp23
g5
I2880
sg6
I52
sg7
I7
sg8
I3
sg9
I285
sg10
I2880
ssg11
(dp24
g5
I3285
sg6
I57
sg7
I3
sg8
I2
sg9
I43
sg10
I1510
ssg13
(dp25
g5
I1695
sg6
I54
sg7
I4
sg8
I4
sg9
I21
sg10
I1260
ssg15
(dp26
g5
I2251
sg6
I56
sg7
I5
sg8
I1
sg9
I39
sg10
I1850
ssg17
(dp27
g5
I1622
sg6
I56
sg7
I5
sg8
I1
sg9
I21
sg10
I1130
ssg19
(dp28
g5
I2552
sg6
I56
sg7
I3
sg8
I3
sg9
I34
sg10
I1810
sssS'Hall.csv'
p29
(dp30
g3
(dp31
g5
I3420
sg6
I97
sg7
I5
sg8
I4
sg9
I364
sg10
I3420
ssg11
(dp32
g5
I1750
sg6
I100
sg7
I2
sg8
I4
sg9
I16
sg10
I800
ssg13
(dp33
g5
I792
sg6
I100
sg7
I2
sg8
I4
sg9
I9
sg10
I560
ssg15
(dp34
g5
I798
sg6
I89
sg7
I13
sg8
I4
sg9
I6
sg10
I610
ssg17
(dp35
g5
I1237
sg6
I100
sg7
I2
sg8
I4
sg9
I16
sg10
I810
ssg19
(dp36
g5
I983
sg6
I99
sg7
I3
sg8
I4
sg9
I8
sg10
I660
sssS'Danijel.csv'
p37
(dp38
g3
(dp39
g5
I3350
sg6
I37
sg7
I9
sg8
I2
sg9
I338
sg10
I3350
ssg11
(dp40
g5
I2518
sg6
I45
sg7
I0
sg8
I3
sg9
I32
sg10
I1150
ssg13
(dp41
g5
I782
sg6
I40
sg7
I4
sg8
I4
sg9
I11
sg10
I610
ssg15
(dp42
g5
I1338
sg6
I39
sg7
I6
sg8
I3
sg9
I17
sg10
I1120
ssg17
(dp43
g5
I1101
sg6
I44
sg7
I1
sg8
I3
sg9
I14
sg10
I770
ssg19
(dp44
g5
I1293
sg6
I41
sg7
I2
sg8
I5
sg9
I22
sg10
I910
sss.(dp0
S'K_all3.csv'
p1
(dp2
S'none'
p3
(dp4
S'count'
p5
I440
sS'truepos'
p6
I32
sS'falseneg'
p7
I4
sS'unknownyes'
p8
I9
sS'falsepos'
p9
I45
sS'unique'
p10
I440
ssS'three'
p11
(dp12
g5
I1034
sg6
I30
sg7
I2
sg8
I13
sg9
I10
sg10
I470
ssS'machine'
p13
(dp14
g5
I452
sg6
I28
sg7
I3
sg8
I14
sg9
I6
sg10
I360
ssS'machine4'
p15
(dp16
g5
I686
sg6
I35
sg7
I4
sg8
I6
sg9
I9
sg10
I550
ssS'machine3'
p17
(dp18
g5
I608
sg6
I31
sg7
I1
sg8
I13
sg9
I7
sg10
I430
ssS'machine2'
p19
(dp20
g5
I623
sg6
I31
sg7
I3
sg8
I11
sg9
I8
sg10
I460
sssS'Wahono.csv'
p21
(dp22
g3
(dp23
g5
I3480
sg6
I49
sg7
I11
sg8
I2
sg9
I312
sg10
I3480
ssg11
(dp24
g5
I4376
sg6
I58
sg7
I1
sg8
I3
sg9
I56
sg10
I2010
ssg13
(dp25
g5
I2081
sg6
I56
sg7
I5
sg8
I1
sg9
I19
sg10
I1560
ssg15
(dp26
g5
I2064
sg6
I50
sg7
I8
sg8
I4
sg9
I33
sg10
I1730
ssg17
(dp27
g5
I2236
sg6
I56
sg7
I4
sg8
I2
sg9
I29
sg10
I1570
ssg19
(dp28
g5
I2113
sg6
I59
sg7
I1
sg8
I2
sg9
I28
sg10
I1460
sssS'Hall.csv'
p29
(dp30
g3
(dp31
g5
I3820
sg6
I91
sg7
I11
sg8
I4
sg9
I345
sg10
I3820
ssg11
(dp32
g5
I3241
sg6
I99
sg7
I3
sg8
I4
sg9
I39
sg10
I1480
ssg13
(dp33
g5
I763
sg6
I96
sg7
I4
sg8
I6
sg9
I8
sg10
I550
ssg15
(dp34
g5
I1161
sg6
I90
sg7
I13
sg8
I3
sg9
I20
sg10
I910
ssg17
(dp35
g5
I1015
sg6
I97
sg7
I5
sg8
I4
sg9
I11
sg10
I650
ssg19
(dp36
g5
I1024
sg6
I100
sg7
I2
sg8
I4
sg9
I20
sg10
I710
sssS'Danijel.csv'
p37
(dp38
g3
(dp39
g5
I1980
sg6
I42
sg7
I3
sg8
I3
sg9
I187
sg10
I1980
ssg11
(dp40
g5
I1768
sg6
I46
sg7
I0
sg8
I2
sg9
I17
sg10
I810
ssg13
(dp41
g5
I1040
sg6
I43
sg7
I2
sg8
I3
sg9
I13
sg10
I780
ssg15
(dp42
g5
I1027
sg6
I43
sg7
I3
sg8
I2
sg9
I15
sg10
I830
ssg17
(dp43
g5
I1446
sg6
I42
sg7
I3
sg8
I3
sg9
I15
sg10
I980
ssg19
(dp44
g5
I1717
sg6
I45
sg7
I1
sg8
I2
sg9
I29
sg10
I1210
sss.(dp0
S'K_all3.csv'
p1
(dp2
S'none'
p3
(dp4
S'count'
p5
I470
sS'truepos'
p6
I19
sS'falseneg'
p7
I5
sS'unknownyes'
p8
I21
sS'falsepos'
p9
I52
sS'unique'
p10
I470
ssS'three'
p11
(dp12
g5
I1023
sg6
I34
sg7
I1
sg8
I10
sg9
I10
sg10
I470
ssS'machine'
p13
(dp14
g5
I585
sg6
I27
sg7
I2
sg8
I16
sg9
I11
sg10
I460
ssS'machine4'
p15
(dp16
g5
I620
sg6
I33
sg7
I4
sg8
I8
sg9
I10
sg10
I490
ssS'machine3'
p17
(dp18
g5
I656
sg6
I30
sg7
I4
sg8
I11
sg9
I8
sg10
I470
ssS'machine2'
p19
(dp20
g5
I620
sg6
I29
sg7
I3
sg8
I13
sg9
I6
sg10
I460
sssS'Wahono.csv'
p21
(dp22
g3
(dp23
g5
I2960
sg6
I55
sg7
I5
sg8
I2
sg9
I268
sg10
I2960
ssg11
(dp24
g5
I4658
sg6
I60
sg7
I0
sg8
I2
sg9
I59
sg10
I2140
ssg13
(dp25
g5
I1826
sg6
I55
sg7
I5
sg8
I2
sg9
I28
sg10
I1360
ssg15
(dp26
g5
I1878
sg6
I56
sg7
I3
sg8
I3
sg9
I26
sg10
I1510
ssg17
(dp27
g5
I2312
sg6
I56
sg7
I4
sg8
I2
sg9
I31
sg10
I1660
ssg19
(dp28
g5
I2131
sg6
I58
sg7
I2
sg8
I2
sg9
I33
sg10
I1510
sssS'Hall.csv'
p29
(dp30
g3
(dp31
g5
I3510
sg6
I94
sg7
I10
sg8
I2
sg9
I323
sg10
I3510
ssg11
(dp32
g5
I2479
sg6
I102
sg7
I1
sg8
I3
sg9
I33
sg10
I1140
ssg13
(dp33
g5
I613
sg6
I87
sg7
I12
sg8
I7
sg9
I17
sg10
I440
ssg15
(dp34
g5
I726
sg6
I95
sg7
I7
sg8
I4
sg9
I10
sg10
I540
ssg17
(dp35
g5
I782
sg6
I96
sg7
I6
sg8
I4
sg9
I8
sg10
I500
ssg19
(dp36
g5
I755
sg6
I97
sg7
I5
sg8
I4
sg9
I13
sg10
I510
sssS'Danijel.csv'
p37
(dp38
g3
(dp39
g5
I3520
sg6
I37
sg7
I10
sg8
I1
sg9
I307
sg10
I3520
ssg11
(dp40
g5
I2790
sg6
I43
sg7
I3
sg8
I2
sg9
I31
sg10
I1280
ssg13
(dp41
g5
I1019
sg6
I41
sg7
I4
sg8
I3
sg9
I10
sg10
I760
ssg15
(dp42
g5
I1079
sg6
I44
sg7
I2
sg8
I2
sg9
I20
sg10
I870
ssg17
(dp43
g5
I1216
sg6
I46
sg7
I0
sg8
I2
sg9
I17
sg10
I830
ssg19
(dp44
g5
I1085
sg6
I41
sg7
I3
sg8
I4
sg9
I17
sg10
I760
sss.(dp0
S'K_all3.csv'
p1
(dp2
S'none'
p3
(dp4
S'count'
p5
I470
sS'truepos'
p6
I33
sS'falseneg'
p7
I4
sS'unknownyes'
p8
I8
sS'falsepos'
p9
I36
sS'unique'
p10
I470
ssS'three'
p11
(dp12
g5
I895
sg6
I36
sg7
I0
sg8
I9
sg9
I10
sg10
I410
ssS'machine'
p13
(dp14
g5
I523
sg6
I28
sg7
I2
sg8
I15
sg9
I9
sg10
I410
ssS'machine4'
p15
(dp16
g5
I529
sg6
I30
sg7
I3
sg8
I12
sg9
I9
sg10
I400
ssS'machine3'
p17
(dp18
g5
I629
sg6
I28
sg7
I3
sg8
I14
sg9
I12
sg10
I450
ssS'machine2'
p19
(dp20
g5
I926
sg6
I32
sg7
I3
sg8
I10
sg9
I23
sg10
I660
sssS'Wahono.csv'
p21
(dp22
g3
(dp23
g5
I3430
sg6
I54
sg7
I5
sg8
I3
sg9
I352
sg10
I3430
ssg11
(dp24
g5
I3846
sg6
I59
sg7
I2
sg8
I1
sg9
I56
sg10
I1770
ssg13
(dp25
g5
I1561
sg6
I56
sg7
I4
sg8
I2
sg9
I17
sg10
I1160
ssg15
(dp26
g5
I1783
sg6
I51
sg7
I8
sg8
I3
sg9
I25
sg10
I1450
ssg17
(dp27
g5
I1739
sg6
I52
sg7
I3
sg8
I7
sg9
I23
sg10
I1210
ssg19
(dp28
g5
I2385
sg6
I59
sg7
I3
sg8
I0
sg9
I38
sg10
I1660
sssS'Hall.csv'
p29
(dp30
g3
(dp31
g5
I3390
sg6
I91
sg7
I13
sg8
I2
sg9
I325
sg10
I3390
ssg11
(dp32
g5
I1314
sg6
I100
sg7
I2
sg8
I4
sg9
I14
sg10
I600
ssg13
(dp33
g5
I652
sg6
I89
sg7
I9
sg8
I8
sg9
I17
sg10
I460
ssg15
(dp34
g5
I1090
sg6
I90
sg7
I12
sg8
I4
sg9
I13
sg10
I860
ssg17
(dp35
g5
I686
sg6
I93
sg7
I8
sg8
I5
sg9
I3
sg10
I450
ssg19
(dp36
g5
I743
sg6
I99
sg7
I3
sg8
I4
sg9
I14
sg10
I510
sssS'Danijel.csv'
p37
(dp38
g3
(dp39
g5
I3390
sg6
I45
sg7
I3
sg8
I0
sg9
I342
sg10
I3390
ssg11
(dp40
g5
I2587
sg6
I43
sg7
I3
sg8
I2
sg9
I29
sg10
I1180
ssg13
(dp41
g5
I1408
sg6
I39
sg7
I4
sg8
I5
sg9
I15
sg10
I1060
ssg15
(dp42
g5
I1245
sg6
I38
sg7
I8
sg8
I2
sg9
I24
sg10
I990
ssg17
(dp43
g5
I1117
sg6
I43
sg7
I2
sg8
I3
sg9
I13
sg10
I790
ssg19
(dp44
g5
I1072
sg6
I42
sg7
I1
sg8
I5
sg9
I16
sg10
I760
sss.(dp0
S'K_all3.csv'
p1
(dp2
S'none'
p3
(dp4
S'count'
p5
I470
sS'truepos'
p6
I35
sS'falseneg'
p7
I1
sS'unknownyes'
p8
I9
sS'falsepos'
p9
I41
sS'unique'
p10
I470
ssS'three'
p11
(dp12
g5
I1125
sg6
I37
sg7
I2
sg8
I6
sg9
I14
sg10
I510
ssS'machine'
p13
(dp14
g5
I585
sg6
I28
sg7
I6
sg8
I11
sg9
I9
sg10
I440
ssS'machine4'
p15
(dp16
g5
I651
sg6
I30
sg7
I5
sg8
I10
sg9
I8
sg10
I530
ssS'machine3'
p17
(dp18
g5
I607
sg6
I36
sg7
I0
sg8
I9
sg9
I9
sg10
I440
ssS'machine2'
p19
(dp20
g5
I620
sg6
I29
sg7
I5
sg8
I11
sg9
I8
sg10
I460
sssS'Wahono.csv'
p21
(dp22
g3
(dp23
g5
I3960
sg6
I53
sg7
I7
sg8
I2
sg9
I407
sg10
I3960
ssg11
(dp24
g5
I3967
sg6
I59
sg7
I0
sg8
I3
sg9
I56
sg10
I1830
ssg13
(dp25
g5
I1854
sg6
I55
sg7
I3
sg8
I4
sg9
I16
sg10
I1410
ssg15
(dp26
g5
I1923
sg6
I51
sg7
I9
sg8
I2
sg9
I29
sg10
I1620
ssg17
(dp27
g5
I1787
sg6
I55
sg7
I4
sg8
I3
sg9
I22
sg10
I1250
ssg19
(dp28
g5
I2262
sg6
I59
sg7
I0
sg8
I3
sg9
I33
sg10
I1610
sssS'Hall.csv'
p29
(dp30
g3
(dp31
g5
I3180
sg6
I92
sg7
I11
sg8
I3
sg9
I330
sg10
I3180
ssg11
(dp32
g5
I1604
sg6
I97
sg7
I5
sg8
I4
sg9
I16
sg10
I740
ssg13
(dp33
g5
I732
sg6
I95
sg7
I7
sg8
I4
sg9
I9
sg10
I520
ssg15
(dp34
g5
I732
sg6
I92
sg7
I10
sg8
I4
sg9
I7
sg10
I560
ssg17
(dp35
g5
I782
sg6
I97
sg7
I5
sg8
I4
sg9
I6
sg10
I500
ssg19
(dp36
g5
I634
sg6
I96
sg7
I5
sg8
I5
sg9
I9
sg10
I430
sssS'Danijel.csv'
p37
(dp38
g3
(dp39
g5
I2090
sg6
I42
sg7
I3
sg8
I3
sg9
I209
sg10
I2090
ssg11
(dp40
g5
I2344
sg6
I45
sg7
I1
sg8
I2
sg9
I31
sg10
I1070
ssg13
(dp41
g5
I1079
sg6
I41
sg7
I3
sg8
I4
sg9
I12
sg10
I810
ssg15
(dp42
g5
I1649
sg6
I40
sg7
I6
sg8
I2
sg9
I20
sg10
I1330
ssg17
(dp43
g5
I1089
sg6
I45
sg7
I0
sg8
I3
sg9
I10
sg10
I790
ssg19
(dp44
g5
I1226
sg6
I45
sg7
I0
sg8
I3
sg9
I18
sg10
I860
sss.(dp0
S'K_all3.csv'
p1
(dp2
S'none'
p3
(dp4
S'count'
p5
I400
sS'truepos'
p6
I29
sS'falseneg'
p7
I6
sS'unknownyes'
p8
I10
sS'falsepos'
p9
I49
sS'unique'
p10
I400
ssS'three'
p11
(dp12
g5
I900
sg6
I33
sg7
I2
sg8
I10
sg9
I10
sg10
I410
ssS'machine'
p13
(dp14
g5
I571
sg6
I32
sg7
I4
sg8
I9
sg9
I6
sg10
I440
ssS'machine4'
p15
(dp16
g5
I718
sg6
I34
sg7
I6
sg8
I5
sg9
I17
sg10
I590
ssS'machine3'
p17
(dp18
g5
I667
sg6
I28
sg7
I1
sg8
I16
sg9
I14
sg10
I490
ssS'machine2'
p19
(dp20
g5
I515
sg6
I28
sg7
I1
sg8
I16
sg9
I10
sg10
I360
sssS'Wahono.csv'
p21
(dp22
g3
(dp23
g5
I3350
sg6
I54
sg7
I7
sg8
I1
sg9
I334
sg10
I3350
ssg11
(dp24
g5
I4067
sg6
I59
sg7
I2
sg8
I1
sg9
I52
sg10
I1860
ssg13
(dp25
g5
I2060
sg6
I56
sg7
I3
sg8
I3
sg9
I22
sg10
I1560
ssg15
(dp26
g5
I2089
sg6
I50
sg7
I9
sg8
I3
sg9
I28
sg10
I1700
ssg17
(dp27
g5
I1593
sg6
I55
sg7
I4
sg8
I3
sg9
I26
sg10
I1100
ssg19
(dp28
g5
I2219
sg6
I58
sg7
I2
sg8
I2
sg9
I26
sg10
I1560
sssS'Hall.csv'
p29
(dp30
g3
(dp31
g5
I3880
sg6
I92
sg7
I11
sg8
I3
sg9
I345
sg10
I3880
ssg11
(dp32
g5
I2052
sg6
I100
sg7
I2
sg8
I4
sg9
I24
sg10
I940
ssg13
(dp33
g5
I772
sg6
I97
sg7
I5
sg8
I4
sg9
I12
sg10
I560
ssg15
(dp34
g5
I1063
sg6
I92
sg7
I10
sg8
I4
sg9
I22
sg10
I820
ssg17
(dp35
g5
I890
sg6
I100
sg7
I2
sg8
I4
sg9
I10
sg10
I550
ssg19
(dp36
g5
I1993
sg6
I96
sg7
I7
sg8
I3
sg9
I31
sg10
I1360
sssS'Danijel.csv'
p37
(dp38
g3
(dp39
g5
I3520
sg6
I41
sg7
I6
sg8
I1
sg9
I340
sg10
I3520
ssg11
(dp40
g5
I2007
sg6
I46
sg7
I0
sg8
I2
sg9
I31
sg10
I920
ssg13
(dp41
g5
I1126
sg6
I40
sg7
I4
sg8
I4
sg9
I12
sg10
I860
ssg15
(dp42
g5
I1151
sg6
I41
sg7
I4
sg8
I3
sg9
I14
sg10
I930
ssg17
(dp43
g5
I1107
sg6
I42
sg7
I4
sg8
I2
sg9
I14
sg10
I780
ssg19
(dp44
g5
I1075
sg6
I40
sg7
I5
sg8
I3
sg9
I20
sg10
I760
sss.(dp0
S'K_all3.csv'
p1
(dp2
S'none'
p3
(dp4
S'count'
p5
I530
sS'truepos'
p6
I33
sS'falseneg'
p7
I2
sS'unknownyes'
p8
I10
sS'falsepos'
p9
I44
sS'unique'
p10
I530
ssS'three'
p11
(dp12
g5
I1041
sg6
I35
sg7
I1
sg8
I9
sg9
I8
sg10
I480
ssS'machine'
p13
(dp14
g5
I651
sg6
I31
sg7
I6
sg8
I8
sg9
I6
sg10
I510
ssS'machine4'
p15
(dp16
g5
I701
sg6
I33
sg7
I7
sg8
I5
sg9
I16
sg10
I580
ssS'machine3'
p17
(dp18
g5
I553
sg6
I30
sg7
I1
sg8
I14
sg9
I9
sg10
I400
ssS'machine2'
p19
(dp20
g5
I650
sg6
I33
sg7
I4
sg8
I8
sg9
I13
sg10
I460
sssS'Wahono.csv'
p21
(dp22
g3
(dp23
g5
I3610
sg6
I52
sg7
I8
sg8
I2
sg9
I356
sg10
I3610
ssg11
(dp24
g5
I3505
sg6
I57
sg7
I2
sg8
I3
sg9
I41
sg10
I1610
ssg13
(dp25
g5
I1416
sg6
I51
sg7
I9
sg8
I2
sg9
I10
sg10
I1060
ssg15
(dp26
g5
I2008
sg6
I53
sg7
I7
sg8
I2
sg9
I33
sg10
I1610
ssg17
(dp27
g5
I1655
sg6
I55
sg7
I3
sg8
I4
sg9
I23
sg10
I1160
ssg19
(dp28
g5
I2542
sg6
I57
sg7
I2
sg8
I3
sg9
I35
sg10
I1770
sssS'Hall.csv'
p29
(dp30
g3
(dp31
g5
I4410
sg6
I95
sg7
I8
sg8
I3
sg9
I469
sg10
I4410
ssg11
(dp32
g5
I1094
sg6
I100
sg7
I2
sg8
I4
sg9
I5
sg10
I510
ssg13
(dp33
g5
I611
sg6
I95
sg7
I6
sg8
I5
sg9
I17
sg10
I440
ssg15
(dp34
g5
I1364
sg6
I86
sg7
I17
sg8
I3
sg9
I16
sg10
I1100
ssg17
(dp35
g5
I2026
sg6
I101
sg7
I2
sg8
I3
sg9
I30
sg10
I1390
ssg19
(dp36
g5
I1028
sg6
I97
sg7
I5
sg8
I4
sg9
I17
sg10
I690
sssS'Danijel.csv'
p37
(dp38
g3
(dp39
g5
I2090
sg6
I41
sg7
I4
sg8
I3
sg9
I214
sg10
I2090
ssg11
(dp40
g5
I2581
sg6
I45
sg7
I2
sg8
I1
sg9
I24
sg10
I1180
ssg13
(dp41
g5
I1396
sg6
I43
sg7
I3
sg8
I2
sg9
I13
sg10
I1060
ssg15
(dp42
g5
I1563
sg6
I37
sg7
I9
sg8
I2
sg9
I22
sg10
I1290
ssg17
(dp43
g5
I1210
sg6
I41
sg7
I4
sg8
I3
sg9
I17
sg10
I840
ssg19
(dp44
g5
I1160
sg6
I43
sg7
I3
sg8
I2
sg9
I11
sg10
I800
sss.