(dp0
S'K_all3.csv'
p1
(dp2
S'machine'
p3
(dp4
S'count'
p5
I1070
sS'truepos'
p6
I39
sS'falseneg'
p7
I2
sS'correction'
p8
I6
sS'unknownyes'
p9
I4
sS'falsepos'
p10
I11
sS'unique'
p11
I590
ssS'knee'
p12
(dp13
g5
I2272
sg6
I39
sg7
I6
sg8
I10
sg9
I0
sg10
I10
sg11
I1600
ssS'none'
p14
(dp15
g5
I570
sg6
I33
sg7
I9
sg8
I0
sg9
I3
sg10
I5
sg11
I570
ssS'three'
p16
(dp17
g5
I1327
sg6
I32
sg7
I11
sg8
I24
sg9
I2
sg10
I0
sg11
I650
sssS'Wahono.csv'
p18
(dp19
g3
(dp20
g5
I2157
sg6
I55
sg7
I3
sg8
I23
sg9
I4
sg10
I4
sg11
I1170
ssg12
(dp21
g5
I818
sg6
I37
sg7
I11
sg8
I11
sg9
I14
sg10
I4
sg11
I580
ssg14
(dp22
g5
I1570
sg6
I43
sg7
I16
sg8
I0
sg9
I3
sg10
I3
sg11
I1570
ssg16
(dp23
g5
I3016
sg6
I47
sg7
I13
sg8
I35
sg9
I2
sg10
I0
sg11
I1490
sssS'Hall.csv'
p24
(dp25
g3
(dp26
g5
I833
sg6
I95
sg7
I6
sg8
I21
sg9
I3
sg10
I1
sg11
I520
ssg12
(dp27
g5
I428
sg6
I91
sg7
I6
sg8
I17
sg9
I7
sg10
I2
sg11
I270
ssg14
(dp28
g5
I1540
sg6
I66
sg7
I37
sg8
I0
sg9
I1
sg10
I5
sg11
I1540
ssg16
(dp29
g5
I1550
sg6
I77
sg7
I25
sg8
I42
sg9
I2
sg10
I0
sg11
I750
sssS'Danijel.csv'
p30
(dp31
g3
(dp32
g5
I1464
sg6
I43
sg7
I3
sg8
I10
sg9
I2
sg10
I2
sg11
I760
ssg12
(dp33
g5
I620
sg6
I37
sg7
I4
sg8
I8
sg9
I7
sg10
I0
sg11
I450
ssg14
(dp34
g5
I920
sg6
I39
sg7
I7
sg8
I0
sg9
I2
sg10
I3
sg11
I920
ssg16
(dp35
g5
I2448
sg6
I36
sg7
I10
sg8
I26
sg9
I2
sg10
I0
sg11
I1210
sss.(dp0
S'K_all3.csv'
p1
(dp2
S'machine'
p3
(dp4
S'count'
p5
I779
sS'truepos'
p6
I35
sS'falseneg'
p7
I3
sS'correction'
p8
I9
sS'unknownyes'
p9
I7
sS'falsepos'
p10
I6
sS'unique'
p11
I420
ssS'knee'
p12
(dp13
g5
I608
sg6
I25
sg7
I5
sg8
I5
sg9
I15
sg10
I4
sg11
I380
ssS'none'
p14
(dp15
g5
I610
sg6
I30
sg7
I12
sg8
I0
sg9
I3
sg10
I2
sg11
I610
ssS'three'
p16
(dp17
g5
I1190
sg6
I32
sg7
I11
sg8
I28
sg9
I2
sg10
I1
sg11
I580
sssS'Wahono.csv'
p18
(dp19
g3
(dp20
g5
I2149
sg6
I54
sg7
I5
sg8
I9
sg9
I3
sg10
I8
sg11
I1180
ssg12
(dp21
g5
I1056
sg6
I48
sg7
I10
sg8
I11
sg9
I4
sg10
I2
sg11
I880
ssg14
(dp22
g5
I1820
sg6
I43
sg7
I17
sg8
I0
sg9
I2
sg10
I6
sg11
I1820
ssg16
(dp23
g5
I3181
sg6
I43
sg7
I18
sg8
I37
sg9
I1
sg10
I1
sg11
I1570
sssS'Hall.csv'
p24
(dp25
g3
(dp26
g5
I1119
sg6
I92
sg7
I11
sg8
I16
sg9
I1
sg10
I6
sg11
I750
ssg12
(dp27
g5
I554
sg6
I84
sg7
I18
sg8
I21
sg9
I2
sg10
I0
sg11
I430
ssg14
(dp28
g5
I1760
sg6
I68
sg7
I35
sg8
I0
sg9
I1
sg10
I7
sg11
I1760
ssg16
(dp29
g5
I1724
sg6
I87
sg7
I16
sg8
I41
sg9
I1
sg10
I0
sg11
I840
sssS'Danijel.csv'
p30
(dp31
g3
(dp32
g5
I1466
sg6
I44
sg7
I1
sg8
I6
sg9
I3
sg10
I4
sg11
I760
ssg12
(dp33
g5
I549
sg6
I34
sg7
I3
sg8
I8
sg9
I11
sg10
I1
sg11
I380
ssg14
(dp34
g5
I1070
sg6
I35
sg7
I11
sg8
I0
sg9
I2
sg10
I4
sg11
I1070
ssg16
(dp35
g5
I1962
sg6
I38
sg7
I8
sg8
I19
sg9
I2
sg10
I0
sg11
I970
sss.(dp0
S'K_all3.csv'
p1
(dp2
S'machine'
p3
(dp4
S'count'
p5
I969
sS'truepos'
p6
I37
sS'falseneg'
p7
I5
sS'correction'
p8
I6
sS'unknownyes'
p9
I3
sS'falsepos'
p10
I5
sS'unique'
p11
I540
ssS'knee'
p12
(dp13
g5
I2318
sg6
I40
sg7
I5
sg8
I13
sg9
I0
sg10
I20
sg11
I1560
ssS'none'
p14
(dp15
g5
I810
sg6
I21
sg7
I15
sg8
I0
sg9
I9
sg10
I8
sg11
I810
ssS'three'
p16
(dp17
g5
I1327
sg6
I36
sg7
I7
sg8
I26
sg9
I2
sg10
I0
sg11
I650
sssS'Wahono.csv'
p18
(dp19
g3
(dp20
g5
I2054
sg6
I56
sg7
I4
sg8
I14
sg9
I2
sg10
I4
sg11
I1160
ssg12
(dp21
g5
I652
sg6
I39
sg7
I6
sg8
I7
sg9
I17
sg10
I2
sg11
I420
ssg14
(dp22
g5
I1970
sg6
I49
sg7
I12
sg8
I0
sg9
I1
sg10
I5
sg11
I1970
ssg16
(dp23
g5
I2774
sg6
I45
sg7
I14
sg8
I30
sg9
I3
sg10
I0
sg11
I1370
sssS'Hall.csv'
p24
(dp25
g3
(dp26
g5
I986
sg6
I91
sg7
I11
sg8
I18
sg9
I2
sg10
I1
sg11
I610
ssg12
(dp27
g5
I706
sg6
I86
sg7
I13
sg8
I19
sg9
I5
sg10
I2
sg11
I490
ssg14
(dp28
g5
I840
sg6
I78
sg7
I24
sg8
I0
sg9
I2
sg10
I6
sg11
I840
ssg16
(dp29
g5
I1806
sg6
I83
sg7
I20
sg8
I40
sg9
I1
sg10
I0
sg11
I880
sssS'Danijel.csv'
p30
(dp31
g3
(dp32
g5
I1549
sg6
I43
sg7
I2
sg8
I8
sg9
I3
sg10
I8
sg11
I840
ssg12
(dp33
g5
I569
sg6
I34
sg7
I9
sg8
I8
sg9
I5
sg10
I0
sg11
I450
ssg14
(dp34
g5
I1240
sg6
I32
sg7
I14
sg8
I0
sg9
I2
sg10
I5
sg11
I1240
ssg16
(dp35
g5
I1919
sg6
I38
sg7
I8
sg8
I18
sg9
I2
sg10
I0
sg11
I950
sss.(dp0
S'K_all3.csv'
p1
(dp2
S'machine'
p3
(dp4
S'count'
p5
I997
sS'truepos'
p6
I38
sS'falseneg'
p7
I4
sS'correction'
p8
I13
sS'unknownyes'
p9
I3
sS'falsepos'
p10
I10
sS'unique'
p11
I540
ssS'knee'
p12
(dp13
g5
I1922
sg6
I42
sg7
I3
sg8
I21
sg9
I0
sg10
I9
sg11
I1540
ssS'none'
p14
(dp15
g5
I840
sg6
I27
sg7
I15
sg8
I0
sg9
I3
sg10
I3
sg11
I840
ssS'three'
p16
(dp17
g5
I1487
sg6
I34
sg7
I10
sg8
I24
sg9
I1
sg10
I0
sg11
I730
sssS'Wahono.csv'
p18
(dp19
g3
(dp20
g5
I2941
sg6
I49
sg7
I10
sg8
I11
sg9
I3
sg10
I14
sg11
I1600
ssg12
(dp21
g5
I673
sg6
I41
sg7
I7
sg8
I7
sg9
I14
sg10
I1
sg11
I460
ssg14
(dp22
g5
I1730
sg6
I40
sg7
I20
sg8
I0
sg9
I2
sg10
I4
sg11
I1730
ssg16
(dp23
g5
I3396
sg6
I48
sg7
I13
sg8
I30
sg9
I1
sg10
I0
sg11
I1680
sssS'Hall.csv'
p24
(dp25
g3
(dp26
g5
I851
sg6
I96
sg7
I6
sg8
I22
sg9
I2
sg10
I3
sg11
I540
ssg12
(dp27
g5
I589
sg6
I90
sg7
I11
sg8
I15
sg9
I3
sg10
I0
sg11
I410
ssg14
(dp28
g5
I710
sg6
I75
sg7
I27
sg8
I0
sg9
I2
sg10
I3
sg11
I710
ssg16
(dp29
g5
I1350
sg6
I86
sg7
I16
sg8
I45
sg9
I2
sg10
I0
sg11
I650
sssS'Danijel.csv'
p30
(dp31
g3
(dp32
g5
I1557
sg6
I37
sg7
I7
sg8
I11
sg9
I4
sg10
I3
sg11
I830
ssg12
(dp33
g5
I616
sg6
I35
sg7
I6
sg8
I6
sg9
I7
sg10
I1
sg11
I420
ssg14
(dp34
g5
I1400
sg6
I29
sg7
I19
sg8
I0
sg9
I0
sg10
I4
sg11
I1400
ssg16
(dp35
g5
I1849
sg6
I39
sg7
I7
sg8
I27
sg9
I2
sg10
I0
sg11
I910
sss.(dp0
S'K_all3.csv'
p1
(dp2
S'machine'
p3
(dp4
S'count'
p5
I1051
sS'truepos'
p6
I40
sS'falseneg'
p7
I2
sS'correction'
p8
I7
sS'unknownyes'
p9
I3
sS'falsepos'
p10
I5
sS'unique'
p11
I580
ssS'knee'
p12
(dp13
g5
I529
sg6
I27
sg7
I2
sg8
I5
sg9
I16
sg10
I2
sg11
I350
ssS'none'
p14
(dp15
g5
I790
sg6
I31
sg7
I10
sg8
I0
sg9
I4
sg10
I6
sg11
I790
ssS'three'
p16
(dp17
g5
I1140
sg6
I38
sg7
I4
sg8
I20
sg9
I3
sg10
I0
sg11
I560
sssS'Wahono.csv'
p18
(dp19
g3
(dp20
g5
I2506
sg6
I56
sg7
I3
sg8
I20
sg9
I3
sg10
I9
sg11
I1350
ssg12
(dp21
g5
I177
sg6
I21
sg7
I3
sg8
I4
sg9
I38
sg10
I0
sg11
I130
ssg14
(dp22
g5
I1850
sg6
I49
sg7
I11
sg8
I0
sg9
I2
sg10
I7
sg11
I1850
ssg16
(dp23
g5
I2308
sg6
I45
sg7
I14
sg8
I27
sg9
I3
sg10
I0
sg11
I1140
sssS'Hall.csv'
p24
(dp25
g3
(dp26
g5
I892
sg6
I93
sg7
I9
sg8
I28
sg9
I2
sg10
I0
sg11
I540
ssg12
(dp27
g5
I641
sg6
I87
sg7
I13
sg8
I26
sg9
I4
sg10
I1
sg11
I440
ssg14
(dp28
g5
I1750
sg6
I72
sg7
I31
sg8
I0
sg9
I1
sg10
I4
sg11
I1750
ssg16
(dp29
g5
I1382
sg6
I78
sg7
I24
sg8
I35
sg9
I2
sg10
I0
sg11
I670
sssS'Danijel.csv'
p30
(dp31
g3
(dp32
g5
I1890
sg6
I41
sg7
I5
sg8
I10
sg9
I2
sg10
I5
sg11
I990
ssg12
(dp33
g5
I1236
sg6
I41
sg7
I3
sg8
I12
sg9
I4
sg10
I1
sg11
I840
ssg14
(dp34
g5
I1140
sg6
I33
sg7
I13
sg8
I0
sg9
I2
sg10
I4
sg11
I1140
ssg16
(dp35
g5
I2527
sg6
I34
sg7
I12
sg8
I24
sg9
I2
sg10
I0
sg11
I1250
sss.(dp0
S'K_all3.csv'
p1
(dp2
S'machine'
p3
(dp4
S'count'
p5
I910
sS'truepos'
p6
I34
sS'falseneg'
p7
I4
sS'correction'
p8
I5
sS'unknownyes'
p9
I7
sS'falsepos'
p10
I5
sS'unique'
p11
I490
ssS'knee'
p12
(dp13
g5
I2030
sg6
I39
sg7
I6
sg8
I17
sg9
I0
sg10
I4
sg11
I1620
ssS'none'
p14
(dp15
g5
I590
sg6
I31
sg7
I11
sg8
I0
sg9
I3
sg10
I7
sg11
I590
ssS'three'
p16
(dp17
g5
I1271
sg6
I32
sg7
I11
sg8
I28
sg9
I2
sg10
I0
sg11
I620
sssS'Wahono.csv'
p18
(dp19
g3
(dp20
g5
I1850
sg6
I53
sg7
I6
sg8
I8
sg9
I3
sg10
I4
sg11
I1020
ssg12
(dp21
g5
I628
sg6
I39
sg7
I9
sg8
I9
sg9
I14
sg10
I0
sg11
I440
ssg14
(dp22
g5
I1640
sg6
I39
sg7
I23
sg8
I0
sg9
I0
sg10
I5
sg11
I1640
ssg16
(dp23
g5
I4225
sg6
I47
sg7
I15
sg8
I44
sg9
I0
sg10
I0
sg11
I2090
sssS'Hall.csv'
p24
(dp25
g3
(dp26
g5
I889
sg6
I95
sg7
I7
sg8
I22
sg9
I2
sg10
I0
sg11
I560
ssg12
(dp27
g5
I698
sg6
I89
sg7
I13
sg8
I16
sg9
I2
sg10
I3
sg11
I470
ssg14
(dp28
g5
I1730
sg6
I73
sg7
I30
sg8
I0
sg9
I1
sg10
I4
sg11
I1730
ssg16
(dp29
g5
I1085
sg6
I78
sg7
I23
sg8
I38
sg9
I3
sg10
I0
sg11
I520
sssS'Danijel.csv'
p30
(dp31
g3
(dp32
g5
I1815
sg6
I43
sg7
I3
sg8
I9
sg9
I2
sg10
I4
sg11
I1010
ssg12
(dp33
g5
I619
sg6
I34
sg7
I10
sg8
I5
sg9
I4
sg10
I0
sg11
I490
ssg14
(dp34
g5
I1370
sg6
I31
sg7
I15
sg8
I0
sg9
I2
sg10
I5
sg11
I1370
ssg16
(dp35
g5
I1997
sg6
I38
sg7
I7
sg8
I15
sg9
I3
sg10
I0
sg11
I990
sss.(dp0
S'K_all3.csv'
p1
(dp2
S'machine'
p3
(dp4
S'count'
p5
I1086
sS'truepos'
p6
I38
sS'falseneg'
p7
I3
sS'correction'
p8
I6
sS'unknownyes'
p9
I4
sS'falsepos'
p10
I8
sS'unique'
p11
I600
ssS'knee'
p12
(dp13
g5
I2150
sg6
I39
sg7
I6
sg8
I16
sg9
I0
sg10
I11
sg11
I1590
ssS'none'
p14
(dp15
g5
I640
sg6
I38
sg7
I5
sg8
I0
sg9
I2
sg10
I3
sg11
I640
ssS'three'
p16
(dp17
g5
I1226
sg6
I33
sg7
I10
sg8
I23
sg9
I2
sg10
I0
sg11
I600
sssS'Wahono.csv'
p18
(dp19
g3
(dp20
g5
I2464
sg6
I55
sg7
I4
sg8
I8
sg9
I3
sg10
I5
sg11
I1400
ssg12
(dp21
g5
I2048
sg6
I55
sg7
I4
sg8
I25
sg9
I3
sg10
I0
sg11
I1690
ssg14
(dp22
g5
I1480
sg6
I41
sg7
I20
sg8
I0
sg9
I1
sg10
I5
sg11
I1480
ssg16
(dp23
g5
I3249
sg6
I46
sg7
I15
sg8
I21
sg9
I1
sg10
I0
sg11
I1610
sssS'Hall.csv'
p24
(dp25
g3
(dp26
g5
I1162
sg6
I94
sg7
I8
sg8
I22
sg9
I2
sg10
I0
sg11
I790
ssg12
(dp27
g5
I433
sg6
I82
sg7
I8
sg8
I25
sg9
I14
sg10
I0
sg11
I260
ssg14
(dp28
g5
I900
sg6
I71
sg7
I32
sg8
I0
sg9
I1
sg10
I3
sg11
I900
ssg16
(dp29
g5
I2704
sg6
I78
sg7
I25
sg8
I41
sg9
I1
sg10
I0
sg11
I1330
sssS'Danijel.csv'
p30
(dp31
g3
(dp32
g5
I1479
sg6
I45
sg7
I1
sg8
I13
sg9
I2
sg10
I4
sg11
I770
ssg12
(dp33
g5
I895
sg6
I34
sg7
I10
sg8
I10
sg9
I4
sg10
I0
sg11
I660
ssg14
(dp34
g5
I1530
sg6
I33
sg7
I14
sg8
I0
sg9
I1
sg10
I3
sg11
I1530
ssg16
(dp35
g5
I2782
sg6
I34
sg7
I13
sg8
I17
sg9
I1
sg10
I0
sg11
I1380
sss.(dp0
S'K_all3.csv'
p1
(dp2
S'machine'
p3
(dp4
S'count'
p5
I915
sS'truepos'
p6
I38
sS'falseneg'
p7
I4
sS'correction'
p8
I5
sS'unknownyes'
p9
I3
sS'falsepos'
p10
I7
sS'unique'
p11
I510
ssS'knee'
p12
(dp13
g5
I2033
sg6
I39
sg7
I6
sg8
I11
sg9
I0
sg10
I7
sg11
I1610
ssS'none'
p14
(dp15
g5
I640
sg6
I32
sg7
I9
sg8
I0
sg9
I4
sg10
I3
sg11
I640
ssS'three'
p16
(dp17
g5
I1172
sg6
I34
sg7
I9
sg8
I30
sg9
I2
sg10
I1
sg11
I570
sssS'Wahono.csv'
p18
(dp19
g3
(dp20
g5
I2549
sg6
I55
sg7
I5
sg8
I19
sg9
I2
sg10
I7
sg11
I1400
ssg12
(dp21
g5
I311
sg6
I34
sg7
I5
sg8
I5
sg9
I23
sg10
I0
sg11
I190
ssg14
(dp22
g5
I1480
sg6
I45
sg7
I14
sg8
I0
sg9
I3
sg10
I6
sg11
I1480
ssg16
(dp23
g5
I3130
sg6
I44
sg7
I17
sg8
I44
sg9
I1
sg10
I0
sg11
I1540
sssS'Hall.csv'
p24
(dp25
g3
(dp26
g5
I2330
sg6
I94
sg7
I9
sg8
I22
sg9
I1
sg10
I12
sg11
I1720
ssg12
(dp27
g5
I583
sg6
I89
sg7
I12
sg8
I20
sg9
I3
sg10
I1
sg11
I430
ssg14
(dp28
g5
I1330
sg6
I76
sg7
I27
sg8
I0
sg9
I1
sg10
I3
sg11
I1330
ssg16
(dp29
g5
I1656
sg6
I83
sg7
I19
sg8
I48
sg9
I2
sg10
I0
sg11
I800
sssS'Danijel.csv'
p30
(dp31
g3
(dp32
g5
I1428
sg6
I42
sg7
I3
sg8
I11
sg9
I3
sg10
I5
sg11
I760
ssg12
(dp33
g5
I642
sg6
I34
sg7
I9
sg8
I6
sg9
I5
sg10
I0
sg11
I520
ssg14
(dp34
g5
I1410
sg6
I30
sg7
I16
sg8
I0
sg9
I2
sg10
I8
sg11
I1410
ssg16
(dp35
g5
I2111
sg6
I33
sg7
I13
sg8
I28
sg9
I2
sg10
I0
sg11
I1040
sss.(dp0
S'K_all3.csv'
p1
(dp2
S'machine'
p3
(dp4
S'count'
p5
I1042
sS'truepos'
p6
I41
sS'falseneg'
p7
I2
sS'correction'
p8
I16
sS'unknownyes'
p9
I2
sS'falsepos'
p10
I5
sS'unique'
p11
I560
ssS'knee'
p12
(dp13
g5
I420
sg6
I25
sg7
I7
sg8
I6
sg9
I13
sg10
I2
sg11
I340
ssS'none'
p14
(dp15
g5
I660
sg6
I30
sg7
I13
sg8
I0
sg9
I2
sg10
I5
sg11
I660
ssS'three'
p16
(dp17
g5
I1172
sg6
I30
sg7
I9
sg8
I28
sg9
I6
sg10
I1
sg11
I570
sssS'Wahono.csv'
p18
(dp19
g3
(dp20
g5
I3019
sg6
I55
sg7
I6
sg8
I7
sg9
I1
sg10
I13
sg11
I1660
ssg12
(dp21
g5
I706
sg6
I44
sg7
I7
sg8
I9
sg9
I11
sg10
I1
sg11
I510
ssg14
(dp22
g5
I1560
sg6
I37
sg7
I22
sg8
I0
sg9
I3
sg10
I7
sg11
I1560
ssg16
(dp23
g5
I3131
sg6
I47
sg7
I13
sg8
I26
sg9
I2
sg10
I0
sg11
I1550
sssS'Hall.csv'
p24
(dp25
g3
(dp26
g5
I866
sg6
I94
sg7
I7
sg8
I22
sg9
I3
sg10
I3
sg11
I550
ssg12
(dp27
g5
I751
sg6
I86
sg7
I16
sg8
I24
sg9
I2
sg10
I0
sg11
I560
ssg14
(dp28
g5
I770
sg6
I74
sg7
I29
sg8
I0
sg9
I1
sg10
I2
sg11
I770
ssg16
(dp29
g5
I3341
sg6
I81
sg7
I22
sg8
I55
sg9
I1
sg10
I0
sg11
I1640
sssS'Danijel.csv'
p30
(dp31
g3
(dp32
g5
I2270
sg6
I42
sg7
I5
sg8
I9
sg9
I1
sg10
I8
sg11
I1250
ssg12
(dp33
g5
I894
sg6
I33
sg7
I10
sg8
I9
sg9
I5
sg10
I1
sg11
I660
ssg14
(dp34
g5
I1130
sg6
I31
sg7
I15
sg8
I0
sg9
I2
sg10
I3
sg11
I1130
ssg16
(dp35
g5
I3332
sg6
I30
sg7
I17
sg8
I25
sg9
I1
sg10
I0
sg11
I1650
sss.(dp0
S'K_all3.csv'
p1
(dp2
S'machine'
p3
(dp4
S'count'
p5
I1091
sS'truepos'
p6
I40
sS'falseneg'
p7
I2
sS'correction'
p8
I13
sS'unknownyes'
p9
I3
sS'falsepos'
p10
I10
sS'unique'
p11
I610
ssS'knee'
p12
(dp13
g5
I1068
sg6
I31
sg7
I13
sg8
I12
sg9
I1
sg10
I2
sg11
I880
ssS'none'
p14
(dp15
g5
I660
sg6
I30
sg7
I13
sg8
I0
sg9
I2
sg10
I5
sg11
I660
ssS'three'
p16
(dp17
g5
I1446
sg6
I34
sg7
I7
sg8
I24
sg9
I4
sg10
I0
sg11
I710
sssS'Wahono.csv'
p18
(dp19
g3
(dp20
g5
I2113
sg6
I52
sg7
I10
sg8
I12
sg9
I0
sg10
I6
sg11
I1130
ssg12
(dp21
g5
I1089
sg6
I55
sg7
I3
sg8
I12
sg9
I4
sg10
I0
sg11
I760
ssg14
(dp22
g5
I2030
sg6
I47
sg7
I15
sg8
I0
sg9
I0
sg10
I6
sg11
I2030
ssg16
(dp23
g5
I2885
sg6
I43
sg7
I17
sg8
I21
sg9
I2
sg10
I0
sg11
I1430
sssS'Hall.csv'
p24
(dp25
g3
(dp26
g5
I1086
sg6
I84
sg7
I18
sg8
I16
sg9
I2
sg10
I4
sg11
I670
ssg12
(dp27
g5
I561
sg6
I90
sg7
I11
sg8
I17
sg9
I3
sg10
I0
sg11
I400
ssg14
(dp28
g5
I2120
sg6
I73
sg7
I30
sg8
I0
sg9
I1
sg10
I7
sg11
I2120
ssg16
(dp29
g5
I1865
sg6
I73
sg7
I29
sg8
I37
sg9
I2
sg10
I0
sg11
I910
sssS'Danijel.csv'
p30
(dp31
g3
(dp32
g5
I1450
sg6
I42
sg7
I3
sg8
I9
sg9
I3
sg10
I2
sg11
I760
ssg12
(dp33
g5
I859
sg6
I40
sg7
I4
sg8
I14
sg9
I4
sg10
I1
sg11
I670
ssg14
(dp34
g5
I1290
sg6
I31
sg7
I16
sg8
I0
sg9
I1
sg10
I1
sg11
I1290
ssg16
(dp35
g5
I2903
sg6
I37
sg7
I10
sg8
I20
sg9
I1
sg10
I0
sg11
I1440
sss.(dp0
S'K_all3.csv'
p1
(dp2
S'machine'
p3
(dp4
S'count'
p5
I1065
sS'truepos'
p6
I36
sS'falseneg'
p7
I7
sS'correction'
p8
I4
sS'unknownyes'
p9
I2
sS'falsepos'
p10
I7
sS'unique'
p11
I580
ssS'knee'
p12
(dp13
g5
I1203
sg6
I35
sg7
I9
sg8
I12
sg9
I1
sg10
I6
sg11
I990
ssS'none'
p14
(dp15
g5
I740
sg6
I31
sg7
I13
sg8
I0
sg9
I1
sg10
I5
sg11
I740
ssS'three'
p16
(dp17
g5
I917
sg6
I31
sg7
I10
sg8
I11
sg9
I4
sg10
I0
sg11
I450
sssS'Wahono.csv'
p18
(dp19
g3
(dp20
g5
I2993
sg6
I51
sg7
I9
sg8
I13
sg9
I2
sg10
I9
sg11
I1680
ssg12
(dp21
g5
I1282
sg6
I49
sg7
I10
sg8
I12
sg9
I3
sg10
I0
sg11
I990
ssg14
(dp22
g5
I1470
sg6
I43
sg7
I17
sg8
I0
sg9
I2
sg10
I3
sg11
I1470
ssg16
(dp23
g5
I3873
sg6
I52
sg7
I9
sg8
I32
sg9
I1
sg10
I0
sg11
I1920
sssS'Hall.csv'
p24
(dp25
g3
(dp26
g5
I902
sg6
I95
sg7
I7
sg8
I24
sg9
I2
sg10
I0
sg11
I570
ssg12
(dp27
g5
I660
sg6
I82
sg7
I20
sg8
I18
sg9
I2
sg10
I2
sg11
I500
ssg14
(dp28
g5
I1330
sg6
I72
sg7
I31
sg8
I0
sg9
I1
sg10
I2
sg11
I1330
ssg16
(dp29
g5
I1142
sg6
I87
sg7
I15
sg8
I54
sg9
I2
sg10
I0
sg11
I540
sssS'Danijel.csv'
p30
(dp31
g3
(dp32
g5
I1596
sg6
I43
sg7
I3
sg8
I15
sg9
I2
sg10
I4
sg11
I840
ssg12
(dp33
g5
I1249
sg6
I36
sg7
I10
sg8
I11
sg9
I2
sg10
I0
sg11
I960
ssg14
(dp34
g5
I1820
sg6
I31
sg7
I16
sg8
I0
sg9
I1
sg10
I4
sg11
I1820
ssg16
(dp35
g5
I2178
sg6
I34
sg7
I12
sg8
I16
sg9
I2
sg10
I0
sg11
I1080
sss.(dp0
S'K_all3.csv'
p1
(dp2
S'machine'
p3
(dp4
S'count'
p5
I982
sS'truepos'
p6
I36
sS'falseneg'
p7
I5
sS'correction'
p8
I10
sS'unknownyes'
p9
I4
sS'falsepos'
p10
I5
sS'unique'
p11
I540
ssS'knee'
p12
(dp13
g5
I1899
sg6
I38
sg7
I7
sg8
I12
sg9
I0
sg10
I7
sg11
I1410
ssS'none'
p14
(dp15
g5
I670
sg6
I25
sg7
I17
sg8
I0
sg9
I3
sg10
I6
sg11
I670
ssS'three'
p16
(dp17
g5
I1013
sg6
I33
sg7
I9
sg8
I31
sg9
I3
sg10
I0
sg11
I490
sssS'Wahono.csv'
p18
(dp19
g3
(dp20
g5
I2513
sg6
I56
sg7
I4
sg8
I16
sg9
I2
sg10
I9
sg11
I1350
ssg12
(dp21
g5
I719
sg6
I47
sg7
I2
sg8
I14
sg9
I13
sg10
I0
sg11
I440
ssg14
(dp22
g5
I2100
sg6
I48
sg7
I14
sg8
I0
sg9
I0
sg10
I3
sg11
I2100
ssg16
(dp23
g5
I3150
sg6
I50
sg7
I11
sg8
I27
sg9
I1
sg10
I0
sg11
I1560
sssS'Hall.csv'
p24
(dp25
g3
(dp26
g5
I933
sg6
I94
sg7
I8
sg8
I23
sg9
I2
sg10
I2
sg11
I560
ssg12
(dp27
g5
I766
sg6
I85
sg7
I17
sg8
I30
sg9
I2
sg10
I0
sg11
I570
ssg14
(dp28
g5
I1280
sg6
I76
sg7
I27
sg8
I0
sg9
I1
sg10
I6
sg11
I1280
ssg16
(dp29
g5
I1744
sg6
I84
sg7
I18
sg8
I38
sg9
I2
sg10
I0
sg11
I850
sssS'Danijel.csv'
p30
(dp31
g3
(dp32
g5
I1658
sg6
I41
sg7
I4
sg8
I17
sg9
I3
sg10
I5
sg11
I940
ssg12
(dp33
g5
I894
sg6
I41
sg7
I4
sg8
I11
sg9
I3
sg10
I1
sg11
I670
ssg14
(dp34
g5
I1580
sg6
I27
sg7
I19
sg8
I0
sg9
I2
sg10
I3
sg11
I1580
ssg16
(dp35
g5
I2466
sg6
I34
sg7
I13
sg8
I22
sg9
I1
sg10
I0
sg11
I1220
sss.(dp0
S'K_all3.csv'
p1
(dp2
S'machine'
p3
(dp4
S'count'
p5
I906
sS'truepos'
p6
I35
sS'falseneg'
p7
I5
sS'correction'
p8
I9
sS'unknownyes'
p9
I5
sS'falsepos'
p10
I5
sS'unique'
p11
I500
ssS'knee'
p12
(dp13
g5
I441
sg6
I34
sg7
I3
sg8
I10
sg9
I8
sg10
I1
sg11
I310
ssS'none'
p14
(dp15
g5
I740
sg6
I32
sg7
I10
sg8
I0
sg9
I3
sg10
I9
sg11
I740
ssS'three'
p16
(dp17
g5
I1395
sg6
I38
sg7
I5
sg8
I34
sg9
I2
sg10
I0
sg11
I680
sssS'Wahono.csv'
p18
(dp19
g3
(dp20
g5
I2582
sg6
I53
sg7
I9
sg8
I10
sg9
I0
sg10
I6
sg11
I1450
ssg12
(dp21
g5
I545
sg6
I40
sg7
I5
sg8
I8
sg9
I17
sg10
I1
sg11
I380
ssg14
(dp22
g5
I1760
sg6
I45
sg7
I16
sg8
I0
sg9
I1
sg10
I5
sg11
I1760
ssg16
(dp23
g5
I3407
sg6
I46
sg7
I15
sg8
I25
sg9
I1
sg10
I0
sg11
I1690
sssS'Hall.csv'
p24
(dp25
g3
(dp26
g5
I823
sg6
I93
sg7
I9
sg8
I21
sg9
I2
sg10
I2
sg11
I500
ssg12
(dp27
g5
I697
sg6
I89
sg7
I12
sg8
I20
sg9
I3
sg10
I1
sg11
I460
ssg14
(dp28
g5
I1280
sg6
I75
sg7
I28
sg8
I0
sg9
I1
sg10
I2
sg11
I1280
ssg16
(dp29
g5
I1175
sg6
I81
sg7
I21
sg8
I35
sg9
I2
sg10
I0
sg11
I570
sssS'Danijel.csv'
p30
(dp31
g3
(dp32
g5
I1559
sg6
I38
sg7
I6
sg8
I8
sg9
I4
sg10
I1
sg11
I810
ssg12
(dp33
g5
I745
sg6
I36
sg7
I5
sg8
I13
sg9
I7
sg10
I1
sg11
I540
ssg14
(dp34
g5
I2580
sg6
I33
sg7
I15
sg8
I0
sg9
I0
sg10
I4
sg11
I2580
ssg16
(dp35
g5
I2268
sg6
I34
sg7
I12
sg8
I27
sg9
I2
sg10
I0
sg11
I1120
sss.(dp0
S'K_all3.csv'
p1
(dp2
S'machine'
p3
(dp4
S'count'
p5
I880
sS'truepos'
p6
I37
sS'falseneg'
p7
I1
sS'correction'
p8
I8
sS'unknownyes'
p9
I7
sS'falsepos'
p10
I10
sS'unique'
p11
I480
ssS'knee'
p12
(dp13
g5
I1841
sg6
I42
sg7
I3
sg8
I15
sg9
I0
sg10
I13
sg11
I1310
ssS'none'
p14
(dp15
g5
I720
sg6
I34
sg7
I7
sg8
I0
sg9
I4
sg10
I4
sg11
I720
ssS'three'
p16
(dp17
g5
I1309
sg6
I36
sg7
I7
sg8
I28
sg9
I2
sg10
I1
sg11
I640
sssS'Wahono.csv'
p18
(dp19
g3
(dp20
g5
I2619
sg6
I55
sg7
I4
sg8
I11
sg9
I3
sg10
I5
sg11
I1480
ssg12
(dp21
g5
I640
sg6
I27
sg7
I11
sg8
I6
sg9
I24
sg10
I0
sg11
I520
ssg14
(dp22
g5
I2000
sg6
I47
sg7
I15
sg8
I0
sg9
I0
sg10
I4
sg11
I2000
ssg16
(dp23
g5
I2730
sg6
I43
sg7
I16
sg8
I25
sg9
I3
sg10
I0
sg11
I1350
sssS'Hall.csv'
p24
(dp25
g3
(dp26
g5
I793
sg6
I94
sg7
I8
sg8
I12
sg9
I2
sg10
I1
sg11
I480
ssg12
(dp27
g5
I735
sg6
I90
sg7
I11
sg8
I21
sg9
I3
sg10
I3
sg11
I550
ssg14
(dp28
g5
I2200
sg6
I69
sg7
I34
sg8
I0
sg9
I1
sg10
I7
sg11
I2200
ssg16
(dp29
g5
I1316
sg6
I82
sg7
I20
sg8
I50
sg9
I2
sg10
I0
sg11
I630
sssS'Danijel.csv'
p30
(dp31
g3
(dp32
g5
I1837
sg6
I39
sg7
I7
sg8
I7
sg9
I2
sg10
I4
sg11
I970
ssg12
(dp33
g5
I681
sg6
I38
sg7
I6
sg8
I7
sg9
I4
sg10
I1
sg11
I550
ssg14
(dp34
g5
I1650
sg6
I25
sg7
I21
sg8
I0
sg9
I2
sg10
I3
sg11
I1650
ssg16
(dp35
g5
I1620
sg6
I41
sg7
I5
sg8
I18
sg9
I2
sg10
I0
sg11
I800
sss.(dp0
S'K_all3.csv'
p1
(dp2
S'machine'
p3
(dp4
S'count'
p5
I854
sS'truepos'
p6
I35
sS'falseneg'
p7
I3
sS'correction'
p8
I6
sS'unknownyes'
p9
I7
sS'falsepos'
p10
I9
sS'unique'
p11
I460
ssS'knee'
p12
(dp13
g5
I1120
sg6
I41
sg7
I4
sg8
I11
sg9
I0
sg10
I4
sg11
I810
ssS'none'
p14
(dp15
g5
I560
sg6
I28
sg7
I12
sg8
I0
sg9
I5
sg10
I5
sg11
I560
ssS'three'
p16
(dp17
g5
I980
sg6
I32
sg7
I11
sg8
I17
sg9
I2
sg10
I0
sg11
I480
sssS'Wahono.csv'
p18
(dp19
g3
(dp20
g5
I2483
sg6
I54
sg7
I5
sg8
I16
sg9
I3
sg10
I5
sg11
I1380
ssg12
(dp21
g5
I644
sg6
I40
sg7
I6
sg8
I10
sg9
I16
sg10
I4
sg11
I430
ssg14
(dp22
g5
I1490
sg6
I41
sg7
I19
sg8
I0
sg9
I2
sg10
I6
sg11
I1490
ssg16
(dp23
g5
I3205
sg6
I49
sg7
I11
sg8
I41
sg9
I2
sg10
I0
sg11
I1580
sssS'Hall.csv'
p24
(dp25
g3
(dp26
g5
I816
sg6
I94
sg7
I8
sg8
I21
sg9
I2
sg10
I1
sg11
I500
ssg12
(dp27
g5
I678
sg6
I93
sg7
I8
sg8
I21
sg9
I3
sg10
I0
sg11
I450
ssg14
(dp28
g5
I1560
sg6
I71
sg7
I32
sg8
I0
sg9
I1
sg10
I2
sg11
I1560
ssg16
(dp29
g5
I3670
sg6
I78
sg7
I25
sg8
I46
sg9
I1
sg10
I0
sg11
I1810
sssS'Danijel.csv'
p30
(dp31
g3
(dp32
g5
I1847
sg6
I36
sg7
I10
sg8
I9
sg9
I2
sg10
I5
sg11
I1020
ssg12
(dp33
g5
I1149
sg6
I36
sg7
I10
sg8
I9
sg9
I2
sg10
I1
sg11
I910
ssg14
(dp34
g5
I1410
sg6
I34
sg7
I13
sg8
I0
sg9
I1
sg10
I3
sg11
I1410
ssg16
(dp35
g5
I1647
sg6
I39
sg7
I6
sg8
I26
sg9
I3
sg10
I0
sg11
I810
sss.(dp0
S'K_all3.csv'
p1
(dp2
S'machine'
p3
(dp4
S'count'
p5
I1052
sS'truepos'
p6
I33
sS'falseneg'
p7
I8
sS'correction'
p8
I8
sS'unknownyes'
p9
I4
sS'falsepos'
p10
I6
sS'unique'
p11
I570
ssS'knee'
p12
(dp13
g5
I2207
sg6
I41
sg7
I4
sg8
I13
sg9
I0
sg10
I10
sg11
I1620
ssS'none'
p14
(dp15
g5
I580
sg6
I37
sg7
I6
sg8
I0
sg9
I2
sg10
I1
sg11
I580
ssS'three'
p16
(dp17
g5
I1046
sg6
I34
sg7
I7
sg8
I25
sg9
I4
sg10
I0
sg11
I510
sssS'Wahono.csv'
p18
(dp19
g3
(dp20
g5
I2647
sg6
I56
sg7
I5
sg8
I17
sg9
I1
sg10
I6
sg11
I1480
ssg12
(dp21
g5
I837
sg6
I40
sg7
I11
sg8
I9
sg9
I11
sg10
I1
sg11
I580
ssg14
(dp22
g5
I1570
sg6
I44
sg7
I17
sg8
I0
sg9
I1
sg10
I7
sg11
I1570
ssg16
(dp23
g5
I3933
sg6
I50
sg7
I11
sg8
I31
sg9
I1
sg10
I0
sg11
I1950
sssS'Hall.csv'
p24
(dp25
g3
(dp26
g5
I927
sg6
I91
sg7
I10
sg8
I27
sg9
I3
sg10
I5
sg11
I570
ssg12
(dp27
g5
I545
sg6
I86
sg7
I14
sg8
I18
sg9
I4
sg10
I3
sg11
I350
ssg14
(dp28
g5
I1470
sg6
I74
sg7
I29
sg8
I0
sg9
I1
sg10
I4
sg11
I1470
ssg16
(dp29
g5
I1047
sg6
I79
sg7
I23
sg8
I39
sg9
I2
sg10
I0
sg11
I500
sssS'Danijel.csv'
p30
(dp31
g3
(dp32
g5
I1658
sg6
I40
sg7
I5
sg8
I12
sg9
I3
sg10
I4
sg11
I910
ssg12
(dp33
g5
I1225
sg6
I41
sg7
I5
sg8
I14
sg9
I2
sg10
I1
sg11
I920
ssg14
(dp34
g5
I1760
sg6
I33
sg7
I15
sg8
I0
sg9
I0
sg10
I6
sg11
I1760
ssg16
(dp35
g5
I2982
sg6
I38
sg7
I9
sg8
I19
sg9
I1
sg10
I0
sg11
I1480
sss.(dp0
S'K_all3.csv'
p1
(dp2
S'machine'
p3
(dp4
S'count'
p5
I878
sS'truepos'
p6
I35
sS'falseneg'
p7
I4
sS'correction'
p8
I8
sS'unknownyes'
p9
I6
sS'falsepos'
p10
I5
sS'unique'
p11
I490
ssS'knee'
p12
(dp13
g5
I2103
sg6
I40
sg7
I5
sg8
I17
sg9
I0
sg10
I10
sg11
I1560
ssS'none'
p14
(dp15
g5
I680
sg6
I31
sg7
I12
sg8
I0
sg9
I2
sg10
I6
sg11
I680
ssS'three'
p16
(dp17
g5
I1300
sg6
I32
sg7
I11
sg8
I18
sg9
I2
sg10
I0
sg11
I640
sssS'Wahono.csv'
p18
(dp19
g3
(dp20
g5
I2705
sg6
I54
sg7
I5
sg8
I10
sg9
I3
sg10
I11
sg11
I1440
ssg12
(dp21
g5
I748
sg6
I39
sg7
I9
sg8
I8
sg9
I14
sg10
I2
sg11
I540
ssg14
(dp22
g5
I1640
sg6
I43
sg7
I16
sg8
I0
sg9
I3
sg10
I4
sg11
I1640
ssg16
(dp23
g5
I4199
sg6
I44
sg7
I17
sg8
I35
sg9
I1
sg10
I0
sg11
I2080
sssS'Hall.csv'
p24
(dp25
g3
(dp26
g5
I867
sg6
I88
sg7
I14
sg8
I23
sg9
I2
sg10
I1
sg11
I520
ssg12
(dp27
g5
I660
sg6
I87
sg7
I14
sg8
I19
sg9
I3
sg10
I0
sg11
I470
ssg14
(dp28
g5
I2270
sg6
I67
sg7
I35
sg8
I0
sg9
I2
sg10
I10
sg11
I2270
ssg16
(dp29
g5
I1505
sg6
I79
sg7
I23
sg8
I44
sg9
I2
sg10
I0
sg11
I730
sssS'Danijel.csv'
p30
(dp31
g3
(dp32
g5
I1479
sg6
I42
sg7
I3
sg8
I6
sg9
I3
sg10
I4
sg11
I780
ssg12
(dp33
g5
I618
sg6
I32
sg7
I5
sg8
I9
sg9
I11
sg10
I0
sg11
I440
ssg14
(dp34
g5
I2220
sg6
I29
sg7
I18
sg8
I0
sg9
I1
sg10
I2
sg11
I2220
ssg16
(dp35
g5
I1442
sg6
I39
sg7
I6
sg8
I21
sg9
I3
sg10
I0
sg11
I710
sss.(dp0
S'K_all3.csv'
p1
(dp2
S'machine'
p3
(dp4
S'count'
p5
I913
sS'truepos'
p6
I35
sS'falseneg'
p7
I7
sS'correction'
p8
I8
sS'unknownyes'
p9
I3
sS'falsepos'
p10
I5
sS'unique'
p11
I490
ssS'knee'
p12
(dp13
g5
I1997
sg6
I42
sg7
I3
sg8
I9
sg9
I0
sg10
I12
sg11
I1550
ssS'none'
p14
(dp15
g5
I590
sg6
I32
sg7
I9
sg8
I0
sg9
I4
sg10
I4
sg11
I590
ssS'three'
p16
(dp17
g5
I1168
sg6
I30
sg7
I13
sg8
I21
sg9
I2
sg10
I0
sg11
I570
sssS'Wahono.csv'
p18
(dp19
g3
(dp20
g5
I2570
sg6
I54
sg7
I5
sg8
I11
sg9
I3
sg10
I6
sg11
I1450
ssg12
(dp21
g5
I1191
sg6
I43
sg7
I15
sg8
I10
sg9
I4
sg10
I0
sg11
I960
ssg14
(dp22
g5
I1350
sg6
I43
sg7
I17
sg8
I0
sg9
I2
sg10
I1
sg11
I1350
ssg16
(dp23
g5
I3552
sg6
I53
sg7
I8
sg8
I30
sg9
I1
sg10
I0
sg11
I1760
sssS'Hall.csv'
p24
(dp25
g3
(dp26
g5
I1118
sg6
I90
sg7
I12
sg8
I22
sg9
I2
sg10
I5
sg11
I740
ssg12
(dp27
g5
I780
sg6
I88
sg7
I14
sg8
I19
sg9
I2
sg10
I2
sg11
I570
ssg14
(dp28
g5
I1500
sg6
I74
sg7
I29
sg8
I0
sg9
I1
sg10
I3
sg11
I1500
ssg16
(dp29
g5
I3562
sg6
I80
sg7
I23
sg8
I56
sg9
I1
sg10
I0
sg11
I1750
sssS'Danijel.csv'
p30
(dp31
g3
(dp32
g5
I1815
sg6
I43
sg7
I3
sg8
I12
sg9
I2
sg10
I7
sg11
I970
ssg12
(dp33
g5
I669
sg6
I39
sg7
I3
sg8
I5
sg9
I6
sg10
I2
sg11
I450
ssg14
(dp34
g5
I980
sg6
I35
sg7
I11
sg8
I0
sg9
I2
sg10
I4
sg11
I980
ssg16
(dp35
g5
I3050
sg6
I35
sg7
I12
sg8
I26
sg9
I1
sg10
I0
sg11
I1510
sss.