(dp0
S'K_all3.csv'
p1
(dp2
S'machine'
p3
(dp4
S'count'
p5
I680
sS'truepos'
p6
I29
sS'falseneg'
p7
I9
sS'correction'
p8
I3
sS'unknownyes'
p9
I7
sS'falsepos'
p10
I6
sS'unique'
p11
I450
ssS'knee'
p12
(dp13
g5
I900
sg6
I30
sg7
I12
sg8
I8
sg9
I3
sg10
I0
sg11
I740
ssS'none'
p14
(dp15
g5
I500
sg6
I26
sg7
I12
sg8
I0
sg9
I7
sg10
I3
sg11
I500
ssS'three'
p16
(dp17
g5
I1035
sg6
I31
sg7
I9
sg8
I14
sg9
I5
sg10
I0
sg11
I510
sssS'Wahono.csv'
p18
(dp19
g3
(dp20
g5
I1881
sg6
I58
sg7
I2
sg8
I20
sg9
I2
sg10
I1
sg11
I1220
ssg12
(dp21
g5
I180
sg6
I13
sg7
I5
sg8
I3
sg9
I44
sg10
I0
sg11
I120
ssg14
(dp22
g5
I1300
sg6
I42
sg7
I17
sg8
I0
sg9
I3
sg10
I1
sg11
I1300
ssg16
(dp23
g5
I2960
sg6
I45
sg7
I15
sg8
I34
sg9
I2
sg10
I0
sg11
I1460
sssS'Hall.csv'
p24
(dp25
g3
(dp26
g5
I691
sg6
I91
sg7
I8
sg8
I18
sg9
I5
sg10
I1
sg11
I470
ssg12
(dp27
g5
I290
sg6
I64
sg7
I9
sg8
I12
sg9
I31
sg10
I0
sg11
I190
ssg14
(dp28
g5
I630
sg6
I69
sg7
I33
sg8
I0
sg9
I2
sg10
I1
sg11
I630
ssg16
(dp29
g5
I1858
sg6
I78
sg7
I24
sg8
I48
sg9
I2
sg10
I0
sg11
I900
sssS'Danijel.csv'
p30
(dp31
g3
(dp32
g5
I1589
sg6
I40
sg7
I6
sg8
I7
sg9
I2
sg10
I4
sg11
I1060
ssg12
(dp33
g5
I586
sg6
I32
sg7
I10
sg8
I3
sg9
I6
sg10
I0
sg11
I470
ssg14
(dp34
g5
I780
sg6
I34
sg7
I10
sg8
I0
sg9
I4
sg10
I4
sg11
I780
ssg16
(dp35
g5
I1394
sg6
I38
sg7
I7
sg8
I14
sg9
I3
sg10
I0
sg11
I690
sss.(dp0
S'K_all3.csv'
p1
(dp2
S'machine'
p3
(dp4
S'count'
p5
I729
sS'truepos'
p6
I34
sS'falseneg'
p7
I3
sS'correction'
p8
I5
sS'unknownyes'
p9
I8
sS'falsepos'
p10
I5
sS'unique'
p11
I470
ssS'knee'
p12
(dp13
g5
I1727
sg6
I39
sg7
I6
sg8
I7
sg9
I0
sg10
I8
sg11
I1230
ssS'none'
p14
(dp15
g5
I460
sg6
I30
sg7
I9
sg8
I0
sg9
I6
sg10
I5
sg11
I460
ssS'three'
p16
(dp17
g5
I1211
sg6
I25
sg7
I15
sg8
I25
sg9
I5
sg10
I0
sg11
I590
sssS'Wahono.csv'
p18
(dp19
g3
(dp20
g5
I2344
sg6
I50
sg7
I9
sg8
I14
sg9
I3
sg10
I7
sg11
I1570
ssg12
(dp21
g5
I812
sg6
I42
sg7
I9
sg8
I11
sg9
I11
sg10
I1
sg11
I520
ssg14
(dp22
g5
I1470
sg6
I44
sg7
I16
sg8
I0
sg9
I2
sg10
I3
sg11
I1470
ssg16
(dp23
g5
I2529
sg6
I48
sg7
I12
sg8
I25
sg9
I2
sg10
I0
sg11
I1250
sssS'Hall.csv'
p24
(dp25
g3
(dp26
g5
I631
sg6
I92
sg7
I7
sg8
I24
sg9
I5
sg10
I2
sg11
I410
ssg12
(dp27
g5
I727
sg6
I94
sg7
I8
sg8
I29
sg9
I2
sg10
I0
sg11
I510
ssg14
(dp28
g5
I590
sg6
I72
sg7
I30
sg8
I0
sg9
I2
sg10
I0
sg11
I590
ssg16
(dp29
g5
I1202
sg6
I82
sg7
I20
sg8
I36
sg9
I2
sg10
I0
sg11
I580
sssS'Danijel.csv'
p30
(dp31
g3
(dp32
g5
I1385
sg6
I41
sg7
I4
sg8
I9
sg9
I3
sg10
I2
sg11
I880
ssg12
(dp33
g5
I636
sg6
I33
sg7
I9
sg8
I5
sg9
I6
sg10
I0
sg11
I510
ssg14
(dp34
g5
I940
sg6
I35
sg7
I11
sg8
I0
sg9
I2
sg10
I3
sg11
I940
ssg16
(dp35
g5
I2405
sg6
I34
sg7
I12
sg8
I22
sg9
I2
sg10
I0
sg11
I1190
sss.(dp0
S'K_all3.csv'
p1
(dp2
S'machine'
p3
(dp4
S'count'
p5
I688
sS'truepos'
p6
I33
sS'falseneg'
p7
I4
sS'correction'
p8
I8
sS'unknownyes'
p9
I8
sS'falsepos'
p10
I5
sS'unique'
p11
I450
ssS'knee'
p12
(dp13
g5
I1024
sg6
I31
sg7
I13
sg8
I6
sg9
I1
sg10
I0
sg11
I870
ssS'none'
p14
(dp15
g5
I590
sg6
I30
sg7
I11
sg8
I0
sg9
I4
sg10
I6
sg11
I590
ssS'three'
p16
(dp17
g5
I1152
sg6
I26
sg7
I16
sg8
I24
sg9
I3
sg10
I0
sg11
I560
sssS'Wahono.csv'
p18
(dp19
g3
(dp20
g5
I2169
sg6
I53
sg7
I7
sg8
I15
sg9
I2
sg10
I3
sg11
I1510
ssg12
(dp21
g5
I272
sg6
I22
sg7
I5
sg8
I5
sg9
I35
sg10
I1
sg11
I180
ssg14
(dp22
g5
I1480
sg6
I42
sg7
I17
sg8
I0
sg9
I3
sg10
I5
sg11
I1480
ssg16
(dp23
g5
I2718
sg6
I48
sg7
I11
sg8
I35
sg9
I3
sg10
I0
sg11
I1340
sssS'Hall.csv'
p24
(dp25
g3
(dp26
g5
I713
sg6
I92
sg7
I9
sg8
I24
sg9
I3
sg10
I2
sg11
I490
ssg12
(dp27
g5
I592
sg6
I85
sg7
I15
sg8
I13
sg9
I4
sg10
I3
sg11
I390
ssg14
(dp28
g5
I530
sg6
I73
sg7
I28
sg8
I0
sg9
I3
sg10
I3
sg11
I530
ssg16
(dp29
g5
I1414
sg6
I79
sg7
I23
sg8
I46
sg9
I2
sg10
I0
sg11
I680
sssS'Danijel.csv'
p30
(dp31
g3
(dp32
g5
I1173
sg6
I41
sg7
I4
sg8
I10
sg9
I3
sg10
I4
sg11
I730
ssg12
(dp33
g5
I1032
sg6
I43
sg7
I3
sg8
I10
sg9
I2
sg10
I2
sg11
I720
ssg14
(dp34
g5
I1440
sg6
I35
sg7
I13
sg8
I0
sg9
I0
sg10
I3
sg11
I1440
ssg16
(dp35
g5
I2159
sg6
I36
sg7
I10
sg8
I19
sg9
I2
sg10
I0
sg11
I1070
sss.(dp0
S'K_all3.csv'
p1
(dp2
S'machine'
p3
(dp4
S'count'
p5
I673
sS'truepos'
p6
I33
sS'falseneg'
p7
I4
sS'correction'
p8
I5
sS'unknownyes'
p9
I8
sS'falsepos'
p10
I5
sS'unique'
p11
I430
ssS'knee'
p12
(dp13
g5
I403
sg6
I26
sg7
I5
sg8
I5
sg9
I14
sg10
I1
sg11
I290
ssS'none'
p14
(dp15
g5
I560
sg6
I29
sg7
I13
sg8
I0
sg9
I3
sg10
I3
sg11
I560
ssS'three'
p16
(dp17
g5
I1249
sg6
I33
sg7
I9
sg8
I29
sg9
I3
sg10
I0
sg11
I610
sssS'Wahono.csv'
p18
(dp19
g3
(dp20
g5
I1833
sg6
I47
sg7
I12
sg8
I8
sg9
I3
sg10
I2
sg11
I1190
ssg12
(dp21
g5
I1381
sg6
I50
sg7
I9
sg8
I11
sg9
I3
sg10
I2
sg11
I1030
ssg14
(dp22
g5
I1510
sg6
I46
sg7
I13
sg8
I0
sg9
I3
sg10
I3
sg11
I1510
ssg16
(dp23
g5
I3112
sg6
I49
sg7
I11
sg8
I30
sg9
I2
sg10
I0
sg11
I1540
sssS'Hall.csv'
p24
(dp25
g3
(dp26
g5
I844
sg6
I91
sg7
I11
sg8
I21
sg9
I2
sg10
I5
sg11
I590
ssg12
(dp27
g5
I612
sg6
I88
sg7
I14
sg8
I19
sg9
I2
sg10
I0
sg11
I460
ssg14
(dp28
g5
I970
sg6
I65
sg7
I38
sg8
I0
sg9
I1
sg10
I3
sg11
I970
ssg16
(dp29
g5
I1343
sg6
I80
sg7
I22
sg8
I38
sg9
I2
sg10
I0
sg11
I650
sssS'Danijel.csv'
p30
(dp31
g3
(dp32
g5
I1426
sg6
I42
sg7
I3
sg8
I10
sg9
I3
sg10
I4
sg11
I840
ssg12
(dp33
g5
I48
sg6
I4
sg7
I1
sg8
I2
sg9
I43
sg10
I0
sg11
I40
ssg14
(dp34
g5
I880
sg6
I35
sg7
I9
sg8
I0
sg9
I4
sg10
I3
sg11
I880
ssg16
(dp35
g5
I1907
sg6
I38
sg7
I8
sg8
I25
sg9
I2
sg10
I0
sg11
I940
sss.(dp0
S'K_all3.csv'
p1
(dp2
S'machine'
p3
(dp4
S'count'
p5
I610
sS'truepos'
p6
I25
sS'falseneg'
p7
I13
sS'correction'
p8
I5
sS'unknownyes'
p9
I7
sS'falsepos'
p10
I4
sS'unique'
p11
I510
ssS'knee'
p12
(dp13
g5
I561
sg6
I29
sg7
I5
sg8
I4
sg9
I11
sg10
I2
sg11
I410
ssS'none'
p14
(dp15
g5
I530
sg6
I29
sg7
I11
sg8
I0
sg9
I5
sg10
I2
sg11
I530
ssS'three'
p16
(dp17
g5
I1080
sg6
I32
sg7
I9
sg8
I18
sg9
I4
sg10
I0
sg11
I530
sssS'Wahono.csv'
p18
(dp19
g3
(dp20
g5
I2056
sg6
I52
sg7
I7
sg8
I11
sg9
I3
sg10
I1
sg11
I1390
ssg12
(dp21
g5
I35
sg6
I6
sg7
I1
sg8
I1
sg9
I55
sg10
I0
sg11
I30
ssg14
(dp22
g5
I1730
sg6
I38
sg7
I22
sg8
I0
sg9
I2
sg10
I4
sg11
I1730
ssg16
(dp23
g5
I2493
sg6
I49
sg7
I11
sg8
I31
sg9
I2
sg10
I0
sg11
I1230
sssS'Hall.csv'
p24
(dp25
g3
(dp26
g5
I849
sg6
I86
sg7
I16
sg8
I16
sg9
I2
sg10
I4
sg11
I610
ssg12
(dp27
g5
I662
sg6
I89
sg7
I12
sg8
I22
sg9
I3
sg10
I3
sg11
I440
ssg14
(dp28
g5
I960
sg6
I69
sg7
I34
sg8
I0
sg9
I1
sg10
I1
sg11
I960
ssg16
(dp29
g5
I1277
sg6
I80
sg7
I22
sg8
I32
sg9
I2
sg10
I0
sg11
I620
sssS'Danijel.csv'
p30
(dp31
g3
(dp32
g5
I1206
sg6
I42
sg7
I3
sg8
I9
sg9
I3
sg10
I3
sg11
I760
ssg12
(dp33
g5
I470
sg6
I30
sg7
I5
sg8
I7
sg9
I13
sg10
I0
sg11
I330
ssg14
(dp34
g5
I1420
sg6
I29
sg7
I18
sg8
I0
sg9
I1
sg10
I2
sg11
I1420
ssg16
(dp35
g5
I2431
sg6
I35
sg7
I11
sg8
I28
sg9
I2
sg10
I0
sg11
I1200
sss.(dp0
S'K_all3.csv'
p1
(dp2
S'machine'
p3
(dp4
S'count'
p5
I721
sS'truepos'
p6
I38
sS'falseneg'
p7
I2
sS'correction'
p8
I7
sS'unknownyes'
p9
I5
sS'falsepos'
p10
I1
sS'unique'
p11
I470
ssS'knee'
p12
(dp13
g5
I1826
sg6
I34
sg7
I10
sg8
I11
sg9
I1
sg10
I9
sg11
I1350
ssS'none'
p14
(dp15
g5
I440
sg6
I28
sg7
I12
sg8
I0
sg9
I5
sg10
I2
sg11
I440
ssS'three'
p16
(dp17
g5
I985
sg6
I33
sg7
I7
sg8
I22
sg9
I5
sg10
I1
sg11
I480
sssS'Wahono.csv'
p18
(dp19
g3
(dp20
g5
I2093
sg6
I52
sg7
I8
sg8
I11
sg9
I2
sg10
I3
sg11
I1420
ssg12
(dp21
g5
I201
sg6
I22
sg7
I2
sg8
I4
sg9
I38
sg10
I2
sg11
I130
ssg14
(dp22
g5
I1230
sg6
I42
sg7
I16
sg8
I0
sg9
I4
sg10
I2
sg11
I1230
ssg16
(dp23
g5
I3010
sg6
I50
sg7
I9
sg8
I26
sg9
I3
sg10
I0
sg11
I1490
sssS'Hall.csv'
p24
(dp25
g3
(dp26
g5
I807
sg6
I91
sg7
I11
sg8
I18
sg9
I2
sg10
I4
sg11
I580
ssg12
(dp27
g5
I22
sg6
I8
sg7
I1
sg8
I0
sg9
I95
sg10
I0
sg11
I20
ssg14
(dp28
g5
I840
sg6
I71
sg7
I31
sg8
I0
sg9
I2
sg10
I1
sg11
I840
ssg16
(dp29
g5
I2126
sg6
I81
sg7
I22
sg8
I41
sg9
I1
sg10
I0
sg11
I1040
sssS'Danijel.csv'
p30
(dp31
g3
(dp32
g5
I1455
sg6
I42
sg7
I3
sg8
I11
sg9
I3
sg10
I6
sg11
I860
ssg12
(dp33
g5
I679
sg6
I36
sg7
I8
sg8
I8
sg9
I4
sg10
I2
sg11
I520
ssg14
(dp34
g5
I1130
sg6
I35
sg7
I11
sg8
I0
sg9
I2
sg10
I3
sg11
I1130
ssg16
(dp35
g5
I2484
sg6
I36
sg7
I10
sg8
I20
sg9
I2
sg10
I0
sg11
I1230
sss.(dp0
S'K_all3.csv'
p1
(dp2
S'machine'
p3
(dp4
S'count'
p5
I620
sS'truepos'
p6
I32
sS'falseneg'
p7
I6
sS'correction'
p8
I3
sS'unknownyes'
p9
I7
sS'falsepos'
p10
I6
sS'unique'
p11
I420
ssS'knee'
p12
(dp13
g5
I1358
sg6
I38
sg7
I4
sg8
I10
sg9
I3
sg10
I9
sg11
I900
ssS'none'
p14
(dp15
g5
I550
sg6
I29
sg7
I13
sg8
I0
sg9
I3
sg10
I3
sg11
I550
ssS'three'
p16
(dp17
g5
I962
sg6
I27
sg7
I9
sg8
I21
sg9
I9
sg10
I0
sg11
I470
sssS'Wahono.csv'
p18
(dp19
g3
(dp20
g5
I2184
sg6
I54
sg7
I6
sg8
I11
sg9
I2
sg10
I6
sg11
I1530
ssg12
(dp21
g5
I475
sg6
I38
sg7
I4
sg8
I12
sg9
I20
sg10
I0
sg11
I300
ssg14
(dp22
g5
I1540
sg6
I48
sg7
I11
sg8
I0
sg9
I3
sg10
I6
sg11
I1540
ssg16
(dp23
g5
I2546
sg6
I47
sg7
I13
sg8
I23
sg9
I2
sg10
I0
sg11
I1260
sssS'Hall.csv'
p24
(dp25
g3
(dp26
g5
I934
sg6
I90
sg7
I12
sg8
I18
sg9
I2
sg10
I5
sg11
I710
ssg12
(dp27
g5
I626
sg6
I84
sg7
I16
sg8
I22
sg9
I4
sg10
I0
sg11
I420
ssg14
(dp28
g5
I890
sg6
I72
sg7
I30
sg8
I0
sg9
I2
sg10
I4
sg11
I890
ssg16
(dp29
g5
I1136
sg6
I78
sg7
I24
sg8
I51
sg9
I2
sg10
I0
sg11
I540
sssS'Danijel.csv'
p30
(dp31
g3
(dp32
g5
I1636
sg6
I36
sg7
I10
sg8
I8
sg9
I2
sg10
I2
sg11
I1100
ssg12
(dp33
g5
I100
sg6
I10
sg7
I5
sg8
I0
sg9
I33
sg10
I0
sg11
I70
ssg14
(dp34
g5
I970
sg6
I36
sg7
I10
sg8
I0
sg9
I2
sg10
I3
sg11
I970
ssg16
(dp35
g5
I2165
sg6
I38
sg7
I8
sg8
I22
sg9
I2
sg10
I0
sg11
I1070
sss.(dp0
S'K_all3.csv'
p1
(dp2
S'machine'
p3
(dp4
S'count'
p5
I621
sS'truepos'
p6
I32
sS'falseneg'
p7
I7
sS'correction'
p8
I4
sS'unknownyes'
p9
I6
sS'falsepos'
p10
I8
sS'unique'
p11
I420
ssS'knee'
p12
(dp13
g5
I1168
sg6
I35
sg7
I8
sg8
I8
sg9
I2
sg10
I4
sg11
I890
ssS'none'
p14
(dp15
g5
I560
sg6
I32
sg7
I7
sg8
I0
sg9
I6
sg10
I6
sg11
I560
ssS'three'
p16
(dp17
g5
I960
sg6
I27
sg7
I9
sg8
I17
sg9
I9
sg10
I0
sg11
I470
sssS'Wahono.csv'
p18
(dp19
g3
(dp20
g5
I2102
sg6
I53
sg7
I6
sg8
I9
sg9
I3
sg10
I4
sg11
I1360
ssg12
(dp21
g5
I534
sg6
I35
sg7
I7
sg8
I7
sg9
I20
sg10
I4
sg11
I350
ssg14
(dp22
g5
I1540
sg6
I41
sg7
I18
sg8
I0
sg9
I3
sg10
I4
sg11
I1540
ssg16
(dp23
g5
I3035
sg6
I45
sg7
I14
sg8
I31
sg9
I3
sg10
I0
sg11
I1500
sssS'Hall.csv'
p24
(dp25
g3
(dp26
g5
I677
sg6
I94
sg7
I8
sg8
I18
sg9
I2
sg10
I1
sg11
I470
ssg12
(dp27
g5
I637
sg6
I88
sg7
I13
sg8
I20
sg9
I3
sg10
I2
sg11
I460
ssg14
(dp28
g5
I850
sg6
I75
sg7
I28
sg8
I0
sg9
I1
sg10
I3
sg11
I850
ssg16
(dp29
g5
I2116
sg6
I78
sg7
I25
sg8
I48
sg9
I1
sg10
I0
sg11
I1030
sssS'Danijel.csv'
p30
(dp31
g3
(dp32
g5
I1416
sg6
I39
sg7
I6
sg8
I10
sg9
I3
sg10
I3
sg11
I970
ssg12
(dp33
g5
I394
sg6
I22
sg7
I3
sg8
I8
sg9
I23
sg10
I2
sg11
I240
ssg14
(dp34
g5
I1070
sg6
I40
sg7
I6
sg8
I0
sg9
I2
sg10
I4
sg11
I1070
ssg16
(dp35
g5
I2481
sg6
I37
sg7
I9
sg8
I18
sg9
I2
sg10
I0
sg11
I1230
sss.(dp0
S'K_all3.csv'
p1
(dp2
S'machine'
p3
(dp4
S'count'
p5
I791
sS'truepos'
p6
I35
sS'falseneg'
p7
I6
sS'correction'
p8
I6
sS'unknownyes'
p9
I4
sS'falsepos'
p10
I5
sS'unique'
p11
I500
ssS'knee'
p12
(dp13
g5
I654
sg6
I30
sg7
I9
sg8
I5
sg9
I6
sg10
I1
sg11
I500
ssS'none'
p14
(dp15
g5
I600
sg6
I29
sg7
I10
sg8
I0
sg9
I6
sg10
I6
sg11
I600
ssS'three'
p16
(dp17
g5
I1116
sg6
I31
sg7
I10
sg8
I14
sg9
I4
sg10
I0
sg11
I550
sssS'Wahono.csv'
p18
(dp19
g3
(dp20
g5
I2570
sg6
I49
sg7
I11
sg8
I8
sg9
I2
sg10
I8
sg11
I1650
ssg12
(dp21
g5
I577
sg6
I35
sg7
I11
sg8
I2
sg9
I16
sg10
I1
sg11
I440
ssg14
(dp22
g5
I1670
sg6
I39
sg7
I22
sg8
I0
sg9
I1
sg10
I4
sg11
I1670
ssg16
(dp23
g5
I2550
sg6
I43
sg7
I16
sg8
I23
sg9
I3
sg10
I0
sg11
I1260
sssS'Hall.csv'
p24
(dp25
g3
(dp26
g5
I653
sg6
I95
sg7
I6
sg8
I15
sg9
I3
sg10
I2
sg11
I450
ssg12
(dp27
g5
I22
sg6
I8
sg7
I0
sg8
I0
sg9
I96
sg10
I0
sg11
I20
ssg14
(dp28
g5
I1440
sg6
I65
sg7
I37
sg8
I0
sg9
I2
sg10
I7
sg11
I1440
ssg16
(dp29
g5
I1467
sg6
I76
sg7
I26
sg8
I37
sg9
I2
sg10
I0
sg11
I710
sssS'Danijel.csv'
p30
(dp31
g3
(dp32
g5
I1330
sg6
I36
sg7
I10
sg8
I6
sg9
I2
sg10
I2
sg11
I870
ssg12
(dp33
g5
I801
sg6
I39
sg7
I6
sg8
I9
sg9
I3
sg10
I1
sg11
I510
ssg14
(dp34
g5
I1060
sg6
I32
sg7
I14
sg8
I0
sg9
I2
sg10
I2
sg11
I1060
ssg16
(dp35
g5
I1785
sg6
I38
sg7
I8
sg8
I21
sg9
I2
sg10
I0
sg11
I880
sss.(dp0
S'K_all3.csv'
p1
(dp2
S'machine'
p3
(dp4
S'count'
p5
I744
sS'truepos'
p6
I31
sS'falseneg'
p7
I7
sS'correction'
p8
I1
sS'unknownyes'
p9
I7
sS'falsepos'
p10
I7
sS'unique'
p11
I470
ssS'knee'
p12
(dp13
g5
I301
sg6
I22
sg7
I4
sg8
I4
sg9
I19
sg10
I1
sg11
I190
ssS'none'
p14
(dp15
g5
I570
sg6
I26
sg7
I12
sg8
I0
sg9
I7
sg10
I6
sg11
I570
ssS'three'
p16
(dp17
g5
I1024
sg6
I27
sg7
I11
sg8
I22
sg9
I7
sg10
I0
sg11
I500
sssS'Wahono.csv'
p18
(dp19
g3
(dp20
g5
I2466
sg6
I51
sg7
I8
sg8
I11
sg9
I3
sg10
I5
sg11
I1690
ssg12
(dp21
g5
I837
sg6
I42
sg7
I10
sg8
I9
sg9
I10
sg10
I2
sg11
I510
ssg14
(dp22
g5
I1290
sg6
I45
sg7
I14
sg8
I0
sg9
I3
sg10
I1
sg11
I1290
ssg16
(dp23
g5
I3007
sg6
I48
sg7
I11
sg8
I23
sg9
I3
sg10
I0
sg11
I1490
sssS'Hall.csv'
p24
(dp25
g3
(dp26
g5
I711
sg6
I93
sg7
I9
sg8
I20
sg9
I2
sg10
I4
sg11
I510
ssg12
(dp27
g5
I728
sg6
I90
sg7
I12
sg8
I27
sg9
I2
sg10
I1
sg11
I530
ssg14
(dp28
g5
I670
sg6
I75
sg7
I27
sg8
I0
sg9
I2
sg10
I2
sg11
I670
ssg16
(dp29
g5
I1451
sg6
I79
sg7
I23
sg8
I47
sg9
I2
sg10
I0
sg11
I700
sssS'Danijel.csv'
p30
(dp31
g3
(dp32
g5
I1326
sg6
I39
sg7
I5
sg8
I8
sg9
I4
sg10
I6
sg11
I770
ssg12
(dp33
g5
I778
sg6
I37
sg7
I7
sg8
I10
sg9
I4
sg10
I2
sg11
I560
ssg14
(dp34
g5
I1260
sg6
I34
sg7
I12
sg8
I0
sg9
I2
sg10
I6
sg11
I1260
ssg16
(dp35
g5
I2340
sg6
I34
sg7
I12
sg8
I36
sg9
I2
sg10
I0
sg11
I1150
sss.(dp0
S'K_all3.csv'
p1
(dp2
S'machine'
p3
(dp4
S'count'
p5
I740
sS'truepos'
p6
I34
sS'falseneg'
p7
I5
sS'correction'
p8
I2
sS'unknownyes'
p9
I6
sS'falsepos'
p10
I5
sS'unique'
p11
I460
ssS'knee'
p12
(dp13
g5
I396
sg6
I21
sg7
I7
sg8
I4
sg9
I17
sg10
I0
sg11
I280
ssS'none'
p14
(dp15
g5
I450
sg6
I30
sg7
I9
sg8
I0
sg9
I6
sg10
I2
sg11
I450
ssS'three'
p16
(dp17
g5
I1182
sg6
I32
sg7
I10
sg8
I20
sg9
I3
sg10
I0
sg11
I580
sssS'Wahono.csv'
p18
(dp19
g3
(dp20
g5
I1648
sg6
I54
sg7
I6
sg8
I9
sg9
I2
sg10
I3
sg11
I1090
ssg12
(dp21
g5
I57
sg6
I8
sg7
I8
sg8
I1
sg9
I46
sg10
I0
sg11
I50
ssg14
(dp22
g5
I1570
sg6
I44
sg7
I15
sg8
I0
sg9
I3
sg10
I2
sg11
I1570
ssg16
(dp23
g5
I2628
sg6
I44
sg7
I15
sg8
I27
sg9
I3
sg10
I0
sg11
I1300
sssS'Hall.csv'
p24
(dp25
g3
(dp26
g5
I712
sg6
I96
sg7
I6
sg8
I25
sg9
I2
sg10
I1
sg11
I510
ssg12
(dp27
g5
I343
sg6
I71
sg7
I15
sg8
I13
sg9
I18
sg10
I1
sg11
I220
ssg14
(dp28
g5
I950
sg6
I76
sg7
I26
sg8
I0
sg9
I2
sg10
I2
sg11
I950
ssg16
(dp29
g5
I1306
sg6
I83
sg7
I19
sg8
I41
sg9
I2
sg10
I0
sg11
I630
sssS'Danijel.csv'
p30
(dp31
g3
(dp32
g5
I1699
sg6
I37
sg7
I9
sg8
I7
sg9
I2
sg10
I3
sg11
I1170
ssg12
(dp33
g5
I48
sg6
I3
sg7
I2
sg8
I1
sg9
I43
sg10
I0
sg11
I40
ssg14
(dp34
g5
I1540
sg6
I31
sg7
I16
sg8
I0
sg9
I1
sg10
I5
sg11
I1540
ssg16
(dp35
g5
I3193
sg6
I37
sg7
I10
sg8
I29
sg9
I1
sg10
I0
sg11
I1580
sss.(dp0
S'K_all3.csv'
p1
(dp2
S'machine'
p3
(dp4
S'count'
p5
I792
sS'truepos'
p6
I35
sS'falseneg'
p7
I5
sS'correction'
p8
I9
sS'unknownyes'
p9
I5
sS'falsepos'
p10
I3
sS'unique'
p11
I540
ssS'knee'
p12
(dp13
g5
I1670
sg6
I41
sg7
I2
sg8
I16
sg9
I2
sg10
I7
sg11
I1140
ssS'none'
p14
(dp15
g5
I450
sg6
I31
sg7
I8
sg8
I0
sg9
I6
sg10
I7
sg11
I450
ssS'three'
p16
(dp17
g5
I1240
sg6
I34
sg7
I8
sg8
I19
sg9
I3
sg10
I0
sg11
I610
sssS'Wahono.csv'
p18
(dp19
g3
(dp20
g5
I2041
sg6
I51
sg7
I9
sg8
I14
sg9
I2
sg10
I6
sg11
I1320
ssg12
(dp21
g5
I472
sg6
I37
sg7
I7
sg8
I7
sg9
I18
sg10
I2
sg11
I320
ssg14
(dp22
g5
I1680
sg6
I44
sg7
I16
sg8
I0
sg9
I2
sg10
I6
sg11
I1680
ssg16
(dp23
g5
I3193
sg6
I51
sg7
I10
sg8
I31
sg9
I1
sg10
I0
sg11
I1580
sssS'Hall.csv'
p24
(dp25
g3
(dp26
g5
I1194
sg6
I92
sg7
I11
sg8
I17
sg9
I1
sg10
I6
sg11
I910
ssg12
(dp27
g5
I638
sg6
I92
sg7
I9
sg8
I20
sg9
I3
sg10
I0
sg11
I450
ssg14
(dp28
g5
I980
sg6
I68
sg7
I34
sg8
I0
sg9
I2
sg10
I4
sg11
I980
ssg16
(dp29
g5
I2129
sg6
I68
sg7
I35
sg8
I41
sg9
I1
sg10
I0
sg11
I1040
sssS'Danijel.csv'
p30
(dp31
g3
(dp32
g5
I1396
sg6
I41
sg7
I4
sg8
I9
sg9
I3
sg10
I2
sg11
I850
ssg12
(dp33
g5
I604
sg6
I36
sg7
I6
sg8
I8
sg9
I6
sg10
I0
sg11
I400
ssg14
(dp34
g5
I880
sg6
I37
sg7
I9
sg8
I0
sg9
I2
sg10
I1
sg11
I880
ssg16
(dp35
g5
I1649
sg6
I40
sg7
I6
sg8
I26
sg9
I2
sg10
I0
sg11
I810
sss.(dp0
S'K_all3.csv'
p1
(dp2
S'machine'
p3
(dp4
S'count'
p5
I639
sS'truepos'
p6
I33
sS'falseneg'
p7
I4
sS'correction'
p8
I4
sS'unknownyes'
p9
I8
sS'falsepos'
p10
I5
sS'unique'
p11
I410
ssS'knee'
p12
(dp13
g5
I2164
sg6
I41
sg7
I4
sg8
I15
sg9
I0
sg10
I10
sg11
I1620
ssS'none'
p14
(dp15
g5
I650
sg6
I27
sg7
I14
sg8
I0
sg9
I4
sg10
I6
sg11
I650
ssS'three'
p16
(dp17
g5
I981
sg6
I35
sg7
I6
sg8
I20
sg9
I4
sg10
I0
sg11
I480
sssS'Wahono.csv'
p18
(dp19
g3
(dp20
g5
I1856
sg6
I52
sg7
I7
sg8
I11
sg9
I3
sg10
I3
sg11
I1280
ssg12
(dp21
g5
I532
sg6
I42
sg7
I5
sg8
I5
sg9
I15
sg10
I6
sg11
I340
ssg14
(dp22
g5
I2030
sg6
I38
sg7
I21
sg8
I0
sg9
I3
sg10
I7
sg11
I2030
ssg16
(dp23
g5
I2688
sg6
I45
sg7
I14
sg8
I24
sg9
I3
sg10
I0
sg11
I1330
sssS'Hall.csv'
p24
(dp25
g3
(dp26
g5
I810
sg6
I91
sg7
I11
sg8
I27
sg9
I2
sg10
I3
sg11
I560
ssg12
(dp27
g5
I876
sg6
I84
sg7
I18
sg8
I16
sg9
I2
sg10
I3
sg11
I630
ssg14
(dp28
g5
I940
sg6
I71
sg7
I31
sg8
I0
sg9
I2
sg10
I2
sg11
I940
ssg16
(dp29
g5
I1171
sg6
I80
sg7
I22
sg8
I44
sg9
I2
sg10
I0
sg11
I560
sssS'Danijel.csv'
p30
(dp31
g3
(dp32
g5
I1226
sg6
I39
sg7
I5
sg8
I5
sg9
I4
sg10
I5
sg11
I740
ssg12
(dp33
g5
I1000
sg6
I41
sg7
I4
sg8
I9
sg9
I3
sg10
I0
sg11
I680
ssg14
(dp34
g5
I1330
sg6
I31
sg7
I16
sg8
I0
sg9
I1
sg10
I1
sg11
I1330
ssg16
(dp35
g5
I2352
sg6
I35
sg7
I11
sg8
I28
sg9
I2
sg10
I0
sg11
I1160
sss.(dp0
S'K_all3.csv'
p1
(dp2
S'machine'
p3
(dp4
S'count'
p5
I714
sS'truepos'
p6
I31
sS'falseneg'
p7
I8
sS'correction'
p8
I4
sS'unknownyes'
p9
I6
sS'falsepos'
p10
I8
sS'unique'
p11
I480
ssS'knee'
p12
(dp13
g5
I1581
sg6
I37
sg7
I7
sg8
I13
sg9
I1
sg10
I2
sg11
I1200
ssS'none'
p14
(dp15
g5
I690
sg6
I24
sg7
I18
sg8
I0
sg9
I3
sg10
I5
sg11
I690
ssS'three'
p16
(dp17
g5
I1043
sg6
I34
sg7
I7
sg8
I19
sg9
I4
sg10
I0
sg11
I510
sssS'Wahono.csv'
p18
(dp19
g3
(dp20
g5
I2090
sg6
I52
sg7
I6
sg8
I10
sg9
I4
sg10
I10
sg11
I1300
ssg12
(dp21
g5
I1747
sg6
I45
sg7
I15
sg8
I11
sg9
I2
sg10
I3
sg11
I1450
ssg14
(dp22
g5
I1570
sg6
I42
sg7
I18
sg8
I0
sg9
I2
sg10
I5
sg11
I1570
ssg16
(dp23
g5
I2706
sg6
I40
sg7
I20
sg8
I21
sg9
I2
sg10
I0
sg11
I1340
sssS'Hall.csv'
p24
(dp25
g3
(dp26
g5
I727
sg6
I91
sg7
I11
sg8
I21
sg9
I2
sg10
I2
sg11
I520
ssg12
(dp27
g5
I664
sg6
I93
sg7
I9
sg8
I17
sg9
I2
sg10
I2
sg11
I470
ssg14
(dp28
g5
I720
sg6
I74
sg7
I28
sg8
I0
sg9
I2
sg10
I3
sg11
I720
ssg16
(dp29
g5
I1034
sg6
I77
sg7
I25
sg8
I48
sg9
I2
sg10
I0
sg11
I490
sssS'Danijel.csv'
p30
(dp31
g3
(dp32
g5
I1287
sg6
I41
sg7
I5
sg8
I9
sg9
I2
sg10
I2
sg11
I840
ssg12
(dp33
g5
I617
sg6
I37
sg7
I5
sg8
I8
sg9
I6
sg10
I0
sg11
I440
ssg14
(dp34
g5
I950
sg6
I34
sg7
I12
sg8
I0
sg9
I2
sg10
I4
sg11
I950
ssg16
(dp35
g5
I1845
sg6
I37
sg7
I9
sg8
I21
sg9
I2
sg10
I0
sg11
I910
sss.(dp0
S'K_all3.csv'
p1
(dp2
S'machine'
p3
(dp4
S'count'
p5
I581
sS'truepos'
p6
I33
sS'falseneg'
p7
I3
sS'correction'
p8
I7
sS'unknownyes'
p9
I9
sS'falsepos'
p10
I3
sS'unique'
p11
I370
ssS'knee'
p12
(dp13
g5
I1573
sg6
I40
sg7
I3
sg8
I16
sg9
I2
sg10
I1
sg11
I1260
ssS'none'
p14
(dp15
g5
I500
sg6
I24
sg7
I13
sg8
I0
sg9
I8
sg10
I3
sg11
I500
ssS'three'
p16
(dp17
g5
I1043
sg6
I32
sg7
I9
sg8
I18
sg9
I4
sg10
I0
sg11
I510
sssS'Wahono.csv'
p18
(dp19
g3
(dp20
g5
I1898
sg6
I52
sg7
I7
sg8
I17
sg9
I3
sg10
I5
sg11
I1290
ssg12
(dp21
g5
I24
sg6
I6
sg7
I0
sg8
I0
sg9
I56
sg10
I0
sg11
I20
ssg14
(dp22
g5
I1680
sg6
I37
sg7
I22
sg8
I0
sg9
I3
sg10
I4
sg11
I1680
ssg16
(dp23
g5
I3075
sg6
I48
sg7
I13
sg8
I32
sg9
I1
sg10
I0
sg11
I1520
sssS'Hall.csv'
p24
(dp25
g3
(dp26
g5
I980
sg6
I89
sg7
I13
sg8
I19
sg9
I2
sg10
I5
sg11
I710
ssg12
(dp27
g5
I838
sg6
I98
sg7
I4
sg8
I19
sg9
I2
sg10
I1
sg11
I590
ssg14
(dp28
g5
I940
sg6
I77
sg7
I25
sg8
I0
sg9
I2
sg10
I4
sg11
I940
ssg16
(dp29
g5
I1598
sg6
I81
sg7
I21
sg8
I32
sg9
I2
sg10
I0
sg11
I780
sssS'Danijel.csv'
p30
(dp31
g3
(dp32
g5
I1262
sg6
I41
sg7
I4
sg8
I12
sg9
I3
sg10
I5
sg11
I800
ssg12
(dp33
g5
I633
sg6
I36
sg7
I6
sg8
I4
sg9
I6
sg10
I3
sg11
I450
ssg14
(dp34
g5
I1570
sg6
I32
sg7
I14
sg8
I0
sg9
I2
sg10
I4
sg11
I1570
ssg16
(dp35
g5
I2452
sg6
I37
sg7
I9
sg8
I30
sg9
I2
sg10
I0
sg11
I1210
sss.(dp0
S'K_all3.csv'
p1
(dp2
S'machine'
p3
(dp4
S'count'
p5
I841
sS'truepos'
p6
I32
sS'falseneg'
p7
I11
sS'correction'
p8
I5
sS'unknownyes'
p9
I2
sS'falsepos'
p10
I7
sS'unique'
p11
I580
ssS'knee'
p12
(dp13
g5
I139
sg6
I14
sg7
I2
sg8
I3
sg9
I29
sg10
I3
sg11
I100
ssS'none'
p14
(dp15
g5
I500
sg6
I29
sg7
I8
sg8
I0
sg9
I8
sg10
I4
sg11
I500
ssS'three'
p16
(dp17
g5
I1139
sg6
I28
sg7
I13
sg8
I15
sg9
I4
sg10
I0
sg11
I560
sssS'Wahono.csv'
p18
(dp19
g3
(dp20
g5
I1875
sg6
I54
sg7
I5
sg8
I8
sg9
I3
sg10
I4
sg11
I1270
ssg12
(dp21
g5
I893
sg6
I49
sg7
I6
sg8
I12
sg9
I7
sg10
I3
sg11
I570
ssg14
(dp22
g5
I1340
sg6
I45
sg7
I14
sg8
I0
sg9
I3
sg10
I3
sg11
I1340
ssg16
(dp23
g5
I2651
sg6
I41
sg7
I18
sg8
I28
sg9
I3
sg10
I0
sg11
I1310
sssS'Hall.csv'
p24
(dp25
g3
(dp26
g5
I764
sg6
I90
sg7
I12
sg8
I22
sg9
I2
sg10
I1
sg11
I530
ssg12
(dp27
g5
I602
sg6
I86
sg7
I15
sg8
I19
sg9
I3
sg10
I2
sg11
I420
ssg14
(dp28
g5
I1740
sg6
I67
sg7
I37
sg8
I0
sg9
I0
sg10
I5
sg11
I1740
ssg16
(dp29
g5
I1170
sg6
I86
sg7
I16
sg8
I44
sg9
I2
sg10
I1
sg11
I560
sssS'Danijel.csv'
p30
(dp31
g3
(dp32
g5
I1466
sg6
I41
sg7
I5
sg8
I7
sg9
I2
sg10
I3
sg11
I900
ssg12
(dp33
g5
I761
sg6
I39
sg7
I6
sg8
I13
sg9
I3
sg10
I0
sg11
I570
ssg14
(dp34
g5
I920
sg6
I38
sg7
I8
sg8
I0
sg9
I2
sg10
I3
sg11
I920
ssg16
(dp35
g5
I2103
sg6
I35
sg7
I11
sg8
I17
sg9
I2
sg10
I0
sg11
I1040
sss.(dp0
S'K_all3.csv'
p1
(dp2
S'machine'
p3
(dp4
S'count'
p5
I756
sS'truepos'
p6
I34
sS'falseneg'
p7
I3
sS'correction'
p8
I5
sS'unknownyes'
p9
I8
sS'falsepos'
p10
I2
sS'unique'
p11
I470
ssS'knee'
p12
(dp13
g5
I1185
sg6
I32
sg7
I13
sg8
I10
sg9
I0
sg10
I8
sg11
I950
ssS'none'
p14
(dp15
g5
I530
sg6
I28
sg7
I12
sg8
I0
sg9
I5
sg10
I3
sg11
I530
ssS'three'
p16
(dp17
g5
I947
sg6
I31
sg7
I10
sg8
I23
sg9
I4
sg10
I0
sg11
I460
sssS'Wahono.csv'
p18
(dp19
g3
(dp20
g5
I2416
sg6
I55
sg7
I4
sg8
I15
sg9
I3
sg10
I10
sg11
I1510
ssg12
(dp21
g5
I698
sg6
I42
sg7
I6
sg8
I11
sg9
I14
sg10
I2
sg11
I400
ssg14
(dp22
g5
I1570
sg6
I42
sg7
I17
sg8
I0
sg9
I3
sg10
I3
sg11
I1570
ssg16
(dp23
g5
I2729
sg6
I45
sg7
I14
sg8
I28
sg9
I3
sg10
I0
sg11
I1350
sssS'Hall.csv'
p24
(dp25
g3
(dp26
g5
I907
sg6
I90
sg7
I12
sg8
I22
sg9
I2
sg10
I3
sg11
I670
ssg12
(dp27
g5
I664
sg6
I86
sg7
I15
sg8
I33
sg9
I3
sg10
I2
sg11
I460
ssg14
(dp28
g5
I1380
sg6
I64
sg7
I39
sg8
I0
sg9
I1
sg10
I6
sg11
I1380
ssg16
(dp29
g5
I2188
sg6
I74
sg7
I29
sg8
I41
sg9
I1
sg10
I0
sg11
I1070
sssS'Danijel.csv'
p30
(dp31
g3
(dp32
g5
I1129
sg6
I40
sg7
I5
sg8
I4
sg9
I3
sg10
I0
sg11
I730
ssg12
(dp33
g5
I693
sg6
I36
sg7
I3
sg8
I10
sg9
I9
sg10
I2
sg11
I410
ssg14
(dp34
g5
I1560
sg6
I30
sg7
I16
sg8
I0
sg9
I2
sg10
I0
sg11
I1560
ssg16
(dp35
g5
I1822
sg6
I36
sg7
I9
sg8
I20
sg9
I3
sg10
I0
sg11
I900
sss.(dp0
S'K_all3.csv'
p1
(dp2
S'machine'
p3
(dp4
S'count'
p5
I639
sS'truepos'
p6
I29
sS'falseneg'
p7
I7
sS'correction'
p8
I3
sS'unknownyes'
p9
I9
sS'falsepos'
p10
I3
sS'unique'
p11
I430
ssS'knee'
p12
(dp13
g5
I474
sg6
I27
sg7
I9
sg8
I3
sg9
I9
sg10
I2
sg11
I360
ssS'none'
p14
(dp15
g5
I490
sg6
I34
sg7
I6
sg8
I0
sg9
I5
sg10
I4
sg11
I490
ssS'three'
p16
(dp17
g5
I997
sg6
I33
sg7
I7
sg8
I17
sg9
I5
sg10
I0
sg11
I490
sssS'Wahono.csv'
p18
(dp19
g3
(dp20
g5
I1998
sg6
I57
sg7
I2
sg8
I18
sg9
I3
sg10
I7
sg11
I1280
ssg12
(dp21
g5
I532
sg6
I37
sg7
I4
sg8
I9
sg9
I21
sg10
I1
sg11
I330
ssg14
(dp22
g5
I1310
sg6
I44
sg7
I16
sg8
I0
sg9
I2
sg10
I3
sg11
I1310
ssg16
(dp23
g5
I2513
sg6
I50
sg7
I9
sg8
I31
sg9
I3
sg10
I0
sg11
I1240
sssS'Hall.csv'
p24
(dp25
g3
(dp26
g5
I863
sg6
I90
sg7
I12
sg8
I16
sg9
I2
sg10
I3
sg11
I650
ssg12
(dp27
g5
I626
sg6
I84
sg7
I16
sg8
I21
sg9
I4
sg10
I0
sg11
I430
ssg14
(dp28
g5
I1430
sg6
I67
sg7
I36
sg8
I0
sg9
I1
sg10
I3
sg11
I1430
ssg16
(dp29
g5
I1234
sg6
I81
sg7
I21
sg8
I27
sg9
I2
sg10
I0
sg11
I600
sssS'Danijel.csv'
p30
(dp31
g3
(dp32
g5
I1582
sg6
I41
sg7
I5
sg8
I13
sg9
I2
sg10
I3
sg11
I940
ssg12
(dp33
g5
I917
sg6
I36
sg7
I10
sg8
I5
sg9
I2
sg10
I0
sg11
I740
ssg14
(dp34
g5
I1540
sg6
I32
sg7
I14
sg8
I0
sg9
I2
sg10
I6
sg11
I1540
ssg16
(dp35
g5
I3645
sg6
I34
sg7
I13
sg8
I20
sg9
I1
sg10
I0
sg11
I1810
sss.(dp0
S'K_all3.csv'
p1
(dp2
S'machine'
p3
(dp4
S'count'
p5
I595
sS'truepos'
p6
I35
sS'falseneg'
p7
I1
sS'correction'
p8
I4
sS'unknownyes'
p9
I9
sS'falsepos'
p10
I4
sS'unique'
p11
I380
ssS'knee'
p12
(dp13
g5
I1101
sg6
I38
sg7
I5
sg8
I10
sg9
I2
sg10
I5
sg11
I720
ssS'none'
p14
(dp15
g5
I580
sg6
I28
sg7
I12
sg8
I0
sg9
I5
sg10
I1
sg11
I580
ssS'three'
p16
(dp17
g5
I1141
sg6
I36
sg7
I5
sg8
I19
sg9
I4
sg10
I0
sg11
I560
sssS'Wahono.csv'
p18
(dp19
g3
(dp20
g5
I1831
sg6
I57
sg7
I3
sg8
I11
sg9
I2
sg10
I5
sg11
I1210
ssg12
(dp21
g5
I1367
sg6
I44
sg7
I14
sg8
I15
sg9
I4
sg10
I2
sg11
I1130
ssg14
(dp22
g5
I1430
sg6
I47
sg7
I12
sg8
I0
sg9
I3
sg10
I10
sg11
I1430
ssg16
(dp23
g5
I2710
sg6
I47
sg7
I12
sg8
I27
sg9
I3
sg10
I0
sg11
I1340
sssS'Hall.csv'
p24
(dp25
g3
(dp26
g5
I1029
sg6
I91
sg7
I12
sg8
I20
sg9
I1
sg10
I4
sg11
I780
ssg12
(dp27
g5
I598
sg6
I86
sg7
I11
sg8
I20
sg9
I7
sg10
I1
sg11
I400
ssg14
(dp28
g5
I1210
sg6
I64
sg7
I39
sg8
I0
sg9
I1
sg10
I3
sg11
I1210
ssg16
(dp29
g5
I1583
sg6
I81
sg7
I21
sg8
I36
sg9
I2
sg10
I0
sg11
I770
sssS'Danijel.csv'
p30
(dp31
g3
(dp32
g5
I1230
sg6
I40
sg7
I5
sg8
I4
sg9
I3
sg10
I3
sg11
I770
ssg12
(dp33
g5
I990
sg6
I35
sg7
I11
sg8
I7
sg9
I2
sg10
I1
sg11
I820
ssg14
(dp34
g5
I1400
sg6
I35
sg7
I11
sg8
I0
sg9
I2
sg10
I4
sg11
I1400
ssg16
(dp35
g5
I2542
sg6
I35
sg7
I12
sg8
I18
sg9
I1
sg10
I0
sg11
I1260
sss.(dp0
S'K_all3.csv'
p1
(dp2
S'machine'
p3
(dp4
S'count'
p5
I640
sS'truepos'
p6
I37
sS'falseneg'
p7
I3
sS'correction'
p8
I8
sS'unknownyes'
p9
I5
sS'falsepos'
p10
I4
sS'unique'
p11
I440
ssS'knee'
p12
(dp13
g5
I1281
sg6
I35
sg7
I8
sg8
I11
sg9
I2
sg10
I11
sg11
I840
ssS'none'
p14
(dp15
g5
I600
sg6
I31
sg7
I9
sg8
I0
sg9
I5
sg10
I3
sg11
I600
ssS'three'
p16
(dp17
g5
I953
sg6
I29
sg7
I10
sg8
I29
sg9
I6
sg10
I1
sg11
I460
sssS'Wahono.csv'
p18
(dp19
g3
(dp20
g5
I1797
sg6
I54
sg7
I5
sg8
I20
sg9
I3
sg10
I1
sg11
I1220
ssg12
(dp21
g5
I1202
sg6
I44
sg7
I14
sg8
I10
sg9
I4
sg10
I2
sg11
I880
ssg14
(dp22
g5
I1380
sg6
I41
sg7
I18
sg8
I0
sg9
I3
sg10
I2
sg11
I1380
ssg16
(dp23
g5
I3173
sg6
I51
sg7
I8
sg8
I30
sg9
I3
sg10
I0
sg11
I1570
sssS'Hall.csv'
p24
(dp25
g3
(dp26
g5
I786
sg6
I94
sg7
I8
sg8
I19
sg9
I2
sg10
I2
sg11
I580
ssg12
(dp27
g5
I24
sg6
I8
sg7
I2
sg8
I2
sg9
I94
sg10
I0
sg11
I20
ssg14
(dp28
g5
I620
sg6
I75
sg7
I28
sg8
I0
sg9
I1
sg10
I3
sg11
I620
ssg16
(dp29
g5
I990
sg6
I81
sg7
I21
sg8
I44
sg9
I2
sg10
I0
sg11
I470
sssS'Danijel.csv'
p30
(dp31
g3
(dp32
g5
I1415
sg6
I38
sg7
I7
sg8
I5
sg9
I3
sg10
I1
sg11
I860
ssg12
(dp33
g5
I36
sg6
I4
sg7
I2
sg8
I0
sg9
I42
sg10
I0
sg11
I30
ssg14
(dp34
g5
I1340
sg6
I30
sg7
I16
sg8
I0
sg9
I2
sg10
I2
sg11
I1340
ssg16
(dp35
g5
I1476
sg6
I39
sg7
I5
sg8
I14
sg9
I4
sg10
I0
sg11
I730
sss.(dp0
S'K_all3.csv'
p1
(dp2
S'machine'
p3
(dp4
S'count'
p5
I611
sS'truepos'
p6
I32
sS'falseneg'
p7
I6
sS'correction'
p8
I6
sS'unknownyes'
p9
I7
sS'falsepos'
p10
I6
sS'unique'
p11
I440
ssS'knee'
p12
(dp13
g5
I393
sg6
I19
sg7
I11
sg8
I2
sg9
I15
sg10
I0
sg11
I240
ssS'none'
p14
(dp15
g5
I560
sg6
I27
sg7
I12
sg8
I0
sg9
I6
sg10
I4
sg11
I560
ssS'three'
p16
(dp17
g5
I1124
sg6
I34
sg7
I7
sg8
I22
sg9
I4
sg10
I0
sg11
I550
sssS'Wahono.csv'
p18
(dp19
g3
(dp20
g5
I1896
sg6
I57
sg7
I3
sg8
I21
sg9
I2
sg10
I3
sg11
I1220
ssg12
(dp21
g5
I940
sg6
I43
sg7
I8
sg8
I9
sg9
I11
sg10
I0
sg11
I650
ssg14
(dp22
g5
I1460
sg6
I41
sg7
I19
sg8
I0
sg9
I2
sg10
I2
sg11
I1460
ssg16
(dp23
g5
I2554
sg6
I44
sg7
I15
sg8
I31
sg9
I3
sg10
I0
sg11
I1260
sssS'Hall.csv'
p24
(dp25
g3
(dp26
g5
I816
sg6
I90
sg7
I12
sg8
I18
sg9
I2
sg10
I2
sg11
I590
ssg12
(dp27
g5
I612
sg6
I94
sg7
I7
sg8
I15
sg9
I3
sg10
I1
sg11
I380
ssg14
(dp28
g5
I1170
sg6
I68
sg7
I34
sg8
I0
sg9
I2
sg10
I4
sg11
I1170
ssg16
(dp29
g5
I1629
sg6
I72
sg7
I30
sg8
I41
sg9
I2
sg10
I0
sg11
I790
sssS'Danijel.csv'
p30
(dp31
g3
(dp32
g5
I1364
sg6
I43
sg7
I2
sg8
I10
sg9
I3
sg10
I3
sg11
I830
ssg12
(dp33
g5
I758
sg6
I42
sg7
I2
sg8
I6
sg9
I4
sg10
I0
sg11
I480
ssg14
(dp34
g5
I1180
sg6
I35
sg7
I11
sg8
I0
sg9
I2
sg10
I1
sg11
I1180
ssg16
(dp35
g5
I2358
sg6
I35
sg7
I11
sg8
I15
sg9
I2
sg10
I0
sg11
I1170
sss.(dp0
S'K_all3.csv'
p1
(dp2
S'machine'
p3
(dp4
S'count'
p5
I588
sS'truepos'
p6
I33
sS'falseneg'
p7
I3
sS'correction'
p8
I2
sS'unknownyes'
p9
I9
sS'falsepos'
p10
I4
sS'unique'
p11
I370
ssS'knee'
p12
(dp13
g5
I1326
sg6
I35
sg7
I9
sg8
I10
sg9
I1
sg10
I5
sg11
I1050
ssS'none'
p14
(dp15
g5
I590
sg6
I27
sg7
I14
sg8
I0
sg9
I4
sg10
I2
sg11
I590
ssS'three'
p16
(dp17
g5
I972
sg6
I36
sg7
I6
sg8
I30
sg9
I3
sg10
I0
sg11
I470
sssS'Wahono.csv'
p18
(dp19
g3
(dp20
g5
I2029
sg6
I56
sg7
I4
sg8
I15
sg9
I2
sg10
I5
sg11
I1340
ssg12
(dp21
g5
I1019
sg6
I46
sg7
I9
sg8
I7
sg9
I7
sg10
I0
sg11
I740
ssg14
(dp22
g5
I1590
sg6
I48
sg7
I12
sg8
I0
sg9
I2
sg10
I5
sg11
I1590
ssg16
(dp23
g5
I3006
sg6
I42
sg7
I17
sg8
I22
sg9
I3
sg10
I0
sg11
I1490
sssS'Hall.csv'
p24
(dp25
g3
(dp26
g5
I752
sg6
I95
sg7
I7
sg8
I29
sg9
I2
sg10
I1
sg11
I530
ssg12
(dp27
g5
I791
sg6
I89
sg7
I13
sg8
I12
sg9
I2
sg10
I0
sg11
I550
ssg14
(dp28
g5
I840
sg6
I79
sg7
I24
sg8
I0
sg9
I1
sg10
I2
sg11
I840
ssg16
(dp29
g5
I1128
sg6
I86
sg7
I16
sg8
I43
sg9
I2
sg10
I0
sg11
I540
sssS'Danijel.csv'
p30
(dp31
g3
(dp32
g5
I1715
sg6
I44
sg7
I2
sg8
I11
sg9
I2
sg10
I6
sg11
I1060
ssg12
(dp33
g5
I424
sg6
I35
sg7
I6
sg8
I6
sg9
I7
sg10
I0
sg11
I280
ssg14
(dp34
g5
I1320
sg6
I36
sg7
I11
sg8
I0
sg9
I1
sg10
I2
sg11
I1320
ssg16
(dp35
g5
I2169
sg6
I31
sg7
I16
sg8
I23
sg9
I1
sg10
I0
sg11
I1070
sss.(dp0
S'K_all3.csv'
p1
(dp2
S'machine'
p3
(dp4
S'count'
p5
I480
sS'truepos'
p6
I29
sS'falseneg'
p7
I4
sS'correction'
p8
I5
sS'unknownyes'
p9
I12
sS'falsepos'
p10
I4
sS'unique'
p11
I330
ssS'knee'
p12
(dp13
g5
I316
sg6
I21
sg7
I7
sg8
I1
sg9
I17
sg10
I4
sg11
I240
ssS'none'
p14
(dp15
g5
I610
sg6
I28
sg7
I13
sg8
I0
sg9
I4
sg10
I4
sg11
I610
ssS'three'
p16
(dp17
g5
I925
sg6
I33
sg7
I4
sg8
I25
sg9
I8
sg10
I1
sg11
I450
sssS'Wahono.csv'
p18
(dp19
g3
(dp20
g5
I2326
sg6
I57
sg7
I4
sg8
I25
sg9
I1
sg10
I9
sg11
I1570
ssg12
(dp21
g5
I1008
sg6
I44
sg7
I11
sg8
I11
sg9
I7
sg10
I1
sg11
I760
ssg14
(dp22
g5
I1550
sg6
I47
sg7
I13
sg8
I0
sg9
I2
sg10
I3
sg11
I1550
ssg16
(dp23
g5
I2948
sg6
I53
sg7
I6
sg8
I25
sg9
I3
sg10
I0
sg11
I1460
sssS'Hall.csv'
p24
(dp25
g3
(dp26
g5
I818
sg6
I94
sg7
I8
sg8
I27
sg9
I2
sg10
I2
sg11
I610
ssg12
(dp27
g5
I624
sg6
I94
sg7
I7
sg8
I19
sg9
I3
sg10
I4
sg11
I440
ssg14
(dp28
g5
I720
sg6
I79
sg7
I23
sg8
I0
sg9
I2
sg10
I3
sg11
I720
ssg16
(dp29
g5
I1804
sg6
I85
sg7
I18
sg8
I39
sg9
I1
sg10
I0
sg11
I880
sssS'Danijel.csv'
p30
(dp31
g3
(dp32
g5
I1271
sg6
I42
sg7
I4
sg8
I5
sg9
I2
sg10
I3
sg11
I760
ssg12
(dp33
g5
I1030
sg6
I38
sg7
I7
sg8
I6
sg9
I3
sg10
I2
sg11
I680
ssg14
(dp34
g5
I1230
sg6
I35
sg7
I11
sg8
I0
sg9
I2
sg10
I1
sg11
I1230
ssg16
(dp35
g5
I2489
sg6
I36
sg7
I11
sg8
I26
sg9
I1
sg10
I0
sg11
I1230
sss.