(dp0
S'K_all3.csv'
p1
(dp2
S'machine'
p3
(dp4
S'count'
p5
I615
sS'truepos'
p6
I35
sS'falseneg'
p7
I3
sS'unknownyes'
p8
I7
sS'falsepos'
p9
I2
sS'unique'
p10
I490
ssS'none'
p11
(dp12
g5
I450
sg6
I34
sg7
I2
sg8
I9
sg9
I16
sg10
I450
ssS'three'
p13
(dp14
g5
I1081
sg6
I32
sg7
I0
sg8
I13
sg9
I3
sg10
I520
ssS'machine3'
p15
(dp16
g5
I682
sg6
I36
sg7
I2
sg8
I7
sg9
I2
sg10
I570
ssS'machine2'
p17
(dp18
g5
I638
sg6
I34
sg7
I2
sg8
I9
sg9
I2
sg10
I510
sssS'Wahono.csv'
p19
(dp20
g3
(dp21
g5
I1460
sg6
I56
sg7
I3
sg8
I3
sg9
I3
sg10
I1150
ssg11
(dp22
g5
I1440
sg6
I51
sg7
I6
sg8
I5
sg9
I67
sg10
I1440
ssg13
(dp23
g5
I2858
sg6
I59
sg7
I0
sg8
I3
sg9
I8
sg10
I1360
ssg15
(dp24
g5
I1521
sg6
I58
sg7
I1
sg8
I3
sg9
I4
sg10
I1170
ssg17
(dp25
g5
I1673
sg6
I59
sg7
I0
sg8
I3
sg9
I4
sg10
I1260
sssS'Hall.csv'
p26
(dp27
g3
(dp28
g5
I553
sg6
I97
sg7
I4
sg8
I5
sg9
I5
sg10
I400
ssg11
(dp29
g5
I890
sg6
I95
sg7
I7
sg8
I4
sg9
I35
sg10
I890
ssg13
(dp30
g5
I1108
sg6
I102
sg7
I0
sg8
I4
sg9
I1
sg10
I530
ssg15
(dp31
g5
I752
sg6
I101
sg7
I1
sg8
I4
sg9
I1
sg10
I520
ssg17
(dp32
g5
I632
sg6
I101
sg7
I0
sg8
I5
sg9
I2
sg10
I440
sssS'Danijel.csv'
p33
(dp34
g3
(dp35
g5
I981
sg6
I44
sg7
I1
sg8
I3
sg9
I2
sg10
I760
ssg11
(dp36
g5
I1150
sg6
I43
sg7
I3
sg8
I2
sg9
I53
sg10
I1150
ssg13
(dp37
g5
I1973
sg6
I45
sg7
I0
sg8
I3
sg9
I10
sg10
I940
ssg15
(dp38
g5
I958
sg6
I43
sg7
I2
sg8
I3
sg9
I0
sg10
I750
ssg17
(dp39
g5
I1088
sg6
I46
sg7
I0
sg8
I2
sg9
I1
sg10
I810
sss.(dp0
S'K_all3.csv'
p1
(dp2
S'machine'
p3
(dp4
S'count'
p5
I490
sS'truepos'
p6
I35
sS'falseneg'
p7
I4
sS'unknownyes'
p8
I6
sS'falsepos'
p9
I4
sS'unique'
p10
I380
ssS'none'
p11
(dp12
g5
I360
sg6
I32
sg7
I0
sg8
I13
sg9
I25
sg10
I360
ssS'three'
p13
(dp14
g5
I1003
sg6
I36
sg7
I0
sg8
I9
sg9
I2
sg10
I480
ssS'machine3'
p15
(dp16
g5
I598
sg6
I35
sg7
I0
sg8
I10
sg9
I1
sg10
I490
ssS'machine2'
p17
(dp18
g5
I653
sg6
I34
sg7
I2
sg8
I9
sg9
I3
sg10
I520
sssS'Wahono.csv'
p19
(dp20
g3
(dp21
g5
I1389
sg6
I59
sg7
I0
sg8
I3
sg9
I2
sg10
I1080
ssg11
(dp22
g5
I1490
sg6
I54
sg7
I4
sg8
I4
sg9
I60
sg10
I1490
ssg13
(dp23
g5
I2466
sg6
I59
sg7
I0
sg8
I3
sg9
I8
sg10
I1190
ssg15
(dp24
g5
I1472
sg6
I57
sg7
I2
sg8
I3
sg9
I5
sg10
I1150
ssg17
(dp25
g5
I1552
sg6
I59
sg7
I1
sg8
I2
sg9
I9
sg10
I1160
sssS'Hall.csv'
p26
(dp27
g3
(dp28
g5
I591
sg6
I99
sg7
I2
sg8
I5
sg9
I4
sg10
I420
ssg11
(dp29
g5
I1020
sg6
I98
sg7
I4
sg8
I4
sg9
I52
sg10
I1020
ssg13
(dp30
g5
I997
sg6
I101
sg7
I0
sg8
I5
sg9
I1
sg10
I480
ssg15
(dp31
g5
I678
sg6
I96
sg7
I6
sg8
I4
sg9
I0
sg10
I470
ssg17
(dp32
g5
I649
sg6
I100
sg7
I2
sg8
I4
sg9
I5
sg10
I460
sssS'Danijel.csv'
p33
(dp34
g3
(dp35
g5
I1042
sg6
I43
sg7
I2
sg8
I3
sg9
I4
sg10
I810
ssg11
(dp36
g5
I890
sg6
I42
sg7
I3
sg8
I3
sg9
I44
sg10
I890
ssg13
(dp37
g5
I1617
sg6
I45
sg7
I0
sg8
I3
sg9
I3
sg10
I770
ssg15
(dp38
g5
I916
sg6
I42
sg7
I3
sg8
I3
sg9
I1
sg10
I730
ssg17
(dp39
g5
I1282
sg6
I44
sg7
I1
sg8
I3
sg9
I4
sg10
I970
sss.(dp0
S'K_all3.csv'
p1
(dp2
S'machine'
p3
(dp4
S'count'
p5
I568
sS'truepos'
p6
I35
sS'falseneg'
p7
I2
sS'unknownyes'
p8
I8
sS'falsepos'
p9
I3
sS'unique'
p10
I460
ssS'none'
p11
(dp12
g5
I430
sg6
I38
sg7
I0
sg8
I7
sg9
I21
sg10
I430
ssS'three'
p13
(dp14
g5
I995
sg6
I36
sg7
I1
sg8
I8
sg9
I3
sg10
I470
ssS'machine3'
p15
(dp16
g5
I646
sg6
I34
sg7
I2
sg8
I9
sg9
I0
sg10
I520
ssS'machine2'
p17
(dp18
g5
I694
sg6
I35
sg7
I0
sg8
I10
sg9
I1
sg10
I510
sssS'Wahono.csv'
p19
(dp20
g3
(dp21
g5
I1308
sg6
I58
sg7
I2
sg8
I2
sg9
I3
sg10
I1010
ssg11
(dp22
g5
I1200
sg6
I55
sg7
I2
sg8
I5
sg9
I63
sg10
I1200
ssg13
(dp23
g5
I2634
sg6
I58
sg7
I1
sg8
I3
sg9
I7
sg10
I1260
ssg15
(dp24
g5
I1183
sg6
I58
sg7
I1
sg8
I3
sg9
I3
sg10
I920
ssg17
(dp25
g5
I1347
sg6
I55
sg7
I3
sg8
I4
sg9
I5
sg10
I1010
sssS'Hall.csv'
p26
(dp27
g3
(dp28
g5
I603
sg6
I100
sg7
I2
sg8
I4
sg9
I5
sg10
I430
ssg11
(dp29
g5
I1640
sg6
I97
sg7
I5
sg8
I4
sg9
I77
sg10
I1640
ssg13
(dp30
g5
I939
sg6
I100
sg7
I1
sg8
I5
sg9
I2
sg10
I450
ssg15
(dp31
g5
I677
sg6
I98
sg7
I4
sg8
I4
sg9
I3
sg10
I460
ssg17
(dp32
g5
I805
sg6
I99
sg7
I2
sg8
I5
sg9
I2
sg10
I560
sssS'Danijel.csv'
p33
(dp34
g3
(dp35
g5
I1196
sg6
I42
sg7
I2
sg8
I4
sg9
I3
sg10
I930
ssg11
(dp36
g5
I990
sg6
I42
sg7
I2
sg8
I4
sg9
I55
sg10
I990
ssg13
(dp37
g5
I1764
sg6
I45
sg7
I0
sg8
I3
sg9
I4
sg10
I840
ssg15
(dp38
g5
I931
sg6
I43
sg7
I2
sg8
I3
sg9
I1
sg10
I740
ssg17
(dp39
g5
I1419
sg6
I45
sg7
I1
sg8
I2
sg9
I10
sg10
I1070
sss.(dp0
S'K_all3.csv'
p1
(dp2
S'machine'
p3
(dp4
S'count'
p5
I632
sS'truepos'
p6
I34
sS'falseneg'
p7
I3
sS'unknownyes'
p8
I8
sS'falsepos'
p9
I4
sS'unique'
p10
I510
ssS'none'
p11
(dp12
g5
I480
sg6
I34
sg7
I2
sg8
I9
sg9
I32
sg10
I480
ssS'three'
p13
(dp14
g5
I977
sg6
I38
sg7
I0
sg8
I7
sg9
I3
sg10
I470
ssS'machine3'
p15
(dp16
g5
I613
sg6
I34
sg7
I2
sg8
I9
sg9
I5
sg10
I510
ssS'machine2'
p17
(dp18
g5
I521
sg6
I32
sg7
I1
sg8
I12
sg9
I2
sg10
I410
sssS'Wahono.csv'
p19
(dp20
g3
(dp21
g5
I1680
sg6
I57
sg7
I2
sg8
I3
sg9
I8
sg10
I1310
ssg11
(dp22
g5
I1550
sg6
I57
sg7
I3
sg8
I2
sg9
I70
sg10
I1550
ssg13
(dp23
g5
I2439
sg6
I59
sg7
I0
sg8
I3
sg9
I6
sg10
I1160
ssg15
(dp24
g5
I1328
sg6
I59
sg7
I1
sg8
I2
sg9
I2
sg10
I1020
ssg17
(dp25
g5
I1722
sg6
I59
sg7
I1
sg8
I2
sg9
I4
sg10
I1310
sssS'Hall.csv'
p26
(dp27
g3
(dp28
g5
I583
sg6
I97
sg7
I4
sg8
I5
sg9
I2
sg10
I410
ssg11
(dp29
g5
I660
sg6
I95
sg7
I7
sg8
I4
sg9
I21
sg10
I660
ssg13
(dp30
g5
I1285
sg6
I100
sg7
I2
sg8
I4
sg9
I4
sg10
I610
ssg15
(dp31
g5
I719
sg6
I101
sg7
I1
sg8
I4
sg9
I1
sg10
I500
ssg17
(dp32
g5
I658
sg6
I101
sg7
I1
sg8
I4
sg9
I3
sg10
I460
sssS'Danijel.csv'
p33
(dp34
g3
(dp35
g5
I864
sg6
I44
sg7
I2
sg8
I2
sg9
I1
sg10
I670
ssg11
(dp36
g5
I1720
sg6
I41
sg7
I4
sg8
I3
sg9
I94
sg10
I1720
ssg13
(dp37
g5
I1501
sg6
I45
sg7
I0
sg8
I3
sg9
I2
sg10
I720
ssg15
(dp38
g5
I943
sg6
I45
sg7
I0
sg8
I3
sg9
I3
sg10
I730
ssg17
(dp39
g5
I1184
sg6
I45
sg7
I0
sg8
I3
sg9
I3
sg10
I880
sss.(dp0
S'K_all3.csv'
p1
(dp2
S'machine'
p3
(dp4
S'count'
p5
I593
sS'truepos'
p6
I31
sS'falseneg'
p7
I3
sS'unknownyes'
p8
I11
sS'falsepos'
p9
I1
sS'unique'
p10
I500
ssS'none'
p11
(dp12
g5
I370
sg6
I28
sg7
I3
sg8
I14
sg9
I16
sg10
I370
ssS'three'
p13
(dp14
g5
I1017
sg6
I37
sg7
I0
sg8
I8
sg9
I1
sg10
I490
ssS'machine3'
p15
(dp16
g5
I529
sg6
I31
sg7
I6
sg8
I8
sg9
I1
sg10
I440
ssS'machine2'
p17
(dp18
g5
I595
sg6
I35
sg7
I1
sg8
I9
sg9
I6
sg10
I460
sssS'Wahono.csv'
p19
(dp20
g3
(dp21
g5
I1738
sg6
I60
sg7
I1
sg8
I1
sg9
I1
sg10
I1350
ssg11
(dp22
g5
I1100
sg6
I56
sg7
I2
sg8
I4
sg9
I41
sg10
I1100
ssg13
(dp23
g5
I2618
sg6
I58
sg7
I1
sg8
I3
sg9
I9
sg10
I1250
ssg15
(dp24
g5
I1649
sg6
I59
sg7
I0
sg8
I3
sg9
I5
sg10
I1280
ssg17
(dp25
g5
I1494
sg6
I58
sg7
I1
sg8
I3
sg9
I3
sg10
I1110
sssS'Hall.csv'
p26
(dp27
g3
(dp28
g5
I640
sg6
I100
sg7
I1
sg8
I5
sg9
I6
sg10
I460
ssg11
(dp29
g5
I1390
sg6
I102
sg7
I1
sg8
I3
sg9
I59
sg10
I1390
ssg13
(dp30
g5
I1940
sg6
I102
sg7
I1
sg8
I3
sg9
I12
sg10
I920
ssg15
(dp31
g5
I681
sg6
I99
sg7
I2
sg8
I5
sg9
I0
sg10
I460
ssg17
(dp32
g5
I579
sg6
I101
sg7
I1
sg8
I4
sg9
I3
sg10
I410
sssS'Danijel.csv'
p33
(dp34
g3
(dp35
g5
I852
sg6
I43
sg7
I1
sg8
I4
sg9
I1
sg10
I660
ssg11
(dp36
g5
I1060
sg6
I43
sg7
I2
sg8
I3
sg9
I50
sg10
I1060
ssg13
(dp37
g5
I1491
sg6
I46
sg7
I0
sg8
I2
sg9
I4
sg10
I710
ssg15
(dp38
g5
I962
sg6
I42
sg7
I3
sg8
I3
sg9
I2
sg10
I760
ssg17
(dp39
g5
I983
sg6
I44
sg7
I0
sg8
I4
sg9
I3
sg10
I710
sss.(dp0
S'K_all3.csv'
p1
(dp2
S'machine'
p3
(dp4
S'count'
p5
I595
sS'truepos'
p6
I32
sS'falseneg'
p7
I1
sS'unknownyes'
p8
I12
sS'falsepos'
p9
I3
sS'unique'
p10
I460
ssS'none'
p11
(dp12
g5
I480
sg6
I31
sg7
I3
sg8
I11
sg9
I13
sg10
I480
ssS'three'
p13
(dp14
g5
I970
sg6
I33
sg7
I0
sg8
I12
sg9
I6
sg10
I460
ssS'machine3'
p15
(dp16
g5
I563
sg6
I36
sg7
I1
sg8
I8
sg9
I0
sg10
I470
ssS'machine2'
p17
(dp18
g5
I513
sg6
I32
sg7
I1
sg8
I12
sg9
I3
sg10
I410
sssS'Wahono.csv'
p19
(dp20
g3
(dp21
g5
I1642
sg6
I58
sg7
I1
sg8
I3
sg9
I3
sg10
I1270
ssg11
(dp22
g5
I1510
sg6
I53
sg7
I5
sg8
I4
sg9
I80
sg10
I1510
ssg13
(dp23
g5
I2988
sg6
I61
sg7
I0
sg8
I1
sg9
I10
sg10
I1430
ssg15
(dp24
g5
I1664
sg6
I59
sg7
I1
sg8
I2
sg9
I7
sg10
I1300
ssg17
(dp25
g5
I1824
sg6
I56
sg7
I4
sg8
I2
sg9
I10
sg10
I1360
sssS'Hall.csv'
p26
(dp27
g3
(dp28
g5
I561
sg6
I99
sg7
I3
sg8
I4
sg9
I4
sg10
I410
ssg11
(dp29
g5
I1460
sg6
I100
sg7
I3
sg8
I3
sg9
I72
sg10
I1460
ssg13
(dp30
g5
I900
sg6
I101
sg7
I0
sg8
I5
sg9
I2
sg10
I430
ssg15
(dp31
g5
I713
sg6
I99
sg7
I3
sg8
I4
sg9
I0
sg10
I500
ssg17
(dp32
g5
I773
sg6
I99
sg7
I3
sg8
I4
sg9
I2
sg10
I540
sssS'Danijel.csv'
p33
(dp34
g3
(dp35
g5
I980
sg6
I44
sg7
I2
sg8
I2
sg9
I2
sg10
I760
ssg11
(dp36
g5
I900
sg6
I42
sg7
I2
sg8
I4
sg9
I39
sg10
I900
ssg13
(dp37
g5
I1695
sg6
I45
sg7
I0
sg8
I3
sg9
I5
sg10
I810
ssg15
(dp38
g5
I977
sg6
I43
sg7
I2
sg8
I3
sg9
I1
sg10
I760
ssg17
(dp39
g5
I1305
sg6
I44
sg7
I0
sg8
I4
sg9
I6
sg10
I1010
sss.(dp0
S'K_all3.csv'
p1
(dp2
S'machine'
p3
(dp4
S'count'
p5
I642
sS'truepos'
p6
I35
sS'falseneg'
p7
I2
sS'unknownyes'
p8
I8
sS'falsepos'
p9
I0
sS'unique'
p10
I560
ssS'none'
p11
(dp12
g5
I410
sg6
I30
sg7
I0
sg8
I15
sg9
I25
sg10
I410
ssS'three'
p13
(dp14
g5
I993
sg6
I33
sg7
I0
sg8
I12
sg9
I4
sg10
I470
ssS'machine3'
p15
(dp16
g5
I587
sg6
I36
sg7
I1
sg8
I8
sg9
I2
sg10
I480
ssS'machine2'
p17
(dp18
g5
I566
sg6
I30
sg7
I1
sg8
I14
sg9
I3
sg10
I460
sssS'Wahono.csv'
p19
(dp20
g3
(dp21
g5
I1169
sg6
I58
sg7
I1
sg8
I3
sg9
I3
sg10
I910
ssg11
(dp22
g5
I1620
sg6
I57
sg7
I3
sg8
I2
sg9
I82
sg10
I1620
ssg13
(dp23
g5
I2562
sg6
I60
sg7
I0
sg8
I2
sg9
I6
sg10
I1220
ssg15
(dp24
g5
I1599
sg6
I59
sg7
I1
sg8
I2
sg9
I5
sg10
I1240
ssg17
(dp25
g5
I1631
sg6
I58
sg7
I1
sg8
I3
sg9
I8
sg10
I1210
sssS'Hall.csv'
p26
(dp27
g3
(dp28
g5
I560
sg6
I97
sg7
I5
sg8
I4
sg9
I7
sg10
I410
ssg11
(dp29
g5
I1650
sg6
I101
sg7
I2
sg8
I3
sg9
I76
sg10
I1650
ssg13
(dp30
g5
I948
sg6
I100
sg7
I2
sg8
I4
sg9
I2
sg10
I450
ssg15
(dp31
g5
I784
sg6
I100
sg7
I2
sg8
I4
sg9
I1
sg10
I550
ssg17
(dp32
g5
I561
sg6
I98
sg7
I3
sg8
I5
sg9
I3
sg10
I390
sssS'Danijel.csv'
p33
(dp34
g3
(dp35
g5
I1032
sg6
I45
sg7
I1
sg8
I2
sg9
I2
sg10
I810
ssg11
(dp36
g5
I1170
sg6
I46
sg7
I1
sg8
I1
sg9
I50
sg10
I1170
ssg13
(dp37
g5
I1814
sg6
I46
sg7
I0
sg8
I2
sg9
I4
sg10
I870
ssg15
(dp38
g5
I1007
sg6
I42
sg7
I3
sg8
I3
sg9
I3
sg10
I790
ssg17
(dp39
g5
I1094
sg6
I44
sg7
I2
sg8
I2
sg9
I2
sg10
I840
sss.(dp0
S'K_all3.csv'
p1
(dp2
S'machine'
p3
(dp4
S'count'
p5
I611
sS'truepos'
p6
I34
sS'falseneg'
p7
I3
sS'unknownyes'
p8
I8
sS'falsepos'
p9
I2
sS'unique'
p10
I510
ssS'none'
p11
(dp12
g5
I440
sg6
I34
sg7
I1
sg8
I10
sg9
I18
sg10
I440
ssS'three'
p13
(dp14
g5
I837
sg6
I36
sg7
I0
sg8
I9
sg9
I8
sg10
I400
ssS'machine3'
p15
(dp16
g5
I623
sg6
I34
sg7
I2
sg8
I9
sg9
I3
sg10
I510
ssS'machine2'
p17
(dp18
g5
I651
sg6
I32
sg7
I3
sg8
I10
sg9
I2
sg10
I510
sssS'Wahono.csv'
p19
(dp20
g3
(dp21
g5
I1145
sg6
I54
sg7
I4
sg8
I4
sg9
I3
sg10
I910
ssg11
(dp22
g5
I1770
sg6
I55
sg7
I4
sg8
I3
sg9
I87
sg10
I1770
ssg13
(dp23
g5
I3089
sg6
I60
sg7
I0
sg8
I2
sg9
I15
sg10
I1470
ssg15
(dp24
g5
I1513
sg6
I57
sg7
I2
sg8
I3
sg9
I3
sg10
I1170
ssg17
(dp25
g5
I1814
sg6
I61
sg7
I0
sg8
I1
sg9
I8
sg10
I1360
sssS'Hall.csv'
p26
(dp27
g3
(dp28
g5
I721
sg6
I100
sg7
I2
sg8
I4
sg9
I2
sg10
I510
ssg11
(dp29
g5
I1580
sg6
I96
sg7
I7
sg8
I3
sg9
I75
sg10
I1580
ssg13
(dp30
g5
I953
sg6
I100
sg7
I1
sg8
I5
sg9
I4
sg10
I450
ssg15
(dp31
g5
I698
sg6
I97
sg7
I4
sg8
I5
sg9
I1
sg10
I480
ssg17
(dp32
g5
I357
sg6
I89
sg7
I2
sg8
I15
sg9
I6
sg10
I260
sssS'Danijel.csv'
p33
(dp34
g3
(dp35
g5
I911
sg6
I44
sg7
I1
sg8
I3
sg9
I3
sg10
I710
ssg11
(dp36
g5
I1220
sg6
I44
sg7
I2
sg8
I2
sg9
I75
sg10
I1220
ssg13
(dp37
g5
I1636
sg6
I45
sg7
I0
sg8
I3
sg9
I3
sg10
I780
ssg15
(dp38
g5
I888
sg6
I40
sg7
I4
sg8
I4
sg9
I3
sg10
I690
ssg17
(dp39
g5
I1006
sg6
I43
sg7
I2
sg8
I3
sg9
I3
sg10
I760
sss.(dp0
S'K_all3.csv'
p1
(dp2
S'machine'
p3
(dp4
S'count'
p5
I616
sS'truepos'
p6
I32
sS'falseneg'
p7
I1
sS'unknownyes'
p8
I12
sS'falsepos'
p9
I0
sS'unique'
p10
I520
ssS'none'
p11
(dp12
g5
I490
sg6
I30
sg7
I2
sg8
I13
sg9
I33
sg10
I490
ssS'three'
p13
(dp14
g5
I912
sg6
I34
sg7
I0
sg8
I11
sg9
I7
sg10
I430
ssS'machine3'
p15
(dp16
g5
I579
sg6
I33
sg7
I4
sg8
I8
sg9
I0
sg10
I480
ssS'machine2'
p17
(dp18
g5
I621
sg6
I31
sg7
I4
sg8
I10
sg9
I2
sg10
I520
sssS'Wahono.csv'
p19
(dp20
g3
(dp21
g5
I1506
sg6
I58
sg7
I1
sg8
I3
sg9
I4
sg10
I1170
ssg11
(dp22
g5
I1930
sg6
I57
sg7
I1
sg8
I4
sg9
I116
sg10
I1930
ssg13
(dp23
g5
I3368
sg6
I61
sg7
I1
sg8
I0
sg9
I9
sg10
I1600
ssg15
(dp24
g5
I1507
sg6
I58
sg7
I2
sg8
I2
sg9
I5
sg10
I1180
ssg17
(dp25
g5
I1843
sg6
I60
sg7
I0
sg8
I2
sg9
I9
sg10
I1360
sssS'Hall.csv'
p26
(dp27
g3
(dp28
g5
I661
sg6
I100
sg7
I2
sg8
I4
sg9
I2
sg10
I470
ssg11
(dp29
g5
I1280
sg6
I95
sg7
I7
sg8
I4
sg9
I59
sg10
I1280
ssg13
(dp30
g5
I1071
sg6
I102
sg7
I0
sg8
I4
sg9
I5
sg10
I510
ssg15
(dp31
g5
I641
sg6
I98
sg7
I2
sg8
I6
sg9
I3
sg10
I440
ssg17
(dp32
g5
I791
sg6
I101
sg7
I1
sg8
I4
sg9
I5
sg10
I550
sssS'Danijel.csv'
p33
(dp34
g3
(dp35
g5
I1090
sg6
I45
sg7
I1
sg8
I2
sg9
I7
sg10
I840
ssg11
(dp36
g5
I890
sg6
I40
sg7
I4
sg8
I4
sg9
I38
sg10
I890
ssg13
(dp37
g5
I1542
sg6
I45
sg7
I0
sg8
I3
sg9
I3
sg10
I740
ssg15
(dp38
g5
I1068
sg6
I45
sg7
I1
sg8
I2
sg9
I4
sg10
I830
ssg17
(dp39
g5
I1004
sg6
I44
sg7
I1
sg8
I3
sg9
I3
sg10
I760
sss.(dp0
S'K_all3.csv'
p1
(dp2
S'machine'
p3
(dp4
S'count'
p5
I613
sS'truepos'
p6
I33
sS'falseneg'
p7
I1
sS'unknownyes'
p8
I11
sS'falsepos'
p9
I1
sS'unique'
p10
I520
ssS'none'
p11
(dp12
g5
I390
sg6
I33
sg7
I0
sg8
I12
sg9
I15
sg10
I390
ssS'three'
p13
(dp14
g5
I984
sg6
I37
sg7
I0
sg8
I8
sg9
I1
sg10
I470
ssS'machine3'
p15
(dp16
g5
I571
sg6
I33
sg7
I3
sg8
I9
sg9
I1
sg10
I490
ssS'machine2'
p17
(dp18
g5
I660
sg6
I35
sg7
I1
sg8
I9
sg9
I2
sg10
I500
sssS'Wahono.csv'
p19
(dp20
g3
(dp21
g5
I1816
sg6
I58
sg7
I2
sg8
I2
sg9
I5
sg10
I1410
ssg11
(dp22
g5
I2120
sg6
I58
sg7
I3
sg8
I1
sg9
I100
sg10
I2120
ssg13
(dp23
g5
I2808
sg6
I58
sg7
I1
sg8
I3
sg9
I7
sg10
I1340
ssg15
(dp24
g5
I1497
sg6
I60
sg7
I0
sg8
I2
sg9
I2
sg10
I1170
ssg17
(dp25
g5
I906
sg6
I51
sg7
I3
sg8
I8
sg9
I3
sg10
I660
sssS'Hall.csv'
p26
(dp27
g3
(dp28
g5
I540
sg6
I98
sg7
I2
sg8
I6
sg9
I5
sg10
I380
ssg11
(dp29
g5
I1580
sg6
I99
sg7
I4
sg8
I3
sg9
I80
sg10
I1580
ssg13
(dp30
g5
I1141
sg6
I100
sg7
I2
sg8
I4
sg9
I4
sg10
I540
ssg15
(dp31
g5
I586
sg6
I96
sg7
I3
sg8
I7
sg9
I0
sg10
I400
ssg17
(dp32
g5
I681
sg6
I100
sg7
I1
sg8
I5
sg9
I2
sg10
I460
sssS'Danijel.csv'
p33
(dp34
g3
(dp35
g5
I1006
sg6
I43
sg7
I3
sg8
I2
sg9
I0
sg10
I770
ssg11
(dp36
g5
I1040
sg6
I42
sg7
I2
sg8
I4
sg9
I53
sg10
I1040
ssg13
(dp37
g5
I1884
sg6
I45
sg7
I0
sg8
I3
sg9
I8
sg10
I900
ssg15
(dp38
g5
I1014
sg6
I41
sg7
I3
sg8
I4
sg9
I1
sg10
I810
ssg17
(dp39
g5
I1073
sg6
I44
sg7
I1
sg8
I3
sg9
I1
sg10
I810
sss.(dp0
S'K_all3.csv'
p1
(dp2
S'machine'
p3
(dp4
S'count'
p5
I605
sS'truepos'
p6
I30
sS'falseneg'
p7
I4
sS'unknownyes'
p8
I11
sS'falsepos'
p9
I1
sS'unique'
p10
I510
ssS'none'
p11
(dp12
g5
I430
sg6
I31
sg7
I0
sg8
I14
sg9
I20
sg10
I430
ssS'three'
p13
(dp14
g5
I1045
sg6
I35
sg7
I0
sg8
I10
sg9
I2
sg10
I500
ssS'machine3'
p15
(dp16
g5
I559
sg6
I36
sg7
I0
sg8
I9
sg9
I2
sg10
I470
ssS'machine2'
p17
(dp18
g5
I643
sg6
I33
sg7
I2
sg8
I10
sg9
I1
sg10
I510
sssS'Wahono.csv'
p19
(dp20
g3
(dp21
g5
I1757
sg6
I56
sg7
I4
sg8
I2
sg9
I4
sg10
I1370
ssg11
(dp22
g5
I1870
sg6
I58
sg7
I2
sg8
I2
sg9
I84
sg10
I1870
ssg13
(dp23
g5
I2868
sg6
I59
sg7
I0
sg8
I3
sg9
I9
sg10
I1370
ssg15
(dp24
g5
I1359
sg6
I58
sg7
I1
sg8
I3
sg9
I1
sg10
I1050
ssg17
(dp25
g5
I1591
sg6
I58
sg7
I2
sg8
I2
sg9
I5
sg10
I1210
sssS'Hall.csv'
p26
(dp27
g3
(dp28
g5
I461
sg6
I91
sg7
I6
sg8
I9
sg9
I5
sg10
I330
ssg11
(dp29
g5
I1360
sg6
I98
sg7
I5
sg8
I3
sg9
I67
sg10
I1360
ssg13
(dp30
g5
I1072
sg6
I100
sg7
I2
sg8
I4
sg9
I4
sg10
I510
ssg15
(dp31
g5
I667
sg6
I99
sg7
I3
sg8
I4
sg9
I0
sg10
I460
ssg17
(dp32
g5
I928
sg6
I101
sg7
I1
sg8
I4
sg9
I10
sg10
I640
sssS'Danijel.csv'
p33
(dp34
g3
(dp35
g5
I1109
sg6
I43
sg7
I2
sg8
I3
sg9
I2
sg10
I860
ssg11
(dp36
g5
I850
sg6
I41
sg7
I2
sg8
I5
sg9
I43
sg10
I850
ssg13
(dp37
g5
I2483
sg6
I44
sg7
I1
sg8
I3
sg9
I10
sg10
I1180
ssg15
(dp38
g5
I1027
sg6
I44
sg7
I1
sg8
I3
sg9
I4
sg10
I810
ssg17
(dp39
g5
I1028
sg6
I44
sg7
I0
sg8
I4
sg9
I6
sg10
I760
sss.(dp0
S'K_all3.csv'
p1
(dp2
S'machine'
p3
(dp4
S'count'
p5
I625
sS'truepos'
p6
I34
sS'falseneg'
p7
I4
sS'unknownyes'
p8
I7
sS'falsepos'
p9
I3
sS'unique'
p10
I510
ssS'none'
p11
(dp12
g5
I390
sg6
I30
sg7
I0
sg8
I15
sg9
I18
sg10
I390
ssS'three'
p13
(dp14
g5
I1136
sg6
I33
sg7
I0
sg8
I12
sg9
I6
sg10
I540
ssS'machine3'
p15
(dp16
g5
I606
sg6
I37
sg7
I1
sg8
I7
sg9
I1
sg10
I510
ssS'machine2'
p17
(dp18
g5
I589
sg6
I31
sg7
I2
sg8
I12
sg9
I6
sg10
I470
sssS'Wahono.csv'
p19
(dp20
g3
(dp21
g5
I1642
sg6
I59
sg7
I2
sg8
I1
sg9
I1
sg10
I1290
ssg11
(dp22
g5
I1500
sg6
I56
sg7
I3
sg8
I3
sg9
I55
sg10
I1500
ssg13
(dp23
g5
I2903
sg6
I57
sg7
I3
sg8
I2
sg9
I9
sg10
I1390
ssg15
(dp24
g5
I1431
sg6
I57
sg7
I2
sg8
I3
sg9
I0
sg10
I1130
ssg17
(dp25
g5
I1956
sg6
I61
sg7
I0
sg8
I1
sg9
I11
sg10
I1460
sssS'Hall.csv'
p26
(dp27
g3
(dp28
g5
I602
sg6
I102
sg7
I0
sg8
I4
sg9
I3
sg10
I430
ssg11
(dp29
g5
I2020
sg6
I96
sg7
I7
sg8
I3
sg9
I72
sg10
I2020
ssg13
(dp30
g5
I1152
sg6
I100
sg7
I2
sg8
I4
sg9
I5
sg10
I550
ssg15
(dp31
g5
I697
sg6
I101
sg7
I1
sg8
I4
sg9
I0
sg10
I470
ssg17
(dp32
g5
I1054
sg6
I101
sg7
I1
sg8
I4
sg9
I8
sg10
I710
sssS'Danijel.csv'
p33
(dp34
g3
(dp35
g5
I911
sg6
I44
sg7
I1
sg8
I3
sg9
I4
sg10
I710
ssg11
(dp36
g5
I1090
sg6
I41
sg7
I3
sg8
I4
sg9
I49
sg10
I1090
ssg13
(dp37
g5
I1849
sg6
I45
sg7
I0
sg8
I3
sg9
I9
sg10
I890
ssg15
(dp38
g5
I764
sg6
I43
sg7
I2
sg8
I3
sg9
I2
sg10
I590
ssg17
(dp39
g5
I1269
sg6
I45
sg7
I0
sg8
I3
sg9
I3
sg10
I960
sss.(dp0
S'K_all3.csv'
p1
(dp2
S'machine'
p3
(dp4
S'count'
p5
I633
sS'truepos'
p6
I32
sS'falseneg'
p7
I4
sS'unknownyes'
p8
I9
sS'falsepos'
p9
I0
sS'unique'
p10
I510
ssS'none'
p11
(dp12
g5
I550
sg6
I34
sg7
I3
sg8
I8
sg9
I25
sg10
I550
ssS'three'
p13
(dp14
g5
I1011
sg6
I34
sg7
I0
sg8
I11
sg9
I4
sg10
I480
ssS'machine3'
p15
(dp16
g5
I662
sg6
I38
sg7
I2
sg8
I5
sg9
I0
sg10
I540
ssS'machine2'
p17
(dp18
g5
I587
sg6
I31
sg7
I3
sg8
I11
sg9
I2
sg10
I460
sssS'Wahono.csv'
p19
(dp20
g3
(dp21
g5
I1634
sg6
I58
sg7
I1
sg8
I3
sg9
I6
sg10
I1280
ssg11
(dp22
g5
I1890
sg6
I57
sg7
I4
sg8
I1
sg9
I90
sg10
I1890
ssg13
(dp23
g5
I2770
sg6
I57
sg7
I2
sg8
I3
sg9
I11
sg10
I1320
ssg15
(dp24
g5
I1550
sg6
I59
sg7
I0
sg8
I3
sg9
I3
sg10
I1200
ssg17
(dp25
g5
I1524
sg6
I58
sg7
I1
sg8
I3
sg9
I3
sg10
I1160
sssS'Hall.csv'
p26
(dp27
g3
(dp28
g5
I651
sg6
I98
sg7
I4
sg8
I4
sg9
I2
sg10
I460
ssg11
(dp29
g5
I1570
sg6
I99
sg7
I4
sg8
I3
sg9
I70
sg10
I1570
ssg13
(dp30
g5
I1123
sg6
I101
sg7
I1
sg8
I4
sg9
I5
sg10
I540
ssg15
(dp31
g5
I673
sg6
I99
sg7
I2
sg8
I5
sg9
I2
sg10
I460
ssg17
(dp32
g5
I685
sg6
I101
sg7
I1
sg8
I4
sg9
I4
sg10
I470
sssS'Danijel.csv'
p33
(dp34
g3
(dp35
g5
I1135
sg6
I45
sg7
I1
sg8
I2
sg9
I6
sg10
I870
ssg11
(dp36
g5
I880
sg6
I38
sg7
I6
sg8
I4
sg9
I41
sg10
I880
ssg13
(dp37
g5
I1693
sg6
I43
sg7
I2
sg8
I3
sg9
I6
sg10
I810
ssg15
(dp38
g5
I953
sg6
I43
sg7
I2
sg8
I3
sg9
I1
sg10
I730
ssg17
(dp39
g5
I1147
sg6
I44
sg7
I1
sg8
I3
sg9
I4
sg10
I860
sss.(dp0
S'K_all3.csv'
p1
(dp2
S'machine'
p3
(dp4
S'count'
p5
I579
sS'truepos'
p6
I35
sS'falseneg'
p7
I0
sS'unknownyes'
p8
I10
sS'falsepos'
p9
I1
sS'unique'
p10
I460
ssS'none'
p11
(dp12
g5
I420
sg6
I34
sg7
I1
sg8
I10
sg9
I16
sg10
I420
ssS'three'
p13
(dp14
g5
I1088
sg6
I36
sg7
I0
sg8
I9
sg9
I1
sg10
I520
ssS'machine3'
p15
(dp16
g5
I580
sg6
I37
sg7
I2
sg8
I6
sg9
I2
sg10
I470
ssS'machine2'
p17
(dp18
g5
I633
sg6
I34
sg7
I1
sg8
I10
sg9
I2
sg10
I490
sssS'Wahono.csv'
p19
(dp20
g3
(dp21
g5
I1370
sg6
I57
sg7
I1
sg8
I4
sg9
I6
sg10
I1060
ssg11
(dp22
g5
I2220
sg6
I52
sg7
I6
sg8
I4
sg9
I120
sg10
I2220
ssg13
(dp23
g5
I2725
sg6
I58
sg7
I0
sg8
I4
sg9
I9
sg10
I1290
ssg15
(dp24
g5
I1601
sg6
I58
sg7
I1
sg8
I3
sg9
I3
sg10
I1250
ssg17
(dp25
g5
I1477
sg6
I59
sg7
I0
sg8
I3
sg9
I6
sg10
I1110
sssS'Hall.csv'
p26
(dp27
g3
(dp28
g5
I742
sg6
I99
sg7
I2
sg8
I5
sg9
I1
sg10
I530
ssg11
(dp29
g5
I1290
sg6
I96
sg7
I6
sg8
I4
sg9
I65
sg10
I1290
ssg13
(dp30
g5
I1314
sg6
I102
sg7
I0
sg8
I4
sg9
I5
sg10
I620
ssg15
(dp31
g5
I592
sg6
I97
sg7
I4
sg8
I5
sg9
I1
sg10
I410
ssg17
(dp32
g5
I721
sg6
I102
sg7
I0
sg8
I4
sg9
I6
sg10
I510
sssS'Danijel.csv'
p33
(dp34
g3
(dp35
g5
I1366
sg6
I44
sg7
I2
sg8
I2
sg9
I5
sg10
I1060
ssg11
(dp36
g5
I910
sg6
I43
sg7
I1
sg8
I4
sg9
I38
sg10
I910
ssg13
(dp37
g5
I1669
sg6
I45
sg7
I0
sg8
I3
sg9
I5
sg10
I800
ssg15
(dp38
g5
I1148
sg6
I42
sg7
I4
sg8
I2
sg9
I2
sg10
I910
ssg17
(dp39
g5
I997
sg6
I44
sg7
I1
sg8
I3
sg9
I3
sg10
I760
sss.(dp0
S'K_all3.csv'
p1
(dp2
S'machine'
p3
(dp4
S'count'
p5
I560
sS'truepos'
p6
I35
sS'falseneg'
p7
I1
sS'unknownyes'
p8
I9
sS'falsepos'
p9
I1
sS'unique'
p10
I450
ssS'none'
p11
(dp12
g5
I430
sg6
I32
sg7
I3
sg8
I10
sg9
I20
sg10
I430
ssS'three'
p13
(dp14
g5
I999
sg6
I37
sg7
I0
sg8
I8
sg9
I1
sg10
I480
ssS'machine3'
p15
(dp16
g5
I519
sg6
I32
sg7
I1
sg8
I12
sg9
I2
sg10
I430
ssS'machine2'
p17
(dp18
g5
I533
sg6
I32
sg7
I1
sg8
I12
sg9
I7
sg10
I410
sssS'Wahono.csv'
p19
(dp20
g3
(dp21
g5
I1483
sg6
I58
sg7
I1
sg8
I3
sg9
I7
sg10
I1160
ssg11
(dp22
g5
I2090
sg6
I59
sg7
I2
sg8
I1
sg9
I112
sg10
I2090
ssg13
(dp23
g5
I3273
sg6
I59
sg7
I0
sg8
I3
sg9
I18
sg10
I1560
ssg15
(dp24
g5
I1354
sg6
I57
sg7
I3
sg8
I2
sg9
I2
sg10
I1060
ssg17
(dp25
g5
I1672
sg6
I59
sg7
I0
sg8
I3
sg9
I5
sg10
I1260
sssS'Hall.csv'
p26
(dp27
g3
(dp28
g5
I682
sg6
I99
sg7
I2
sg8
I5
sg9
I2
sg10
I490
ssg11
(dp29
g5
I910
sg6
I93
sg7
I9
sg8
I4
sg9
I37
sg10
I910
ssg13
(dp30
g5
I1387
sg6
I102
sg7
I0
sg8
I4
sg9
I6
sg10
I660
ssg15
(dp31
g5
I625
sg6
I99
sg7
I2
sg8
I5
sg9
I2
sg10
I420
ssg17
(dp32
g5
I599
sg6
I98
sg7
I2
sg8
I6
sg9
I2
sg10
I410
sssS'Danijel.csv'
p33
(dp34
g3
(dp35
g5
I930
sg6
I43
sg7
I1
sg8
I4
sg9
I4
sg10
I720
ssg11
(dp36
g5
I1610
sg6
I43
sg7
I2
sg8
I3
sg9
I91
sg10
I1610
ssg13
(dp37
g5
I1903
sg6
I46
sg7
I0
sg8
I2
sg9
I5
sg10
I910
ssg15
(dp38
g5
I991
sg6
I42
sg7
I4
sg8
I2
sg9
I3
sg10
I790
ssg17
(dp39
g5
I959
sg6
I45
sg7
I0
sg8
I3
sg9
I5
sg10
I710
sss.(dp0
S'K_all3.csv'
p1
(dp2
S'machine'
p3
(dp4
S'count'
p5
I607
sS'truepos'
p6
I29
sS'falseneg'
p7
I3
sS'unknownyes'
p8
I13
sS'falsepos'
p9
I4
sS'unique'
p10
I510
ssS'none'
p11
(dp12
g5
I340
sg6
I29
sg7
I0
sg8
I16
sg9
I13
sg10
I340
ssS'three'
p13
(dp14
g5
I1038
sg6
I35
sg7
I0
sg8
I10
sg9
I2
sg10
I500
ssS'machine3'
p15
(dp16
g5
I628
sg6
I37
sg7
I0
sg8
I8
sg9
I0
sg10
I510
ssS'machine2'
p17
(dp18
g5
I582
sg6
I34
sg7
I1
sg8
I10
sg9
I3
sg10
I460
sssS'Wahono.csv'
p19
(dp20
g3
(dp21
g5
I1537
sg6
I58
sg7
I1
sg8
I3
sg9
I5
sg10
I1190
ssg11
(dp22
g5
I2110
sg6
I59
sg7
I3
sg8
I0
sg9
I109
sg10
I2110
ssg13
(dp23
g5
I2301
sg6
I59
sg7
I0
sg8
I3
sg9
I1
sg10
I1100
ssg15
(dp24
g5
I1687
sg6
I55
sg7
I4
sg8
I3
sg9
I4
sg10
I1320
ssg17
(dp25
g5
I1605
sg6
I57
sg7
I2
sg8
I3
sg9
I8
sg10
I1210
sssS'Hall.csv'
p26
(dp27
g3
(dp28
g5
I810
sg6
I99
sg7
I3
sg8
I4
sg9
I0
sg10
I580
ssg11
(dp29
g5
I1960
sg6
I99
sg7
I3
sg8
I4
sg9
I81
sg10
I1960
ssg13
(dp30
g5
I1093
sg6
I102
sg7
I0
sg8
I4
sg9
I2
sg10
I520
ssg15
(dp31
g5
I606
sg6
I98
sg7
I3
sg8
I5
sg9
I2
sg10
I410
ssg17
(dp32
g5
I758
sg6
I99
sg7
I3
sg8
I4
sg9
I6
sg10
I520
sssS'Danijel.csv'
p33
(dp34
g3
(dp35
g5
I965
sg6
I39
sg7
I5
sg8
I4
sg9
I2
sg10
I760
ssg11
(dp36
g5
I650
sg6
I43
sg7
I1
sg8
I4
sg9
I36
sg10
I650
ssg13
(dp37
g5
I1643
sg6
I46
sg7
I0
sg8
I2
sg9
I4
sg10
I790
ssg15
(dp38
g5
I952
sg6
I44
sg7
I1
sg8
I3
sg9
I2
sg10
I750
ssg17
(dp39
g5
I1283
sg6
I45
sg7
I0
sg8
I3
sg9
I8
sg10
I960
sss.(dp0
S'K_all3.csv'
p1
(dp2
S'machine'
p3
(dp4
S'count'
p5
I626
sS'truepos'
p6
I37
sS'falseneg'
p7
I1
sS'unknownyes'
p8
I7
sS'falsepos'
p9
I4
sS'unique'
p10
I520
ssS'none'
p11
(dp12
g5
I450
sg6
I34
sg7
I2
sg8
I9
sg9
I16
sg10
I450
ssS'three'
p13
(dp14
g5
I990
sg6
I34
sg7
I0
sg8
I11
sg9
I1
sg10
I470
ssS'machine3'
p15
(dp16
g5
I636
sg6
I35
sg7
I2
sg8
I8
sg9
I1
sg10
I530
ssS'machine2'
p17
(dp18
g5
I594
sg6
I35
sg7
I2
sg8
I8
sg9
I2
sg10
I450
sssS'Wahono.csv'
p19
(dp20
g3
(dp21
g5
I1799
sg6
I59
sg7
I0
sg8
I3
sg9
I9
sg10
I1390
ssg11
(dp22
g5
I1730
sg6
I55
sg7
I3
sg8
I4
sg9
I80
sg10
I1730
ssg13
(dp23
g5
I2923
sg6
I59
sg7
I0
sg8
I3
sg9
I14
sg10
I1390
ssg15
(dp24
g5
I1588
sg6
I56
sg7
I3
sg8
I3
sg9
I5
sg10
I1240
ssg17
(dp25
g5
I1489
sg6
I58
sg7
I1
sg8
I3
sg9
I8
sg10
I1110
sssS'Hall.csv'
p26
(dp27
g3
(dp28
g5
I720
sg6
I100
sg7
I1
sg8
I5
sg9
I2
sg10
I510
ssg11
(dp29
g5
I1160
sg6
I98
sg7
I4
sg8
I4
sg9
I59
sg10
I1160
ssg13
(dp30
g5
I1218
sg6
I101
sg7
I1
sg8
I4
sg9
I4
sg10
I580
ssg15
(dp31
g5
I678
sg6
I99
sg7
I3
sg8
I4
sg9
I1
sg10
I460
ssg17
(dp32
g5
I652
sg6
I101
sg7
I1
sg8
I4
sg9
I7
sg10
I460
sssS'Danijel.csv'
p33
(dp34
g3
(dp35
g5
I983
sg6
I44
sg7
I1
sg8
I3
sg9
I2
sg10
I760
ssg11
(dp36
g5
I2020
sg6
I43
sg7
I3
sg8
I2
sg9
I92
sg10
I2020
ssg13
(dp37
g5
I1401
sg6
I45
sg7
I0
sg8
I3
sg9
I6
sg10
I670
ssg15
(dp38
g5
I1051
sg6
I45
sg7
I1
sg8
I2
sg9
I3
sg10
I810
ssg17
(dp39
g5
I997
sg6
I44
sg7
I0
sg8
I4
sg9
I5
sg10
I760
sss.(dp0
S'K_all3.csv'
p1
(dp2
S'machine'
p3
(dp4
S'count'
p5
I639
sS'truepos'
p6
I31
sS'falseneg'
p7
I3
sS'unknownyes'
p8
I11
sS'falsepos'
p9
I1
sS'unique'
p10
I520
ssS'none'
p11
(dp12
g5
I390
sg6
I30
sg7
I3
sg8
I12
sg9
I13
sg10
I390
ssS'three'
p13
(dp14
g5
I941
sg6
I35
sg7
I0
sg8
I10
sg9
I1
sg10
I450
ssS'machine3'
p15
(dp16
g5
I531
sg6
I34
sg7
I1
sg8
I10
sg9
I1
sg10
I440
ssS'machine2'
p17
(dp18
g5
I578
sg6
I35
sg7
I0
sg8
I10
sg9
I3
sg10
I450
sssS'Wahono.csv'
p19
(dp20
g3
(dp21
g5
I1362
sg6
I57
sg7
I2
sg8
I3
sg9
I2
sg10
I1070
ssg11
(dp22
g5
I2690
sg6
I57
sg7
I3
sg8
I2
sg9
I132
sg10
I2690
ssg13
(dp23
g5
I3361
sg6
I62
sg7
I0
sg8
I0
sg9
I16
sg10
I1610
ssg15
(dp24
g5
I1570
sg6
I55
sg7
I5
sg8
I2
sg9
I3
sg10
I1230
ssg17
(dp25
g5
I1503
sg6
I58
sg7
I0
sg8
I4
sg9
I8
sg10
I1110
sssS'Hall.csv'
p26
(dp27
g3
(dp28
g5
I730
sg6
I102
sg7
I0
sg8
I4
sg9
I2
sg10
I510
ssg11
(dp29
g5
I920
sg6
I97
sg7
I5
sg8
I4
sg9
I37
sg10
I920
ssg13
(dp30
g5
I1299
sg6
I100
sg7
I2
sg8
I4
sg9
I5
sg10
I620
ssg15
(dp31
g5
I721
sg6
I99
sg7
I3
sg8
I4
sg9
I2
sg10
I500
ssg17
(dp32
g5
I730
sg6
I100
sg7
I1
sg8
I5
sg9
I4
sg10
I510
sssS'Danijel.csv'
p33
(dp34
g3
(dp35
g5
I1032
sg6
I41
sg7
I3
sg8
I4
sg9
I3
sg10
I810
ssg11
(dp36
g5
I720
sg6
I43
sg7
I2
sg8
I3
sg9
I28
sg10
I720
ssg13
(dp37
g5
I1555
sg6
I46
sg7
I0
sg8
I2
sg9
I6
sg10
I740
ssg15
(dp38
g5
I1113
sg6
I44
sg7
I2
sg8
I2
sg9
I4
sg10
I860
ssg17
(dp39
g5
I990
sg6
I44
sg7
I1
sg8
I3
sg9
I4
sg10
I730
sss.(dp0
S'K_all3.csv'
p1
(dp2
S'machine'
p3
(dp4
S'count'
p5
I583
sS'truepos'
p6
I30
sS'falseneg'
p7
I3
sS'unknownyes'
p8
I12
sS'falsepos'
p9
I1
sS'unique'
p10
I460
ssS'none'
p11
(dp12
g5
I510
sg6
I39
sg7
I0
sg8
I6
sg9
I26
sg10
I510
ssS'three'
p13
(dp14
g5
I1010
sg6
I35
sg7
I1
sg8
I9
sg9
I2
sg10
I480
ssS'machine3'
p15
(dp16
g5
I652
sg6
I35
sg7
I2
sg8
I8
sg9
I3
sg10
I550
ssS'machine2'
p17
(dp18
g5
I579
sg6
I37
sg7
I2
sg8
I6
sg9
I0
sg10
I460
sssS'Wahono.csv'
p19
(dp20
g3
(dp21
g5
I1315
sg6
I57
sg7
I1
sg8
I4
sg9
I2
sg10
I1010
ssg11
(dp22
g5
I1990
sg6
I56
sg7
I3
sg8
I3
sg9
I104
sg10
I1990
ssg13
(dp23
g5
I3420
sg6
I59
sg7
I0
sg8
I3
sg9
I14
sg10
I1640
ssg15
(dp24
g5
I1499
sg6
I58
sg7
I1
sg8
I3
sg9
I1
sg10
I1170
ssg17
(dp25
g5
I1604
sg6
I58
sg7
I2
sg8
I2
sg9
I6
sg10
I1210
sssS'Hall.csv'
p26
(dp27
g3
(dp28
g5
I702
sg6
I100
sg7
I2
sg8
I4
sg9
I4
sg10
I510
ssg11
(dp29
g5
I1200
sg6
I100
sg7
I3
sg8
I3
sg9
I61
sg10
I1200
ssg13
(dp30
g5
I959
sg6
I101
sg7
I0
sg8
I5
sg9
I2
sg10
I460
ssg15
(dp31
g5
I785
sg6
I101
sg7
I0
sg8
I5
sg9
I2
sg10
I550
ssg17
(dp32
g5
I365
sg6
I90
sg7
I4
sg8
I12
sg9
I3
sg10
I260
sssS'Danijel.csv'
p33
(dp34
g3
(dp35
g5
I1119
sg6
I43
sg7
I2
sg8
I3
sg9
I2
sg10
I860
ssg11
(dp36
g5
I1850
sg6
I46
sg7
I0
sg8
I2
sg9
I85
sg10
I1850
ssg13
(dp37
g5
I1692
sg6
I46
sg7
I0
sg8
I2
sg9
I11
sg10
I810
ssg15
(dp38
g5
I913
sg6
I44
sg7
I2
sg8
I2
sg9
I0
sg10
I720
ssg17
(dp39
g5
I1001
sg6
I42
sg7
I3
sg8
I3
sg9
I4
sg10
I760
sss.(dp0
S'K_all3.csv'
p1
(dp2
S'machine'
p3
(dp4
S'count'
p5
I555
sS'truepos'
p6
I36
sS'falseneg'
p7
I1
sS'unknownyes'
p8
I8
sS'falsepos'
p9
I1
sS'unique'
p10
I450
ssS'none'
p11
(dp12
g5
I390
sg6
I36
sg7
I1
sg8
I8
sg9
I17
sg10
I390
ssS'three'
p13
(dp14
g5
I1109
sg6
I36
sg7
I1
sg8
I8
sg9
I0
sg10
I530
ssS'machine3'
p15
(dp16
g5
I612
sg6
I33
sg7
I2
sg8
I10
sg9
I1
sg10
I500
ssS'machine2'
p17
(dp18
g5
I551
sg6
I32
sg7
I0
sg8
I13
sg9
I2
sg10
I410
sssS'Wahono.csv'
p19
(dp20
g3
(dp21
g5
I1735
sg6
I58
sg7
I1
sg8
I3
sg9
I4
sg10
I1350
ssg11
(dp22
g5
I1710
sg6
I56
sg7
I4
sg8
I2
sg9
I71
sg10
I1710
ssg13
(dp23
g5
I3212
sg6
I59
sg7
I1
sg8
I2
sg9
I10
sg10
I1530
ssg15
(dp24
g5
I1449
sg6
I59
sg7
I0
sg8
I3
sg9
I2
sg10
I1120
ssg17
(dp25
g5
I1744
sg6
I59
sg7
I0
sg8
I3
sg9
I9
sg10
I1310
sssS'Hall.csv'
p26
(dp27
g3
(dp28
g5
I710
sg6
I98
sg7
I4
sg8
I4
sg9
I2
sg10
I510
ssg11
(dp29
g5
I1670
sg6
I94
sg7
I9
sg8
I3
sg9
I77
sg10
I1670
ssg13
(dp30
g5
I1135
sg6
I101
sg7
I1
sg8
I4
sg9
I4
sg10
I540
ssg15
(dp31
g5
I757
sg6
I100
sg7
I2
sg8
I4
sg9
I1
sg10
I530
ssg17
(dp32
g5
I678
sg6
I100
sg7
I1
sg8
I5
sg9
I3
sg10
I470
sssS'Danijel.csv'
p33
(dp34
g3
(dp35
g5
I993
sg6
I43
sg7
I2
sg8
I3
sg9
I0
sg10
I760
ssg11
(dp36
g5
I1650
sg6
I43
sg7
I3
sg8
I2
sg9
I75
sg10
I1650
ssg13
(dp37
g5
I1825
sg6
I44
sg7
I0
sg8
I4
sg9
I8
sg10
I870
ssg15
(dp38
g5
I980
sg6
I45
sg7
I1
sg8
I2
sg9
I6
sg10
I760
ssg17
(dp39
g5
I1224
sg6
I44
sg7
I1
sg8
I3
sg9
I5
sg10
I910
sss.(dp0
S'K_all3.csv'
p1
(dp2
S'machine'
p3
(dp4
S'count'
p5
I561
sS'truepos'
p6
I33
sS'falseneg'
p7
I3
sS'unknownyes'
p8
I9
sS'falsepos'
p9
I1
sS'unique'
p10
I460
ssS'none'
p11
(dp12
g5
I430
sg6
I31
sg7
I1
sg8
I13
sg9
I27
sg10
I430
ssS'three'
p13
(dp14
g5
I962
sg6
I36
sg7
I0
sg8
I9
sg9
I2
sg10
I460
ssS'machine3'
p15
(dp16
g5
I640
sg6
I34
sg7
I2
sg8
I9
sg9
I2
sg10
I550
ssS'machine2'
p17
(dp18
g5
I596
sg6
I31
sg7
I2
sg8
I12
sg9
I6
sg10
I460
sssS'Wahono.csv'
p19
(dp20
g3
(dp21
g5
I1518
sg6
I57
sg7
I1
sg8
I4
sg9
I5
sg10
I1160
ssg11
(dp22
g5
I1920
sg6
I57
sg7
I2
sg8
I3
sg9
I116
sg10
I1920
ssg13
(dp23
g5
I2989
sg6
I59
sg7
I0
sg8
I3
sg9
I8
sg10
I1430
ssg15
(dp24
g5
I1513
sg6
I55
sg7
I5
sg8
I2
sg9
I6
sg10
I1170
ssg17
(dp25
g5
I1730
sg6
I56
sg7
I3
sg8
I3
sg9
I7
sg10
I1310
sssS'Hall.csv'
p26
(dp27
g3
(dp28
g5
I582
sg6
I98
sg7
I3
sg8
I5
sg9
I3
sg10
I410
ssg11
(dp29
g5
I1950
sg6
I95
sg7
I7
sg8
I4
sg9
I95
sg10
I1950
ssg13
(dp30
g5
I1116
sg6
I101
sg7
I1
sg8
I4
sg9
I3
sg10
I530
ssg15
(dp31
g5
I668
sg6
I98
sg7
I3
sg8
I5
sg9
I2
sg10
I460
ssg17
(dp32
g5
I817
sg6
I102
sg7
I0
sg8
I4
sg9
I5
sg10
I560
sssS'Danijel.csv'
p33
(dp34
g3
(dp35
g5
I671
sg6
I40
sg7
I2
sg8
I6
sg9
I1
sg10
I510
ssg11
(dp36
g5
I740
sg6
I44
sg7
I1
sg8
I3
sg9
I33
sg10
I740
ssg13
(dp37
g5
I1746
sg6
I46
sg7
I0
sg8
I2
sg9
I5
sg10
I830
ssg15
(dp38
g5
I1006
sg6
I38
sg7
I5
sg8
I5
sg9
I3
sg10
I790
ssg17
(dp39
g5
I1074
sg6
I44
sg7
I1
sg8
I3
sg9
I1
sg10
I820
sss.(dp0
S'K_all3.csv'
p1
(dp2
S'machine'
p3
(dp4
S'count'
p5
I586
sS'truepos'
p6
I35
sS'falseneg'
p7
I1
sS'unknownyes'
p8
I9
sS'falsepos'
p9
I1
sS'unique'
p10
I460
ssS'none'
p11
(dp12
g5
I550
sg6
I27
sg7
I3
sg8
I15
sg9
I27
sg10
I550
ssS'three'
p13
(dp14
g5
I989
sg6
I37
sg7
I0
sg8
I8
sg9
I2
sg10
I470
ssS'machine3'
p15
(dp16
g5
I517
sg6
I29
sg7
I5
sg8
I11
sg9
I5
sg10
I450
ssS'machine2'
p17
(dp18
g5
I593
sg6
I31
sg7
I2
sg8
I12
sg9
I5
sg10
I460
sssS'Wahono.csv'
p19
(dp20
g3
(dp21
g5
I1628
sg6
I59
sg7
I0
sg8
I3
sg9
I4
sg10
I1260
ssg11
(dp22
g5
I1770
sg6
I53
sg7
I2
sg8
I7
sg9
I90
sg10
I1770
ssg13
(dp23
g5
I2865
sg6
I59
sg7
I0
sg8
I3
sg9
I8
sg10
I1370
ssg15
(dp24
g5
I1672
sg6
I57
sg7
I2
sg8
I3
sg9
I4
sg10
I1310
ssg17
(dp25
g5
I1835
sg6
I59
sg7
I0
sg8
I3
sg9
I4
sg10
I1360
sssS'Hall.csv'
p26
(dp27
g3
(dp28
g5
I564
sg6
I96
sg7
I5
sg8
I5
sg9
I3
sg10
I410
ssg11
(dp29
g5
I1190
sg6
I95
sg7
I7
sg8
I4
sg9
I48
sg10
I1190
ssg13
(dp30
g5
I987
sg6
I100
sg7
I1
sg8
I5
sg9
I1
sg10
I470
ssg15
(dp31
g5
I642
sg6
I99
sg7
I3
sg8
I4
sg9
I2
sg10
I440
ssg17
(dp32
g5
I836
sg6
I100
sg7
I2
sg8
I4
sg9
I3
sg10
I580
sssS'Danijel.csv'
p33
(dp34
g3
(dp35
g5
I939
sg6
I42
sg7
I1
sg8
I5
sg9
I4
sg10
I720
ssg11
(dp36
g5
I2200
sg6
I43
sg7
I3
sg8
I2
sg9
I108
sg10
I2200
ssg13
(dp37
g5
I1887
sg6
I45
sg7
I0
sg8
I3
sg9
I7
sg10
I900
ssg15
(dp38
g5
I955
sg6
I43
sg7
I3
sg8
I2
sg9
I4
sg10
I750
ssg17
(dp39
g5
I1696
sg6
I45
sg7
I0
sg8
I3
sg9
I11
sg10
I1280
sss.(dp0
S'K_all3.csv'
p1
(dp2
S'machine'
p3
(dp4
S'count'
p5
I640
sS'truepos'
p6
I34
sS'falseneg'
p7
I4
sS'unknownyes'
p8
I7
sS'falsepos'
p9
I0
sS'unique'
p10
I550
ssS'none'
p11
(dp12
g5
I490
sg6
I35
sg7
I1
sg8
I9
sg9
I25
sg10
I490
ssS'three'
p13
(dp14
g5
I1026
sg6
I35
sg7
I0
sg8
I10
sg9
I2
sg10
I490
ssS'machine3'
p15
(dp16
g5
I594
sg6
I34
sg7
I5
sg8
I6
sg9
I3
sg10
I480
ssS'machine2'
p17
(dp18
g5
I659
sg6
I35
sg7
I0
sg8
I10
sg9
I2
sg10
I510
sssS'Wahono.csv'
p19
(dp20
g3
(dp21
g5
I1889
sg6
I59
sg7
I2
sg8
I1
sg9
I12
sg10
I1460
ssg11
(dp22
g5
I1770
sg6
I59
sg7
I0
sg8
I3
sg9
I84
sg10
I1770
ssg13
(dp23
g5
I2426
sg6
I58
sg7
I1
sg8
I3
sg9
I9
sg10
I1170
ssg15
(dp24
g5
I1187
sg6
I56
sg7
I3
sg8
I3
sg9
I5
sg10
I920
ssg17
(dp25
g5
I1956
sg6
I61
sg7
I0
sg8
I1
sg9
I7
sg10
I1460
sssS'Hall.csv'
p26
(dp27
g3
(dp28
g5
I674
sg6
I100
sg7
I2
sg8
I4
sg9
I5
sg10
I480
ssg11
(dp29
g5
I1950
sg6
I100
sg7
I3
sg8
I3
sg9
I90
sg10
I1950
ssg13
(dp30
g5
I1289
sg6
I101
sg7
I1
sg8
I4
sg9
I5
sg10
I610
ssg15
(dp31
g5
I655
sg6
I100
sg7
I2
sg8
I4
sg9
I2
sg10
I450
ssg17
(dp32
g5
I753
sg6
I99
sg7
I3
sg8
I4
sg9
I1
sg10
I510
sssS'Danijel.csv'
p33
(dp34
g3
(dp35
g5
I1198
sg6
I43
sg7
I2
sg8
I3
sg9
I2
sg10
I930
ssg11
(dp36
g5
I1220
sg6
I39
sg7
I5
sg8
I4
sg9
I56
sg10
I1220
ssg13
(dp37
g5
I2210
sg6
I46
sg7
I0
sg8
I2
sg9
I11
sg10
I1050
ssg15
(dp38
g5
I1049
sg6
I43
sg7
I3
sg8
I2
sg9
I2
sg10
I840
ssg17
(dp39
g5
I1041
sg6
I44
sg7
I1
sg8
I3
sg9
I3
sg10
I790
sss.(dp0
S'K_all3.csv'
p1
(dp2
S'machine'
p3
(dp4
S'count'
p5
I593
sS'truepos'
p6
I31
sS'falseneg'
p7
I4
sS'unknownyes'
p8
I10
sS'falsepos'
p9
I2
sS'unique'
p10
I510
ssS'none'
p11
(dp12
g5
I500
sg6
I36
sg7
I2
sg8
I7
sg9
I18
sg10
I500
ssS'three'
p13
(dp14
g5
I960
sg6
I34
sg7
I1
sg8
I10
sg9
I4
sg10
I450
ssS'machine3'
p15
(dp16
g5
I670
sg6
I36
sg7
I2
sg8
I7
sg9
I1
sg10
I570
ssS'machine2'
p17
(dp18
g5
I559
sg6
I35
sg7
I0
sg8
I10
sg9
I5
sg10
I420
sssS'Wahono.csv'
p19
(dp20
g3
(dp21
g5
I2120
sg6
I60
sg7
I1
sg8
I1
sg9
I10
sg10
I1660
ssg11
(dp22
g5
I2660
sg6
I58
sg7
I2
sg8
I2
sg9
I117
sg10
I2660
ssg13
(dp23
g5
I2734
sg6
I59
sg7
I0
sg8
I3
sg9
I3
sg10
I1300
ssg15
(dp24
g5
I1349
sg6
I58
sg7
I1
sg8
I3
sg9
I0
sg10
I1040
ssg17
(dp25
g5
I1581
sg6
I59
sg7
I1
sg8
I2
sg9
I5
sg10
I1210
sssS'Hall.csv'
p26
(dp27
g3
(dp28
g5
I600
sg6
I99
sg7
I3
sg8
I4
sg9
I4
sg10
I420
ssg11
(dp29
g5
I1410
sg6
I94
sg7
I8
sg8
I4
sg9
I56
sg10
I1410
ssg13
(dp30
g5
I986
sg6
I98
sg7
I3
sg8
I5
sg9
I3
sg10
I470
ssg15
(dp31
g5
I635
sg6
I96
sg7
I5
sg8
I5
sg9
I2
sg10
I430
ssg17
(dp32
g5
I779
sg6
I100
sg7
I2
sg8
I4
sg9
I6
sg10
I540
sssS'Danijel.csv'
p33
(dp34
g3
(dp35
g5
I984
sg6
I44
sg7
I1
sg8
I3
sg9
I1
sg10
I760
ssg11
(dp36
g5
I910
sg6
I45
sg7
I0
sg8
I3
sg9
I36
sg10
I910
ssg13
(dp37
g5
I1620
sg6
I46
sg7
I0
sg8
I2
sg9
I2
sg10
I770
ssg15
(dp38
g5
I921
sg6
I46
sg7
I0
sg8
I2
sg9
I2
sg10
I710
ssg17
(dp39
g5
I1069
sg6
I45
sg7
I0
sg8
I3
sg9
I4
sg10
I810
sss.(dp0
S'K_all3.csv'
p1
(dp2
S'machine'
p3
(dp4
S'count'
p5
I558
sS'truepos'
p6
I34
sS'falseneg'
p7
I3
sS'unknownyes'
p8
I8
sS'falsepos'
p9
I1
sS'unique'
p10
I450
ssS'none'
p11
(dp12
g5
I430
sg6
I31
sg7
I1
sg8
I13
sg9
I11
sg10
I430
ssS'three'
p13
(dp14
g5
I924
sg6
I31
sg7
I0
sg8
I14
sg9
I6
sg10
I440
ssS'machine3'
p15
(dp16
g5
I581
sg6
I32
sg7
I2
sg8
I11
sg9
I3
sg10
I480
ssS'machine2'
p17
(dp18
g5
I533
sg6
I34
sg7
I1
sg8
I10
sg9
I4
sg10
I410
sssS'Wahono.csv'
p19
(dp20
g3
(dp21
g5
I1447
sg6
I59
sg7
I0
sg8
I3
sg9
I1
sg10
I1110
ssg11
(dp22
g5
I2810
sg6
I59
sg7
I2
sg8
I1
sg9
I147
sg10
I2810
ssg13
(dp23
g5
I3025
sg6
I60
sg7
I1
sg8
I1
sg9
I7
sg10
I1440
ssg15
(dp24
g5
I1671
sg6
I56
sg7
I3
sg8
I3
sg9
I0
sg10
I1330
ssg17
(dp25
g5
I1561
sg6
I59
sg7
I0
sg8
I3
sg9
I4
sg10
I1160
sssS'Hall.csv'
p26
(dp27
g3
(dp28
g5
I630
sg6
I100
sg7
I2
sg8
I4
sg9
I3
sg10
I450
ssg11
(dp29
g5
I1380
sg6
I98
sg7
I5
sg8
I3
sg9
I61
sg10
I1380
ssg13
(dp30
g5
I1004
sg6
I101
sg7
I1
sg8
I4
sg9
I5
sg10
I480
ssg15
(dp31
g5
I709
sg6
I99
sg7
I2
sg8
I5
sg9
I2
sg10
I490
ssg17
(dp32
g5
I683
sg6
I101
sg7
I1
sg8
I4
sg9
I4
sg10
I470
sssS'Danijel.csv'
p33
(dp34
g3
(dp35
g5
I709
sg6
I41
sg7
I2
sg8
I5
sg9
I2
sg10
I560
ssg11
(dp36
g5
I1040
sg6
I42
sg7
I3
sg8
I3
sg9
I38
sg10
I1040
ssg13
(dp37
g5
I1794
sg6
I46
sg7
I0
sg8
I2
sg9
I5
sg10
I860
ssg15
(dp38
g5
I826
sg6
I43
sg7
I2
sg8
I3
sg9
I0
sg10
I650
ssg17
(dp39
g5
I914
sg6
I40
sg7
I3
sg8
I5
sg9
I2
sg10
I710
sss.(dp0
S'K_all3.csv'
p1
(dp2
S'machine'
p3
(dp4
S'count'
p5
I596
sS'truepos'
p6
I33
sS'falseneg'
p7
I5
sS'unknownyes'
p8
I7
sS'falsepos'
p9
I0
sS'unique'
p10
I510
ssS'none'
p11
(dp12
g5
I410
sg6
I36
sg7
I1
sg8
I8
sg9
I23
sg10
I410
ssS'three'
p13
(dp14
g5
I1110
sg6
I33
sg7
I0
sg8
I12
sg9
I5
sg10
I530
ssS'machine3'
p15
(dp16
g5
I645
sg6
I35
sg7
I0
sg8
I10
sg9
I4
sg10
I530
ssS'machine2'
p17
(dp18
g5
I526
sg6
I34
sg7
I1
sg8
I10
sg9
I3
sg10
I410
sssS'Wahono.csv'
p19
(dp20
g3
(dp21
g5
I1602
sg6
I59
sg7
I2
sg8
I1
sg9
I7
sg10
I1260
ssg11
(dp22
g5
I1610
sg6
I58
sg7
I1
sg8
I3
sg9
I82
sg10
I1610
ssg13
(dp23
g5
I3224
sg6
I58
sg7
I2
sg8
I2
sg9
I12
sg10
I1540
ssg15
(dp24
g5
I1562
sg6
I59
sg7
I0
sg8
I3
sg9
I5
sg10
I1220
ssg17
(dp25
g5
I1735
sg6
I58
sg7
I1
sg8
I3
sg9
I7
sg10
I1310
sssS'Hall.csv'
p26
(dp27
g3
(dp28
g5
I703
sg6
I99
sg7
I3
sg8
I4
sg9
I5
sg10
I510
ssg11
(dp29
g5
I950
sg6
I98
sg7
I4
sg8
I4
sg9
I41
sg10
I950
ssg13
(dp30
g5
I1246
sg6
I101
sg7
I1
sg8
I4
sg9
I5
sg10
I590
ssg15
(dp31
g5
I802
sg6
I102
sg7
I0
sg8
I4
sg9
I2
sg10
I560
ssg17
(dp32
g5
I765
sg6
I100
sg7
I2
sg8
I4
sg9
I2
sg10
I520
sssS'Danijel.csv'
p33
(dp34
g3
(dp35
g5
I769
sg6
I40
sg7
I3
sg8
I5
sg9
I1
sg10
I610
ssg11
(dp36
g5
I2690
sg6
I43
sg7
I3
sg8
I2
sg9
I145
sg10
I2690
ssg13
(dp37
g5
I1824
sg6
I45
sg7
I0
sg8
I3
sg9
I7
sg10
I870
ssg15
(dp38
g5
I975
sg6
I44
sg7
I1
sg8
I3
sg9
I1
sg10
I770
ssg17
(dp39
g5
I697
sg6
I43
sg7
I0
sg8
I5
sg9
I2
sg10
I510
sss.(dp0
S'K_all3.csv'
p1
(dp2
S'machine'
p3
(dp4
S'count'
p5
I664
sS'truepos'
p6
I33
sS'falseneg'
p7
I3
sS'unknownyes'
p8
I9
sS'falsepos'
p9
I4
sS'unique'
p10
I550
ssS'none'
p11
(dp12
g5
I430
sg6
I33
sg7
I2
sg8
I10
sg9
I24
sg10
I430
ssS'three'
p13
(dp14
g5
I1020
sg6
I33
sg7
I2
sg8
I10
sg9
I6
sg10
I490
ssS'machine3'
p15
(dp16
g5
I683
sg6
I34
sg7
I4
sg8
I7
sg9
I0
sg10
I570
ssS'machine2'
p17
(dp18
g5
I586
sg6
I34
sg7
I2
sg8
I9
sg9
I5
sg10
I460
sssS'Wahono.csv'
p19
(dp20
g3
(dp21
g5
I1241
sg6
I55
sg7
I3
sg8
I4
sg9
I2
sg10
I960
ssg11
(dp22
g5
I2520
sg6
I55
sg7
I4
sg8
I3
sg9
I136
sg10
I2520
ssg13
(dp23
g5
I3114
sg6
I61
sg7
I0
sg8
I1
sg9
I10
sg10
I1490
ssg15
(dp24
g5
I1448
sg6
I59
sg7
I0
sg8
I3
sg9
I3
sg10
I1130
ssg17
(dp25
g5
I2069
sg6
I55
sg7
I4
sg8
I3
sg9
I13
sg10
I1560
sssS'Hall.csv'
p26
(dp27
g3
(dp28
g5
I654
sg6
I98
sg7
I4
sg8
I4
sg9
I2
sg10
I460
ssg11
(dp29
g5
I1750
sg6
I98
sg7
I4
sg8
I4
sg9
I93
sg10
I1750
ssg13
(dp30
g5
I1150
sg6
I101
sg7
I1
sg8
I4
sg9
I2
sg10
I550
ssg15
(dp31
g5
I693
sg6
I101
sg7
I1
sg8
I4
sg9
I1
sg10
I470
ssg17
(dp32
g5
I773
sg6
I101
sg7
I1
sg8
I4
sg9
I3
sg10
I540
sssS'Danijel.csv'
p33
(dp34
g3
(dp35
g5
I1054
sg6
I45
sg7
I0
sg8
I3
sg9
I0
sg10
I810
ssg11
(dp36
g5
I1020
sg6
I44
sg7
I0
sg8
I4
sg9
I51
sg10
I1020
ssg13
(dp37
g5
I1612
sg6
I45
sg7
I0
sg8
I3
sg9
I4
sg10
I770
ssg15
(dp38
g5
I957
sg6
I42
sg7
I2
sg8
I4
sg9
I4
sg10
I740
ssg17
(dp39
g5
I1650
sg6
I45
sg7
I0
sg8
I3
sg9
I7
sg10
I1260
sss.(dp0
S'K_all3.csv'
p1
(dp2
S'machine'
p3
(dp4
S'count'
p5
I655
sS'truepos'
p6
I36
sS'falseneg'
p7
I2
sS'unknownyes'
p8
I7
sS'falsepos'
p9
I1
sS'unique'
p10
I540
ssS'none'
p11
(dp12
g5
I400
sg6
I31
sg7
I1
sg8
I13
sg9
I17
sg10
I400
ssS'three'
p13
(dp14
g5
I926
sg6
I35
sg7
I0
sg8
I10
sg9
I3
sg10
I440
ssS'machine3'
p15
(dp16
g5
I680
sg6
I32
sg7
I4
sg8
I9
sg9
I1
sg10
I570
ssS'machine2'
p17
(dp18
g5
I531
sg6
I32
sg7
I2
sg8
I11
sg9
I4
sg10
I410
sssS'Wahono.csv'
p19
(dp20
g3
(dp21
g5
I1571
sg6
I59
sg7
I0
sg8
I3
sg9
I3
sg10
I1210
ssg11
(dp22
g5
I2840
sg6
I57
sg7
I3
sg8
I2
sg9
I161
sg10
I2840
ssg13
(dp23
g5
I2959
sg6
I59
sg7
I0
sg8
I3
sg9
I11
sg10
I1410
ssg15
(dp24
g5
I1609
sg6
I57
sg7
I2
sg8
I3
sg9
I4
sg10
I1260
ssg17
(dp25
g5
I1842
sg6
I58
sg7
I1
sg8
I3
sg9
I5
sg10
I1370
sssS'Hall.csv'
p26
(dp27
g3
(dp28
g5
I540
sg6
I95
sg7
I3
sg8
I8
sg9
I4
sg10
I380
ssg11
(dp29
g5
I1100
sg6
I99
sg7
I4
sg8
I3
sg9
I46
sg10
I1100
ssg13
(dp30
g5
I1221
sg6
I102
sg7
I0
sg8
I4
sg9
I7
sg10
I580
ssg15
(dp31
g5
I655
sg6
I101
sg7
I1
sg8
I4
sg9
I1
sg10
I450
ssg17
(dp32
g5
I695
sg6
I99
sg7
I3
sg8
I4
sg9
I8
sg10
I480
sssS'Danijel.csv'
p33
(dp34
g3
(dp35
g5
I1591
sg6
I41
sg7
I4
sg8
I3
sg9
I7
sg10
I1260
ssg11
(dp36
g5
I1060
sg6
I41
sg7
I4
sg8
I3
sg9
I47
sg10
I1060
ssg13
(dp37
g5
I1775
sg6
I46
sg7
I0
sg8
I2
sg9
I8
sg10
I850
ssg15
(dp38
g5
I1153
sg6
I45
sg7
I1
sg8
I2
sg9
I9
sg10
I900
ssg17
(dp39
g5
I1089
sg6
I42
sg7
I2
sg8
I4
sg9
I3
sg10
I810
sss.(dp0
S'K_all3.csv'
p1
(dp2
S'machine'
p3
(dp4
S'count'
p5
I538
sS'truepos'
p6
I34
sS'falseneg'
p7
I1
sS'unknownyes'
p8
I10
sS'falsepos'
p9
I4
sS'unique'
p10
I440
ssS'none'
p11
(dp12
g5
I510
sg6
I37
sg7
I3
sg8
I5
sg9
I21
sg10
I510
ssS'three'
p13
(dp14
g5
I909
sg6
I35
sg7
I0
sg8
I10
sg9
I3
sg10
I430
ssS'machine3'
p15
(dp16
g5
I586
sg6
I34
sg7
I3
sg8
I8
sg9
I1
sg10
I490
ssS'machine2'
p17
(dp18
g5
I641
sg6
I34
sg7
I2
sg8
I9
sg9
I1
sg10
I510
sssS'Wahono.csv'
p19
(dp20
g3
(dp21
g5
I1361
sg6
I57
sg7
I2
sg8
I3
sg9
I2
sg10
I1060
ssg11
(dp22
g5
I1940
sg6
I61
sg7
I1
sg8
I0
sg9
I72
sg10
I1940
ssg13
(dp23
g5
I2990
sg6
I60
sg7
I0
sg8
I2
sg9
I9
sg10
I1420
ssg15
(dp24
g5
I1417
sg6
I57
sg7
I2
sg8
I3
sg9
I4
sg10
I1100
ssg17
(dp25
g5
I1783
sg6
I60
sg7
I0
sg8
I2
sg9
I14
sg10
I1310
sssS'Hall.csv'
p26
(dp27
g3
(dp28
g5
I710
sg6
I100
sg7
I2
sg8
I4
sg9
I4
sg10
I510
ssg11
(dp29
g5
I1770
sg6
I98
sg7
I4
sg8
I4
sg9
I95
sg10
I1770
ssg13
(dp30
g5
I1233
sg6
I101
sg7
I1
sg8
I4
sg9
I6
sg10
I590
ssg15
(dp31
g5
I769
sg6
I101
sg7
I1
sg8
I4
sg9
I2
sg10
I540
ssg17
(dp32
g5
I739
sg6
I98
sg7
I4
sg8
I4
sg9
I2
sg10
I510
sssS'Danijel.csv'
p33
(dp34
g3
(dp35
g5
I705
sg6
I42
sg7
I2
sg8
I4
sg9
I0
sg10
I560
ssg11
(dp36
g5
I2290
sg6
I45
sg7
I2
sg8
I1
sg9
I124
sg10
I2290
ssg13
(dp37
g5
I1830
sg6
I46
sg7
I0
sg8
I2
sg9
I5
sg10
I870
ssg15
(dp38
g5
I1084
sg6
I46
sg7
I0
sg8
I2
sg9
I3
sg10
I850
ssg17
(dp39
g5
I927
sg6
I42
sg7
I1
sg8
I5
sg9
I7
sg10
I710
sss.(dp0
S'K_all3.csv'
p1
(dp2
S'machine'
p3
(dp4
S'count'
p5
I671
sS'truepos'
p6
I31
sS'falseneg'
p7
I4
sS'unknownyes'
p8
I10
sS'falsepos'
p9
I4
sS'unique'
p10
I530
ssS'none'
p11
(dp12
g5
I480
sg6
I34
sg7
I2
sg8
I9
sg9
I24
sg10
I480
ssS'three'
p13
(dp14
g5
I1067
sg6
I37
sg7
I0
sg8
I8
sg9
I1
sg10
I510
ssS'machine3'
p15
(dp16
g5
I556
sg6
I36
sg7
I2
sg8
I7
sg9
I2
sg10
I450
ssS'machine2'
p17
(dp18
g5
I583
sg6
I34
sg7
I2
sg8
I9
sg9
I3
sg10
I450
sssS'Wahono.csv'
p19
(dp20
g3
(dp21
g5
I2079
sg6
I61
sg7
I0
sg8
I1
sg9
I9
sg10
I1620
ssg11
(dp22
g5
I3040
sg6
I55
sg7
I3
sg8
I4
sg9
I160
sg10
I3040
ssg13
(dp23
g5
I3474
sg6
I61
sg7
I0
sg8
I1
sg9
I16
sg10
I1650
ssg15
(dp24
g5
I1312
sg6
I58
sg7
I1
sg8
I3
sg9
I3
sg10
I1020
ssg17
(dp25
g5
I1588
sg6
I60
sg7
I0
sg8
I2
sg9
I6
sg10
I1190
sssS'Hall.csv'
p26
(dp27
g3
(dp28
g5
I570
sg6
I96
sg7
I5
sg8
I5
sg9
I10
sg10
I410
ssg11
(dp29
g5
I1040
sg6
I94
sg7
I8
sg8
I4
sg9
I38
sg10
I1040
ssg13
(dp30
g5
I1133
sg6
I101
sg7
I1
sg8
I4
sg9
I3
sg10
I540
ssg15
(dp31
g5
I740
sg6
I100
sg7
I2
sg8
I4
sg9
I2
sg10
I510
ssg17
(dp32
g5
I982
sg6
I100
sg7
I2
sg8
I4
sg9
I4
sg10
I660
sssS'Danijel.csv'
p33
(dp34
g3
(dp35
g5
I917
sg6
I43
sg7
I2
sg8
I3
sg9
I8
sg10
I710
ssg11
(dp36
g5
I1350
sg6
I42
sg7
I4
sg8
I2
sg9
I63
sg10
I1350
ssg13
(dp37
g5
I1872
sg6
I46
sg7
I0
sg8
I2
sg9
I11
sg10
I890
ssg15
(dp38
g5
I997
sg6
I42
sg7
I3
sg8
I3
sg9
I3
sg10
I790
ssg17
(dp39
g5
I1024
sg6
I42
sg7
I1
sg8
I5
sg9
I4
sg10
I760
sss.(dp0
S'K_all3.csv'
p1
(dp2
S'machine'
p3
(dp4
S'count'
p5
I612
sS'truepos'
p6
I36
sS'falseneg'
p7
I3
sS'unknownyes'
p8
I6
sS'falsepos'
p9
I1
sS'unique'
p10
I500
ssS'none'
p11
(dp12
g5
I490
sg6
I36
sg7
I3
sg8
I6
sg9
I22
sg10
I490
ssS'three'
p13
(dp14
g5
I855
sg6
I37
sg7
I1
sg8
I7
sg9
I2
sg10
I410
ssS'machine3'
p15
(dp16
g5
I529
sg6
I34
sg7
I3
sg8
I8
sg9
I1
sg10
I440
ssS'machine2'
p17
(dp18
g5
I557
sg6
I35
sg7
I1
sg8
I9
sg9
I3
sg10
I430
sssS'Wahono.csv'
p19
(dp20
g3
(dp21
g5
I1355
sg6
I54
sg7
I6
sg8
I2
sg9
I3
sg10
I1060
ssg11
(dp22
g5
I3380
sg6
I62
sg7
I0
sg8
I0
sg9
I186
sg10
I3380
ssg13
(dp23
g5
I2691
sg6
I59
sg7
I1
sg8
I2
sg9
I7
sg10
I1290
ssg15
(dp24
g5
I1520
sg6
I59
sg7
I0
sg8
I3
sg9
I4
sg10
I1170
ssg17
(dp25
g5
I1691
sg6
I58
sg7
I0
sg8
I4
sg9
I8
sg10
I1260
sssS'Hall.csv'
p26
(dp27
g3
(dp28
g5
I500
sg6
I100
sg7
I2
sg8
I4
sg9
I8
sg10
I360
ssg11
(dp29
g5
I1420
sg6
I94
sg7
I8
sg8
I4
sg9
I62
sg10
I1420
ssg13
(dp30
g5
I960
sg6
I99
sg7
I2
sg8
I5
sg9
I2
sg10
I460
ssg15
(dp31
g5
I594
sg6
I95
sg7
I6
sg8
I5
sg9
I1
sg10
I400
ssg17
(dp32
g5
I642
sg6
I100
sg7
I1
sg8
I5
sg9
I1
sg10
I460
sssS'Danijel.csv'
p33
(dp34
g3
(dp35
g5
I1206
sg6
I44
sg7
I2
sg8
I2
sg9
I4
sg10
I940
ssg11
(dp36
g5
I1210
sg6
I41
sg7
I6
sg8
I1
sg9
I58
sg10
I1210
ssg13
(dp37
g5
I1816
sg6
I46
sg7
I0
sg8
I2
sg9
I6
sg10
I870
ssg15
(dp38
g5
I1068
sg6
I44
sg7
I1
sg8
I3
sg9
I2
sg10
I830
ssg17
(dp39
g5
I1036
sg6
I43
sg7
I2
sg8
I3
sg9
I1
sg10
I760
sss.