(dp0
S'K_all3.csv'
p1
(dp2
S'machine'
p3
(dp4
S'count'
p5
I592
sS'truepos'
p6
I35
sS'falseneg'
p7
I5
sS'correction'
p8
I2
sS'unknownyes'
p9
I5
sS'falsepos'
p10
I3
sS'unique'
p11
I410
ssS'knee'
p12
(dp13
g5
I543
sg6
I33
sg7
I5
sg8
I2
sg9
I7
sg10
I0
sg11
I430
ssS'none'
p14
(dp15
g5
I470
sg6
I30
sg7
I10
sg8
I0
sg9
I5
sg10
I8
sg11
I470
ssS'three'
p16
(dp17
g5
I1019
sg6
I36
sg7
I3
sg8
I17
sg9
I6
sg10
I0
sg11
I500
sssS'Wahono.csv'
p18
(dp19
g3
(dp20
g5
I1620
sg6
I59
sg7
I0
sg8
I13
sg9
I3
sg10
I1
sg11
I1090
ssg12
(dp21
g5
I635
sg6
I39
sg7
I8
sg8
I7
sg9
I15
sg10
I0
sg11
I510
ssg14
(dp22
g5
I1330
sg6
I53
sg7
I6
sg8
I0
sg9
I3
sg10
I4
sg11
I1330
ssg16
(dp23
g5
I2638
sg6
I51
sg7
I9
sg8
I14
sg9
I2
sg10
I0
sg11
I1310
sssS'Hall.csv'
p24
(dp25
g3
(dp26
g5
I710
sg6
I97
sg7
I5
sg8
I17
sg9
I4
sg10
I2
sg11
I520
ssg12
(dp27
g5
I591
sg6
I92
sg7
I9
sg8
I14
sg9
I5
sg10
I1
sg11
I410
ssg14
(dp28
g5
I850
sg6
I78
sg7
I24
sg8
I0
sg9
I4
sg10
I2
sg11
I850
ssg16
(dp29
g5
I1175
sg6
I89
sg7
I13
sg8
I30
sg9
I4
sg10
I0
sg11
I570
sssS'Danijel.csv'
p30
(dp31
g3
(dp32
g5
I1293
sg6
I45
sg7
I1
sg8
I8
sg9
I2
sg10
I2
sg11
I800
ssg12
(dp33
g5
I68
sg6
I5
sg7
I4
sg8
I0
sg9
I39
sg10
I0
sg11
I60
ssg14
(dp34
g5
I750
sg6
I38
sg7
I7
sg8
I0
sg9
I3
sg10
I0
sg11
I750
ssg16
(dp35
g5
I1596
sg6
I38
sg7
I8
sg8
I15
sg9
I2
sg10
I0
sg11
I790
sss.(dp0
S'K_all3.csv'
p1
(dp2
S'machine'
p3
(dp4
S'count'
p5
I667
sS'truepos'
p6
I37
sS'falseneg'
p7
I2
sS'correction'
p8
I7
sS'unknownyes'
p9
I6
sS'falsepos'
p10
I1
sS'unique'
p11
I420
ssS'knee'
p12
(dp13
g5
I369
sg6
I26
sg7
I4
sg8
I3
sg9
I15
sg10
I3
sg11
I240
ssS'none'
p14
(dp15
g5
I500
sg6
I31
sg7
I8
sg8
I0
sg9
I6
sg10
I3
sg11
I500
ssS'three'
p16
(dp17
g5
I1051
sg6
I33
sg7
I5
sg8
I9
sg9
I7
sg10
I0
sg11
I520
sssS'Wahono.csv'
p18
(dp19
g3
(dp20
g5
I1856
sg6
I58
sg7
I2
sg8
I7
sg9
I2
sg10
I6
sg11
I1180
ssg12
(dp21
g5
I24
sg6
I6
sg7
I0
sg8
I0
sg9
I56
sg10
I0
sg11
I20
ssg14
(dp22
g5
I1400
sg6
I47
sg7
I12
sg8
I0
sg9
I3
sg10
I2
sg11
I1400
ssg16
(dp23
g5
I2534
sg6
I57
sg7
I3
sg8
I13
sg9
I2
sg10
I0
sg11
I1260
sssS'Hall.csv'
p24
(dp25
g3
(dp26
g5
I685
sg6
I96
sg7
I6
sg8
I11
sg9
I4
sg10
I2
sg11
I500
ssg12
(dp27
g5
I548
sg6
I88
sg7
I14
sg8
I15
sg9
I4
sg10
I0
sg11
I390
ssg14
(dp28
g5
I730
sg6
I78
sg7
I25
sg8
I0
sg9
I3
sg10
I1
sg11
I730
ssg16
(dp29
g5
I1134
sg6
I97
sg7
I5
sg8
I32
sg9
I4
sg10
I0
sg11
I550
sssS'Danijel.csv'
p30
(dp31
g3
(dp32
g5
I1163
sg6
I45
sg7
I1
sg8
I7
sg9
I2
sg10
I5
sg11
I660
ssg12
(dp33
g5
I694
sg6
I42
sg7
I2
sg8
I6
sg9
I4
sg10
I0
sg11
I510
ssg14
(dp34
g5
I1200
sg6
I35
sg7
I11
sg8
I0
sg9
I2
sg10
I2
sg11
I1200
ssg16
(dp35
g5
I1552
sg6
I41
sg7
I4
sg8
I11
sg9
I3
sg10
I0
sg11
I770
sss.(dp0
S'K_all3.csv'
p1
(dp2
S'machine'
p3
(dp4
S'count'
p5
I758
sS'truepos'
p6
I36
sS'falseneg'
p7
I2
sS'correction'
p8
I2
sS'unknownyes'
p9
I7
sS'falsepos'
p10
I2
sS'unique'
p11
I510
ssS'knee'
p12
(dp13
g5
I1540
sg6
I40
sg7
I2
sg8
I11
sg9
I3
sg10
I6
sg11
I1210
ssS'none'
p14
(dp15
g5
I520
sg6
I31
sg7
I6
sg8
I0
sg9
I8
sg10
I3
sg11
I520
ssS'three'
p16
(dp17
g5
I910
sg6
I38
sg7
I2
sg8
I10
sg9
I5
sg10
I0
sg11
I450
sssS'Wahono.csv'
p18
(dp19
g3
(dp20
g5
I1651
sg6
I57
sg7
I2
sg8
I10
sg9
I3
sg10
I1
sg11
I1090
ssg12
(dp21
g5
I24
sg6
I6
sg7
I0
sg8
I0
sg9
I56
sg10
I0
sg11
I20
ssg14
(dp22
g5
I1260
sg6
I47
sg7
I12
sg8
I0
sg9
I3
sg10
I1
sg11
I1260
ssg16
(dp23
g5
I2837
sg6
I51
sg7
I9
sg8
I15
sg9
I2
sg10
I0
sg11
I1410
sssS'Hall.csv'
p24
(dp25
g3
(dp26
g5
I735
sg6
I96
sg7
I6
sg8
I16
sg9
I4
sg10
I1
sg11
I500
ssg12
(dp27
g5
I638
sg6
I94
sg7
I8
sg8
I14
sg9
I4
sg10
I0
sg11
I490
ssg14
(dp28
g5
I680
sg6
I82
sg7
I20
sg8
I0
sg9
I4
sg10
I0
sg11
I680
ssg16
(dp29
g5
I1211
sg6
I91
sg7
I11
sg8
I27
sg9
I4
sg10
I0
sg11
I590
sssS'Danijel.csv'
p30
(dp31
g3
(dp32
g5
I1304
sg6
I43
sg7
I2
sg8
I4
sg9
I3
sg10
I3
sg11
I770
ssg12
(dp33
g5
I783
sg6
I37
sg7
I6
sg8
I4
sg9
I5
sg10
I0
sg11
I550
ssg14
(dp34
g5
I960
sg6
I34
sg7
I11
sg8
I0
sg9
I3
sg10
I5
sg11
I960
ssg16
(dp35
g5
I1638
sg6
I41
sg7
I5
sg8
I17
sg9
I2
sg10
I0
sg11
I810
sss.(dp0
S'K_all3.csv'
p1
(dp2
S'machine'
p3
(dp4
S'count'
p5
I769
sS'truepos'
p6
I35
sS'falseneg'
p7
I2
sS'correction'
p8
I5
sS'unknownyes'
p9
I8
sS'falsepos'
p10
I8
sS'unique'
p11
I480
ssS'knee'
p12
(dp13
g5
I156
sg6
I16
sg7
I1
sg8
I2
sg9
I28
sg10
I1
sg11
I100
ssS'none'
p14
(dp15
g5
I550
sg6
I29
sg7
I12
sg8
I0
sg9
I4
sg10
I1
sg11
I550
ssS'three'
p16
(dp17
g5
I1037
sg6
I38
sg7
I1
sg8
I17
sg9
I6
sg10
I0
sg11
I510
sssS'Wahono.csv'
p18
(dp19
g3
(dp20
g5
I1773
sg6
I57
sg7
I2
sg8
I7
sg9
I3
sg10
I1
sg11
I1180
ssg12
(dp21
g5
I24
sg6
I6
sg7
I0
sg8
I0
sg9
I56
sg10
I0
sg11
I20
ssg14
(dp22
g5
I1520
sg6
I52
sg7
I8
sg8
I0
sg9
I2
sg10
I1
sg11
I1520
ssg16
(dp23
g5
I2630
sg6
I54
sg7
I5
sg8
I28
sg9
I3
sg10
I0
sg11
I1300
sssS'Hall.csv'
p24
(dp25
g3
(dp26
g5
I684
sg6
I101
sg7
I1
sg8
I19
sg9
I4
sg10
I2
sg11
I500
ssg12
(dp27
g5
I37
sg6
I13
sg7
I0
sg8
I0
sg9
I93
sg10
I0
sg11
I30
ssg14
(dp28
g5
I960
sg6
I79
sg7
I23
sg8
I0
sg9
I4
sg10
I3
sg11
I960
ssg16
(dp29
g5
I1199
sg6
I93
sg7
I9
sg8
I34
sg9
I4
sg10
I0
sg11
I580
sssS'Danijel.csv'
p30
(dp31
g3
(dp32
g5
I1308
sg6
I44
sg7
I2
sg8
I4
sg9
I2
sg10
I3
sg11
I800
ssg12
(dp33
g5
I783
sg6
I39
sg7
I5
sg8
I7
sg9
I4
sg10
I1
sg11
I560
ssg14
(dp34
g5
I890
sg6
I36
sg7
I10
sg8
I0
sg9
I2
sg10
I2
sg11
I890
ssg16
(dp35
g5
I1418
sg6
I41
sg7
I3
sg8
I18
sg9
I4
sg10
I0
sg11
I700
sss.(dp0
S'K_all3.csv'
p1
(dp2
S'machine'
p3
(dp4
S'count'
p5
I679
sS'truepos'
p6
I35
sS'falseneg'
p7
I2
sS'correction'
p8
I4
sS'unknownyes'
p9
I8
sS'falsepos'
p10
I5
sS'unique'
p11
I430
ssS'knee'
p12
(dp13
g5
I95
sg6
I9
sg7
I5
sg8
I1
sg9
I31
sg10
I1
sg11
I80
ssS'none'
p14
(dp15
g5
I550
sg6
I34
sg7
I5
sg8
I0
sg9
I6
sg10
I2
sg11
I550
ssS'three'
p16
(dp17
g5
I1093
sg6
I29
sg7
I8
sg8
I10
sg9
I8
sg10
I0
sg11
I540
sssS'Wahono.csv'
p18
(dp19
g3
(dp20
g5
I1788
sg6
I59
sg7
I0
sg8
I13
sg9
I3
sg10
I3
sg11
I1170
ssg12
(dp21
g5
I117
sg6
I17
sg7
I1
sg8
I4
sg9
I44
sg10
I0
sg11
I80
ssg14
(dp22
g5
I1330
sg6
I42
sg7
I17
sg8
I0
sg9
I3
sg10
I0
sg11
I1330
ssg16
(dp23
g5
I2594
sg6
I53
sg7
I6
sg8
I12
sg9
I3
sg10
I0
sg11
I1290
sssS'Hall.csv'
p24
(dp25
g3
(dp26
g5
I704
sg6
I101
sg7
I1
sg8
I17
sg9
I4
sg10
I1
sg11
I520
ssg12
(dp27
g5
I671
sg6
I93
sg7
I9
sg8
I16
sg9
I4
sg10
I0
sg11
I520
ssg14
(dp28
g5
I650
sg6
I78
sg7
I24
sg8
I0
sg9
I4
sg10
I1
sg11
I650
ssg16
(dp29
g5
I977
sg6
I95
sg7
I7
sg8
I35
sg9
I4
sg10
I0
sg11
I470
sssS'Danijel.csv'
p30
(dp31
g3
(dp32
g5
I1270
sg6
I45
sg7
I0
sg8
I6
sg9
I3
sg10
I0
sg11
I810
ssg12
(dp33
g5
I611
sg6
I37
sg7
I5
sg8
I3
sg9
I6
sg10
I0
sg11
I410
ssg14
(dp34
g5
I1390
sg6
I34
sg7
I12
sg8
I0
sg9
I2
sg10
I1
sg11
I1390
ssg16
(dp35
g5
I1582
sg6
I40
sg7
I4
sg8
I21
sg9
I4
sg10
I0
sg11
I780
sss.(dp0
S'K_all3.csv'
p1
(dp2
S'machine'
p3
(dp4
S'count'
p5
I697
sS'truepos'
p6
I32
sS'falseneg'
p7
I7
sS'correction'
p8
I6
sS'unknownyes'
p9
I6
sS'falsepos'
p10
I3
sS'unique'
p11
I470
ssS'knee'
p12
(dp13
g5
I1322
sg6
I39
sg7
I4
sg8
I9
sg9
I2
sg10
I4
sg11
I900
ssS'none'
p14
(dp15
g5
I450
sg6
I29
sg7
I8
sg8
I0
sg9
I8
sg10
I3
sg11
I450
ssS'three'
p16
(dp17
g5
I1004
sg6
I29
sg7
I11
sg8
I18
sg9
I5
sg10
I0
sg11
I490
sssS'Wahono.csv'
p18
(dp19
g3
(dp20
g5
I1701
sg6
I56
sg7
I3
sg8
I7
sg9
I3
sg10
I1
sg11
I1130
ssg12
(dp21
g5
I748
sg6
I46
sg7
I6
sg8
I6
sg9
I10
sg10
I1
sg11
I520
ssg14
(dp22
g5
I1500
sg6
I52
sg7
I7
sg8
I0
sg9
I3
sg10
I5
sg11
I1500
ssg16
(dp23
g5
I2577
sg6
I55
sg7
I4
sg8
I17
sg9
I3
sg10
I0
sg11
I1280
sssS'Hall.csv'
p24
(dp25
g3
(dp26
g5
I612
sg6
I97
sg7
I5
sg8
I10
sg9
I4
sg10
I1
sg11
I450
ssg12
(dp27
g5
I635
sg6
I96
sg7
I6
sg8
I13
sg9
I4
sg10
I2
sg11
I460
ssg14
(dp28
g5
I600
sg6
I78
sg7
I24
sg8
I0
sg9
I4
sg10
I1
sg11
I600
ssg16
(dp29
g5
I1304
sg6
I89
sg7
I13
sg8
I40
sg9
I4
sg10
I0
sg11
I630
sssS'Danijel.csv'
p30
(dp31
g3
(dp32
g5
I1245
sg6
I43
sg7
I2
sg8
I12
sg9
I3
sg10
I0
sg11
I780
ssg12
(dp33
g5
I674
sg6
I41
sg7
I3
sg8
I4
sg9
I4
sg10
I0
sg11
I490
ssg14
(dp34
g5
I1050
sg6
I37
sg7
I8
sg8
I0
sg9
I3
sg10
I0
sg11
I1050
ssg16
(dp35
g5
I1536
sg6
I42
sg7
I3
sg8
I15
sg9
I3
sg10
I0
sg11
I760
sss.(dp0
S'K_all3.csv'
p1
(dp2
S'machine'
p3
(dp4
S'count'
p5
I631
sS'truepos'
p6
I32
sS'falseneg'
p7
I5
sS'correction'
p8
I8
sS'unknownyes'
p9
I8
sS'falsepos'
p10
I6
sS'unique'
p11
I480
ssS'knee'
p12
(dp13
g5
I396
sg6
I24
sg7
I7
sg8
I7
sg9
I14
sg10
I0
sg11
I300
ssS'none'
p14
(dp15
g5
I580
sg6
I30
sg7
I6
sg8
I0
sg9
I9
sg10
I1
sg11
I580
ssS'three'
p16
(dp17
g5
I1022
sg6
I36
sg7
I2
sg8
I22
sg9
I7
sg10
I0
sg11
I500
sssS'Wahono.csv'
p18
(dp19
g3
(dp20
g5
I1713
sg6
I55
sg7
I4
sg8
I7
sg9
I3
sg10
I5
sg11
I1110
ssg12
(dp21
g5
I1017
sg6
I50
sg7
I5
sg8
I9
sg9
I7
sg10
I1
sg11
I780
ssg14
(dp22
g5
I1590
sg6
I51
sg7
I9
sg8
I0
sg9
I2
sg10
I4
sg11
I1590
ssg16
(dp23
g5
I2720
sg6
I51
sg7
I9
sg8
I18
sg9
I2
sg10
I0
sg11
I1350
sssS'Hall.csv'
p24
(dp25
g3
(dp26
g5
I583
sg6
I95
sg7
I6
sg8
I16
sg9
I5
sg10
I3
sg11
I410
ssg12
(dp27
g5
I24
sg6
I7
sg7
I1
sg8
I1
sg9
I98
sg10
I0
sg11
I20
ssg14
(dp28
g5
I740
sg6
I82
sg7
I20
sg8
I0
sg9
I4
sg10
I0
sg11
I740
ssg16
(dp29
g5
I1197
sg6
I85
sg7
I17
sg8
I34
sg9
I4
sg10
I0
sg11
I580
sssS'Danijel.csv'
p30
(dp31
g3
(dp32
g5
I1318
sg6
I45
sg7
I1
sg8
I4
sg9
I2
sg10
I4
sg11
I830
ssg12
(dp33
g5
I1223
sg6
I41
sg7
I5
sg8
I6
sg9
I2
sg10
I1
sg11
I870
ssg14
(dp34
g5
I870
sg6
I40
sg7
I6
sg8
I0
sg9
I2
sg10
I1
sg11
I870
ssg16
(dp35
g5
I1459
sg6
I45
sg7
I0
sg8
I19
sg9
I3
sg10
I0
sg11
I720
sss.(dp0
S'K_all3.csv'
p1
(dp2
S'machine'
p3
(dp4
S'count'
p5
I722
sS'truepos'
p6
I35
sS'falseneg'
p7
I4
sS'correction'
p8
I3
sS'unknownyes'
p9
I6
sS'falsepos'
p10
I3
sS'unique'
p11
I490
ssS'knee'
p12
(dp13
g5
I374
sg6
I28
sg7
I3
sg8
I2
sg9
I14
sg10
I1
sg11
I240
ssS'none'
p14
(dp15
g5
I530
sg6
I29
sg7
I10
sg8
I0
sg9
I6
sg10
I4
sg11
I530
ssS'three'
p16
(dp17
g5
I1058
sg6
I34
sg7
I7
sg8
I13
sg9
I4
sg10
I0
sg11
I520
sssS'Wahono.csv'
p18
(dp19
g3
(dp20
g5
I1699
sg6
I56
sg7
I3
sg8
I8
sg9
I3
sg10
I4
sg11
I1170
ssg12
(dp21
g5
I1364
sg6
I54
sg7
I5
sg8
I13
sg9
I3
sg10
I0
sg11
I1040
ssg14
(dp22
g5
I1400
sg6
I52
sg7
I7
sg8
I0
sg9
I3
sg10
I0
sg11
I1400
ssg16
(dp23
g5
I2421
sg6
I53
sg7
I6
sg8
I20
sg9
I3
sg10
I0
sg11
I1200
sssS'Hall.csv'
p24
(dp25
g3
(dp26
g5
I676
sg6
I98
sg7
I3
sg8
I18
sg9
I5
sg10
I1
sg11
I480
ssg12
(dp27
g5
I663
sg6
I88
sg7
I14
sg8
I14
sg9
I4
sg10
I1
sg11
I510
ssg14
(dp28
g5
I680
sg6
I81
sg7
I21
sg8
I0
sg9
I4
sg10
I1
sg11
I680
ssg16
(dp29
g5
I933
sg6
I92
sg7
I9
sg8
I31
sg9
I5
sg10
I0
sg11
I450
sssS'Danijel.csv'
p30
(dp31
g3
(dp32
g5
I1200
sg6
I44
sg7
I1
sg8
I5
sg9
I3
sg10
I2
sg11
I750
ssg12
(dp33
g5
I820
sg6
I39
sg7
I6
sg8
I8
sg9
I3
sg10
I0
sg11
I610
ssg14
(dp34
g5
I1190
sg6
I36
sg7
I11
sg8
I0
sg9
I1
sg10
I0
sg11
I1190
ssg16
(dp35
g5
I1578
sg6
I41
sg7
I5
sg8
I15
sg9
I2
sg10
I0
sg11
I780
sss.(dp0
S'K_all3.csv'
p1
(dp2
S'machine'
p3
(dp4
S'count'
p5
I608
sS'truepos'
p6
I32
sS'falseneg'
p7
I3
sS'correction'
p8
I3
sS'unknownyes'
p9
I10
sS'falsepos'
p10
I2
sS'unique'
p11
I440
ssS'knee'
p12
(dp13
g5
I1174
sg6
I37
sg7
I5
sg8
I3
sg9
I3
sg10
I6
sg11
I840
ssS'none'
p14
(dp15
g5
I550
sg6
I31
sg7
I9
sg8
I0
sg9
I5
sg10
I4
sg11
I550
ssS'three'
p16
(dp17
g5
I1034
sg6
I33
sg7
I5
sg8
I14
sg9
I7
sg10
I0
sg11
I510
sssS'Wahono.csv'
p18
(dp19
g3
(dp20
g5
I1819
sg6
I56
sg7
I3
sg8
I12
sg9
I3
sg10
I1
sg11
I1200
ssg12
(dp21
g5
I575
sg6
I45
sg7
I4
sg8
I7
sg9
I13
sg10
I1
sg11
I430
ssg14
(dp22
g5
I1240
sg6
I50
sg7
I9
sg8
I0
sg9
I3
sg10
I0
sg11
I1240
ssg16
(dp23
g5
I3070
sg6
I56
sg7
I5
sg8
I29
sg9
I1
sg10
I0
sg11
I1520
sssS'Hall.csv'
p24
(dp25
g3
(dp26
g5
I711
sg6
I98
sg7
I4
sg8
I14
sg9
I4
sg10
I0
sg11
I520
ssg12
(dp27
g5
I523
sg6
I91
sg7
I8
sg8
I11
sg9
I7
sg10
I0
sg11
I370
ssg14
(dp28
g5
I830
sg6
I76
sg7
I27
sg8
I0
sg9
I3
sg10
I0
sg11
I830
ssg16
(dp29
g5
I1397
sg6
I87
sg7
I15
sg8
I31
sg9
I4
sg10
I0
sg11
I680
sssS'Danijel.csv'
p30
(dp31
g3
(dp32
g5
I1173
sg6
I44
sg7
I2
sg8
I12
sg9
I2
sg10
I1
sg11
I720
ssg12
(dp33
g5
I510
sg6
I39
sg7
I2
sg8
I7
sg9
I7
sg10
I0
sg11
I320
ssg14
(dp34
g5
I970
sg6
I36
sg7
I10
sg8
I0
sg9
I2
sg10
I2
sg11
I970
ssg16
(dp35
g5
I1800
sg6
I42
sg7
I4
sg8
I20
sg9
I2
sg10
I0
sg11
I890
sss.(dp0
S'K_all3.csv'
p1
(dp2
S'machine'
p3
(dp4
S'count'
p5
I743
sS'truepos'
p6
I33
sS'falseneg'
p7
I4
sS'correction'
p8
I4
sS'unknownyes'
p9
I8
sS'falsepos'
p10
I4
sS'unique'
p11
I510
ssS'knee'
p12
(dp13
g5
I1220
sg6
I38
sg7
I4
sg8
I8
sg9
I3
sg10
I3
sg11
I1020
ssS'none'
p14
(dp15
g5
I500
sg6
I29
sg7
I10
sg8
I0
sg9
I6
sg10
I3
sg11
I500
ssS'three'
p16
(dp17
g5
I1058
sg6
I32
sg7
I7
sg8
I14
sg9
I6
sg10
I0
sg11
I520
sssS'Wahono.csv'
p18
(dp19
g3
(dp20
g5
I1730
sg6
I56
sg7
I3
sg8
I13
sg9
I3
sg10
I2
sg11
I1180
ssg12
(dp21
g5
I1124
sg6
I53
sg7
I5
sg8
I10
sg9
I4
sg10
I0
sg11
I850
ssg14
(dp22
g5
I1190
sg6
I47
sg7
I12
sg8
I0
sg9
I3
sg10
I1
sg11
I1190
ssg16
(dp23
g5
I2943
sg6
I57
sg7
I4
sg8
I23
sg9
I1
sg10
I0
sg11
I1460
sssS'Hall.csv'
p24
(dp25
g3
(dp26
g5
I729
sg6
I96
sg7
I6
sg8
I15
sg9
I4
sg10
I1
sg11
I530
ssg12
(dp27
g5
I715
sg6
I96
sg7
I6
sg8
I16
sg9
I4
sg10
I0
sg11
I510
ssg14
(dp28
g5
I550
sg6
I78
sg7
I23
sg8
I0
sg9
I5
sg10
I1
sg11
I550
ssg16
(dp29
g5
I1495
sg6
I86
sg7
I16
sg8
I27
sg9
I4
sg10
I0
sg11
I730
sssS'Danijel.csv'
p30
(dp31
g3
(dp32
g5
I1130
sg6
I44
sg7
I1
sg8
I10
sg9
I3
sg10
I0
sg11
I660
ssg12
(dp33
g5
I585
sg6
I36
sg7
I2
sg8
I11
sg9
I10
sg10
I0
sg11
I340
ssg14
(dp34
g5
I1090
sg6
I40
sg7
I6
sg8
I0
sg9
I2
sg10
I2
sg11
I1090
ssg16
(dp35
g5
I1515
sg6
I41
sg7
I4
sg8
I14
sg9
I3
sg10
I0
sg11
I750
sss.(dp0
S'K_all3.csv'
p1
(dp2
S'machine'
p3
(dp4
S'count'
p5
I724
sS'truepos'
p6
I35
sS'falseneg'
p7
I3
sS'correction'
p8
I3
sS'unknownyes'
p9
I7
sS'falsepos'
p10
I3
sS'unique'
p11
I480
ssS'knee'
p12
(dp13
g5
I228
sg6
I22
sg7
I2
sg8
I1
sg9
I21
sg10
I3
sg11
I140
ssS'none'
p14
(dp15
g5
I590
sg6
I31
sg7
I10
sg8
I0
sg9
I4
sg10
I4
sg11
I590
ssS'three'
p16
(dp17
g5
I774
sg6
I37
sg7
I2
sg8
I14
sg9
I6
sg10
I1
sg11
I380
sssS'Wahono.csv'
p18
(dp19
g3
(dp20
g5
I2302
sg6
I57
sg7
I4
sg8
I6
sg9
I1
sg10
I6
sg11
I1510
ssg12
(dp21
g5
I223
sg6
I23
sg7
I1
sg8
I2
sg9
I38
sg10
I0
sg11
I160
ssg14
(dp22
g5
I1800
sg6
I46
sg7
I14
sg8
I0
sg9
I2
sg10
I2
sg11
I1800
ssg16
(dp23
g5
I2262
sg6
I57
sg7
I2
sg8
I22
sg9
I3
sg10
I0
sg11
I1120
sssS'Hall.csv'
p24
(dp25
g3
(dp26
g5
I680
sg6
I99
sg7
I3
sg8
I14
sg9
I4
sg10
I1
sg11
I490
ssg12
(dp27
g5
I23
sg6
I8
sg7
I1
sg8
I1
sg9
I97
sg10
I0
sg11
I20
ssg14
(dp28
g5
I670
sg6
I81
sg7
I21
sg8
I0
sg9
I4
sg10
I2
sg11
I670
ssg16
(dp29
g5
I1023
sg6
I88
sg7
I14
sg8
I38
sg9
I4
sg10
I0
sg11
I490
sssS'Danijel.csv'
p30
(dp31
g3
(dp32
g5
I1228
sg6
I44
sg7
I1
sg8
I8
sg9
I3
sg10
I3
sg11
I760
ssg12
(dp33
g5
I37
sg6
I4
sg7
I2
sg8
I1
sg9
I42
sg10
I0
sg11
I30
ssg14
(dp34
g5
I750
sg6
I40
sg7
I6
sg8
I0
sg9
I2
sg10
I0
sg11
I750
ssg16
(dp35
g5
I1657
sg6
I40
sg7
I5
sg8
I17
sg9
I3
sg10
I0
sg11
I820
sss.(dp0
S'K_all3.csv'
p1
(dp2
S'machine'
p3
(dp4
S'count'
p5
I674
sS'truepos'
p6
I35
sS'falseneg'
p7
I4
sS'correction'
p8
I4
sS'unknownyes'
p9
I6
sS'falsepos'
p10
I3
sS'unique'
p11
I430
ssS'knee'
p12
(dp13
g5
I340
sg6
I28
sg7
I2
sg8
I1
sg9
I15
sg10
I4
sg11
I220
ssS'none'
p14
(dp15
g5
I540
sg6
I28
sg7
I11
sg8
I0
sg9
I6
sg10
I4
sg11
I540
ssS'three'
p16
(dp17
g5
I1178
sg6
I34
sg7
I6
sg8
I16
sg9
I5
sg10
I0
sg11
I580
sssS'Wahono.csv'
p18
(dp19
g3
(dp20
g5
I1933
sg6
I57
sg7
I3
sg8
I3
sg9
I2
sg10
I3
sg11
I1230
ssg12
(dp21
g5
I1112
sg6
I58
sg7
I0
sg8
I5
sg9
I4
sg10
I2
sg11
I860
ssg14
(dp22
g5
I1330
sg6
I44
sg7
I15
sg8
I0
sg9
I3
sg10
I1
sg11
I1330
ssg16
(dp23
g5
I2985
sg6
I57
sg7
I4
sg8
I23
sg9
I1
sg10
I0
sg11
I1480
sssS'Hall.csv'
p24
(dp25
g3
(dp26
g5
I577
sg6
I96
sg7
I5
sg8
I20
sg9
I5
sg10
I2
sg11
I410
ssg12
(dp27
g5
I591
sg6
I93
sg7
I8
sg8
I18
sg9
I5
sg10
I0
sg11
I420
ssg14
(dp28
g5
I810
sg6
I85
sg7
I17
sg8
I0
sg9
I4
sg10
I1
sg11
I810
ssg16
(dp29
g5
I1232
sg6
I94
sg7
I8
sg8
I31
sg9
I4
sg10
I0
sg11
I600
sssS'Danijel.csv'
p30
(dp31
g3
(dp32
g5
I1264
sg6
I44
sg7
I2
sg8
I1
sg9
I2
sg10
I1
sg11
I760
ssg12
(dp33
g5
I872
sg6
I40
sg7
I5
sg8
I5
sg9
I3
sg10
I0
sg11
I680
ssg14
(dp34
g5
I980
sg6
I31
sg7
I14
sg8
I0
sg9
I3
sg10
I0
sg11
I980
ssg16
(dp35
g5
I1753
sg6
I38
sg7
I7
sg8
I11
sg9
I3
sg10
I0
sg11
I870
sss.(dp0
S'K_all3.csv'
p1
(dp2
S'machine'
p3
(dp4
S'count'
p5
I596
sS'truepos'
p6
I33
sS'falseneg'
p7
I4
sS'correction'
p8
I4
sS'unknownyes'
p9
I8
sS'falsepos'
p10
I2
sS'unique'
p11
I430
ssS'knee'
p12
(dp13
g5
I319
sg6
I27
sg7
I3
sg8
I2
sg9
I15
sg10
I2
sg11
I220
ssS'none'
p14
(dp15
g5
I470
sg6
I29
sg7
I6
sg8
I0
sg9
I10
sg10
I3
sg11
I470
ssS'three'
p16
(dp17
g5
I1096
sg6
I36
sg7
I5
sg8
I13
sg9
I4
sg10
I0
sg11
I540
sssS'Wahono.csv'
p18
(dp19
g3
(dp20
g5
I1874
sg6
I59
sg7
I0
sg8
I8
sg9
I3
sg10
I6
sg11
I1270
ssg12
(dp21
g5
I460
sg6
I33
sg7
I6
sg8
I11
sg9
I23
sg10
I0
sg11
I310
ssg14
(dp22
g5
I1480
sg6
I51
sg7
I8
sg8
I0
sg9
I3
sg10
I1
sg11
I1480
ssg16
(dp23
g5
I2637
sg6
I53
sg7
I7
sg8
I15
sg9
I2
sg10
I0
sg11
I1310
sssS'Hall.csv'
p24
(dp25
g3
(dp26
g5
I699
sg6
I96
sg7
I6
sg8
I17
sg9
I4
sg10
I2
sg11
I500
ssg12
(dp27
g5
I641
sg6
I94
sg7
I5
sg8
I15
sg9
I7
sg10
I1
sg11
I440
ssg14
(dp28
g5
I980
sg6
I72
sg7
I30
sg8
I0
sg9
I4
sg10
I2
sg11
I980
ssg16
(dp29
g5
I1178
sg6
I87
sg7
I15
sg8
I36
sg9
I4
sg10
I0
sg11
I570
sssS'Danijel.csv'
p30
(dp31
g3
(dp32
g5
I1205
sg6
I40
sg7
I5
sg8
I11
sg9
I3
sg10
I0
sg11
I820
ssg12
(dp33
g5
I818
sg6
I39
sg7
I6
sg8
I7
sg9
I3
sg10
I0
sg11
I600
ssg14
(dp34
g5
I1090
sg6
I34
sg7
I12
sg8
I0
sg9
I2
sg10
I2
sg11
I1090
ssg16
(dp35
g5
I1614
sg6
I40
sg7
I5
sg8
I13
sg9
I3
sg10
I0
sg11
I800
sss.(dp0
S'K_all3.csv'
p1
(dp2
S'machine'
p3
(dp4
S'count'
p5
I722
sS'truepos'
p6
I33
sS'falseneg'
p7
I4
sS'correction'
p8
I6
sS'unknownyes'
p9
I8
sS'falsepos'
p10
I3
sS'unique'
p11
I470
ssS'knee'
p12
(dp13
g5
I36
sg6
I5
sg7
I1
sg8
I1
sg9
I39
sg10
I0
sg11
I30
ssS'none'
p14
(dp15
g5
I610
sg6
I33
sg7
I7
sg8
I0
sg9
I5
sg10
I3
sg11
I610
ssS'three'
p16
(dp17
g5
I1080
sg6
I34
sg7
I5
sg8
I17
sg9
I6
sg10
I0
sg11
I530
sssS'Wahono.csv'
p18
(dp19
g3
(dp20
g5
I1673
sg6
I57
sg7
I2
sg8
I10
sg9
I3
sg10
I0
sg11
I1140
ssg12
(dp21
g5
I46
sg6
I8
sg7
I1
sg8
I0
sg9
I53
sg10
I0
sg11
I40
ssg14
(dp22
g5
I1610
sg6
I43
sg7
I18
sg8
I0
sg9
I1
sg10
I3
sg11
I1610
ssg16
(dp23
g5
I2869
sg6
I54
sg7
I6
sg8
I29
sg9
I2
sg10
I0
sg11
I1420
sssS'Hall.csv'
p24
(dp25
g3
(dp26
g5
I607
sg6
I95
sg7
I6
sg8
I14
sg9
I5
sg10
I0
sg11
I410
ssg12
(dp27
g5
I669
sg6
I94
sg7
I7
sg8
I21
sg9
I5
sg10
I0
sg11
I450
ssg14
(dp28
g5
I1080
sg6
I84
sg7
I19
sg8
I0
sg9
I3
sg10
I2
sg11
I1080
ssg16
(dp29
g5
I1298
sg6
I93
sg7
I9
sg8
I37
sg9
I4
sg10
I0
sg11
I630
sssS'Danijel.csv'
p30
(dp31
g3
(dp32
g5
I1284
sg6
I45
sg7
I1
sg8
I9
sg9
I2
sg10
I1
sg11
I780
ssg12
(dp33
g5
I685
sg6
I42
sg7
I2
sg8
I3
sg9
I4
sg10
I2
sg11
I460
ssg14
(dp34
g5
I1090
sg6
I33
sg7
I13
sg8
I0
sg9
I2
sg10
I1
sg11
I1090
ssg16
(dp35
g5
I1599
sg6
I41
sg7
I4
sg8
I19
sg9
I3
sg10
I0
sg11
I790
sss.(dp0
S'K_all3.csv'
p1
(dp2
S'machine'
p3
(dp4
S'count'
p5
I667
sS'truepos'
p6
I36
sS'falseneg'
p7
I2
sS'correction'
p8
I4
sS'unknownyes'
p9
I7
sS'falsepos'
p10
I1
sS'unique'
p11
I470
ssS'knee'
p12
(dp13
g5
I53
sg6
I8
sg7
I0
sg8
I1
sg9
I37
sg10
I0
sg11
I40
ssS'none'
p14
(dp15
g5
I510
sg6
I28
sg7
I10
sg8
I0
sg9
I7
sg10
I2
sg11
I510
ssS'three'
p16
(dp17
g5
I1017
sg6
I36
sg7
I4
sg8
I16
sg9
I5
sg10
I0
sg11
I500
sssS'Wahono.csv'
p18
(dp19
g3
(dp20
g5
I1577
sg6
I56
sg7
I2
sg8
I13
sg9
I4
sg10
I3
sg11
I1050
ssg12
(dp21
g5
I24
sg6
I6
sg7
I0
sg8
I0
sg9
I56
sg10
I0
sg11
I20
ssg14
(dp22
g5
I1710
sg6
I48
sg7
I12
sg8
I0
sg9
I2
sg10
I3
sg11
I1710
ssg16
(dp23
g5
I3055
sg6
I54
sg7
I7
sg8
I31
sg9
I1
sg10
I0
sg11
I1510
sssS'Hall.csv'
p24
(dp25
g3
(dp26
g5
I633
sg6
I97
sg7
I4
sg8
I18
sg9
I5
sg10
I1
sg11
I460
ssg12
(dp27
g5
I515
sg6
I91
sg7
I8
sg8
I6
sg9
I7
sg10
I0
sg11
I350
ssg14
(dp28
g5
I640
sg6
I83
sg7
I19
sg8
I0
sg9
I4
sg10
I0
sg11
I640
ssg16
(dp29
g5
I1429
sg6
I89
sg7
I13
sg8
I27
sg9
I4
sg10
I0
sg11
I700
sssS'Danijel.csv'
p30
(dp31
g3
(dp32
g5
I1251
sg6
I42
sg7
I3
sg8
I8
sg9
I3
sg10
I0
sg11
I770
ssg12
(dp33
g5
I858
sg6
I43
sg7
I1
sg8
I10
sg9
I4
sg10
I3
sg11
I570
ssg14
(dp34
g5
I1440
sg6
I34
sg7
I12
sg8
I0
sg9
I2
sg10
I3
sg11
I1440
ssg16
(dp35
g5
I1614
sg6
I44
sg7
I2
sg8
I14
sg9
I2
sg10
I0
sg11
I800
sss.(dp0
S'K_all3.csv'
p1
(dp2
S'machine'
p3
(dp4
S'count'
p5
I605
sS'truepos'
p6
I35
sS'falseneg'
p7
I2
sS'correction'
p8
I6
sS'unknownyes'
p9
I8
sS'falsepos'
p10
I3
sS'unique'
p11
I430
ssS'knee'
p12
(dp13
g5
I511
sg6
I29
sg7
I3
sg8
I4
sg9
I13
sg10
I1
sg11
I360
ssS'none'
p14
(dp15
g5
I600
sg6
I28
sg7
I11
sg8
I0
sg9
I6
sg10
I2
sg11
I600
ssS'three'
p16
(dp17
g5
I1097
sg6
I36
sg7
I5
sg8
I17
sg9
I4
sg10
I0
sg11
I540
sssS'Wahono.csv'
p18
(dp19
g3
(dp20
g5
I1893
sg6
I57
sg7
I3
sg8
I6
sg9
I2
sg10
I2
sg11
I1330
ssg12
(dp21
g5
I435
sg6
I40
sg7
I2
sg8
I9
sg9
I20
sg10
I1
sg11
I310
ssg14
(dp22
g5
I1340
sg6
I47
sg7
I14
sg8
I0
sg9
I1
sg10
I1
sg11
I1340
ssg16
(dp23
g5
I2820
sg6
I55
sg7
I5
sg8
I18
sg9
I2
sg10
I0
sg11
I1400
sssS'Hall.csv'
p24
(dp25
g3
(dp26
g5
I649
sg6
I99
sg7
I3
sg8
I12
sg9
I4
sg10
I1
sg11
I470
ssg12
(dp27
g5
I649
sg6
I91
sg7
I11
sg8
I6
sg9
I4
sg10
I1
sg11
I490
ssg14
(dp28
g5
I1010
sg6
I83
sg7
I20
sg8
I0
sg9
I3
sg10
I1
sg11
I1010
ssg16
(dp29
g5
I1234
sg6
I89
sg7
I13
sg8
I32
sg9
I4
sg10
I0
sg11
I600
sssS'Danijel.csv'
p30
(dp31
g3
(dp32
g5
I1571
sg6
I44
sg7
I2
sg8
I5
sg9
I2
sg10
I5
sg11
I990
ssg12
(dp33
g5
I347
sg6
I28
sg7
I2
sg8
I5
sg9
I18
sg10
I1
sg11
I230
ssg14
(dp34
g5
I1010
sg6
I36
sg7
I10
sg8
I0
sg9
I2
sg10
I2
sg11
I1010
ssg16
(dp35
g5
I1594
sg6
I40
sg7
I5
sg8
I14
sg9
I3
sg10
I0
sg11
I790
sss.(dp0
S'K_all3.csv'
p1
(dp2
S'machine'
p3
(dp4
S'count'
p5
I579
sS'truepos'
p6
I36
sS'falseneg'
p7
I3
sS'correction'
p8
I7
sS'unknownyes'
p9
I6
sS'falsepos'
p10
I2
sS'unique'
p11
I410
ssS'knee'
p12
(dp13
g5
I47
sg6
I6
sg7
I3
sg8
I2
sg9
I36
sg10
I1
sg11
I40
ssS'none'
p14
(dp15
g5
I430
sg6
I34
sg7
I4
sg8
I0
sg9
I7
sg10
I5
sg11
I430
ssS'three'
p16
(dp17
g5
I1082
sg6
I36
sg7
I4
sg8
I20
sg9
I5
sg10
I0
sg11
I530
sssS'Wahono.csv'
p18
(dp19
g3
(dp20
g5
I1983
sg6
I55
sg7
I4
sg8
I11
sg9
I3
sg10
I7
sg11
I1310
ssg12
(dp21
g5
I827
sg6
I46
sg7
I5
sg8
I7
sg9
I11
sg10
I0
sg11
I570
ssg14
(dp22
g5
I1720
sg6
I52
sg7
I9
sg8
I0
sg9
I1
sg10
I3
sg11
I1720
ssg16
(dp23
g5
I2817
sg6
I57
sg7
I4
sg8
I15
sg9
I1
sg10
I0
sg11
I1400
sssS'Hall.csv'
p24
(dp25
g3
(dp26
g5
I747
sg6
I97
sg7
I5
sg8
I16
sg9
I4
sg10
I0
sg11
I550
ssg12
(dp27
g5
I643
sg6
I95
sg7
I7
sg8
I21
sg9
I4
sg10
I0
sg11
I500
ssg14
(dp28
g5
I950
sg6
I75
sg7
I27
sg8
I0
sg9
I4
sg10
I0
sg11
I950
ssg16
(dp29
g5
I1303
sg6
I89
sg7
I13
sg8
I39
sg9
I4
sg10
I0
sg11
I630
sssS'Danijel.csv'
p30
(dp31
g3
(dp32
g5
I1220
sg6
I41
sg7
I5
sg8
I8
sg9
I2
sg10
I2
sg11
I750
ssg12
(dp33
g5
I1160
sg6
I37
sg7
I9
sg8
I7
sg9
I2
sg10
I0
sg11
I870
ssg14
(dp34
g5
I1250
sg6
I32
sg7
I14
sg8
I0
sg9
I2
sg10
I4
sg11
I1250
ssg16
(dp35
g5
I1636
sg6
I39
sg7
I7
sg8
I13
sg9
I2
sg10
I0
sg11
I810
sss.(dp0
S'K_all3.csv'
p1
(dp2
S'machine'
p3
(dp4
S'count'
p5
I602
sS'truepos'
p6
I36
sS'falseneg'
p7
I0
sS'correction'
p8
I8
sS'unknownyes'
p9
I9
sS'falsepos'
p10
I4
sS'unique'
p11
I380
ssS'knee'
p12
(dp13
g5
I1594
sg6
I39
sg7
I4
sg8
I13
sg9
I2
sg10
I7
sg11
I1110
ssS'none'
p14
(dp15
g5
I630
sg6
I28
sg7
I11
sg8
I0
sg9
I6
sg10
I0
sg11
I630
ssS'three'
p16
(dp17
g5
I971
sg6
I37
sg7
I2
sg8
I11
sg9
I6
sg10
I0
sg11
I480
sssS'Wahono.csv'
p18
(dp19
g3
(dp20
g5
I1794
sg6
I57
sg7
I2
sg8
I10
sg9
I3
sg10
I3
sg11
I1190
ssg12
(dp21
g5
I1226
sg6
I51
sg7
I8
sg8
I8
sg9
I3
sg10
I1
sg11
I900
ssg14
(dp22
g5
I1440
sg6
I50
sg7
I9
sg8
I0
sg9
I3
sg10
I3
sg11
I1440
ssg16
(dp23
g5
I2878
sg6
I52
sg7
I7
sg8
I17
sg9
I3
sg10
I0
sg11
I1430
sssS'Hall.csv'
p24
(dp25
g3
(dp26
g5
I906
sg6
I98
sg7
I4
sg8
I14
sg9
I4
sg10
I3
sg11
I680
ssg12
(dp27
g5
I685
sg6
I97
sg7
I4
sg8
I14
sg9
I5
sg10
I1
sg11
I500
ssg14
(dp28
g5
I650
sg6
I81
sg7
I21
sg8
I0
sg9
I4
sg10
I0
sg11
I650
ssg16
(dp29
g5
I1282
sg6
I89
sg7
I13
sg8
I35
sg9
I4
sg10
I0
sg11
I620
sssS'Danijel.csv'
p30
(dp31
g3
(dp32
g5
I1206
sg6
I43
sg7
I2
sg8
I7
sg9
I3
sg10
I1
sg11
I760
ssg12
(dp33
g5
I313
sg6
I33
sg7
I2
sg8
I1
sg9
I13
sg10
I1
sg11
I220
ssg14
(dp34
g5
I970
sg6
I35
sg7
I11
sg8
I0
sg9
I2
sg10
I2
sg11
I970
ssg16
(dp35
g5
I1581
sg6
I42
sg7
I3
sg8
I21
sg9
I3
sg10
I0
sg11
I780
sss.(dp0
S'K_all3.csv'
p1
(dp2
S'machine'
p3
(dp4
S'count'
p5
I634
sS'truepos'
p6
I35
sS'falseneg'
p7
I2
sS'correction'
p8
I8
sS'unknownyes'
p9
I8
sS'falsepos'
p10
I3
sS'unique'
p11
I420
ssS'knee'
p12
(dp13
g5
I207
sg6
I23
sg7
I2
sg8
I1
sg9
I20
sg10
I1
sg11
I130
ssS'none'
p14
(dp15
g5
I590
sg6
I30
sg7
I11
sg8
I0
sg9
I4
sg10
I6
sg11
I590
ssS'three'
p16
(dp17
g5
I1037
sg6
I34
sg7
I5
sg8
I15
sg9
I6
sg10
I0
sg11
I510
sssS'Wahono.csv'
p18
(dp19
g3
(dp20
g5
I1881
sg6
I58
sg7
I2
sg8
I9
sg9
I2
sg10
I4
sg11
I1250
ssg12
(dp21
g5
I117
sg6
I15
sg7
I2
sg8
I2
sg9
I45
sg10
I0
sg11
I80
ssg14
(dp22
g5
I1560
sg6
I47
sg7
I13
sg8
I0
sg9
I2
sg10
I4
sg11
I1560
ssg16
(dp23
g5
I2843
sg6
I51
sg7
I9
sg8
I21
sg9
I2
sg10
I0
sg11
I1410
sssS'Hall.csv'
p24
(dp25
g3
(dp26
g5
I780
sg6
I95
sg7
I7
sg8
I24
sg9
I4
sg10
I2
sg11
I570
ssg12
(dp27
g5
I717
sg6
I93
sg7
I8
sg8
I16
sg9
I5
sg10
I1
sg11
I500
ssg14
(dp28
g5
I740
sg6
I87
sg7
I15
sg8
I0
sg9
I4
sg10
I4
sg11
I740
ssg16
(dp29
g5
I1716
sg6
I92
sg7
I11
sg8
I33
sg9
I3
sg10
I0
sg11
I840
sssS'Danijel.csv'
p30
(dp31
g3
(dp32
g5
I1249
sg6
I45
sg7
I0
sg8
I2
sg9
I3
sg10
I1
sg11
I780
ssg12
(dp33
g5
I595
sg6
I34
sg7
I6
sg8
I3
sg9
I8
sg10
I0
sg11
I470
ssg14
(dp34
g5
I1080
sg6
I38
sg7
I8
sg8
I0
sg9
I2
sg10
I2
sg11
I1080
ssg16
(dp35
g5
I1723
sg6
I39
sg7
I7
sg8
I19
sg9
I2
sg10
I0
sg11
I850
sss.(dp0
S'K_all3.csv'
p1
(dp2
S'machine'
p3
(dp4
S'count'
p5
I722
sS'truepos'
p6
I34
sS'falseneg'
p7
I6
sS'correction'
p8
I4
sS'unknownyes'
p9
I5
sS'falsepos'
p10
I2
sS'unique'
p11
I500
ssS'knee'
p12
(dp13
g5
I1683
sg6
I41
sg7
I2
sg8
I7
sg9
I2
sg10
I3
sg11
I1190
ssS'none'
p14
(dp15
g5
I440
sg6
I33
sg7
I4
sg8
I0
sg9
I8
sg10
I1
sg11
I440
ssS'three'
p16
(dp17
g5
I934
sg6
I35
sg7
I3
sg8
I13
sg9
I7
sg10
I0
sg11
I460
sssS'Wahono.csv'
p18
(dp19
g3
(dp20
g5
I1739
sg6
I54
sg7
I5
sg8
I11
sg9
I3
sg10
I3
sg11
I1180
ssg12
(dp21
g5
I1184
sg6
I55
sg7
I4
sg8
I6
sg9
I3
sg10
I0
sg11
I920
ssg14
(dp22
g5
I1770
sg6
I42
sg7
I18
sg8
I0
sg9
I2
sg10
I4
sg11
I1770
ssg16
(dp23
g5
I2330
sg6
I57
sg7
I3
sg8
I29
sg9
I2
sg10
I0
sg11
I1150
sssS'Hall.csv'
p24
(dp25
g3
(dp26
g5
I755
sg6
I93
sg7
I9
sg8
I19
sg9
I4
sg10
I0
sg11
I550
ssg12
(dp27
g5
I567
sg6
I96
sg7
I5
sg8
I16
sg9
I5
sg10
I1
sg11
I380
ssg14
(dp28
g5
I660
sg6
I78
sg7
I24
sg8
I0
sg9
I4
sg10
I2
sg11
I660
ssg16
(dp29
g5
I1287
sg6
I93
sg7
I9
sg8
I44
sg9
I4
sg10
I0
sg11
I620
sssS'Danijel.csv'
p30
(dp31
g3
(dp32
g5
I1144
sg6
I39
sg7
I6
sg8
I7
sg9
I3
sg10
I1
sg11
I760
ssg12
(dp33
g5
I894
sg6
I40
sg7
I5
sg8
I7
sg9
I3
sg10
I1
sg11
I710
ssg14
(dp34
g5
I920
sg6
I40
sg7
I6
sg8
I0
sg9
I2
sg10
I2
sg11
I920
ssg16
(dp35
g5
I1569
sg6
I40
sg7
I6
sg8
I9
sg9
I2
sg10
I0
sg11
I780
sss.(dp0
S'K_all3.csv'
p1
(dp2
S'machine'
p3
(dp4
S'count'
p5
I701
sS'truepos'
p6
I35
sS'falseneg'
p7
I1
sS'correction'
p8
I3
sS'unknownyes'
p9
I9
sS'falsepos'
p10
I3
sS'unique'
p11
I420
ssS'knee'
p12
(dp13
g5
I37
sg6
I5
sg7
I0
sg8
I2
sg9
I40
sg10
I0
sg11
I30
ssS'none'
p14
(dp15
g5
I460
sg6
I34
sg7
I4
sg8
I0
sg9
I7
sg10
I2
sg11
I460
ssS'three'
p16
(dp17
g5
I973
sg6
I36
sg7
I3
sg8
I11
sg9
I6
sg10
I0
sg11
I480
sssS'Wahono.csv'
p18
(dp19
g3
(dp20
g5
I2272
sg6
I57
sg7
I2
sg8
I8
sg9
I3
sg10
I9
sg11
I1530
ssg12
(dp21
g5
I1140
sg6
I51
sg7
I7
sg8
I6
sg9
I4
sg10
I2
sg11
I860
ssg14
(dp22
g5
I1470
sg6
I43
sg7
I16
sg8
I0
sg9
I3
sg10
I4
sg11
I1470
ssg16
(dp23
g5
I2866
sg6
I56
sg7
I3
sg8
I25
sg9
I3
sg10
I0
sg11
I1420
sssS'Hall.csv'
p24
(dp25
g3
(dp26
g5
I663
sg6
I94
sg7
I8
sg8
I12
sg9
I4
sg10
I0
sg11
I480
ssg12
(dp27
g5
I728
sg6
I90
sg7
I12
sg8
I14
sg9
I4
sg10
I0
sg11
I500
ssg14
(dp28
g5
I630
sg6
I76
sg7
I26
sg8
I0
sg9
I4
sg10
I0
sg11
I630
ssg16
(dp29
g5
I1574
sg6
I94
sg7
I9
sg8
I31
sg9
I3
sg10
I0
sg11
I770
sssS'Danijel.csv'
p30
(dp31
g3
(dp32
g5
I1236
sg6
I42
sg7
I3
sg8
I5
sg9
I3
sg10
I1
sg11
I730
ssg12
(dp33
g5
I879
sg6
I42
sg7
I1
sg8
I9
sg9
I5
sg10
I2
sg11
I550
ssg14
(dp34
g5
I870
sg6
I36
sg7
I10
sg8
I0
sg9
I2
sg10
I4
sg11
I870
ssg16
(dp35
g5
I1439
sg6
I40
sg7
I5
sg8
I17
sg9
I3
sg10
I0
sg11
I710
sss.(dp0
S'K_all3.csv'
p1
(dp2
S'machine'
p3
(dp4
S'count'
p5
I756
sS'truepos'
p6
I35
sS'falseneg'
p7
I4
sS'correction'
p8
I8
sS'unknownyes'
p9
I6
sS'falsepos'
p10
I0
sS'unique'
p11
I490
ssS'knee'
p12
(dp13
g5
I1539
sg6
I40
sg7
I3
sg8
I7
sg9
I2
sg10
I10
sg11
I1080
ssS'none'
p14
(dp15
g5
I570
sg6
I26
sg7
I10
sg8
I0
sg9
I9
sg10
I4
sg11
I570
ssS'three'
p16
(dp17
g5
I1136
sg6
I36
sg7
I4
sg8
I14
sg9
I5
sg10
I0
sg11
I560
sssS'Wahono.csv'
p18
(dp19
g3
(dp20
g5
I1790
sg6
I56
sg7
I3
sg8
I4
sg9
I3
sg10
I3
sg11
I1210
ssg12
(dp21
g5
I24
sg6
I6
sg7
I0
sg8
I0
sg9
I56
sg10
I0
sg11
I20
ssg14
(dp22
g5
I1550
sg6
I54
sg7
I5
sg8
I0
sg9
I3
sg10
I2
sg11
I1550
ssg16
(dp23
g5
I2817
sg6
I53
sg7
I6
sg8
I17
sg9
I3
sg10
I0
sg11
I1400
sssS'Hall.csv'
p24
(dp25
g3
(dp26
g5
I858
sg6
I99
sg7
I3
sg8
I17
sg9
I4
sg10
I3
sg11
I620
ssg12
(dp27
g5
I742
sg6
I95
sg7
I7
sg8
I19
sg9
I4
sg10
I0
sg11
I520
ssg14
(dp28
g5
I900
sg6
I77
sg7
I25
sg8
I0
sg9
I4
sg10
I3
sg11
I900
ssg16
(dp29
g5
I1224
sg6
I92
sg7
I10
sg8
I40
sg9
I4
sg10
I0
sg11
I590
sssS'Danijel.csv'
p30
(dp31
g3
(dp32
g5
I1534
sg6
I42
sg7
I2
sg8
I9
sg9
I4
sg10
I4
sg11
I1000
ssg12
(dp33
g5
I680
sg6
I42
sg7
I2
sg8
I7
sg9
I4
sg10
I2
sg11
I450
ssg14
(dp34
g5
I830
sg6
I37
sg7
I9
sg8
I0
sg9
I2
sg10
I1
sg11
I830
ssg16
(dp35
g5
I1639
sg6
I40
sg7
I6
sg8
I17
sg9
I2
sg10
I0
sg11
I810
sss.(dp0
S'K_all3.csv'
p1
(dp2
S'machine'
p3
(dp4
S'count'
p5
I613
sS'truepos'
p6
I34
sS'falseneg'
p7
I2
sS'correction'
p8
I5
sS'unknownyes'
p9
I9
sS'falsepos'
p10
I4
sS'unique'
p11
I390
ssS'knee'
p12
(dp13
g5
I47
sg6
I5
sg7
I3
sg8
I0
sg9
I37
sg10
I0
sg11
I40
ssS'none'
p14
(dp15
g5
I460
sg6
I27
sg7
I8
sg8
I0
sg9
I10
sg10
I3
sg11
I460
ssS'three'
p16
(dp17
g5
I1244
sg6
I32
sg7
I9
sg8
I22
sg9
I4
sg10
I0
sg11
I610
sssS'Wahono.csv'
p18
(dp19
g3
(dp20
g5
I2020
sg6
I59
sg7
I1
sg8
I6
sg9
I2
sg10
I3
sg11
I1340
ssg12
(dp21
g5
I1244
sg6
I54
sg7
I6
sg8
I8
sg9
I2
sg10
I1
sg11
I950
ssg14
(dp22
g5
I1540
sg6
I46
sg7
I15
sg8
I0
sg9
I1
sg10
I0
sg11
I1540
ssg16
(dp23
g5
I2827
sg6
I54
sg7
I5
sg8
I27
sg9
I3
sg10
I0
sg11
I1400
sssS'Hall.csv'
p24
(dp25
g3
(dp26
g5
I616
sg6
I96
sg7
I5
sg8
I14
sg9
I5
sg10
I3
sg11
I430
ssg12
(dp27
g5
I608
sg6
I94
sg7
I8
sg8
I8
sg9
I4
sg10
I0
sg11
I440
ssg14
(dp28
g5
I850
sg6
I82
sg7
I20
sg8
I0
sg9
I4
sg10
I3
sg11
I850
ssg16
(dp29
g5
I999
sg6
I97
sg7
I5
sg8
I35
sg9
I4
sg10
I0
sg11
I480
sssS'Danijel.csv'
p30
(dp31
g3
(dp32
g5
I1218
sg6
I43
sg7
I2
sg8
I7
sg9
I3
sg10
I1
sg11
I780
ssg12
(dp33
g5
I917
sg6
I42
sg7
I2
sg8
I3
sg9
I4
sg10
I1
sg11
I630
ssg14
(dp34
g5
I1130
sg6
I37
sg7
I9
sg8
I0
sg9
I2
sg10
I1
sg11
I1130
ssg16
(dp35
g5
I1635
sg6
I42
sg7
I4
sg8
I14
sg9
I2
sg10
I0
sg11
I810
sss.(dp0
S'K_all3.csv'
p1
(dp2
S'machine'
p3
(dp4
S'count'
p5
I615
sS'truepos'
p6
I37
sS'falseneg'
p7
I3
sS'correction'
p8
I8
sS'unknownyes'
p9
I5
sS'falsepos'
p10
I3
sS'unique'
p11
I420
ssS'knee'
p12
(dp13
g5
I802
sg6
I34
sg7
I6
sg8
I4
sg9
I5
sg10
I1
sg11
I680
ssS'none'
p14
(dp15
g5
I550
sg6
I32
sg7
I6
sg8
I0
sg9
I7
sg10
I2
sg11
I550
ssS'three'
p16
(dp17
g5
I1103
sg6
I36
sg7
I3
sg8
I21
sg9
I6
sg10
I0
sg11
I540
sssS'Wahono.csv'
p18
(dp19
g3
(dp20
g5
I2290
sg6
I53
sg7
I7
sg8
I6
sg9
I2
sg10
I3
sg11
I1570
ssg12
(dp21
g5
I1006
sg6
I52
sg7
I2
sg8
I11
sg9
I8
sg10
I2
sg11
I700
ssg14
(dp22
g5
I1520
sg6
I45
sg7
I14
sg8
I0
sg9
I3
sg10
I5
sg11
I1520
ssg16
(dp23
g5
I2824
sg6
I51
sg7
I8
sg8
I21
sg9
I3
sg10
I0
sg11
I1400
sssS'Hall.csv'
p24
(dp25
g3
(dp26
g5
I783
sg6
I94
sg7
I8
sg8
I16
sg9
I4
sg10
I1
sg11
I570
ssg12
(dp27
g5
I24
sg6
I8
sg7
I0
sg8
I2
sg9
I98
sg10
I0
sg11
I20
ssg14
(dp28
g5
I610
sg6
I83
sg7
I19
sg8
I0
sg9
I4
sg10
I3
sg11
I610
ssg16
(dp29
g5
I1236
sg6
I93
sg7
I9
sg8
I32
sg9
I4
sg10
I0
sg11
I600
sssS'Danijel.csv'
p30
(dp31
g3
(dp32
g5
I1219
sg6
I44
sg7
I1
sg8
I3
sg9
I3
sg10
I3
sg11
I770
ssg12
(dp33
g5
I653
sg6
I36
sg7
I7
sg8
I7
sg9
I5
sg10
I1
sg11
I510
ssg14
(dp34
g5
I1420
sg6
I29
sg7
I17
sg8
I0
sg9
I2
sg10
I1
sg11
I1420
ssg16
(dp35
g5
I1539
sg6
I43
sg7
I2
sg8
I17
sg9
I3
sg10
I0
sg11
I760
sss.(dp0
S'K_all3.csv'
p1
(dp2
S'machine'
p3
(dp4
S'count'
p5
I705
sS'truepos'
p6
I30
sS'falseneg'
p7
I4
sS'correction'
p8
I2
sS'unknownyes'
p9
I11
sS'falsepos'
p10
I5
sS'unique'
p11
I460
ssS'knee'
p12
(dp13
g5
I1826
sg6
I41
sg7
I3
sg8
I10
sg9
I1
sg10
I6
sg11
I1350
ssS'none'
p14
(dp15
g5
I540
sg6
I32
sg7
I9
sg8
I0
sg9
I4
sg10
I2
sg11
I540
ssS'three'
p16
(dp17
g5
I931
sg6
I35
sg7
I3
sg8
I10
sg9
I7
sg10
I0
sg11
I460
sssS'Wahono.csv'
p18
(dp19
g3
(dp20
g5
I1471
sg6
I54
sg7
I4
sg8
I9
sg9
I4
sg10
I3
sg11
I950
ssg12
(dp21
g5
I772
sg6
I43
sg7
I2
sg8
I10
sg9
I17
sg10
I0
sg11
I550
ssg14
(dp22
g5
I1850
sg6
I46
sg7
I15
sg8
I0
sg9
I1
sg10
I2
sg11
I1850
ssg16
(dp23
g5
I2999
sg6
I54
sg7
I5
sg8
I16
sg9
I3
sg10
I0
sg11
I1490
sssS'Hall.csv'
p24
(dp25
g3
(dp26
g5
I714
sg6
I94
sg7
I7
sg8
I17
sg9
I5
sg10
I1
sg11
I500
ssg12
(dp27
g5
I720
sg6
I94
sg7
I8
sg8
I12
sg9
I4
sg10
I4
sg11
I520
ssg14
(dp28
g5
I940
sg6
I83
sg7
I19
sg8
I0
sg9
I4
sg10
I1
sg11
I940
ssg16
(dp29
g5
I1217
sg6
I91
sg7
I11
sg8
I34
sg9
I4
sg10
I0
sg11
I590
sssS'Danijel.csv'
p30
(dp31
g3
(dp32
g5
I1203
sg6
I43
sg7
I3
sg8
I6
sg9
I2
sg10
I0
sg11
I740
ssg12
(dp33
g5
I853
sg6
I39
sg7
I6
sg8
I5
sg9
I3
sg10
I0
sg11
I680
ssg14
(dp34
g5
I880
sg6
I39
sg7
I6
sg8
I0
sg9
I3
sg10
I1
sg11
I880
ssg16
(dp35
g5
I1541
sg6
I42
sg7
I4
sg8
I20
sg9
I2
sg10
I0
sg11
I760
sss.(dp0
S'K_all3.csv'
p1
(dp2
S'machine'
p3
(dp4
S'count'
p5
I691
sS'truepos'
p6
I38
sS'falseneg'
p7
I0
sS'correction'
p8
I5
sS'unknownyes'
p9
I7
sS'falsepos'
p10
I2
sS'unique'
p11
I430
ssS'knee'
p12
(dp13
g5
I1305
sg6
I35
sg7
I8
sg8
I8
sg9
I2
sg10
I2
sg11
I1050
ssS'none'
p14
(dp15
g5
I490
sg6
I34
sg7
I3
sg8
I0
sg9
I8
sg10
I2
sg11
I490
ssS'three'
p16
(dp17
g5
I860
sg6
I32
sg7
I1
sg8
I19
sg9
I12
sg10
I0
sg11
I420
sssS'Wahono.csv'
p18
(dp19
g3
(dp20
g5
I1847
sg6
I58
sg7
I1
sg8
I11
sg9
I3
sg10
I5
sg11
I1250
ssg12
(dp21
g5
I643
sg6
I46
sg7
I1
sg8
I6
sg9
I15
sg10
I1
sg11
I410
ssg14
(dp22
g5
I1800
sg6
I47
sg7
I14
sg8
I0
sg9
I1
sg10
I6
sg11
I1800
ssg16
(dp23
g5
I2865
sg6
I53
sg7
I6
sg8
I21
sg9
I3
sg10
I0
sg11
I1420
sssS'Hall.csv'
p24
(dp25
g3
(dp26
g5
I618
sg6
I99
sg7
I2
sg8
I15
sg9
I5
sg10
I1
sg11
I440
ssg12
(dp27
g5
I95
sg6
I18
sg7
I3
sg8
I1
sg9
I85
sg10
I0
sg11
I70
ssg14
(dp28
g5
I480
sg6
I82
sg7
I19
sg8
I0
sg9
I5
sg10
I0
sg11
I480
ssg16
(dp29
g5
I1252
sg6
I94
sg7
I8
sg8
I31
sg9
I4
sg10
I0
sg11
I610
sssS'Danijel.csv'
p30
(dp31
g3
(dp32
g5
I1208
sg6
I44
sg7
I1
sg8
I7
sg9
I3
sg10
I0
sg11
I770
ssg12
(dp33
g5
I812
sg6
I39
sg7
I2
sg8
I7
sg9
I7
sg10
I0
sg11
I520
ssg14
(dp34
g5
I1720
sg6
I32
sg7
I14
sg8
I0
sg9
I2
sg10
I4
sg11
I1720
ssg16
(dp35
g5
I1460
sg6
I42
sg7
I3
sg8
I20
sg9
I3
sg10
I0
sg11
I720
sss.(dp0
S'K_all3.csv'
p1
(dp2
S'machine'
p3
(dp4
S'count'
p5
I618
sS'truepos'
p6
I36
sS'falseneg'
p7
I2
sS'correction'
p8
I3
sS'unknownyes'
p9
I7
sS'falsepos'
p10
I2
sS'unique'
p11
I410
ssS'knee'
p12
(dp13
g5
I475
sg6
I30
sg7
I4
sg8
I4
sg9
I11
sg10
I1
sg11
I300
ssS'none'
p14
(dp15
g5
I490
sg6
I30
sg7
I8
sg8
I0
sg9
I7
sg10
I3
sg11
I490
ssS'three'
p16
(dp17
g5
I831
sg6
I38
sg7
I1
sg8
I10
sg9
I6
sg10
I0
sg11
I410
sssS'Wahono.csv'
p18
(dp19
g3
(dp20
g5
I1974
sg6
I57
sg7
I3
sg8
I10
sg9
I2
sg10
I6
sg11
I1390
ssg12
(dp21
g5
I541
sg6
I41
sg7
I5
sg8
I3
sg9
I16
sg10
I0
sg11
I430
ssg14
(dp22
g5
I1450
sg6
I54
sg7
I6
sg8
I0
sg9
I2
sg10
I0
sg11
I1450
ssg16
(dp23
g5
I2849
sg6
I55
sg7
I5
sg8
I28
sg9
I2
sg10
I0
sg11
I1410
sssS'Hall.csv'
p24
(dp25
g3
(dp26
g5
I673
sg6
I100
sg7
I2
sg8
I25
sg9
I4
sg10
I0
sg11
I470
ssg12
(dp27
g5
I515
sg6
I91
sg7
I8
sg8
I12
sg9
I7
sg10
I1
sg11
I330
ssg14
(dp28
g5
I560
sg6
I81
sg7
I21
sg8
I0
sg9
I4
sg10
I0
sg11
I560
ssg16
(dp29
g5
I1196
sg6
I95
sg7
I7
sg8
I33
sg9
I4
sg10
I0
sg11
I580
sssS'Danijel.csv'
p30
(dp31
g3
(dp32
g5
I1159
sg6
I41
sg7
I5
sg8
I10
sg9
I2
sg10
I0
sg11
I720
ssg12
(dp33
g5
I707
sg6
I39
sg7
I5
sg8
I7
sg9
I4
sg10
I1
sg11
I510
ssg14
(dp34
g5
I2090
sg6
I32
sg7
I16
sg8
I0
sg9
I0
sg10
I5
sg11
I2090
ssg16
(dp35
g5
I1857
sg6
I39
sg7
I6
sg8
I16
sg9
I3
sg10
I0
sg11
I920
sss.(dp0
S'K_all3.csv'
p1
(dp2
S'machine'
p3
(dp4
S'count'
p5
I719
sS'truepos'
p6
I34
sS'falseneg'
p7
I3
sS'correction'
p8
I2
sS'unknownyes'
p9
I8
sS'falsepos'
p10
I3
sS'unique'
p11
I480
ssS'knee'
p12
(dp13
g5
I1181
sg6
I38
sg7
I6
sg8
I9
sg9
I1
sg10
I2
sg11
I990
ssS'none'
p14
(dp15
g5
I620
sg6
I27
sg7
I12
sg8
I0
sg9
I6
sg10
I1
sg11
I620
ssS'three'
p16
(dp17
g5
I1142
sg6
I34
sg7
I5
sg8
I20
sg9
I6
sg10
I0
sg11
I560
sssS'Wahono.csv'
p18
(dp19
g3
(dp20
g5
I1775
sg6
I57
sg7
I2
sg8
I6
sg9
I3
sg10
I3
sg11
I1190
ssg12
(dp21
g5
I63
sg6
I9
sg7
I0
sg8
I0
sg9
I53
sg10
I0
sg11
I50
ssg14
(dp22
g5
I1520
sg6
I46
sg7
I13
sg8
I0
sg9
I3
sg10
I2
sg11
I1520
ssg16
(dp23
g5
I2685
sg6
I52
sg7
I7
sg8
I22
sg9
I3
sg10
I0
sg11
I1330
sssS'Hall.csv'
p24
(dp25
g3
(dp26
g5
I744
sg6
I98
sg7
I4
sg8
I13
sg9
I4
sg10
I2
sg11
I550
ssg12
(dp27
g5
I712
sg6
I92
sg7
I9
sg8
I15
sg9
I5
sg10
I0
sg11
I520
ssg14
(dp28
g5
I740
sg6
I84
sg7
I18
sg8
I0
sg9
I4
sg10
I4
sg11
I740
ssg16
(dp29
g5
I1060
sg6
I92
sg7
I10
sg8
I37
sg9
I4
sg10
I0
sg11
I510
sssS'Danijel.csv'
p30
(dp31
g3
(dp32
g5
I1261
sg6
I44
sg7
I1
sg8
I6
sg9
I3
sg10
I1
sg11
I760
ssg12
(dp33
g5
I644
sg6
I40
sg7
I3
sg8
I4
sg9
I5
sg10
I0
sg11
I470
ssg14
(dp34
g5
I1310
sg6
I32
sg7
I14
sg8
I0
sg9
I2
sg10
I1
sg11
I1310
ssg16
(dp35
g5
I1660
sg6
I42
sg7
I4
sg8
I19
sg9
I2
sg10
I0
sg11
I820
sss.(dp0
S'K_all3.csv'
p1
(dp2
S'machine'
p3
(dp4
S'count'
p5
I653
sS'truepos'
p6
I36
sS'falseneg'
p7
I2
sS'correction'
p8
I4
sS'unknownyes'
p9
I7
sS'falsepos'
p10
I2
sS'unique'
p11
I410
ssS'knee'
p12
(dp13
g5
I1101
sg6
I35
sg7
I8
sg8
I6
sg9
I2
sg10
I3
sg11
I840
ssS'none'
p14
(dp15
g5
I500
sg6
I30
sg7
I10
sg8
I0
sg9
I5
sg10
I1
sg11
I500
ssS'three'
p16
(dp17
g5
I1115
sg6
I33
sg7
I6
sg8
I13
sg9
I6
sg10
I0
sg11
I550
sssS'Wahono.csv'
p18
(dp19
g3
(dp20
g5
I1968
sg6
I59
sg7
I0
sg8
I7
sg9
I3
sg10
I4
sg11
I1310
ssg12
(dp21
g5
I1381
sg6
I54
sg7
I6
sg8
I11
sg9
I2
sg10
I0
sg11
I1040
ssg14
(dp22
g5
I1450
sg6
I49
sg7
I10
sg8
I0
sg9
I3
sg10
I1
sg11
I1450
ssg16
(dp23
g5
I2984
sg6
I55
sg7
I5
sg8
I24
sg9
I2
sg10
I0
sg11
I1480
sssS'Hall.csv'
p24
(dp25
g3
(dp26
g5
I705
sg6
I99
sg7
I3
sg8
I21
sg9
I4
sg10
I0
sg11
I510
ssg12
(dp27
g5
I668
sg6
I96
sg7
I5
sg8
I22
sg9
I5
sg10
I3
sg11
I460
ssg14
(dp28
g5
I900
sg6
I77
sg7
I26
sg8
I0
sg9
I3
sg10
I0
sg11
I900
ssg16
(dp29
g5
I1058
sg6
I91
sg7
I10
sg8
I36
sg9
I5
sg10
I0
sg11
I510
sssS'Danijel.csv'
p30
(dp31
g3
(dp32
g5
I1368
sg6
I45
sg7
I1
sg8
I10
sg9
I2
sg10
I2
sg11
I870
ssg12
(dp33
g5
I599
sg6
I36
sg7
I7
sg8
I4
sg9
I5
sg10
I1
sg11
I460
ssg14
(dp34
g5
I1250
sg6
I35
sg7
I12
sg8
I0
sg9
I1
sg10
I2
sg11
I1250
ssg16
(dp35
g5
I1619
sg6
I41
sg7
I5
sg8
I17
sg9
I2
sg10
I0
sg11
I800
sss.(dp0
S'K_all3.csv'
p1
(dp2
S'machine'
p3
(dp4
S'count'
p5
I739
sS'truepos'
p6
I35
sS'falseneg'
p7
I3
sS'correction'
p8
I6
sS'unknownyes'
p9
I7
sS'falsepos'
p10
I3
sS'unique'
p11
I480
ssS'knee'
p12
(dp13
g5
I1223
sg6
I39
sg7
I5
sg8
I6
sg9
I1
sg10
I3
sg11
I1040
ssS'none'
p14
(dp15
g5
I470
sg6
I32
sg7
I5
sg8
I0
sg9
I8
sg10
I3
sg11
I470
ssS'three'
p16
(dp17
g5
I1070
sg6
I33
sg7
I6
sg8
I9
sg9
I6
sg10
I0
sg11
I530
sssS'Wahono.csv'
p18
(dp19
g3
(dp20
g5
I2045
sg6
I59
sg7
I1
sg8
I12
sg9
I2
sg10
I8
sg11
I1360
ssg12
(dp21
g5
I619
sg6
I45
sg7
I3
sg8
I8
sg9
I14
sg10
I0
sg11
I410
ssg14
(dp22
g5
I1970
sg6
I50
sg7
I11
sg8
I0
sg9
I1
sg10
I3
sg11
I1970
ssg16
(dp23
g5
I2811
sg6
I53
sg7
I8
sg8
I27
sg9
I1
sg10
I0
sg11
I1390
sssS'Hall.csv'
p24
(dp25
g3
(dp26
g5
I679
sg6
I95
sg7
I7
sg8
I17
sg9
I4
sg10
I2
sg11
I500
ssg12
(dp27
g5
I645
sg6
I93
sg7
I9
sg8
I14
sg9
I4
sg10
I0
sg11
I480
ssg14
(dp28
g5
I760
sg6
I84
sg7
I18
sg8
I0
sg9
I4
sg10
I3
sg11
I760
ssg16
(dp29
g5
I1241
sg6
I90
sg7
I12
sg8
I35
sg9
I4
sg10
I0
sg11
I600
sssS'Danijel.csv'
p30
(dp31
g3
(dp32
g5
I1325
sg6
I41
sg7
I4
sg8
I9
sg9
I3
sg10
I2
sg11
I860
ssg12
(dp33
g5
I66
sg6
I5
sg7
I1
sg8
I1
sg9
I42
sg10
I0
sg11
I50
ssg14
(dp34
g5
I910
sg6
I37
sg7
I9
sg8
I0
sg9
I2
sg10
I2
sg11
I910
ssg16
(dp35
g5
I1596
sg6
I39
sg7
I6
sg8
I15
sg9
I3
sg10
I0
sg11
I790
sss.